

Microchip MPLAB XC8 Assembler V2.45 build 20230818022343 
                                                                                               Fri Feb  2 14:07:23 2024

Microchip MPLAB XC8 C Compiler v2.45 (Free license) build 20230818022343 Og1 
     1                           	processor	18F47Q10
     2                           	fnconf	rparam,??,?,0
     3                           	pagewidth 120
     4                           	opt	flic
     5                           	psect	idataCOMRAM,global,class=CODE,delta=1,noexec
     6                           	psect	nvCOMRAM,global,class=COMRAM,space=1,delta=1,lowdata,noexec
     7                           	psect	nvBANK0,global,class=BANK0,space=1,delta=1,lowdata,noexec
     8                           	psect	nvBANK1,global,class=BANK1,space=1,delta=1,lowdata,noexec
     9                           	psect	smallconst,global,reloc=2,class=SMALLCONST,delta=1,noexec
    10                           	psect	cinit,global,reloc=2,class=CODE,delta=1
    11                           	psect	bssCOMRAM,global,class=COMRAM,space=1,delta=1,lowdata,noexec
    12                           	psect	dataCOMRAM,global,class=COMRAM,space=1,delta=1,lowdata,noexec
    13                           	psect	bssBANK0,global,class=BANK0,space=1,delta=1,lowdata,noexec
    14                           	psect	bssBANK1,global,class=BANK1,space=1,delta=1,lowdata,noexec
    15                           	psect	cstackBANK1,global,class=BANK1,space=1,delta=1,lowdata,noexec
    16                           	psect	cstackBANK0,global,class=BANK0,space=1,delta=1,lowdata,noexec
    17                           	psect	cstackCOMRAM,global,class=COMRAM,space=1,delta=1,lowdata,noexec
    18                           	psect	text0,global,reloc=2,class=CODE,delta=1
    19                           	psect	text1,global,reloc=2,class=CODE,delta=1,group=3
    20                           	psect	text2,global,reloc=2,class=CODE,delta=1,group=1
    21                           	psect	text3,global,reloc=2,class=CODE,delta=1,group=1
    22                           	psect	text4,global,reloc=2,class=CODE,delta=1,group=1
    23                           	psect	text5,global,reloc=2,class=CODE,delta=1,group=3
    24                           	psect	text6,global,reloc=2,class=CODE,delta=1,group=3
    25                           	psect	text7,global,reloc=2,class=CODE,delta=1,group=3
    26                           	psect	text8,global,reloc=2,class=CODE,delta=1,group=3
    27                           	psect	text9,global,reloc=2,class=CODE,delta=1,group=3
    28                           	psect	text10,global,reloc=2,class=CODE,delta=1,group=2
    29                           	psect	text11,global,reloc=2,class=CODE,delta=1,group=2
    30                           	psect	text12,global,reloc=2,class=CODE,delta=1,group=2
    31                           	psect	text13,global,reloc=2,class=CODE,delta=1,group=2
    32                           	psect	text14,global,reloc=2,class=CODE,delta=1,group=2
    33                           	psect	text15,global,reloc=2,class=CODE,delta=1,group=2
    34                           	psect	text16,global,reloc=2,class=CODE,delta=1,group=2
    35                           	psect	text17,global,reloc=2,class=CODE,delta=1,group=2
    36                           	psect	text18,global,reloc=2,class=CODE,delta=1,group=1
    37                           	psect	text19,global,reloc=2,class=CODE,delta=1,group=1
    38                           	psect	text20,global,reloc=2,class=CODE,delta=1,group=3
    39                           	psect	text21,global,reloc=2,class=CODE,delta=1,group=3
    40                           	psect	text22,global,reloc=2,class=CODE,delta=1
    41                           	psect	text23,global,reloc=2,class=CODE,delta=1
    42                           	psect	text24,global,reloc=2,class=CODE,delta=1,group=3
    43                           	psect	text25,global,reloc=2,class=CODE,delta=1,group=2
    44                           	psect	text26,global,reloc=2,class=CODE,delta=1,group=2
    45                           	psect	text27,global,reloc=2,class=CODE,delta=1,group=2
    46                           	psect	text28,global,reloc=2,class=CODE,delta=1
    47                           	psect	text29,global,reloc=2,class=CODE,delta=1
    48                           	psect	text30,global,reloc=2,class=CODE,delta=1
    49                           	psect	text31,global,reloc=2,class=CODE,delta=1
    50                           	psect	text32,global,reloc=2,class=CODE,delta=1
    51                           	psect	text33,global,reloc=2,class=CODE,delta=1
    52                           	psect	text34,global,reloc=2,class=CODE,delta=1
    53                           	psect	text35,global,reloc=2,class=CODE,delta=1
    54                           	psect	text36,global,reloc=2,class=CODE,delta=1
    55                           	psect	text37,global,reloc=2,class=CODE,delta=1
    56                           	psect	text38,global,reloc=2,class=CODE,delta=1
    57                           	psect	text39,global,reloc=2,class=CODE,delta=1
    58                           	psect	text40,global,reloc=2,class=CODE,delta=1
    59                           	psect	text41,global,reloc=2,class=CODE,delta=1
    60                           	psect	text42,global,reloc=2,class=CODE,delta=1
    61                           	psect	intcode,global,reloc=2,class=CODE,delta=1
    62                           	psect	text44,global,reloc=2,class=CODE,delta=1
    63                           	psect	text45,global,reloc=2,class=CODE,delta=1
    64                           	psect	text46,global,reloc=2,class=CODE,delta=1
    65                           	psect	text47,global,reloc=2,class=CODE,delta=1
    66                           	psect	text48,global,reloc=2,class=CODE,delta=1
    67                           	psect	text49,global,reloc=2,class=CODE,delta=1
    68                           	psect	text50,global,reloc=2,class=CODE,delta=1
    69                           	psect	text51,global,reloc=2,class=CODE,delta=1
    70                           	psect	text52,global,reloc=2,class=CODE,delta=1
    71                           	psect	text53,global,reloc=2,class=CODE,delta=1
    72                           	psect	text54,global,reloc=2,class=CODE,delta=1
    73                           	psect	text55,global,reloc=2,class=CODE,delta=1
    74                           	psect	text56,global,reloc=2,class=CODE,delta=1
    75                           	psect	intsave_regs,global,class=BIGRAM,space=1,delta=1,noexec
    76                           	psect	text57,global,reloc=2,class=CODE,delta=1
    77                           	psect	rparam,global,class=COMRAM,space=1,delta=1,noexec
    78                           	psect	temp,global,ovrld,common,class=COMRAM,space=1,delta=1
    79                           	psect	config,global,abs,ovrld,class=CONFIG,space=4,delta=1,noexec
    80   000000                     
    81                           ; Generated 18/07/2023 GMT
    82                           ; 
    83                           ; Copyright © 2023, Microchip Technology Inc. and its subsidiaries ("Microchip")
    84                           ; All rights reserved.
    85                           ; 
    86                           ; This software is developed by Microchip Technology Inc. and its subsidiaries ("Microch
      +                          ip").
    87                           ; 
    88                           ; Redistribution and use in source and binary forms, with or without modification, are
    89                           ; permitted provided that the following conditions are met:
    90                           ; 
    91                           ;     1. Redistributions of source code must retain the above copyright notice, this lis
      +                          t of
    92                           ;        conditions and the following disclaimer.
    93                           ; 
    94                           ;     2. Redistributions in binary form must reproduce the above copyright notice, this 
      +                          list
    95                           ;        of conditions and the following disclaimer in the documentation and/or other
    96                           ;        materials provided with the distribution. Publication is not required when
    97                           ;        this file is used in an embedded application.
    98                           ; 
    99                           ;     3. Microchip's name may not be used to endorse or promote products derived from th
      +                          is
   100                           ;        software without specific prior written permission.
   101                           ; 
   102                           ; THIS SOFTWARE IS PROVIDED BY MICROCHIP "AS IS" AND ANY EXPRESS OR IMPLIED WARRANTIES,
   103                           ; INCLUDING, BUT NOT LIMITED TO, THE IMPLIED WARRANTIES OF MERCHANTABILITY AND FITNESS F
      +                          OR
   104                           ; PURPOSE ARE DISCLAIMED.  IN NO EVENT SHALL MICROCHIP BE LIABLE FOR ANY DIRECT, INDIREC
      +                          T,
   105                           ; INCIDENTAL, SPECIAL, EXEMPLARY, OR CONSEQUENTIAL DAMAGES (INCLUDING BUT NOT LIMITED TO
   106                           ; PROCUREMENT OF SUBSTITUTE GOODS OR SERVICES; LOSS OF USE, DATA OR PROFITS; OR BUSINESS
   107                           ; INTERRUPTION) HOWSOEVER CAUSED AND ON ANY THEORY OF LIABILITY, WHETHER IN CONTRACT, ST
      +                          RICT
   108                           ; LIABILITY, OR TORT (INCLUDING NEGLIGENCE OR OTHERWISE) ARISING IN ANY WAY OUT OF THE U
      +                          SE OF
   109                           ; THIS SOFTWARE, EVEN IF ADVISED OF THE POSSIBILITY OF SUCH DAMAGE.
   110                           ; 
   111                           ; 
   112                           ; Code-generator required, PIC18F47Q10 Definitions
   113                           ; 
   114                           ; SFR Addresses
   115   000000                     
   116 ;; Function _EUSART2_DefaultFramingErrorHandler is unused but had its address taken
   117   000000                     
   118 ;; Function _EUSART2_DefaultOverrunErrorHandler is unused but had its address taken
   119   000000                     
   120 ;; Function _EUSART2_DefaultErrorHandler is unused but had its address taken
   121   000000                     
   122                           	psect	idataCOMRAM
   123   004744                     __pidataCOMRAM:
   124                           	callstack 0
   125                           
   126                           ;initializer for main@F13534
   127   004744  73                 	db	115
   128   004745  0D                 	db	13
   129   004746  0A                 	db	10
   130   004747  00                 	db	0
   131                           
   132                           ;initializer for main@F13532
   133   004748  74                 	db	116
   134   004749  3A                 	db	58
   135   00474A  20                 	db	32
   136   00474B  00                 	db	0
   137   000000                     _IOCAPbits	set	3847
   138   000000                     _IOCANbits	set	3846
   139   000000                     _INLVLD	set	3869
   140   000000                     _SLRCOND	set	3870
   141   000000                     _ODCOND	set	3871
   142   000000                     _WPUD	set	3872
   143   000000                     _TRISD	set	3978
   144   000000                     _TRISC	set	3977
   145   000000                     _TRISB	set	3976
   146   000000                     _TRISA	set	3975
   147   000000                     _TRISE	set	3979
   148   000000                     _LATC	set	3972
   149   000000                     _LATB	set	3971
   150   000000                     _TX2REG	set	3733
   151   000000                     _SP2BRGH	set	3735
   152   000000                     _TX2STA	set	3737
   153   000000                     _T2CON	set	4028
   154   000000                     _OSCTUNE	set	3800
   155   000000                     _OSCFRQ	set	3801
   156                           
   157                           	psect	nvCOMRAM
   158   00004A                     __pnvCOMRAM:
   159                           	callstack 0
   160   00004A                     _t:
   161                           	callstack 0
   162   00004A                     	ds	4
   163   00004E                     _IOCAF1_InterruptHandler:
   164                           	callstack 0
   165   00004E                     	ds	3
   166   000051                     _IOCAF0_InterruptHandler:
   167                           	callstack 0
   168   000051                     	ds	3
   169   000054                     _EUSART2_FramingErrorHandler:
   170                           	callstack 0
   171   000054                     	ds	3
   172                           
   173                           	psect	nvBANK0
   174   0000F6                     __pnvBANK0:
   175                           	callstack 0
   176   0000F6                     _TMR2_InterruptHandler:
   177                           	callstack 0
   178   0000F6                     	ds	3
   179                           
   180                           	psect	nvBANK1
   181   000158                     __pnvBANK1:
   182                           	callstack 0
   183   000158                     _EUSART2_ErrorHandler:
   184                           	callstack 0
   185   000158                     	ds	3
   186   00015B                     _EUSART2_OverrunErrorHandler:
   187                           	callstack 0
   188   00015B                     	ds	3
   189   000000                     _RC2STAbits	set	3736
   190   000000                     _TX2STAbits	set	3737
   191   000000                     _LATCbits	set	3972
   192   000000                     _LATEbits	set	3974
   193   000000                     _PR2	set	4027
   194   000000                     _TMR2	set	4026
   195   000000                     _T2CONbits	set	4028
   196   000000                     _T2RSTbits	set	4031
   197   000000                     _T2HLTbits	set	4029
   198   000000                     _RX2PPS	set	3720
   199   000000                     _RC2REG	set	3732
   200   000000                     _SP2BRGL	set	3734
   201   000000                     _RC2STA	set	3736
   202   000000                     _BAUD2CON	set	3738
   203   000000                     _PIE4bits	set	3777
   204   000000                     _PIR4bits	set	3785
   205   000000                     _OSCCON1	set	3795
   206   000000                     _OSCCON3	set	3797
   207   000000                     _OSCEN	set	3799
   208   000000                     _PMD0	set	3804
   209   000000                     _RB6PPS	set	3824
   210   000000                     _IOCAFbits	set	3845
   211   000000                     _INLVLA	set	3848
   212   000000                     _SLRCONA	set	3849
   213   000000                     _ODCONA	set	3850
   214   000000                     _WPUA	set	3851
   215   000000                     _ANSELA	set	3852
   216   000000                     _ANSELB	set	3860
   217   000000                     _ANSELC	set	3868
   218   000000                     _ANSELD	set	3873
   219   000000                     _LATA	set	3970
   220   000000                     _LATD	set	3973
   221   000000                     _LATE	set	3974
   222   000000                     _T2TMR	set	4026
   223   000000                     _T2PR	set	4027
   224   000000                     _T2HLT	set	4029
   225   000000                     _T2CLKCON	set	4030
   226   000000                     _PMD5	set	3809
   227   000000                     _PMD4	set	3808
   228   000000                     _PMD3	set	3807
   229   000000                     _PMD2	set	3806
   230   000000                     _PMD1	set	3805
   231   000000                     _INTCONbits	set	4082
   232   000000                     _T2RST	set	4031
   233   000000                     _PIR0bits	set	3781
   234   000000                     _PIR3bits	set	3784
   235   000000                     _PIE0bits	set	3773
   236   000000                     _PORTAbits	set	3980
   237   000000                     _INLVLE	set	3877
   238   000000                     _SLRCONE	set	3878
   239   000000                     _ODCONE	set	3879
   240   000000                     _WPUE	set	3880
   241   000000                     _ANSELE	set	3881
   242   000000                     _INLVLC	set	3864
   243   000000                     _SLRCONC	set	3865
   244   000000                     _ODCONC	set	3866
   245   000000                     _WPUC	set	3867
   246   000000                     _INLVLB	set	3856
   247   000000                     _SLRCONB	set	3857
   248   000000                     _ODCONB	set	3858
   249   000000                     _WPUB	set	3859
   250   000000                     _RD0PPS	set	3834
   251                           
   252                           	psect	smallconst
   253   000F00                     __psmallconst:
   254                           	callstack 0
   255   000F00  00                 	db	0
   256   000F01                     STR_2:
   257   000F01  64                 	db	100	;'d'
   258   000F02  63                 	db	99	;'c'
   259   000F03  3A                 	db	58	;':'
   260   000F04  20                 	db	32
   261   000F05  25                 	db	37
   262   000F06  64                 	db	100	;'d'
   263   000F07  25                 	db	37
   264   000F08  20                 	db	32
   265   000F09  20                 	db	32
   266   000F0A  20                 	db	32
   267   000F0B  20                 	db	32
   268   000F0C  20                 	db	32
   269   000F0D  74                 	db	116	;'t'
   270   000F0E  69                 	db	105	;'i'
   271   000F0F  6D                 	db	109	;'m'
   272   000F10  65                 	db	101	;'e'
   273   000F11  20                 	db	32
   274   000F12  73                 	db	115	;'s'
   275   000F13  74                 	db	116	;'t'
   276   000F14  61                 	db	97	;'a'
   277   000F15  6D                 	db	109	;'m'
   278   000F16  70                 	db	112	;'p'
   279   000F17  3A                 	db	58	;':'
   280   000F18  20                 	db	32
   281   000F19  25                 	db	37
   282   000F1A  66                 	db	102	;'f'
   283   000F1B  20                 	db	32
   284   000F1C  73                 	db	115	;'s'
   285   000F1D  0D                 	db	13
   286   000F1E  0A                 	db	10
   287   000F1F  00                 	db	0
   288   000F20                     STR_3:
   289   000F20  64                 	db	100	;'d'
   290   000F21  63                 	db	99	;'c'
   291   000F22  3A                 	db	58	;':'
   292   000F23  20                 	db	32
   293   000F24  25                 	db	37
   294   000F25  64                 	db	100	;'d'
   295   000F26  25                 	db	37
   296   000F27  0D                 	db	13
   297   000F28  0A                 	db	10
   298   000F29  00                 	db	0
   299   000F2A                     STR_1:
   300   000F2A  74                 	db	116	;'t'
   301   000F2B  3A                 	db	58	;':'
   302   000F2C  20                 	db	32
   303   000F2D  25                 	db	37
   304   000F2E  66                 	db	102	;'f'
   305   000F2F  20                 	db	32
   306   000F30  73                 	db	115	;'s'
   307   000F31  0D                 	db	13
   308   000F32  0A                 	db	10
   309   000F33  00                 	db	0
   310   000F34                     STR_4:
   311   000F34  69                 	db	105	;'i'
   312   000F35  6E                 	db	110	;'n'
   313   000F36  66                 	db	102	;'f'
   314   000F37  00                 	db	0
   315   000F38                     STR_7:
   316   000F38  6E                 	db	110	;'n'
   317   000F39  61                 	db	97	;'a'
   318   000F3A  6E                 	db	110	;'n'
   319   000F3B  00                 	db	0
   320   000F3C  00                 	db	0	; dummy byte at the end
   321   000000                     
   322                           ; #config settings
   323                           
   324                           	psect	cinit
   325   00435C                     __pcinit:
   326                           	callstack 0
   327   00435C                     start_initialization:
   328                           	callstack 0
   329   00435C                     __initialization:
   330                           	callstack 0
   331                           
   332                           ; Initialize objects allocated to COMRAM (8 bytes)
   333                           ; load TBLPTR registers with __pidataCOMRAM
   334   00435C  0E44               	movlw	low __pidataCOMRAM
   335   00435E  6EF6               	movwf	tblptrl,c
   336   004360  0E47               	movlw	high __pidataCOMRAM
   337   004362  6EF7               	movwf	tblptrh,c
   338   004364  0E00               	movlw	low (__pidataCOMRAM shr (0+16))
   339   004366  6EF8               	movwf	tblptru,c
   340   004368  EE00  F057         	lfsr	0,__pdataCOMRAM
   341   00436C  EE10 F008          	lfsr	1,8
   342   004370                     copy_data0:
   343   004370  0009               	tblrd		*+
   344   004372  CFF5 FFEE          	movff	tablat,postinc0
   345   004376  50E5               	movf	postdec1,w,c
   346   004378  50E1               	movf	fsr1l,w,c
   347   00437A  E1FA               	bnz	copy_data0
   348                           
   349                           ; Clear objects allocated to BANK1 (80 bytes)
   350   00437C  EE01  F000         	lfsr	0,__pbssBANK1
   351   004380  0E50               	movlw	80
   352   004382                     clear_0:
   353   004382  6AEE               	clrf	postinc0,c
   354   004384  06E8               	decf	wreg,f,c
   355   004386  E1FD               	bnz	clear_0
   356                           
   357                           ; Clear objects allocated to BANK0 (8 bytes)
   358   004388  EE00  F0EE         	lfsr	0,__pbssBANK0
   359   00438C  0E08               	movlw	8
   360   00438E                     clear_1:
   361   00438E  6AEE               	clrf	postinc0,c
   362   004390  06E8               	decf	wreg,f,c
   363   004392  E1FD               	bnz	clear_1
   364                           
   365                           ; Clear objects allocated to COMRAM (16 bytes)
   366   004394  EE00  F03A         	lfsr	0,__pbssCOMRAM
   367   004398  0E10               	movlw	16
   368   00439A                     clear_2:
   369   00439A  6AEE               	clrf	postinc0,c
   370   00439C  06E8               	decf	wreg,f,c
   371   00439E  E1FD               	bnz	clear_2
   372   0043A0                     end_of_initialization:
   373                           	callstack 0
   374   0043A0                     __end_of__initialization:
   375                           	callstack 0
   376   0043A0  905F               	bcf	int$flags,0,c	;clear compiler interrupt flag (level 1)
   377   0043A2  925F               	bcf	int$flags,1,c	;clear compiler interrupt flag (level 2)
   378   0043A4  0100               	movlb	0
   379   0043A6  EF9B  F01B         	goto	_main	;jump to C main() function
   380                           
   381                           	psect	bssCOMRAM
   382   00003A                     __pbssCOMRAM:
   383                           	callstack 0
   384   00003A                     floorf@F521:
   385                           	callstack 0
   386   00003A                     	ds	4
   387   00003E                     ___fpclassifyf@F465:
   388                           	callstack 0
   389   00003E                     	ds	4
   390   000042                     _t_b:
   391                           	callstack 0
   392   000042                     	ds	4
   393   000046                     _t_s:
   394                           	callstack 0
   395   000046                     	ds	2
   396   000048                     _t_ms:
   397                           	callstack 0
   398   000048                     	ds	2
   399                           
   400                           	psect	dataCOMRAM
   401   000057                     __pdataCOMRAM:
   402                           	callstack 0
   403   000057                     main@F13534:
   404                           	callstack 0
   405   000057                     	ds	4
   406   00005B                     main@F13532:
   407                           	callstack 0
   408   00005B                     	ds	4
   409                           
   410                           	psect	bssBANK0
   411   0000EE                     __pbssBANK0:
   412                           	callstack 0
   413   0000EE                     _width:
   414                           	callstack 0
   415   0000EE                     	ds	2
   416   0000F0                     _prec:
   417                           	callstack 0
   418   0000F0                     	ds	2
   419   0000F2                     _dc:
   420                           	callstack 0
   421   0000F2                     	ds	2
   422   0000F4                     _flags:
   423                           	callstack 0
   424   0000F4                     	ds	1
   425   0000F5                     _eusart2RxLastError:
   426                           	callstack 0
   427   0000F5                     	ds	1
   428                           
   429                           	psect	bssBANK1
   430   000100                     __pbssBANK1:
   431                           	callstack 0
   432   000100                     _dbuf:
   433                           	callstack 0
   434   000100                     	ds	80
   435                           
   436                           	psect	cstackBANK1
   437   000150                     __pcstackBANK1:
   438                           	callstack 0
   439   000150                     main@time_start_msg:
   440                           	callstack 0
   441                           
   442                           ; 4 bytes @ 0x0
   443   000150                     	ds	4
   444   000154                     main@time_end_msg:
   445                           	callstack 0
   446                           
   447                           ; 4 bytes @ 0x4
   448   000154                     	ds	4
   449                           
   450                           	psect	cstackBANK0
   451   000060                     __pcstackBANK0:
   452                           	callstack 0
   453   000060                     ?___fpclassifyf:
   454                           	callstack 0
   455   000060                     ?___awdiv:
   456                           	callstack 0
   457   000060                     ?___awmod:
   458                           	callstack 0
   459   000060                     ?___flmul:
   460                           	callstack 0
   461   000060                     ?_labs:
   462                           	callstack 0
   463   000060                     ?___flneg:
   464                           	callstack 0
   465   000060                     ?___fltol:
   466                           	callstack 0
   467   000060                     ?___xxtofl:
   468                           	callstack 0
   469   000060                     EUSART2_Write@txData:
   470                           	callstack 0
   471   000060                     ___awdiv@dividend:
   472                           	callstack 0
   473   000060                     ___awmod@dividend:
   474                           	callstack 0
   475   000060                     memcpy@d1:
   476                           	callstack 0
   477   000060                     strcpy@dest:
   478                           	callstack 0
   479   000060                     TMR2_SetInterruptHandler@InterruptHandler:
   480                           	callstack 0
   481   000060                     EUSART2_SetFramingErrorHandler@interruptHandler:
   482                           	callstack 0
   483   000060                     EUSART2_SetOverrunErrorHandler@interruptHandler:
   484                           	callstack 0
   485   000060                     EUSART2_SetErrorHandler@interruptHandler:
   486                           	callstack 0
   487   000060                     IOCAF0_SetInterruptHandler@InterruptHandler:
   488                           	callstack 0
   489   000060                     IOCAF1_SetInterruptHandler@InterruptHandler:
   490                           	callstack 0
   491   000060                     ___fleq@ff1:
   492                           	callstack 0
   493   000060                     ___flneg@f1:
   494                           	callstack 0
   495   000060                     ___fltol@f1:
   496                           	callstack 0
   497   000060                     ___flmul@b:
   498                           	callstack 0
   499   000060                     ___xxtofl@val:
   500                           	callstack 0
   501   000060                     ___fpclassifyf@x:
   502                           	callstack 0
   503   000060                     labs@a:
   504                           	callstack 0
   505                           
   506                           ; 4 bytes @ 0x0
   507   000060                     	ds	1
   508   000061                     putch@txData:
   509                           	callstack 0
   510                           
   511                           ; 1 bytes @ 0x1
   512   000061                     	ds	1
   513   000062                     strcpy@src:
   514                           	callstack 0
   515   000062                     ___awdiv@divisor:
   516                           	callstack 0
   517   000062                     ___awmod@divisor:
   518                           	callstack 0
   519   000062                     memcpy@s1:
   520                           	callstack 0
   521   000062                     fputc@c:
   522                           	callstack 0
   523                           
   524                           ; 2 bytes @ 0x2
   525   000062                     	ds	1
   526   000063                     ??_strcpy:
   527   000063                     
   528                           ; 1 bytes @ 0x3
   529   000063                     	ds	1
   530   000064                     ??___fpclassifyf:
   531   000064                     ??_labs:
   532   000064                     ??___fltol:
   533   000064                     ??___xxtofl:
   534   000064                     ___awdiv@counter:
   535                           	callstack 0
   536   000064                     ___awmod@counter:
   537                           	callstack 0
   538   000064                     memcpy@n:
   539                           	callstack 0
   540   000064                     fputc@fp:
   541                           	callstack 0
   542   000064                     strcpy@d:
   543                           	callstack 0
   544   000064                     ___fleq@ff2:
   545                           	callstack 0
   546   000064                     ___flmul@a:
   547                           	callstack 0
   548                           
   549                           ; 4 bytes @ 0x4
   550   000064                     	ds	1
   551   000065                     ___awdiv@sign:
   552                           	callstack 0
   553   000065                     ___awmod@sign:
   554                           	callstack 0
   555                           
   556                           ; 1 bytes @ 0x5
   557   000065                     	ds	1
   558   000066                     ??_fputc:
   559   000066                     ?_abs:
   560                           	callstack 0
   561   000066                     memcpy@tmp:
   562                           	callstack 0
   563   000066                     ___awdiv@quotient:
   564                           	callstack 0
   565   000066                     abs@a:
   566                           	callstack 0
   567                           
   568                           ; 2 bytes @ 0x6
   569   000066                     	ds	1
   570   000067                     memcpy@d:
   571                           	callstack 0
   572                           
   573                           ; 2 bytes @ 0x7
   574   000067                     	ds	1
   575   000068                     ??___flmul:
   576   000068                     ??_abs:
   577   000068                     ??___fleq:
   578   000068                     ___fltol@sign1:
   579                           	callstack 0
   580   000068                     ___xxtofl@sign:
   581                           	callstack 0
   582   000068                     ___fpclassifyf@e:
   583                           	callstack 0
   584                           
   585                           ; 2 bytes @ 0x8
   586   000068                     	ds	1
   587   000069                     ___fltol@exp1:
   588                           	callstack 0
   589   000069                     ___xxtofl@exp:
   590                           	callstack 0
   591   000069                     memcpy@s:
   592                           	callstack 0
   593                           
   594                           ; 2 bytes @ 0x9
   595   000069                     	ds	1
   596   00006A                     ___xxtofl@arg:
   597                           	callstack 0
   598   00006A                     ___fpclassifyf@u:
   599                           	callstack 0
   600                           
   601                           ; 4 bytes @ 0xA
   602   00006A                     	ds	1
   603   00006B                     fputs@s:
   604                           	callstack 0
   605                           
   606                           ; 2 bytes @ 0xB
   607   00006B                     	ds	1
   608   00006C                     ___flmul@sign:
   609                           	callstack 0
   610                           
   611                           ; 1 bytes @ 0xC
   612   00006C                     	ds	1
   613   00006D                     ___flmul@aexp:
   614                           	callstack 0
   615   00006D                     fputs@fp:
   616                           	callstack 0
   617                           
   618                           ; 2 bytes @ 0xD
   619   00006D                     	ds	1
   620   00006E                     ?___fldiv:
   621                           	callstack 0
   622   00006E                     ___fldiv@b:
   623                           	callstack 0
   624   00006E                     ___flmul@grs:
   625                           	callstack 0
   626                           
   627                           ; 4 bytes @ 0xE
   628   00006E                     	ds	1
   629   00006F                     fputs@c:
   630                           	callstack 0
   631                           
   632                           ; 1 bytes @ 0xF
   633   00006F                     	ds	1
   634   000070                     fputs@i:
   635                           	callstack 0
   636                           
   637                           ; 2 bytes @ 0x10
   638   000070                     	ds	2
   639   000072                     ___flmul@bexp:
   640                           	callstack 0
   641   000072                     pad@fp:
   642                           	callstack 0
   643   000072                     ___fldiv@a:
   644                           	callstack 0
   645                           
   646                           ; 4 bytes @ 0x12
   647   000072                     	ds	1
   648   000073                     ___flmul@prod:
   649                           	callstack 0
   650                           
   651                           ; 4 bytes @ 0x13
   652   000073                     	ds	1
   653   000074                     pad@buf:
   654                           	callstack 0
   655                           
   656                           ; 2 bytes @ 0x14
   657   000074                     	ds	2
   658   000076                     ??___fldiv:
   659   000076                     pad@p:
   660                           	callstack 0
   661                           
   662                           ; 2 bytes @ 0x16
   663   000076                     	ds	1
   664   000077                     ___flmul@temp:
   665                           	callstack 0
   666                           
   667                           ; 2 bytes @ 0x17
   668   000077                     	ds	1
   669   000078                     ??_pad:
   670                           
   671                           ; 1 bytes @ 0x18
   672   000078                     	ds	1
   673   000079                     pad@i:
   674                           	callstack 0
   675   000079                     ___flge@ff1:
   676                           	callstack 0
   677                           
   678                           ; 4 bytes @ 0x19
   679   000079                     	ds	1
   680   00007A                     ___fldiv@rem:
   681                           	callstack 0
   682                           
   683                           ; 4 bytes @ 0x1A
   684   00007A                     	ds	1
   685   00007B                     dtoa@fp:
   686                           	callstack 0
   687                           
   688                           ; 2 bytes @ 0x1B
   689   00007B                     	ds	2
   690   00007D                     dtoa@d:
   691                           	callstack 0
   692   00007D                     ___flge@ff2:
   693                           	callstack 0
   694                           
   695                           ; 4 bytes @ 0x1D
   696   00007D                     	ds	1
   697   00007E                     ___fldiv@sign:
   698                           	callstack 0
   699                           
   700                           ; 1 bytes @ 0x1E
   701   00007E                     	ds	1
   702   00007F                     ___fldiv@new_exp:
   703                           	callstack 0
   704   00007F                     _dtoa$1507:
   705                           	callstack 0
   706                           
   707                           ; 2 bytes @ 0x1F
   708   00007F                     	ds	2
   709   000081                     ??___flge:
   710   000081                     dtoa@p:
   711                           	callstack 0
   712   000081                     ___fldiv@grs:
   713                           	callstack 0
   714                           
   715                           ; 4 bytes @ 0x21
   716   000081                     	ds	1
   717   000082                     dtoa@w:
   718                           	callstack 0
   719                           
   720                           ; 2 bytes @ 0x22
   721   000082                     	ds	2
   722   000084                     dtoa@s:
   723                           	callstack 0
   724                           
   725                           ; 1 bytes @ 0x24
   726   000084                     	ds	1
   727   000085                     ___fldiv@bexp:
   728                           	callstack 0
   729   000085                     dtoa@i:
   730                           	callstack 0
   731                           
   732                           ; 2 bytes @ 0x25
   733   000085                     	ds	1
   734   000086                     ___fldiv@aexp:
   735                           	callstack 0
   736                           
   737                           ; 1 bytes @ 0x26
   738   000086                     	ds	1
   739   000087                     ?___fladd:
   740                           	callstack 0
   741   000087                     ?_floorf:
   742                           	callstack 0
   743   000087                     ___fladd@b:
   744                           	callstack 0
   745   000087                     floorf@x:
   746                           	callstack 0
   747                           
   748                           ; 4 bytes @ 0x27
   749   000087                     	ds	4
   750   00008B                     ??_floorf:
   751   00008B                     ___fladd@a:
   752                           	callstack 0
   753                           
   754                           ; 4 bytes @ 0x2B
   755   00008B                     	ds	4
   756   00008F                     ??___fladd:
   757                           
   758                           ; 1 bytes @ 0x2F
   759   00008F                     	ds	2
   760   000091                     floorf@m:
   761                           	callstack 0
   762                           
   763                           ; 4 bytes @ 0x31
   764   000091                     	ds	2
   765   000093                     ___fladd@signs:
   766                           	callstack 0
   767                           
   768                           ; 1 bytes @ 0x33
   769   000093                     	ds	1
   770   000094                     ___fladd@aexp:
   771                           	callstack 0
   772                           
   773                           ; 1 bytes @ 0x34
   774   000094                     	ds	1
   775   000095                     ___fladd@bexp:
   776                           	callstack 0
   777   000095                     floorf@e:
   778                           	callstack 0
   779                           
   780                           ; 2 bytes @ 0x35
   781   000095                     	ds	1
   782   000096                     ___fladd@grs:
   783                           	callstack 0
   784                           
   785                           ; 1 bytes @ 0x36
   786   000096                     	ds	1
   787   000097                     ?___flsub:
   788                           	callstack 0
   789   000097                     ___flsub@b:
   790                           	callstack 0
   791   000097                     floorf@u:
   792                           	callstack 0
   793                           
   794                           ; 4 bytes @ 0x37
   795   000097                     	ds	4
   796   00009B                     ___flsub@a:
   797                           	callstack 0
   798                           
   799                           ; 4 bytes @ 0x3B
   800   00009B                     	ds	4
   801   00009F                     efgtoa@fp:
   802                           	callstack 0
   803                           
   804                           ; 2 bytes @ 0x3F
   805   00009F                     	ds	2
   806   0000A1                     efgtoa@f:
   807                           	callstack 0
   808                           
   809                           ; 4 bytes @ 0x41
   810   0000A1                     	ds	4
   811   0000A5                     efgtoa@c:
   812                           	callstack 0
   813                           
   814                           ; 1 bytes @ 0x45
   815   0000A5                     	ds	1
   816   0000A6                     ??_efgtoa:
   817                           
   818                           ; 1 bytes @ 0x46
   819   0000A6                     	ds	2
   820   0000A8                     efgtoa@ne:
   821                           	callstack 0
   822                           
   823                           ; 2 bytes @ 0x48
   824   0000A8                     	ds	2
   825   0000AA                     efgtoa@p:
   826                           	callstack 0
   827                           
   828                           ; 2 bytes @ 0x4A
   829   0000AA                     	ds	2
   830   0000AC                     efgtoa@t:
   831                           	callstack 0
   832                           
   833                           ; 2 bytes @ 0x4C
   834   0000AC                     	ds	2
   835   0000AE                     _efgtoa$1538:
   836                           	callstack 0
   837                           
   838                           ; 2 bytes @ 0x4E
   839   0000AE                     	ds	2
   840   0000B0                     efgtoa@pp:
   841                           	callstack 0
   842                           
   843                           ; 1 bytes @ 0x50
   844   0000B0                     	ds	1
   845   0000B1                     efgtoa@mode:
   846                           	callstack 0
   847                           
   848                           ; 1 bytes @ 0x51
   849   0000B1                     	ds	1
   850   0000B2                     efgtoa@nmode:
   851                           	callstack 0
   852                           
   853                           ; 1 bytes @ 0x52
   854   0000B2                     	ds	1
   855   0000B3                     efgtoa@d:
   856                           	callstack 0
   857                           
   858                           ; 2 bytes @ 0x53
   859   0000B3                     	ds	2
   860   0000B5                     efgtoa@m:
   861                           	callstack 0
   862                           
   863                           ; 2 bytes @ 0x55
   864   0000B5                     	ds	2
   865   0000B7                     efgtoa@e:
   866                           	callstack 0
   867                           
   868                           ; 2 bytes @ 0x57
   869   0000B7                     	ds	2
   870   0000B9                     efgtoa@w:
   871                           	callstack 0
   872                           
   873                           ; 2 bytes @ 0x59
   874   0000B9                     	ds	2
   875   0000BB                     efgtoa@ou:
   876                           	callstack 0
   877                           
   878                           ; 4 bytes @ 0x5B
   879   0000BB                     	ds	4
   880   0000BF                     efgtoa@i:
   881                           	callstack 0
   882                           
   883                           ; 2 bytes @ 0x5F
   884   0000BF                     	ds	2
   885   0000C1                     efgtoa@h:
   886                           	callstack 0
   887                           
   888                           ; 4 bytes @ 0x61
   889   0000C1                     	ds	4
   890   0000C5                     efgtoa@l:
   891                           	callstack 0
   892                           
   893                           ; 4 bytes @ 0x65
   894   0000C5                     	ds	4
   895   0000C9                     efgtoa@sign:
   896                           	callstack 0
   897                           
   898                           ; 1 bytes @ 0x69
   899   0000C9                     	ds	1
   900   0000CA                     efgtoa@g:
   901                           	callstack 0
   902                           
   903                           ; 4 bytes @ 0x6A
   904   0000CA                     	ds	4
   905   0000CE                     efgtoa@n:
   906                           	callstack 0
   907                           
   908                           ; 2 bytes @ 0x6E
   909   0000CE                     	ds	2
   910   0000D0                     efgtoa@u:
   911                           	callstack 0
   912                           
   913                           ; 4 bytes @ 0x70
   914   0000D0                     	ds	4
   915   0000D4                     vfpfcnvrt@fp:
   916                           	callstack 0
   917                           
   918                           ; 2 bytes @ 0x74
   919   0000D4                     	ds	2
   920   0000D6                     vfpfcnvrt@fmt:
   921                           	callstack 0
   922                           
   923                           ; 1 bytes @ 0x76
   924   0000D6                     	ds	1
   925   0000D7                     vfpfcnvrt@ap:
   926                           	callstack 0
   927                           
   928                           ; 1 bytes @ 0x77
   929   0000D7                     	ds	1
   930   0000D8                     ??_vfpfcnvrt:
   931                           
   932                           ; 1 bytes @ 0x78
   933   0000D8                     	ds	2
   934   0000DA                     vfpfcnvrt@done:
   935                           	callstack 0
   936                           
   937                           ; 1 bytes @ 0x7A
   938   0000DA                     	ds	1
   939   0000DB                     vfpfcnvrt@convarg:
   940                           	callstack 0
   941                           
   942                           ; 4 bytes @ 0x7B
   943   0000DB                     	ds	4
   944   0000DF                     vfpfcnvrt@c:
   945                           	callstack 0
   946                           
   947                           ; 1 bytes @ 0x7F
   948   0000DF                     	ds	1
   949   0000E0                     vfpfcnvrt@cp:
   950                           	callstack 0
   951                           
   952                           ; 1 bytes @ 0x80
   953   0000E0                     	ds	1
   954   0000E1                     ?_vfprintf:
   955                           	callstack 0
   956   0000E1                     vfprintf@fp:
   957                           	callstack 0
   958                           
   959                           ; 2 bytes @ 0x81
   960   0000E1                     	ds	2
   961   0000E3                     vfprintf@fmt:
   962                           	callstack 0
   963                           
   964                           ; 1 bytes @ 0x83
   965   0000E3                     	ds	1
   966   0000E4                     vfprintf@ap:
   967                           	callstack 0
   968                           
   969                           ; 1 bytes @ 0x84
   970   0000E4                     	ds	1
   971   0000E5                     vfprintf@cfmt:
   972                           	callstack 0
   973                           
   974                           ; 1 bytes @ 0x85
   975   0000E5                     	ds	1
   976   0000E6                     ?_printf:
   977                           	callstack 0
   978   0000E6                     printf@fmt:
   979                           	callstack 0
   980                           
   981                           ; 1 bytes @ 0x86
   982   0000E6                     	ds	7
   983   0000ED                     printf@ap:
   984                           	callstack 0
   985                           
   986                           ; 1 bytes @ 0x8D
   987   0000ED                     	ds	1
   988   0000EE                     
   989                           ; 1 bytes @ 0x8E
   990                           
   991                           	psect	cstackCOMRAM
   992   000001                     __pcstackCOMRAM:
   993                           	callstack 0
   994   000001                     ?i2___xxtofl:
   995                           	callstack 0
   996   000001                     i2___xxtofl@val:
   997                           	callstack 0
   998                           
   999                           ; 4 bytes @ 0x0
  1000   000001                     	ds	4
  1001   000005                     ??i2___xxtofl:
  1002                           
  1003                           ; 1 bytes @ 0x4
  1004   000005                     	ds	4
  1005   000009                     i2___xxtofl@sign:
  1006                           	callstack 0
  1007                           
  1008                           ; 1 bytes @ 0x8
  1009   000009                     	ds	1
  1010   00000A                     i2___xxtofl@exp:
  1011                           	callstack 0
  1012                           
  1013                           ; 1 bytes @ 0x9
  1014   00000A                     	ds	1
  1015   00000B                     i2___xxtofl@arg:
  1016                           	callstack 0
  1017                           
  1018                           ; 4 bytes @ 0xA
  1019   00000B                     	ds	4
  1020   00000F                     ?i2___fldiv:
  1021                           	callstack 0
  1022   00000F                     i2___fldiv@b:
  1023                           	callstack 0
  1024                           
  1025                           ; 4 bytes @ 0xE
  1026   00000F                     	ds	4
  1027   000013                     i2___fldiv@a:
  1028                           	callstack 0
  1029                           
  1030                           ; 4 bytes @ 0x12
  1031   000013                     	ds	4
  1032   000017                     ??i2___fldiv:
  1033                           
  1034                           ; 1 bytes @ 0x16
  1035   000017                     	ds	4
  1036   00001B                     i2___fldiv@rem:
  1037                           	callstack 0
  1038                           
  1039                           ; 4 bytes @ 0x1A
  1040   00001B                     	ds	4
  1041   00001F                     i2___fldiv@sign:
  1042                           	callstack 0
  1043                           
  1044                           ; 1 bytes @ 0x1E
  1045   00001F                     	ds	1
  1046   000020                     i2___fldiv@new_exp:
  1047                           	callstack 0
  1048                           
  1049                           ; 2 bytes @ 0x1F
  1050   000020                     	ds	2
  1051   000022                     i2___fldiv@grs:
  1052                           	callstack 0
  1053                           
  1054                           ; 4 bytes @ 0x21
  1055   000022                     	ds	4
  1056   000026                     i2___fldiv@bexp:
  1057                           	callstack 0
  1058                           
  1059                           ; 1 bytes @ 0x25
  1060   000026                     	ds	1
  1061   000027                     i2___fldiv@aexp:
  1062                           	callstack 0
  1063                           
  1064                           ; 1 bytes @ 0x26
  1065   000027                     	ds	1
  1066   000028                     ?i2___fladd:
  1067                           	callstack 0
  1068   000028                     i2___fladd@b:
  1069                           	callstack 0
  1070                           
  1071                           ; 4 bytes @ 0x27
  1072   000028                     	ds	4
  1073   00002C                     i2___fladd@a:
  1074                           	callstack 0
  1075                           
  1076                           ; 4 bytes @ 0x2B
  1077   00002C                     	ds	4
  1078   000030                     ??i2___fladd:
  1079                           
  1080                           ; 1 bytes @ 0x2F
  1081   000030                     	ds	4
  1082   000034                     i2___fladd@signs:
  1083                           	callstack 0
  1084                           
  1085                           ; 1 bytes @ 0x33
  1086   000034                     	ds	1
  1087   000035                     i2___fladd@aexp:
  1088                           	callstack 0
  1089                           
  1090                           ; 1 bytes @ 0x34
  1091   000035                     	ds	1
  1092   000036                     i2___fladd@bexp:
  1093                           	callstack 0
  1094                           
  1095                           ; 1 bytes @ 0x35
  1096   000036                     	ds	1
  1097   000037                     i2___fladd@grs:
  1098                           	callstack 0
  1099                           
  1100                           ; 1 bytes @ 0x36
  1101   000037                     	ds	1
  1102   000038                     ??_INTERRUPT_InterruptManager:
  1103   000038                     
  1104                           ; 1 bytes @ 0x37
  1105   000038                     	ds	2
  1106                           
  1107 ;;
  1108 ;;Main: autosize = 0, tempsize = 0, incstack = 0, save=0
  1109 ;;
  1110 ;; *************** function _main *****************
  1111 ;; Defined at:
  1112 ;;		line 87 in file "main.c"
  1113 ;; Parameters:    Size  Location     Type
  1114 ;;		None
  1115 ;; Auto vars:     Size  Location     Type
  1116 ;;  dc_rxData      32    0        unsigned char [32]
  1117 ;;  time_rxData    32    0        unsigned char [32]
  1118 ;;  time_end_msg    4    4[BANK1 ] unsigned char [4]
  1119 ;;  time_start_m    4    0[BANK1 ] unsigned char [4]
  1120 ;; Return value:  Size  Location     Type
  1121 ;;                  1    wreg      void 
  1122 ;; Registers used:
  1123 ;;		wreg, fsr1l, fsr1h, fsr2l, fsr2h, status,2, status,0, tblptrl, tblptrh, tblptru, prodl, prodh, cstack
  1124 ;; Tracked objects:
  1125 ;;		On entry : 0/0
  1126 ;;		On exit  : 0/0
  1127 ;;		Unchanged: 0/0
  1128 ;; Data sizes:     COMRAM   BANK0   BANK1   BANK2   BANK3   BANK4   BANK5   BANK6   BANK7   BANK8   BANK9  BANK10  BANK1
      +1  BANK12  BANK14
  1129 ;;      Params:         0       0       0       0       0       0       0       0       0       0       0       0       
      +0       0       0
  1130 ;;      Locals:         0       0       8       0       0       0       0       0       0       0       0       0       
      +0       0       0
  1131 ;;      Temps:          0       0       0       0       0       0       0       0       0       0       0       0       
      +0       0       0
  1132 ;;      Totals:         0       0       8       0       0       0       0       0       0       0       0       0       
      +0       0       0
  1133 ;;Total ram usage:        8 bytes
  1134 ;; Hardware stack levels required when called: 14
  1135 ;; This function calls:
  1136 ;;		_EUSART2_Initialize
  1137 ;;		_IOCAF0_SetInterruptHandler
  1138 ;;		_PIN_MANAGER_Initialize
  1139 ;;		_SYSTEM_Initialize
  1140 ;;		_TMR2_SetInterruptHandler
  1141 ;;		_TMR2_StartTimer
  1142 ;;		___fladd
  1143 ;;		___fldiv
  1144 ;;		___xxtofl
  1145 ;;		_printf
  1146 ;; This function is called by:
  1147 ;;		Startup code after reset
  1148 ;; This function uses a non-reentrant model
  1149 ;;
  1150                           
  1151                           	psect	text0
  1152   003736                     __ptext0:
  1153                           	callstack 0
  1154   003736                     _main:
  1155                           	callstack 17
  1156   003736                     
  1157                           ;main.c: 90:     SYSTEM_Initialize();
  1158   003736  EC58  F023         	call	_SYSTEM_Initialize	;wreg free
  1159                           
  1160                           ;main.c: 91:     EUSART2_Initialize();
  1161   00373A  EC5B  F021         	call	_EUSART2_Initialize	;wreg free
  1162                           
  1163                           ;main.c: 92:     PIN_MANAGER_Initialize();
  1164   00373E  EC68  F01F         	call	_PIN_MANAGER_Initialize	;wreg free
  1165                           
  1166                           ;main.c: 94:     IOCAF0_SetInterruptHandler(pin_up);
  1167   003742  0E6C               	movlw	low _pin_up
  1168   003744  0100               	movlb	0	; () banked
  1169   003746  6F60               	movwf	IOCAF0_SetInterruptHandler@InterruptHandler& (0+255),b
  1170   003748  0E41               	movlw	high _pin_up
  1171   00374A  6F61               	movwf	(IOCAF0_SetInterruptHandler@InterruptHandler+1)& (0+255),b
  1172   00374C  0E00               	movlw	low (_pin_up shr (0+16))
  1173   00374E  6F62               	movwf	(IOCAF0_SetInterruptHandler@InterruptHandler+2)& (0+255),b
  1174   003750  EC86  F023         	call	_IOCAF0_SetInterruptHandler	;wreg free
  1175                           
  1176                           ;main.c: 96:     IOCAF0_SetInterruptHandler(pin_down);
  1177   003754  0EEC               	movlw	low _pin_down
  1178   003756  0100               	movlb	0	; () banked
  1179   003758  6F60               	movwf	IOCAF0_SetInterruptHandler@InterruptHandler& (0+255),b
  1180   00375A  0E40               	movlw	high _pin_down
  1181   00375C  6F61               	movwf	(IOCAF0_SetInterruptHandler@InterruptHandler+1)& (0+255),b
  1182   00375E  0E00               	movlw	low (_pin_down shr (0+16))
  1183   003760  6F62               	movwf	(IOCAF0_SetInterruptHandler@InterruptHandler+2)& (0+255),b
  1184   003762  EC86  F023         	call	_IOCAF0_SetInterruptHandler	;wreg free
  1185   003766                     
  1186                           ;main.c: 117:     char time_start_msg[] = "t: ";
  1187   003766  C05B  F150         	movff	main@F13532,main@time_start_msg
  1188   00376A  C05C  F151         	movff	main@F13532+1,main@time_start_msg+1
  1189   00376E  C05D  F152         	movff	main@F13532+2,main@time_start_msg+2
  1190   003772  C05E  F153         	movff	main@F13532+3,main@time_start_msg+3
  1191   003776                     
  1192                           ;main.c: 118:     char time_end_msg[] = "s\r\n";
  1193   003776  C057  F154         	movff	main@F13534,main@time_end_msg
  1194   00377A  C058  F155         	movff	main@F13534+1,main@time_end_msg+1
  1195   00377E  C059  F156         	movff	main@F13534+2,main@time_end_msg+2
  1196   003782  C05A  F157         	movff	main@F13534+3,main@time_end_msg+3
  1197                           
  1198                           ;main.c: 119:     char time_rxData[32];;main.c: 120:     char dc_rxData[32];;main.c: 123
      +                          :     TMR2_SetInterruptHandler(timer_callback);
  1199   003786  0E04               	movlw	low _timer_callback
  1200   003788  0100               	movlb	0	; () banked
  1201   00378A  6F60               	movwf	TMR2_SetInterruptHandler@InterruptHandler& (0+255),b
  1202   00378C  0E46               	movlw	high _timer_callback
  1203   00378E  6F61               	movwf	(TMR2_SetInterruptHandler@InterruptHandler+1)& (0+255),b
  1204   003790  0E00               	movlw	low (_timer_callback shr (0+16))
  1205   003792  6F62               	movwf	(TMR2_SetInterruptHandler@InterruptHandler+2)& (0+255),b
  1206   003794  EC78  F023         	call	_TMR2_SetInterruptHandler	;wreg free
  1207   003798                     
  1208                           ;main.c: 126:     TMR2_StartTimer();
  1209   003798  ECA6  F023         	call	_TMR2_StartTimer	;wreg free
  1210   00379C                     l6605:
  1211                           
  1212                           ;main.c: 129:     {;main.c: 132:         t = (float)t_s + ((float)t_ms/1000);
  1213   00379C  C046  F060         	movff	_t_s,___xxtofl@val
  1214   0037A0  C047  F061         	movff	_t_s+1,___xxtofl@val+1
  1215   0037A4  0100               	movlb	0	; () banked
  1216   0037A6  6B62               	clrf	(___xxtofl@val+2)& (0+255),b
  1217   0037A8  6B63               	clrf	(___xxtofl@val+3)& (0+255),b
  1218   0037AA  0E00               	movlw	0
  1219   0037AC  ECE5  F019         	call	___xxtofl
  1220   0037B0  C060  F087         	movff	?___xxtofl,___fladd@b
  1221   0037B4  C061  F088         	movff	?___xxtofl+1,___fladd@b+1
  1222   0037B8  C062  F089         	movff	?___xxtofl+2,___fladd@b+2
  1223   0037BC  C063  F08A         	movff	?___xxtofl+3,___fladd@b+3
  1224   0037C0  0E00               	movlw	0
  1225   0037C2  0100               	movlb	0	; () banked
  1226   0037C4  6F72               	movwf	___fldiv@a& (0+255),b
  1227   0037C6  0E00               	movlw	0
  1228   0037C8  6F73               	movwf	(___fldiv@a+1)& (0+255),b
  1229   0037CA  0E7A               	movlw	122
  1230   0037CC  6F74               	movwf	(___fldiv@a+2)& (0+255),b
  1231   0037CE  0E44               	movlw	68
  1232   0037D0  6F75               	movwf	(___fldiv@a+3)& (0+255),b
  1233   0037D2  C048  F060         	movff	_t_ms,___xxtofl@val
  1234   0037D6  C049  F061         	movff	_t_ms+1,___xxtofl@val+1
  1235   0037DA  6B62               	clrf	(___xxtofl@val+2)& (0+255),b
  1236   0037DC  6B63               	clrf	(___xxtofl@val+3)& (0+255),b
  1237   0037DE  0E00               	movlw	0
  1238   0037E0  ECE5  F019         	call	___xxtofl
  1239   0037E4  C060  F06E         	movff	?___xxtofl,___fldiv@b
  1240   0037E8  C061  F06F         	movff	?___xxtofl+1,___fldiv@b+1
  1241   0037EC  C062  F070         	movff	?___xxtofl+2,___fldiv@b+2
  1242   0037F0  C063  F071         	movff	?___xxtofl+3,___fldiv@b+3
  1243   0037F4  EC7D  F013         	call	___fldiv	;wreg free
  1244   0037F8  C06E  F08B         	movff	?___fldiv,___fladd@a
  1245   0037FC  C06F  F08C         	movff	?___fldiv+1,___fladd@a+1
  1246   003800  C070  F08D         	movff	?___fldiv+2,___fladd@a+2
  1247   003804  C071  F08E         	movff	?___fldiv+3,___fladd@a+3
  1248   003808  ECA6  F00C         	call	___fladd	;wreg free
  1249   00380C  C087  F04A         	movff	?___fladd,_t
  1250   003810  C088  F04B         	movff	?___fladd+1,_t+1
  1251   003814  C089  F04C         	movff	?___fladd+2,_t+2
  1252   003818  C08A  F04D         	movff	?___fladd+3,_t+3
  1253   00381C                     
  1254                           ;main.c: 134:         printf("t: %f s\r\n", t);
  1255   00381C  0E2A               	movlw	low STR_1
  1256   00381E  0100               	movlb	0	; () banked
  1257   003820  6FE6               	movwf	printf@fmt& (0+255),b
  1258   003822  C04A  F0E7         	movff	_t,?_printf+1
  1259   003826  C04B  F0E8         	movff	_t+1,?_printf+2
  1260   00382A  C04C  F0E9         	movff	_t+2,?_printf+3
  1261   00382E  C04D  F0EA         	movff	_t+3,?_printf+4
  1262   003832  EC2F  F023         	call	_printf	;wreg free
  1263   003836                     
  1264                           ;main.c: 136:         if (PORTAbits.RA0==0 || PORTAbits.RA1 == 0){
  1265   003836  A08C               	btfss	140,0,c	;volatile
  1266   003838  EF20  F01C         	goto	u7711
  1267   00383C  EF22  F01C         	goto	u7710
  1268   003840                     u7711:
  1269   003840  EF29  F01C         	goto	l6613
  1270   003844                     u7710:
  1271   003844  B28C               	btfsc	140,1,c	;volatile
  1272   003846  EF27  F01C         	goto	u7721
  1273   00384A  EF29  F01C         	goto	u7720
  1274   00384E                     u7721:
  1275   00384E  EF4D  F01C         	goto	l6619
  1276   003852                     u7720:
  1277   003852                     l6613:
  1278                           
  1279                           ;main.c: 138:             if (dc < 100){
  1280   003852  0100               	movlb	0	; () banked
  1281   003854  51F3               	movf	(_dc+1)& (0+255),w,b
  1282   003856  E107               	bnz	u7731
  1283   003858  0E64               	movlw	100
  1284   00385A  5DF2               	subwf	_dc& (0+255),w,b
  1285   00385C  B0D8               	btfsc	status,0,c
  1286   00385E  EF33  F01C         	goto	u7731
  1287   003862  EF35  F01C         	goto	u7730
  1288   003866                     u7731:
  1289   003866  EF3B  F01C         	goto	l6617
  1290   00386A                     u7730:
  1291   00386A                     
  1292                           ; BSR set to: 0
  1293                           ;main.c: 140:                 dc = dc +25;
  1294   00386A  0E19               	movlw	25
  1295   00386C  25F2               	addwf	_dc& (0+255),w,b
  1296   00386E  6FF2               	movwf	_dc& (0+255),b
  1297   003870  0E00               	movlw	0
  1298   003872  21F3               	addwfc	(_dc+1)& (0+255),w,b
  1299   003874  6FF3               	movwf	(_dc+1)& (0+255),b
  1300   003876                     l6617:
  1301                           
  1302                           ; BSR set to: 0
  1303                           ;main.c: 146:             printf("dc: %d%     time stamp: %f s\r\n", dc, t_b);
  1304   003876  0E01               	movlw	low STR_2
  1305   003878  6FE6               	movwf	printf@fmt& (0+255),b
  1306   00387A  C0F2  F0E7         	movff	_dc,?_printf+1
  1307   00387E  C0F3  F0E8         	movff	_dc+1,?_printf+2
  1308   003882  C042  F0E9         	movff	_t_b,?_printf+3
  1309   003886  C043  F0EA         	movff	_t_b+1,?_printf+4
  1310   00388A  C044  F0EB         	movff	_t_b+2,?_printf+5
  1311   00388E  C045  F0EC         	movff	_t_b+3,?_printf+6
  1312   003892  EC2F  F023         	call	_printf	;wreg free
  1313                           
  1314                           ;main.c: 158:         }
  1315   003896  EFCE  F01B         	goto	l6605
  1316   00389A                     l6619:
  1317                           
  1318                           ;main.c: 162:             dc = 0;
  1319   00389A  0E00               	movlw	0
  1320   00389C  0100               	movlb	0	; () banked
  1321   00389E  6FF3               	movwf	(_dc+1)& (0+255),b
  1322   0038A0  0E00               	movlw	0
  1323   0038A2  6FF2               	movwf	_dc& (0+255),b
  1324   0038A4                     
  1325                           ; BSR set to: 0
  1326                           ;main.c: 166:             printf("dc: %d%\r\n", dc);
  1327   0038A4  0E20               	movlw	low STR_3
  1328   0038A6  6FE6               	movwf	printf@fmt& (0+255),b
  1329   0038A8  0E00               	movlw	0
  1330   0038AA  6FE8               	movwf	(?_printf+2)& (0+255),b
  1331   0038AC  0E00               	movlw	0
  1332   0038AE  6FE7               	movwf	(?_printf+1)& (0+255),b
  1333   0038B0  EC2F  F023         	call	_printf	;wreg free
  1334   0038B4  EFCE  F01B         	goto	l6605
  1335   0038B8  EF3B  F000         	goto	start
  1336   0038BC                     __end_of_main:
  1337                           	callstack 0
  1338                           
  1339 ;; *************** function _printf *****************
  1340 ;; Defined at:
  1341 ;;		line 5 in file "/opt/microchip/xc8/v2.45/pic/sources/c99/common/printf.c"
  1342 ;; Parameters:    Size  Location     Type
  1343 ;;  fmt             1  134[BANK0 ] PTR const unsigned char 
  1344 ;;		 -> STR_3(10), STR_2(31), STR_1(10), 
  1345 ;; Auto vars:     Size  Location     Type
  1346 ;;  ret             2    0        int 
  1347 ;;  ap              1  141[BANK0 ] PTR void [1]
  1348 ;;		 -> ?_printf(2), 
  1349 ;; Return value:  Size  Location     Type
  1350 ;;                  2  134[BANK0 ] int 
  1351 ;; Registers used:
  1352 ;;		wreg, fsr1l, fsr1h, fsr2l, fsr2h, status,2, status,0, tblptrl, tblptrh, tblptru, prodl, prodh, cstack
  1353 ;; Tracked objects:
  1354 ;;		On entry : 0/0
  1355 ;;		On exit  : 0/0
  1356 ;;		Unchanged: 0/0
  1357 ;; Data sizes:     COMRAM   BANK0   BANK1   BANK2   BANK3   BANK4   BANK5   BANK6   BANK7   BANK8   BANK9  BANK10  BANK1
      +1  BANK12  BANK14
  1358 ;;      Params:         0       7       0       0       0       0       0       0       0       0       0       0       
      +0       0       0
  1359 ;;      Locals:         0       1       0       0       0       0       0       0       0       0       0       0       
      +0       0       0
  1360 ;;      Temps:          0       0       0       0       0       0       0       0       0       0       0       0       
      +0       0       0
  1361 ;;      Totals:         0       8       0       0       0       0       0       0       0       0       0       0       
      +0       0       0
  1362 ;;Total ram usage:        8 bytes
  1363 ;; Hardware stack levels used: 1
  1364 ;; Hardware stack levels required when called: 13
  1365 ;; This function calls:
  1366 ;;		_vfprintf
  1367 ;; This function is called by:
  1368 ;;		_main
  1369 ;; This function uses a non-reentrant model
  1370 ;;
  1371                           
  1372                           	psect	text1
  1373   00465E                     __ptext1:
  1374                           	callstack 0
  1375   00465E                     _printf:
  1376                           	callstack 17
  1377   00465E  0EE7               	movlw	low (?_printf+1)
  1378   004660  0100               	movlb	0	; () banked
  1379   004662  6FED               	movwf	printf@ap& (0+255),b
  1380   004664                     
  1381                           ; BSR set to: 0
  1382   004664  0E00               	movlw	0
  1383   004666  6FE1               	movwf	vfprintf@fp& (0+255),b
  1384   004668  0E00               	movlw	0
  1385   00466A  6FE2               	movwf	(vfprintf@fp+1)& (0+255),b
  1386   00466C  C0E6  F0E3         	movff	printf@fmt,vfprintf@fmt
  1387   004670  0EED               	movlw	low printf@ap
  1388   004672  6FE4               	movwf	vfprintf@ap& (0+255),b
  1389   004674  ECD5  F021         	call	_vfprintf	;wreg free
  1390   004678  0012               	return		;funcret
  1391   00467A                     __end_of_printf:
  1392                           	callstack 0
  1393                           
  1394 ;; *************** function _vfprintf *****************
  1395 ;; Defined at:
  1396 ;;		line 1817 in file "/opt/microchip/xc8/v2.45/pic/sources/c99/common/doprnt.c"
  1397 ;; Parameters:    Size  Location     Type
  1398 ;;  fp              2  129[BANK0 ] PTR struct _IO_FILE
  1399 ;;		 -> NULL(0), 
  1400 ;;  fmt             1  131[BANK0 ] PTR const unsigned char 
  1401 ;;		 -> STR_3(10), STR_2(31), STR_1(10), 
  1402 ;;  ap              1  132[BANK0 ] PTR PTR void 
  1403 ;;		 -> printf@ap(1), 
  1404 ;; Auto vars:     Size  Location     Type
  1405 ;;  cfmt            1  133[BANK0 ] PTR unsigned char 
  1406 ;;		 -> STR_3(10), STR_2(31), STR_1(10), 
  1407 ;; Return value:  Size  Location     Type
  1408 ;;                  2  129[BANK0 ] int 
  1409 ;; Registers used:
  1410 ;;		wreg, fsr1l, fsr1h, fsr2l, fsr2h, status,2, status,0, tblptrl, tblptrh, tblptru, prodl, prodh, cstack
  1411 ;; Tracked objects:
  1412 ;;		On entry : 0/0
  1413 ;;		On exit  : 0/0
  1414 ;;		Unchanged: 0/0
  1415 ;; Data sizes:     COMRAM   BANK0   BANK1   BANK2   BANK3   BANK4   BANK5   BANK6   BANK7   BANK8   BANK9  BANK10  BANK1
      +1  BANK12  BANK14
  1416 ;;      Params:         0       4       0       0       0       0       0       0       0       0       0       0       
      +0       0       0
  1417 ;;      Locals:         0       1       0       0       0       0       0       0       0       0       0       0       
      +0       0       0
  1418 ;;      Temps:          0       0       0       0       0       0       0       0       0       0       0       0       
      +0       0       0
  1419 ;;      Totals:         0       5       0       0       0       0       0       0       0       0       0       0       
      +0       0       0
  1420 ;;Total ram usage:        5 bytes
  1421 ;; Hardware stack levels used: 1
  1422 ;; Hardware stack levels required when called: 12
  1423 ;; This function calls:
  1424 ;;		_vfpfcnvrt
  1425 ;; This function is called by:
  1426 ;;		_printf
  1427 ;; This function uses a non-reentrant model
  1428 ;;
  1429                           
  1430                           	psect	text2
  1431   0043AA                     __ptext2:
  1432                           	callstack 0
  1433   0043AA                     _vfprintf:
  1434                           	callstack 17
  1435   0043AA                     
  1436                           ;/opt/microchip/xc8/v2.45/pic/sources/c99/common/doprnt.c: 1817: int vfprintf(FILE *fp, 
      +                          const char *fmt, va_list ap);/opt/microchip/xc8/v2.45/pic/sources/c99/common/doprnt.c: 1
      +                          818: {;/opt/microchip/xc8/v2.45/pic/sources/c99/common/doprnt.c: 1820:     char *cfmt;;/
      +                          opt/microchip/xc8/v2.45/pic/sources/c99/common/doprnt.c: 1822:     cfmt = (char *)fmt;
  1437   0043AA  C0E3  F0E5         	movff	vfprintf@fmt,vfprintf@cfmt
  1438                           
  1439                           ;/opt/microchip/xc8/v2.45/pic/sources/c99/common/doprnt.c: 1826:     while (*cfmt) {
  1440   0043AE  EFE4  F021         	goto	l6525
  1441   0043B2                     l6523:
  1442                           
  1443                           ;/opt/microchip/xc8/v2.45/pic/sources/c99/common/doprnt.c: 1830:    vfpfcnvrt(fp, &cfmt,
      +                           ap);
  1444   0043B2  C0E1  F0D4         	movff	vfprintf@fp,vfpfcnvrt@fp
  1445   0043B6  C0E2  F0D5         	movff	vfprintf@fp+1,vfpfcnvrt@fp+1
  1446   0043BA  0EE5               	movlw	low vfprintf@cfmt
  1447   0043BC  0100               	movlb	0	; () banked
  1448   0043BE  6FD6               	movwf	vfpfcnvrt@fmt& (0+255),b
  1449   0043C0  C0E4  F0D7         	movff	vfprintf@ap,vfpfcnvrt@ap
  1450   0043C4  EC18  F017         	call	_vfpfcnvrt	;wreg free
  1451   0043C8                     l6525:
  1452                           
  1453                           ;/opt/microchip/xc8/v2.45/pic/sources/c99/common/doprnt.c: 1826:     while (*cfmt) {
  1454   0043C8  C0E5  FFF6         	movff	vfprintf@cfmt,tblptrl
  1455   0043CC                     	if	1	;There is more than 1 active tblptr byte
  1456   0043CC  0E0F               	movlw	high __smallconst
  1457   0043CE  6EF7               	movwf	tblptrh,c
  1458   0043D0                     	endif
  1459   0043D0                     	if	0	;tblptru may be non-zero
  1460   0043D0                     	endif
  1461   0043D0                     	if	1	;Program memory is > 0xFFFF, there are 3 active tblptr bytes
  1462   0043D0  0E00               	movlw	low (__smallconst shr (0+16))
  1463   0043D2  6EF8               	movwf	tblptru,c
  1464   0043D4                     	endif
  1465   0043D4  0008               	tblrd		*
  1466   0043D6  50F5               	movf	tablat,w,c
  1467   0043D8  0900               	iorlw	0
  1468   0043DA  A4D8               	btfss	status,2,c
  1469   0043DC  EFF2  F021         	goto	u7601
  1470   0043E0  EFF4  F021         	goto	u7600
  1471   0043E4                     u7601:
  1472   0043E4  EFD9  F021         	goto	l6523
  1473   0043E8                     u7600:
  1474   0043E8                     
  1475                           ;/opt/microchip/xc8/v2.45/pic/sources/c99/common/doprnt.c: 1835:  return 0;
  1476   0043E8  0E00               	movlw	0
  1477   0043EA  0100               	movlb	0	; () banked
  1478   0043EC  6FE2               	movwf	(?_vfprintf+1)& (0+255),b
  1479   0043EE  0E00               	movlw	0
  1480   0043F0  6FE1               	movwf	?_vfprintf& (0+255),b
  1481   0043F2                     
  1482                           ; BSR set to: 0
  1483   0043F2  0012               	return		;funcret
  1484   0043F4                     __end_of_vfprintf:
  1485                           	callstack 0
  1486                           
  1487 ;; *************** function _vfpfcnvrt *****************
  1488 ;; Defined at:
  1489 ;;		line 1177 in file "/opt/microchip/xc8/v2.45/pic/sources/c99/common/doprnt.c"
  1490 ;; Parameters:    Size  Location     Type
  1491 ;;  fp              2  116[BANK0 ] PTR struct _IO_FILE
  1492 ;;		 -> NULL(0), 
  1493 ;;  fmt             1  118[BANK0 ] PTR PTR unsigned char 
  1494 ;;		 -> vfprintf@cfmt(1), 
  1495 ;;  ap              1  119[BANK0 ] PTR PTR void 
  1496 ;;		 -> printf@ap(1), 
  1497 ;; Auto vars:     Size  Location     Type
  1498 ;;  convarg         4  123[BANK0 ] struct .
  1499 ;;  cp              1  128[BANK0 ] PTR unsigned char 
  1500 ;;		 -> STR_3(10), STR_2(31), STR_1(10), 
  1501 ;;  c               1  127[BANK0 ] unsigned char 
  1502 ;;  done            1  122[BANK0 ] _Bool 
  1503 ;; Return value:  Size  Location     Type
  1504 ;;                  1    wreg      void 
  1505 ;; Registers used:
  1506 ;;		wreg, fsr1l, fsr1h, fsr2l, fsr2h, status,2, status,0, tblptrl, tblptrh, tblptru, prodl, prodh, cstack
  1507 ;; Tracked objects:
  1508 ;;		On entry : 0/0
  1509 ;;		On exit  : 0/0
  1510 ;;		Unchanged: 0/0
  1511 ;; Data sizes:     COMRAM   BANK0   BANK1   BANK2   BANK3   BANK4   BANK5   BANK6   BANK7   BANK8   BANK9  BANK10  BANK1
      +1  BANK12  BANK14
  1512 ;;      Params:         0       4       0       0       0       0       0       0       0       0       0       0       
      +0       0       0
  1513 ;;      Locals:         0       7       0       0       0       0       0       0       0       0       0       0       
      +0       0       0
  1514 ;;      Temps:          0       2       0       0       0       0       0       0       0       0       0       0       
      +0       0       0
  1515 ;;      Totals:         0      13       0       0       0       0       0       0       0       0       0       0       
      +0       0       0
  1516 ;;Total ram usage:       13 bytes
  1517 ;; Hardware stack levels used: 1
  1518 ;; Hardware stack levels required when called: 11
  1519 ;; This function calls:
  1520 ;;		_dtoa
  1521 ;;		_efgtoa
  1522 ;;		_fputc
  1523 ;; This function is called by:
  1524 ;;		_vfprintf
  1525 ;; This function uses a non-reentrant model
  1526 ;;
  1527                           
  1528                           	psect	text3
  1529   002E30                     __ptext3:
  1530                           	callstack 0
  1531   002E30                     _vfpfcnvrt:
  1532                           	callstack 17
  1533   002E30                     
  1534                           ;/opt/microchip/xc8/v2.45/pic/sources/c99/common/doprnt.c: 1177: vfpfcnvrt(FILE *fp, cha
      +                          r *fmt[], va_list ap);/opt/microchip/xc8/v2.45/pic/sources/c99/common/doprnt.c: 1178: {;
      +                          /opt/microchip/xc8/v2.45/pic/sources/c99/common/doprnt.c: 1179:     char c, *cp;;/opt/mi
      +                          crochip/xc8/v2.45/pic/sources/c99/common/doprnt.c: 1180:     _Bool done;;/opt/microchip/
      +                          xc8/v2.45/pic/sources/c99/common/doprnt.c: 1188:  } convarg;;/opt/microchip/xc8/v2.45/pi
      +                          c/sources/c99/common/doprnt.c: 1201:     if ((*fmt)[0] == '%') {
  1535   002E30  0100               	movlb	0	; () banked
  1536   002E32  51D6               	movf	vfpfcnvrt@fmt& (0+255),w,b
  1537   002E34  6ED9               	movwf	fsr2l,c
  1538   002E36  6ADA               	clrf	fsr2h,c
  1539   002E38  CFDF FFF6          	movff	indf2,tblptrl
  1540   002E3C                     	if	1	;There is more than 1 active tblptr byte
  1541   002E3C  0E0F               	movlw	high __smallconst
  1542   002E3E  6EF7               	movwf	tblptrh,c
  1543   002E40                     	endif
  1544   002E40                     	if	0	;tblptru may be non-zero
  1545   002E40                     	endif
  1546   002E40                     	if	1	;Program memory is > 0xFFFF, there are 3 active tblptr bytes
  1547   002E40  0E00               	movlw	low (__smallconst shr (0+16))
  1548   002E42  6EF8               	movwf	tblptru,c
  1549   002E44                     	endif
  1550   002E44  0008               	tblrd		*
  1551   002E46  50F5               	movf	tablat,w,c
  1552   002E48  0A25               	xorlw	37
  1553   002E4A  A4D8               	btfss	status,2,c
  1554   002E4C  EF2A  F017         	goto	u7551
  1555   002E50  EF2C  F017         	goto	u7550
  1556   002E54                     u7551:
  1557   002E54  EFC4  F018         	goto	l6425
  1558   002E58                     u7550:
  1559   002E58                     
  1560                           ; BSR set to: 0
  1561                           ;/opt/microchip/xc8/v2.45/pic/sources/c99/common/doprnt.c: 1202:         ++*fmt;
  1562   002E58  51D6               	movf	vfpfcnvrt@fmt& (0+255),w,b
  1563   002E5A  6ED9               	movwf	fsr2l,c
  1564   002E5C  6ADA               	clrf	fsr2h,c
  1565   002E5E  2ADF               	incf	indf2,f,c
  1566   002E60                     
  1567                           ; BSR set to: 0
  1568                           ;/opt/microchip/xc8/v2.45/pic/sources/c99/common/doprnt.c: 1204:         flags = width =
      +                           0;
  1569   002E60  0E00               	movlw	0
  1570   002E62  6FEF               	movwf	(_width+1)& (0+255),b
  1571   002E64  0E00               	movlw	0
  1572   002E66  6FEE               	movwf	_width& (0+255),b
  1573   002E68  C0EE  F0F4         	movff	_width,_flags
  1574   002E6C                     
  1575                           ; BSR set to: 0
  1576                           ;/opt/microchip/xc8/v2.45/pic/sources/c99/common/doprnt.c: 1205:         prec = -1;
  1577   002E6C  69F0               	setf	_prec& (0+255),b
  1578   002E6E  69F1               	setf	(_prec+1)& (0+255),b
  1579   002E70                     
  1580                           ; BSR set to: 0
  1581                           ;/opt/microchip/xc8/v2.45/pic/sources/c99/common/doprnt.c: 1209:         done = 0;
  1582   002E70  0E00               	movlw	0
  1583   002E72  6FDA               	movwf	vfpfcnvrt@done& (0+255),b
  1584                           
  1585                           ;/opt/microchip/xc8/v2.45/pic/sources/c99/common/doprnt.c: 1210:         while (!done) {
  1586   002E74  EF62  F017         	goto	l6353
  1587   002E78                     l6343:
  1588                           
  1589                           ; BSR set to: 0
  1590                           ;/opt/microchip/xc8/v2.45/pic/sources/c99/common/doprnt.c: 1232:                     fla
      +                          gs |= (1 << 3);
  1591   002E78  87F4               	bsf	_flags& (0+255),3,b
  1592   002E7A                     
  1593                           ; BSR set to: 0
  1594                           ;/opt/microchip/xc8/v2.45/pic/sources/c99/common/doprnt.c: 1233:                     ++*
      +                          fmt;
  1595   002E7A  51D6               	movf	vfpfcnvrt@fmt& (0+255),w,b
  1596   002E7C  6ED9               	movwf	fsr2l,c
  1597   002E7E  6ADA               	clrf	fsr2h,c
  1598   002E80  2ADF               	incf	indf2,f,c
  1599                           
  1600                           ;/opt/microchip/xc8/v2.45/pic/sources/c99/common/doprnt.c: 1234:                     bre
      +                          ak;
  1601   002E82  EF62  F017         	goto	l6353
  1602   002E86                     l6347:
  1603                           
  1604                           ; BSR set to: 0
  1605                           ;/opt/microchip/xc8/v2.45/pic/sources/c99/common/doprnt.c: 1243:                     don
      +                          e = 1;
  1606   002E86  0E01               	movlw	1
  1607   002E88  6FDA               	movwf	vfpfcnvrt@done& (0+255),b
  1608                           
  1609                           ;/opt/microchip/xc8/v2.45/pic/sources/c99/common/doprnt.c: 1244:                     bre
      +                          ak;
  1610   002E8A  EF62  F017         	goto	l6353
  1611   002E8E                     l6351:
  1612                           
  1613                           ; BSR set to: 0
  1614   002E8E  51D6               	movf	vfpfcnvrt@fmt& (0+255),w,b
  1615   002E90  6ED9               	movwf	fsr2l,c
  1616   002E92  6ADA               	clrf	fsr2h,c
  1617   002E94  CFDF FFF6          	movff	indf2,tblptrl
  1618   002E98                     	if	1	;There is more than 1 active tblptr byte
  1619   002E98  0E0F               	movlw	high __smallconst
  1620   002E9A  6EF7               	movwf	tblptrh,c
  1621   002E9C                     	endif
  1622   002E9C                     	if	0	;tblptru may be non-zero
  1623   002E9C                     	endif
  1624   002E9C                     	if	1	;Program memory is > 0xFFFF, there are 3 active tblptr bytes
  1625   002E9C  0E00               	movlw	low (__smallconst shr (0+16))
  1626   002E9E  6EF8               	movwf	tblptru,c
  1627   002EA0                     	endif
  1628   002EA0  0008               	tblrd		*
  1629   002EA2  50F5               	movf	tablat,w,c
  1630   002EA4  6FD8               	movwf	??_vfpfcnvrt& (0+255),b
  1631   002EA6  6BD9               	clrf	(??_vfpfcnvrt+1)& (0+255),b
  1632                           
  1633                           ; Switch on 2 bytes has been partitioned into a top level switch of size 1, and 1 sub-sw
      +                          itches
  1634                           ; Switch size 1, requested type "simple"
  1635                           ; Number of cases is 1, Range of values is 0 to 0
  1636                           ; switch strategies available:
  1637                           ; Name         Instructions Cycles
  1638                           ; simple_byte            4     3 (average)
  1639                           ;	Chosen strategy is simple_byte
  1640   002EA8  51D9               	movf	(??_vfpfcnvrt+1)& (0+255),w,b
  1641   002EAA  0A00               	xorlw	0	; case 0
  1642   002EAC  B4D8               	btfsc	status,2,c
  1643   002EAE  EF5B  F017         	goto	l6743
  1644   002EB2  EF43  F017         	goto	l6347
  1645   002EB6                     l6743:
  1646                           
  1647                           ; BSR set to: 0
  1648                           ; Switch size 1, requested type "simple"
  1649                           ; Number of cases is 1, Range of values is 32 to 32
  1650                           ; switch strategies available:
  1651                           ; Name         Instructions Cycles
  1652                           ; simple_byte            4     3 (average)
  1653                           ;	Chosen strategy is simple_byte
  1654   002EB6  51D8               	movf	??_vfpfcnvrt& (0+255),w,b
  1655   002EB8  0A20               	xorlw	32	; case 32
  1656   002EBA  B4D8               	btfsc	status,2,c
  1657   002EBC  EF3C  F017         	goto	l6343
  1658   002EC0  EF43  F017         	goto	l6347
  1659   002EC4                     l6353:
  1660                           
  1661                           ; BSR set to: 0
  1662                           ;/opt/microchip/xc8/v2.45/pic/sources/c99/common/doprnt.c: 1210:         while (!done) {
  1663   002EC4  51DA               	movf	vfpfcnvrt@done& (0+255),w,b
  1664   002EC6  B4D8               	btfsc	status,2,c
  1665   002EC8  EF68  F017         	goto	u7561
  1666   002ECC  EF6A  F017         	goto	u7560
  1667   002ED0                     u7561:
  1668   002ED0  EF47  F017         	goto	l6351
  1669   002ED4                     u7560:
  1670   002ED4                     
  1671                           ; BSR set to: 0
  1672                           ;/opt/microchip/xc8/v2.45/pic/sources/c99/common/doprnt.c: 1291:   cp = *fmt;
  1673   002ED4  51D6               	movf	vfpfcnvrt@fmt& (0+255),w,b
  1674   002ED6  6ED9               	movwf	fsr2l,c
  1675   002ED8  6ADA               	clrf	fsr2h,c
  1676   002EDA  50DF               	movf	indf2,w,c
  1677   002EDC  6FE0               	movwf	vfpfcnvrt@cp& (0+255),b
  1678   002EDE                     
  1679                           ; BSR set to: 0
  1680                           ;/opt/microchip/xc8/v2.45/pic/sources/c99/common/doprnt.c: 1293:   c = *cp;
  1681   002EDE  C0E0  FFF6         	movff	vfpfcnvrt@cp,tblptrl
  1682   002EE2                     	if	1	;There is more than 1 active tblptr byte
  1683   002EE2  0E0F               	movlw	high __smallconst
  1684   002EE4  6EF7               	movwf	tblptrh,c
  1685   002EE6                     	endif
  1686   002EE6                     	if	0	;tblptru may be non-zero
  1687   002EE6                     	endif
  1688   002EE6                     	if	1	;Program memory is > 0xFFFF, there are 3 active tblptr bytes
  1689   002EE6  0E00               	movlw	low (__smallconst shr (0+16))
  1690   002EE8  6EF8               	movwf	tblptru,c
  1691   002EEA                     	endif
  1692   002EEA  0008               	tblrd		*
  1693   002EEC  CFF5 F0DF          	movff	tablat,vfpfcnvrt@c
  1694                           
  1695                           ;/opt/microchip/xc8/v2.45/pic/sources/c99/common/doprnt.c: 1294:   switch(c) {
  1696   002EF0  EF85  F017         	goto	l6367
  1697   002EF4                     l6359:
  1698                           
  1699                           ; BSR set to: 0
  1700                           ;/opt/microchip/xc8/v2.45/pic/sources/c99/common/doprnt.c: 1328:     cp++;
  1701   002EF4  2BE0               	incf	vfpfcnvrt@cp& (0+255),f,b
  1702                           
  1703                           ;/opt/microchip/xc8/v2.45/pic/sources/c99/common/doprnt.c: 1329:     break;
  1704   002EF6  EF9E  F017         	goto	l6369
  1705   002EFA                     l6361:
  1706                           
  1707                           ; BSR set to: 0
  1708                           ;/opt/microchip/xc8/v2.45/pic/sources/c99/common/doprnt.c: 1350:     c = 'i';
  1709   002EFA  0E69               	movlw	105
  1710   002EFC  6FDF               	movwf	vfpfcnvrt@c& (0+255),b
  1711                           
  1712                           ;/opt/microchip/xc8/v2.45/pic/sources/c99/common/doprnt.c: 1351:     break;
  1713   002EFE  EF9E  F017         	goto	l6369
  1714   002F02                     l6363:
  1715                           
  1716                           ; BSR set to: 0
  1717                           ;/opt/microchip/xc8/v2.45/pic/sources/c99/common/doprnt.c: 1353:     c = 0;
  1718   002F02  0E00               	movlw	0
  1719   002F04  6FDF               	movwf	vfpfcnvrt@c& (0+255),b
  1720                           
  1721                           ;/opt/microchip/xc8/v2.45/pic/sources/c99/common/doprnt.c: 1354:     break;
  1722   002F06  EF9E  F017         	goto	l6369
  1723   002F0A                     l6367:
  1724                           
  1725                           ; BSR set to: 0
  1726   002F0A  51DF               	movf	vfpfcnvrt@c& (0+255),w,b
  1727   002F0C  6FD8               	movwf	??_vfpfcnvrt& (0+255),b
  1728   002F0E  6BD9               	clrf	(??_vfpfcnvrt+1)& (0+255),b
  1729                           
  1730                           ; Switch on 2 bytes has been partitioned into a top level switch of size 1, and 1 sub-sw
      +                          itches
  1731                           ; Switch size 1, requested type "simple"
  1732                           ; Number of cases is 1, Range of values is 0 to 0
  1733                           ; switch strategies available:
  1734                           ; Name         Instructions Cycles
  1735                           ; simple_byte            4     3 (average)
  1736                           ;	Chosen strategy is simple_byte
  1737   002F10  51D9               	movf	(??_vfpfcnvrt+1)& (0+255),w,b
  1738   002F12  0A00               	xorlw	0	; case 0
  1739   002F14  B4D8               	btfsc	status,2,c
  1740   002F16  EF8F  F017         	goto	l6745
  1741   002F1A  EF81  F017         	goto	l6363
  1742   002F1E                     l6745:
  1743                           
  1744                           ; BSR set to: 0
  1745                           ; Switch size 1, requested type "simple"
  1746                           ; Number of cases is 3, Range of values is 100 to 116
  1747                           ; switch strategies available:
  1748                           ; Name         Instructions Cycles
  1749                           ; simple_byte           10     6 (average)
  1750                           ;	Chosen strategy is simple_byte
  1751   002F1E  51D8               	movf	??_vfpfcnvrt& (0+255),w,b
  1752   002F20  0A64               	xorlw	100	; case 100
  1753   002F22  B4D8               	btfsc	status,2,c
  1754   002F24  EF7D  F017         	goto	l6361
  1755   002F28  0A0D               	xorlw	13	; case 105
  1756   002F2A  B4D8               	btfsc	status,2,c
  1757   002F2C  EF7D  F017         	goto	l6361
  1758   002F30  0A1D               	xorlw	29	; case 116
  1759   002F32  B4D8               	btfsc	status,2,c
  1760   002F34  EF7A  F017         	goto	l6359
  1761   002F38  EF81  F017         	goto	l6363
  1762   002F3C                     l6369:
  1763                           
  1764                           ; BSR set to: 0
  1765                           ;/opt/microchip/xc8/v2.45/pic/sources/c99/common/doprnt.c: 1361:   if (*cp == 'd' || *cp
      +                           == 'i') {
  1766   002F3C  C0E0  FFF6         	movff	vfpfcnvrt@cp,tblptrl
  1767   002F40                     	if	1	;There is more than 1 active tblptr byte
  1768   002F40  0E0F               	movlw	high __smallconst
  1769   002F42  6EF7               	movwf	tblptrh,c
  1770   002F44                     	endif
  1771   002F44                     	if	0	;tblptru may be non-zero
  1772   002F44                     	endif
  1773   002F44                     	if	1	;Program memory is > 0xFFFF, there are 3 active tblptr bytes
  1774   002F44  0E00               	movlw	low (__smallconst shr (0+16))
  1775   002F46  6EF8               	movwf	tblptru,c
  1776   002F48                     	endif
  1777   002F48  0008               	tblrd		*
  1778   002F4A  50F5               	movf	tablat,w,c
  1779   002F4C  0A64               	xorlw	100
  1780   002F4E  B4D8               	btfsc	status,2,c
  1781   002F50  EFAC  F017         	goto	u7571
  1782   002F54  EFAE  F017         	goto	u7570
  1783   002F58                     u7571:
  1784   002F58  EFDC  F017         	goto	l6379
  1785   002F5C                     u7570:
  1786   002F5C                     
  1787                           ; BSR set to: 0
  1788   002F5C  C0E0  FFF6         	movff	vfpfcnvrt@cp,tblptrl
  1789   002F60                     	if	1	;There is more than 1 active tblptr byte
  1790   002F60  0E0F               	movlw	high __smallconst
  1791   002F62  6EF7               	movwf	tblptrh,c
  1792   002F64                     	endif
  1793   002F64                     	if	0	;tblptru may be non-zero
  1794   002F64                     	endif
  1795   002F64                     	if	1	;Program memory is > 0xFFFF, there are 3 active tblptr bytes
  1796   002F64  0E00               	movlw	low (__smallconst shr (0+16))
  1797   002F66  6EF8               	movwf	tblptru,c
  1798   002F68                     	endif
  1799   002F68  0008               	tblrd		*
  1800   002F6A  50F5               	movf	tablat,w,c
  1801   002F6C  0A69               	xorlw	105
  1802   002F6E  A4D8               	btfss	status,2,c
  1803   002F70  EFBC  F017         	goto	u7581
  1804   002F74  EFBE  F017         	goto	u7580
  1805   002F78                     u7581:
  1806   002F78  EF02  F018         	goto	l6387
  1807   002F7C                     u7580:
  1808   002F7C  EFDC  F017         	goto	l6379
  1809   002F80                     l6373:
  1810                           
  1811                           ; BSR set to: 0
  1812                           ;/opt/microchip/xc8/v2.45/pic/sources/c99/common/doprnt.c: 1365:      convarg.sint = (vf
      +                          pf_sint_t)(int)(*(int *)__va_arg(*(int **)ap, (int)0));
  1813   002F80  51D7               	movf	vfpfcnvrt@ap& (0+255),w,b
  1814   002F82  6ED9               	movwf	fsr2l,c
  1815   002F84  6ADA               	clrf	fsr2h,c
  1816   002F86  0E02               	movlw	2
  1817   002F88  26DF               	addwf	indf2,f,c
  1818   002F8A  5CDF               	subwf	indf2,w,c
  1819   002F8C  6ED9               	movwf	fsr2l,c
  1820   002F8E  6ADA               	clrf	fsr2h,c
  1821   002F90  CFDE F0DB          	movff	postinc2,vfpfcnvrt@convarg
  1822   002F94  CFDE F0DC          	movff	postinc2,vfpfcnvrt@convarg+1
  1823                           
  1824                           ;/opt/microchip/xc8/v2.45/pic/sources/c99/common/doprnt.c: 1366:      break;
  1825   002F98  EFF1  F017         	goto	l6381
  1826   002F9C                     l6375:
  1827                           
  1828                           ; BSR set to: 0
  1829                           ;/opt/microchip/xc8/v2.45/pic/sources/c99/common/doprnt.c: 1389:      convarg.sint = (vf
      +                          pf_sint_t)(*(ptrdiff_t *)__va_arg(*(ptrdiff_t **)ap, (ptrdiff_t)0));
  1830   002F9C  51D7               	movf	vfpfcnvrt@ap& (0+255),w,b
  1831   002F9E  6ED9               	movwf	fsr2l,c
  1832   002FA0  6ADA               	clrf	fsr2h,c
  1833   002FA2  0E02               	movlw	2
  1834   002FA4  26DF               	addwf	indf2,f,c
  1835   002FA6  5CDF               	subwf	indf2,w,c
  1836   002FA8  6ED9               	movwf	fsr2l,c
  1837   002FAA  6ADA               	clrf	fsr2h,c
  1838   002FAC  CFDE F0DB          	movff	postinc2,vfpfcnvrt@convarg
  1839   002FB0  CFDE F0DC          	movff	postinc2,vfpfcnvrt@convarg+1
  1840                           
  1841                           ;/opt/microchip/xc8/v2.45/pic/sources/c99/common/doprnt.c: 1390:      break;
  1842   002FB4  EFF1  F017         	goto	l6381
  1843   002FB8                     l6379:
  1844                           
  1845                           ; BSR set to: 0
  1846   002FB8  51DF               	movf	vfpfcnvrt@c& (0+255),w,b
  1847   002FBA  6FD8               	movwf	??_vfpfcnvrt& (0+255),b
  1848   002FBC  6BD9               	clrf	(??_vfpfcnvrt+1)& (0+255),b
  1849                           
  1850                           ; Switch on 2 bytes has been partitioned into a top level switch of size 1, and 1 sub-sw
      +                          itches
  1851                           ; Switch size 1, requested type "simple"
  1852                           ; Number of cases is 1, Range of values is 0 to 0
  1853                           ; switch strategies available:
  1854                           ; Name         Instructions Cycles
  1855                           ; simple_byte            4     3 (average)
  1856                           ;	Chosen strategy is simple_byte
  1857   002FBE  51D9               	movf	(??_vfpfcnvrt+1)& (0+255),w,b
  1858   002FC0  0A00               	xorlw	0	; case 0
  1859   002FC2  B4D8               	btfsc	status,2,c
  1860   002FC4  EFE6  F017         	goto	l6747
  1861   002FC8  EFF1  F017         	goto	l6381
  1862   002FCC                     l6747:
  1863                           
  1864                           ; BSR set to: 0
  1865                           ; Switch size 1, requested type "simple"
  1866                           ; Number of cases is 2, Range of values is 105 to 116
  1867                           ; switch strategies available:
  1868                           ; Name         Instructions Cycles
  1869                           ; simple_byte            7     4 (average)
  1870                           ;	Chosen strategy is simple_byte
  1871   002FCC  51D8               	movf	??_vfpfcnvrt& (0+255),w,b
  1872   002FCE  0A69               	xorlw	105	; case 105
  1873   002FD0  B4D8               	btfsc	status,2,c
  1874   002FD2  EFC0  F017         	goto	l6373
  1875   002FD6  0A1D               	xorlw	29	; case 116
  1876   002FD8  B4D8               	btfsc	status,2,c
  1877   002FDA  EFCE  F017         	goto	l6375
  1878   002FDE  EFF1  F017         	goto	l6381
  1879   002FE2                     l6381:
  1880                           
  1881                           ; BSR set to: 0
  1882                           ;/opt/microchip/xc8/v2.45/pic/sources/c99/common/doprnt.c: 1406:    *fmt = cp+1;
  1883   002FE2  51D6               	movf	vfpfcnvrt@fmt& (0+255),w,b
  1884   002FE4  6ED9               	movwf	fsr2l,c
  1885   002FE6  6ADA               	clrf	fsr2h,c
  1886   002FE8  29E0               	incf	vfpfcnvrt@cp& (0+255),w,b
  1887   002FEA  6EDF               	movwf	indf2,c
  1888   002FEC                     
  1889                           ; BSR set to: 0
  1890                           ;/opt/microchip/xc8/v2.45/pic/sources/c99/common/doprnt.c: 1432:    return (void) dtoa(f
      +                          p, convarg.sint);;	Return value of _vfpfcnvrt is never used
  1891   002FEC  C0D4  F07B         	movff	vfpfcnvrt@fp,dtoa@fp
  1892   002FF0  C0D5  F07C         	movff	vfpfcnvrt@fp+1,dtoa@fp+1
  1893   002FF4  C0DB  F07D         	movff	vfpfcnvrt@convarg,dtoa@d
  1894   002FF8  C0DC  F07E         	movff	vfpfcnvrt@convarg+1,dtoa@d+1
  1895   002FFC  EC5E  F01C         	call	_dtoa	;wreg free
  1896   003000  EFD9  F018         	goto	l1247
  1897   003004                     l6387:
  1898                           
  1899                           ; BSR set to: 0
  1900                           ;/opt/microchip/xc8/v2.45/pic/sources/c99/common/doprnt.c: 1689:   cp = *fmt;
  1901   003004  51D6               	movf	vfpfcnvrt@fmt& (0+255),w,b
  1902   003006  6ED9               	movwf	fsr2l,c
  1903   003008  6ADA               	clrf	fsr2h,c
  1904   00300A  50DF               	movf	indf2,w,c
  1905   00300C  6FE0               	movwf	vfpfcnvrt@cp& (0+255),b
  1906   00300E                     
  1907                           ; BSR set to: 0
  1908                           ;/opt/microchip/xc8/v2.45/pic/sources/c99/common/doprnt.c: 1690:   c = *cp;
  1909   00300E  C0E0  FFF6         	movff	vfpfcnvrt@cp,tblptrl
  1910   003012                     	if	1	;There is more than 1 active tblptr byte
  1911   003012  0E0F               	movlw	high __smallconst
  1912   003014  6EF7               	movwf	tblptrh,c
  1913   003016                     	endif
  1914   003016                     	if	0	;tblptru may be non-zero
  1915   003016                     	endif
  1916   003016                     	if	1	;Program memory is > 0xFFFF, there are 3 active tblptr bytes
  1917   003016  0E00               	movlw	low (__smallconst shr (0+16))
  1918   003018  6EF8               	movwf	tblptru,c
  1919   00301A                     	endif
  1920   00301A  0008               	tblrd		*
  1921   00301C  CFF5 F0DF          	movff	tablat,vfpfcnvrt@c
  1922                           
  1923                           ;/opt/microchip/xc8/v2.45/pic/sources/c99/common/doprnt.c: 1691:   switch(c) {
  1924   003020  EF1D  F018         	goto	l6399
  1925   003024                     l6391:
  1926                           
  1927                           ; BSR set to: 0
  1928                           ;/opt/microchip/xc8/v2.45/pic/sources/c99/common/doprnt.c: 1695:     cp++;
  1929   003024  2BE0               	incf	vfpfcnvrt@cp& (0+255),f,b
  1930                           
  1931                           ;/opt/microchip/xc8/v2.45/pic/sources/c99/common/doprnt.c: 1696:     break;
  1932   003026  EF36  F018         	goto	l6401
  1933   00302A                     l6393:
  1934                           
  1935                           ; BSR set to: 0
  1936                           ;/opt/microchip/xc8/v2.45/pic/sources/c99/common/doprnt.c: 1721:     c = 'l';
  1937   00302A  0E6C               	movlw	108
  1938   00302C  6FDF               	movwf	vfpfcnvrt@c& (0+255),b
  1939                           
  1940                           ;/opt/microchip/xc8/v2.45/pic/sources/c99/common/doprnt.c: 1722:     break;
  1941   00302E  EF36  F018         	goto	l6401
  1942   003032                     l6395:
  1943                           
  1944                           ; BSR set to: 0
  1945                           ;/opt/microchip/xc8/v2.45/pic/sources/c99/common/doprnt.c: 1724:     c = 0;
  1946   003032  0E00               	movlw	0
  1947   003034  6FDF               	movwf	vfpfcnvrt@c& (0+255),b
  1948                           
  1949                           ;/opt/microchip/xc8/v2.45/pic/sources/c99/common/doprnt.c: 1725:     break;
  1950   003036  EF36  F018         	goto	l6401
  1951   00303A                     l6399:
  1952                           
  1953                           ; BSR set to: 0
  1954   00303A  51DF               	movf	vfpfcnvrt@c& (0+255),w,b
  1955   00303C  6FD8               	movwf	??_vfpfcnvrt& (0+255),b
  1956   00303E  6BD9               	clrf	(??_vfpfcnvrt+1)& (0+255),b
  1957                           
  1958                           ; Switch on 2 bytes has been partitioned into a top level switch of size 1, and 1 sub-sw
      +                          itches
  1959                           ; Switch size 1, requested type "simple"
  1960                           ; Number of cases is 1, Range of values is 0 to 0
  1961                           ; switch strategies available:
  1962                           ; Name         Instructions Cycles
  1963                           ; simple_byte            4     3 (average)
  1964                           ;	Chosen strategy is simple_byte
  1965   003040  51D9               	movf	(??_vfpfcnvrt+1)& (0+255),w,b
  1966   003042  0A00               	xorlw	0	; case 0
  1967   003044  B4D8               	btfsc	status,2,c
  1968   003046  EF27  F018         	goto	l6749
  1969   00304A  EF19  F018         	goto	l6395
  1970   00304E                     l6749:
  1971                           
  1972                           ; BSR set to: 0
  1973                           ; Switch size 1, requested type "simple"
  1974                           ; Number of cases is 3, Range of values is 76 to 108
  1975                           ; switch strategies available:
  1976                           ; Name         Instructions Cycles
  1977                           ; simple_byte           10     6 (average)
  1978                           ;	Chosen strategy is simple_byte
  1979   00304E  51D8               	movf	??_vfpfcnvrt& (0+255),w,b
  1980   003050  0A4C               	xorlw	76	; case 76
  1981   003052  B4D8               	btfsc	status,2,c
  1982   003054  EF12  F018         	goto	l6391
  1983   003058  0A2A               	xorlw	42	; case 102
  1984   00305A  B4D8               	btfsc	status,2,c
  1985   00305C  EF15  F018         	goto	l6393
  1986   003060  0A0A               	xorlw	10	; case 108
  1987   003062  B4D8               	btfsc	status,2,c
  1988   003064  EF12  F018         	goto	l6391
  1989   003068  EF19  F018         	goto	l6395
  1990   00306C                     l6401:
  1991                           
  1992                           ; BSR set to: 0
  1993   00306C  C0E0  FFF6         	movff	vfpfcnvrt@cp,tblptrl
  1994   003070                     	if	1	;There is more than 1 active tblptr byte
  1995   003070  0E0F               	movlw	high __smallconst
  1996   003072  6EF7               	movwf	tblptrh,c
  1997   003074                     	endif
  1998   003074                     	if	0	;tblptru may be non-zero
  1999   003074                     	endif
  2000   003074                     	if	1	;Program memory is > 0xFFFF, there are 3 active tblptr bytes
  2001   003074  0E00               	movlw	low (__smallconst shr (0+16))
  2002   003076  6EF8               	movwf	tblptru,c
  2003   003078                     	endif
  2004   003078  0008               	tblrd		*
  2005   00307A  50F5               	movf	tablat,w,c
  2006   00307C  0A66               	xorlw	102
  2007   00307E  A4D8               	btfss	status,2,c
  2008   003080  EF44  F018         	goto	u7591
  2009   003084  EF46  F018         	goto	u7590
  2010   003088                     u7591:
  2011   003088  EFBD  F018         	goto	l6421
  2012   00308C                     u7590:
  2013   00308C  EF70  F018         	goto	l6409
  2014   003090                     l6403:
  2015                           
  2016                           ; BSR set to: 0
  2017                           ;/opt/microchip/xc8/v2.45/pic/sources/c99/common/doprnt.c: 1756:      convarg.f = (long 
      +                          double)(*(double *)__va_arg(*(double **)ap, (double)0));
  2018   003090  51D7               	movf	vfpfcnvrt@ap& (0+255),w,b
  2019   003092  6ED9               	movwf	fsr2l,c
  2020   003094  6ADA               	clrf	fsr2h,c
  2021   003096  CFDF F0D8          	movff	indf2,??_vfpfcnvrt
  2022   00309A  0E04               	movlw	4
  2023   00309C  26DF               	addwf	indf2,f,c
  2024   00309E  51D8               	movf	??_vfpfcnvrt& (0+255),w,b
  2025   0030A0  6ED9               	movwf	fsr2l,c
  2026   0030A2  6ADA               	clrf	fsr2h,c
  2027   0030A4  CFDE F0DB          	movff	postinc2,vfpfcnvrt@convarg
  2028   0030A8  CFDE F0DC          	movff	postinc2,vfpfcnvrt@convarg+1
  2029   0030AC  CFDE F0DD          	movff	postinc2,vfpfcnvrt@convarg+2
  2030   0030B0  CFDE F0DE          	movff	postinc2,vfpfcnvrt@convarg+3
  2031                           
  2032                           ;/opt/microchip/xc8/v2.45/pic/sources/c99/common/doprnt.c: 1757:      break;
  2033   0030B4  EF85  F018         	goto	l6411
  2034   0030B8                     l6405:
  2035                           
  2036                           ; BSR set to: 0
  2037                           ;/opt/microchip/xc8/v2.45/pic/sources/c99/common/doprnt.c: 1759:      convarg.f = (long 
      +                          double)(*(long double *)__va_arg(*(long double **)ap, (long double)0));
  2038   0030B8  51D7               	movf	vfpfcnvrt@ap& (0+255),w,b
  2039   0030BA  6ED9               	movwf	fsr2l,c
  2040   0030BC  6ADA               	clrf	fsr2h,c
  2041   0030BE  CFDF F0D8          	movff	indf2,??_vfpfcnvrt
  2042   0030C2  0E04               	movlw	4
  2043   0030C4  26DF               	addwf	indf2,f,c
  2044   0030C6  51D8               	movf	??_vfpfcnvrt& (0+255),w,b
  2045   0030C8  6ED9               	movwf	fsr2l,c
  2046   0030CA  6ADA               	clrf	fsr2h,c
  2047   0030CC  CFDE F0DB          	movff	postinc2,vfpfcnvrt@convarg
  2048   0030D0  CFDE F0DC          	movff	postinc2,vfpfcnvrt@convarg+1
  2049   0030D4  CFDE F0DD          	movff	postinc2,vfpfcnvrt@convarg+2
  2050   0030D8  CFDE F0DE          	movff	postinc2,vfpfcnvrt@convarg+3
  2051                           
  2052                           ;/opt/microchip/xc8/v2.45/pic/sources/c99/common/doprnt.c: 1760:      break;
  2053   0030DC  EF85  F018         	goto	l6411
  2054   0030E0                     l6409:
  2055                           
  2056                           ; BSR set to: 0
  2057   0030E0  51DF               	movf	vfpfcnvrt@c& (0+255),w,b
  2058   0030E2  6FD8               	movwf	??_vfpfcnvrt& (0+255),b
  2059   0030E4  6BD9               	clrf	(??_vfpfcnvrt+1)& (0+255),b
  2060                           
  2061                           ; Switch on 2 bytes has been partitioned into a top level switch of size 1, and 1 sub-sw
      +                          itches
  2062                           ; Switch size 1, requested type "simple"
  2063                           ; Number of cases is 1, Range of values is 0 to 0
  2064                           ; switch strategies available:
  2065                           ; Name         Instructions Cycles
  2066                           ; simple_byte            4     3 (average)
  2067                           ;	Chosen strategy is simple_byte
  2068   0030E6  51D9               	movf	(??_vfpfcnvrt+1)& (0+255),w,b
  2069   0030E8  0A00               	xorlw	0	; case 0
  2070   0030EA  B4D8               	btfsc	status,2,c
  2071   0030EC  EF7A  F018         	goto	l6751
  2072   0030F0  EF85  F018         	goto	l6411
  2073   0030F4                     l6751:
  2074                           
  2075                           ; BSR set to: 0
  2076                           ; Switch size 1, requested type "simple"
  2077                           ; Number of cases is 2, Range of values is 76 to 108
  2078                           ; switch strategies available:
  2079                           ; Name         Instructions Cycles
  2080                           ; simple_byte            7     4 (average)
  2081                           ;	Chosen strategy is simple_byte
  2082   0030F4  51D8               	movf	??_vfpfcnvrt& (0+255),w,b
  2083   0030F6  0A4C               	xorlw	76	; case 76
  2084   0030F8  B4D8               	btfsc	status,2,c
  2085   0030FA  EF5C  F018         	goto	l6405
  2086   0030FE  0A20               	xorlw	32	; case 108
  2087   003100  B4D8               	btfsc	status,2,c
  2088   003102  EF48  F018         	goto	l6403
  2089   003106  EF85  F018         	goto	l6411
  2090   00310A                     l6411:
  2091                           
  2092                           ; BSR set to: 0
  2093                           ;/opt/microchip/xc8/v2.45/pic/sources/c99/common/doprnt.c: 1762:    *fmt = cp+1;
  2094   00310A  51D6               	movf	vfpfcnvrt@fmt& (0+255),w,b
  2095   00310C  6ED9               	movwf	fsr2l,c
  2096   00310E  6ADA               	clrf	fsr2h,c
  2097   003110  29E0               	incf	vfpfcnvrt@cp& (0+255),w,b
  2098   003112  6EDF               	movwf	indf2,c
  2099                           
  2100                           ;/opt/microchip/xc8/v2.45/pic/sources/c99/common/doprnt.c: 1763:    switch (*cp) {
  2101   003114  EFA5  F018         	goto	l6419
  2102   003118                     l6413:
  2103                           
  2104                           ; BSR set to: 0
  2105                           ;/opt/microchip/xc8/v2.45/pic/sources/c99/common/doprnt.c: 1790:      return (void) efgt
      +                          oa(fp, convarg.f, *cp);;	Return value of _vfpfcnvrt is never used
  2106   003118  C0D4  F09F         	movff	vfpfcnvrt@fp,efgtoa@fp
  2107   00311C  C0D5  F0A0         	movff	vfpfcnvrt@fp+1,efgtoa@fp+1
  2108   003120  C0DB  F0A1         	movff	vfpfcnvrt@convarg,efgtoa@f
  2109   003124  C0DC  F0A2         	movff	vfpfcnvrt@convarg+1,efgtoa@f+1
  2110   003128  C0DD  F0A3         	movff	vfpfcnvrt@convarg+2,efgtoa@f+2
  2111   00312C  C0DE  F0A4         	movff	vfpfcnvrt@convarg+3,efgtoa@f+3
  2112   003130  C0E0  FFF6         	movff	vfpfcnvrt@cp,tblptrl
  2113   003134                     	if	1	;There is more than 1 active tblptr byte
  2114   003134  0E0F               	movlw	high __smallconst
  2115   003136  6EF7               	movwf	tblptrh,c
  2116   003138                     	endif
  2117   003138                     	if	0	;tblptru may be non-zero
  2118   003138                     	endif
  2119   003138                     	if	1	;Program memory is > 0xFFFF, there are 3 active tblptr bytes
  2120   003138  0E00               	movlw	low (__smallconst shr (0+16))
  2121   00313A  6EF8               	movwf	tblptru,c
  2122   00313C                     	endif
  2123   00313C  0008               	tblrd		*
  2124   00313E  CFF5 F0A5          	movff	tablat,efgtoa@c
  2125   003142  EC9F  F007         	call	_efgtoa	;wreg free
  2126   003146  EFD9  F018         	goto	l1247
  2127   00314A                     l6419:
  2128                           
  2129                           ; BSR set to: 0
  2130   00314A  C0E0  FFF6         	movff	vfpfcnvrt@cp,tblptrl
  2131   00314E                     	if	1	;There is more than 1 active tblptr byte
  2132   00314E  0E0F               	movlw	high __smallconst
  2133   003150  6EF7               	movwf	tblptrh,c
  2134   003152                     	endif
  2135   003152                     	if	0	;tblptru may be non-zero
  2136   003152                     	endif
  2137   003152                     	if	1	;Program memory is > 0xFFFF, there are 3 active tblptr bytes
  2138   003152  0E00               	movlw	low (__smallconst shr (0+16))
  2139   003154  6EF8               	movwf	tblptru,c
  2140   003156                     	endif
  2141   003156  0008               	tblrd		*
  2142   003158  50F5               	movf	tablat,w,c
  2143   00315A  6FD8               	movwf	??_vfpfcnvrt& (0+255),b
  2144   00315C  6BD9               	clrf	(??_vfpfcnvrt+1)& (0+255),b
  2145                           
  2146                           ; Switch on 2 bytes has been partitioned into a top level switch of size 1, and 1 sub-sw
      +                          itches
  2147                           ; Switch size 1, requested type "simple"
  2148                           ; Number of cases is 1, Range of values is 0 to 0
  2149                           ; switch strategies available:
  2150                           ; Name         Instructions Cycles
  2151                           ; simple_byte            4     3 (average)
  2152                           ;	Chosen strategy is simple_byte
  2153   00315E  51D9               	movf	(??_vfpfcnvrt+1)& (0+255),w,b
  2154   003160  0A00               	xorlw	0	; case 0
  2155   003162  B4D8               	btfsc	status,2,c
  2156   003164  EFB6  F018         	goto	l6753
  2157   003168  EFBD  F018         	goto	l6421
  2158   00316C                     l6753:
  2159                           
  2160                           ; BSR set to: 0
  2161                           ; Switch size 1, requested type "simple"
  2162                           ; Number of cases is 1, Range of values is 102 to 102
  2163                           ; switch strategies available:
  2164                           ; Name         Instructions Cycles
  2165                           ; simple_byte            4     3 (average)
  2166                           ;	Chosen strategy is simple_byte
  2167   00316C  51D8               	movf	??_vfpfcnvrt& (0+255),w,b
  2168   00316E  0A66               	xorlw	102	; case 102
  2169   003170  B4D8               	btfsc	status,2,c
  2170   003172  EF8C  F018         	goto	l6413
  2171   003176  EFBD  F018         	goto	l6421
  2172   00317A                     l6421:
  2173                           
  2174                           ;/opt/microchip/xc8/v2.45/pic/sources/c99/common/doprnt.c: 1806:         ++*fmt;
  2175   00317A  0100               	movlb	0	; () banked
  2176   00317C  51D6               	movf	vfpfcnvrt@fmt& (0+255),w,b
  2177   00317E  6ED9               	movwf	fsr2l,c
  2178   003180  6ADA               	clrf	fsr2h,c
  2179   003182  2ADF               	incf	indf2,f,c
  2180   003184  EFD9  F018         	goto	l1247
  2181   003188                     l6425:
  2182                           
  2183                           ; BSR set to: 0
  2184                           ;/opt/microchip/xc8/v2.45/pic/sources/c99/common/doprnt.c: 1811:     fputc((int)(*fmt)[0
      +                          ], fp);
  2185   003188  51D6               	movf	vfpfcnvrt@fmt& (0+255),w,b
  2186   00318A  6ED9               	movwf	fsr2l,c
  2187   00318C  6ADA               	clrf	fsr2h,c
  2188   00318E  CFDF FFF6          	movff	indf2,tblptrl
  2189   003192                     	if	1	;There is more than 1 active tblptr byte
  2190   003192  0E0F               	movlw	high __smallconst
  2191   003194  6EF7               	movwf	tblptrh,c
  2192   003196                     	endif
  2193   003196                     	if	0	;tblptru may be non-zero
  2194   003196                     	endif
  2195   003196                     	if	1	;Program memory is > 0xFFFF, there are 3 active tblptr bytes
  2196   003196  0E00               	movlw	low (__smallconst shr (0+16))
  2197   003198  6EF8               	movwf	tblptru,c
  2198   00319A                     	endif
  2199   00319A  0008               	tblrd		*
  2200   00319C  50F5               	movf	tablat,w,c
  2201   00319E  6F62               	movwf	fputc@c& (0+255),b
  2202   0031A0  6B63               	clrf	(fputc@c+1)& (0+255),b
  2203   0031A2  C0D4  F064         	movff	vfpfcnvrt@fp,fputc@fp
  2204   0031A6  C0D5  F065         	movff	vfpfcnvrt@fp+1,fputc@fp+1
  2205   0031AA  EC9F  F01E         	call	_fputc	;wreg free
  2206   0031AE  EFBD  F018         	goto	l6421
  2207   0031B2                     l1247:
  2208   0031B2  0012               	return		;funcret
  2209   0031B4                     __end_of_vfpfcnvrt:
  2210                           	callstack 0
  2211                           
  2212 ;; *************** function _efgtoa *****************
  2213 ;; Defined at:
  2214 ;;		line 587 in file "/opt/microchip/xc8/v2.45/pic/sources/c99/common/doprnt.c"
  2215 ;; Parameters:    Size  Location     Type
  2216 ;;  fp              2   63[BANK0 ] PTR struct _IO_FILE
  2217 ;;		 -> NULL(0), 
  2218 ;;  f               4   65[BANK0 ] PTR struct _IO_FILE
  2219 ;;  c               1   69[BANK0 ] unsigned char 
  2220 ;; Auto vars:     Size  Location     Type
  2221 ;;  u               4  112[BANK0 ] struct flui
  2222 ;;  g               4  106[BANK0 ] struct flui
  2223 ;;  l               4  101[BANK0 ] struct flui
  2224 ;;  h               4   97[BANK0 ] struct flui
  2225 ;;  ou              4   91[BANK0 ] struct flui
  2226 ;;  n               2  110[BANK0 ] int 
  2227 ;;  i               2   95[BANK0 ] int 
  2228 ;;  w               2   89[BANK0 ] int 
  2229 ;;  e               2   87[BANK0 ] int 
  2230 ;;  m               2   85[BANK0 ] int 
  2231 ;;  d               2   83[BANK0 ] int 
  2232 ;;  t               2   76[BANK0 ] int 
  2233 ;;  p               2   74[BANK0 ] int 
  2234 ;;  ne              2   72[BANK0 ] int 
  2235 ;;  sign            1  105[BANK0 ] unsigned char 
  2236 ;;  nmode           1   82[BANK0 ] unsigned char 
  2237 ;;  mode            1   81[BANK0 ] unsigned char 
  2238 ;;  pp              1   80[BANK0 ] unsigned char 
  2239 ;;  esign           1    0        unsigned char 
  2240 ;; Return value:  Size  Location     Type
  2241 ;;                  1    wreg      void 
  2242 ;; Registers used:
  2243 ;;		wreg, fsr1l, fsr1h, fsr2l, fsr2h, status,2, status,0, tblptrl, tblptrh, tblptru, prodl, prodh, cstack
  2244 ;; Tracked objects:
  2245 ;;		On entry : 0/0
  2246 ;;		On exit  : 0/0
  2247 ;;		Unchanged: 0/0
  2248 ;; Data sizes:     COMRAM   BANK0   BANK1   BANK2   BANK3   BANK4   BANK5   BANK6   BANK7   BANK8   BANK9  BANK10  BANK1
      +1  BANK12  BANK14
  2249 ;;      Params:         0       7       0       0       0       0       0       0       0       0       0       0       
      +0       0       0
  2250 ;;      Locals:         0      44       0       0       0       0       0       0       0       0       0       0       
      +0       0       0
  2251 ;;      Temps:          0       2       0       0       0       0       0       0       0       0       0       0       
      +0       0       0
  2252 ;;      Totals:         0      53       0       0       0       0       0       0       0       0       0       0       
      +0       0       0
  2253 ;;Total ram usage:       53 bytes
  2254 ;; Hardware stack levels used: 1
  2255 ;; Hardware stack levels required when called: 10
  2256 ;; This function calls:
  2257 ;;		___fladd
  2258 ;;		___fldiv
  2259 ;;		___fleq
  2260 ;;		___flge
  2261 ;;		___flmul
  2262 ;;		___flneg
  2263 ;;		___flsub
  2264 ;;		___fltol
  2265 ;;		___fpclassifyf
  2266 ;;		_floorf
  2267 ;;		_labs
  2268 ;;		_memcpy
  2269 ;;		_pad
  2270 ;;		_strcpy
  2271 ;; This function is called by:
  2272 ;;		_vfpfcnvrt
  2273 ;; This function uses a non-reentrant model
  2274 ;;
  2275                           
  2276                           	psect	text4
  2277   000F3E                     __ptext4:
  2278                           	callstack 0
  2279   000F3E                     _efgtoa:
  2280                           	callstack 17
  2281   000F3E                     
  2282                           ;/opt/microchip/xc8/v2.45/pic/sources/c99/common/doprnt.c: 587: static void efgtoa(FILE 
      +                          *fp, long double f, char c);/opt/microchip/xc8/v2.45/pic/sources/c99/common/doprnt.c: 58
      +                          8: {;/opt/microchip/xc8/v2.45/pic/sources/c99/common/doprnt.c: 589:     char mode, nmode
      +                          , pp, sign, esign;;/opt/microchip/xc8/v2.45/pic/sources/c99/common/doprnt.c: 590:     in
      +                          t d, e, i, m, n, ne, p, t, w;;/opt/microchip/xc8/v2.45/pic/sources/c99/common/doprnt.c: 
      +                          591:     long double h, l;;/opt/microchip/xc8/v2.45/pic/sources/c99/common/doprnt.c: 592
      +                          :  union flui g, u, ou;
  2283   000F3E  0E00               	movlw	0
  2284   000F40  0100               	movlb	0	; () banked
  2285   000F42  6FC9               	movwf	efgtoa@sign& (0+255),b
  2286   000F44                     
  2287                           ; BSR set to: 0
  2288                           ;/opt/microchip/xc8/v2.45/pic/sources/c99/common/doprnt.c: 596:     g.f = f;
  2289   000F44  C0A1  F0CA         	movff	efgtoa@f,efgtoa@g
  2290   000F48  C0A2  F0CB         	movff	efgtoa@f+1,efgtoa@g+1
  2291   000F4C  C0A3  F0CC         	movff	efgtoa@f+2,efgtoa@g+2
  2292   000F50  C0A4  F0CD         	movff	efgtoa@f+3,efgtoa@g+3
  2293   000F54                     
  2294                           ; BSR set to: 0
  2295                           ;/opt/microchip/xc8/v2.45/pic/sources/c99/common/doprnt.c: 597:     if (g.f < 0.0) {
  2296   000F54  BFCD               	btfsc	(efgtoa@g+3)& (0+255),7,b
  2297   000F56  EFB1  F007         	goto	u7220
  2298   000F5A  EFAF  F007         	goto	u7221
  2299   000F5E                     u7221:
  2300   000F5E  EFC5  F007         	goto	l6107
  2301   000F62                     u7220:
  2302   000F62                     
  2303                           ; BSR set to: 0
  2304                           ;/opt/microchip/xc8/v2.45/pic/sources/c99/common/doprnt.c: 598:         sign = 1;
  2305   000F62  0E01               	movlw	1
  2306   000F64  6FC9               	movwf	efgtoa@sign& (0+255),b
  2307   000F66                     
  2308                           ; BSR set to: 0
  2309                           ;/opt/microchip/xc8/v2.45/pic/sources/c99/common/doprnt.c: 599:         g.f = -g.f;
  2310   000F66  C0CA  F060         	movff	efgtoa@g,___flneg@f1
  2311   000F6A  C0CB  F061         	movff	efgtoa@g+1,___flneg@f1+1
  2312   000F6E  C0CC  F062         	movff	efgtoa@g+2,___flneg@f1+2
  2313   000F72  C0CD  F063         	movff	efgtoa@g+3,___flneg@f1+3
  2314   000F76  EC62  F022         	call	___flneg	;wreg free
  2315   000F7A  C060  F0CA         	movff	?___flneg,efgtoa@g
  2316   000F7E  C061  F0CB         	movff	?___flneg+1,efgtoa@g+1
  2317   000F82  C062  F0CC         	movff	?___flneg+2,efgtoa@g+2
  2318   000F86  C063  F0CD         	movff	?___flneg+3,efgtoa@g+3
  2319   000F8A                     l6107:
  2320                           
  2321                           ;/opt/microchip/xc8/v2.45/pic/sources/c99/common/doprnt.c: 603:     n = 0;
  2322   000F8A  0E00               	movlw	0
  2323   000F8C  0100               	movlb	0	; () banked
  2324   000F8E  6FCF               	movwf	(efgtoa@n+1)& (0+255),b
  2325   000F90  0E00               	movlw	0
  2326   000F92  6FCE               	movwf	efgtoa@n& (0+255),b
  2327   000F94                     
  2328                           ; BSR set to: 0
  2329                           ;/opt/microchip/xc8/v2.45/pic/sources/c99/common/doprnt.c: 604:     w = width;
  2330   000F94  C0EE  F0B9         	movff	_width,efgtoa@w
  2331   000F98  C0EF  F0BA         	movff	_width+1,efgtoa@w+1
  2332   000F9C                     
  2333                           ; BSR set to: 0
  2334                           ;/opt/microchip/xc8/v2.45/pic/sources/c99/common/doprnt.c: 605:     if (sign
  2335   000F9C  51C9               	movf	efgtoa@sign& (0+255),w,b
  2336   000F9E  B4D8               	btfsc	status,2,c
  2337   000FA0  EFD4  F007         	goto	u7231
  2338   000FA4  EFD6  F007         	goto	u7230
  2339   000FA8                     u7231:
  2340   000FA8  EFEC  F007         	goto	l1173
  2341   000FAC                     u7230:
  2342   000FAC                     
  2343                           ; BSR set to: 0
  2344                           ;/opt/microchip/xc8/v2.45/pic/sources/c99/common/doprnt.c: 609:    ) {;/opt/microchip/xc
      +                          8/v2.45/pic/sources/c99/common/doprnt.c: 610:   sign = sign ? '-' : '+';
  2345   000FAC  51C9               	movf	efgtoa@sign& (0+255),w,b
  2346   000FAE  A4D8               	btfss	status,2,c
  2347   000FB0  EFDC  F007         	goto	u7241
  2348   000FB4  EFDE  F007         	goto	u7240
  2349   000FB8                     u7241:
  2350   000FB8  EFE4  F007         	goto	l6117
  2351   000FBC                     u7240:
  2352   000FBC                     
  2353                           ; BSR set to: 0
  2354   000FBC  0E00               	movlw	0
  2355   000FBE  6FAF               	movwf	(_efgtoa$1538+1)& (0+255),b
  2356   000FC0  0E2B               	movlw	43
  2357   000FC2  6FAE               	movwf	_efgtoa$1538& (0+255),b
  2358   000FC4  EFE8  F007         	goto	l6119
  2359   000FC8                     l6117:
  2360                           
  2361                           ; BSR set to: 0
  2362   000FC8  0E00               	movlw	0
  2363   000FCA  6FAF               	movwf	(_efgtoa$1538+1)& (0+255),b
  2364   000FCC  0E2D               	movlw	45
  2365   000FCE  6FAE               	movwf	_efgtoa$1538& (0+255),b
  2366   000FD0                     l6119:
  2367                           
  2368                           ; BSR set to: 0
  2369   000FD0  C0AE  F0C9         	movff	_efgtoa$1538,efgtoa@sign
  2370                           
  2371                           ;/opt/microchip/xc8/v2.45/pic/sources/c99/common/doprnt.c: 611:     }
  2372   000FD4  EFF5  F007         	goto	l6123
  2373   000FD8                     l1173:
  2374                           
  2375                           ; BSR set to: 0
  2376   000FD8  A7F4               	btfss	_flags& (0+255),3,b
  2377   000FDA  EFF1  F007         	goto	u7251
  2378   000FDE  EFF3  F007         	goto	u7250
  2379   000FE2                     u7251:
  2380   000FE2  EFF5  F007         	goto	l6123
  2381   000FE6                     u7250:
  2382   000FE6                     
  2383                           ; BSR set to: 0
  2384                           ;/opt/microchip/xc8/v2.45/pic/sources/c99/common/doprnt.c: 614:   sign = ' ';
  2385   000FE6  0E20               	movlw	32
  2386   000FE8  6FC9               	movwf	efgtoa@sign& (0+255),b
  2387   000FEA                     l6123:
  2388                           
  2389                           ; BSR set to: 0
  2390                           ;/opt/microchip/xc8/v2.45/pic/sources/c99/common/doprnt.c: 619:     if (( __fpclassifyf(
      +                          g.f) == 1 )) {
  2391   000FEA  C0CA  F060         	movff	efgtoa@g,___fpclassifyf@x
  2392   000FEE  C0CB  F061         	movff	efgtoa@g+1,___fpclassifyf@x+1
  2393   000FF2  C0CC  F062         	movff	efgtoa@g+2,___fpclassifyf@x+2
  2394   000FF6  C0CD  F063         	movff	efgtoa@g+3,___fpclassifyf@x+3
  2395   000FFA  EC1F  F01E         	call	___fpclassifyf	;wreg free
  2396   000FFE  0100               	movlb	0	; () banked
  2397   001000  0560               	decf	?___fpclassifyf& (0+255),w,b
  2398   001002  1161               	iorwf	(?___fpclassifyf+1)& (0+255),w,b
  2399   001004  A4D8               	btfss	status,2,c
  2400   001006  EF07  F008         	goto	u7261
  2401   00100A  EF09  F008         	goto	u7260
  2402   00100E                     u7261:
  2403   00100E  EF39  F008         	goto	l6141
  2404   001012                     u7260:
  2405   001012                     
  2406                           ; BSR set to: 0
  2407                           ;/opt/microchip/xc8/v2.45/pic/sources/c99/common/doprnt.c: 620:   if (sign) {
  2408   001012  51C9               	movf	efgtoa@sign& (0+255),w,b
  2409   001014  B4D8               	btfsc	status,2,c
  2410   001016  EF0F  F008         	goto	u7271
  2411   00101A  EF11  F008         	goto	u7270
  2412   00101E                     u7271:
  2413   00101E  EF1A  F008         	goto	l6133
  2414   001022                     u7270:
  2415   001022                     
  2416                           ; BSR set to: 0
  2417                           ;/opt/microchip/xc8/v2.45/pic/sources/c99/common/doprnt.c: 621:    dbuf[0] = sign;
  2418   001022  C0C9  F100         	movff	efgtoa@sign,_dbuf
  2419   001026                     
  2420                           ; BSR set to: 0
  2421                           ;/opt/microchip/xc8/v2.45/pic/sources/c99/common/doprnt.c: 622:    w--;
  2422   001026  07B9               	decf	efgtoa@w& (0+255),f,b
  2423   001028  A0D8               	btfss	status,0,c
  2424   00102A  07BA               	decf	(efgtoa@w+1)& (0+255),f,b
  2425   00102C                     
  2426                           ; BSR set to: 0
  2427                           ;/opt/microchip/xc8/v2.45/pic/sources/c99/common/doprnt.c: 623:    n = 1;
  2428   00102C  0E00               	movlw	0
  2429   00102E  6FCF               	movwf	(efgtoa@n+1)& (0+255),b
  2430   001030  0E01               	movlw	1
  2431   001032  6FCE               	movwf	efgtoa@n& (0+255),b
  2432   001034                     l6133:
  2433                           
  2434                           ; BSR set to: 0
  2435                           ;/opt/microchip/xc8/v2.45/pic/sources/c99/common/doprnt.c: 631:   {;/opt/microchip/xc8/v
      +                          2.45/pic/sources/c99/common/doprnt.c: 632:             strcpy(&dbuf[n], "inf");
  2436   001034  0E00               	movlw	low _dbuf
  2437   001036  25CE               	addwf	efgtoa@n& (0+255),w,b
  2438   001038  6F60               	movwf	strcpy@dest& (0+255),b
  2439   00103A  0E01               	movlw	high _dbuf
  2440   00103C  21CF               	addwfc	(efgtoa@n+1)& (0+255),w,b
  2441   00103E  6F61               	movwf	(strcpy@dest+1)& (0+255),b
  2442   001040  0E34               	movlw	low STR_4
  2443   001042  6F62               	movwf	strcpy@src& (0+255),b
  2444   001044  EC42  F022         	call	_strcpy	;wreg free
  2445   001048                     l6135:
  2446                           
  2447                           ;/opt/microchip/xc8/v2.45/pic/sources/c99/common/doprnt.c: 633:         };/opt/microchip
      +                          /xc8/v2.45/pic/sources/c99/common/doprnt.c: 634:         w -= ((sizeof("inf")/sizeof("in
      +                          f"[0]))-1);
  2448   001048  0100               	movlb	0	; () banked
  2449   00104A  0EFD               	movlw	253
  2450   00104C  27B9               	addwf	efgtoa@w& (0+255),f,b
  2451   00104E  0EFF               	movlw	255
  2452   001050  23BA               	addwfc	(efgtoa@w+1)& (0+255),f,b
  2453   001052                     
  2454                           ; BSR set to: 0
  2455                           ;/opt/microchip/xc8/v2.45/pic/sources/c99/common/doprnt.c: 635:         return (void) pa
      +                          d(fp, &dbuf[0], w);
  2456   001052  C09F  F072         	movff	efgtoa@fp,pad@fp
  2457   001056  C0A0  F073         	movff	efgtoa@fp+1,pad@fp+1
  2458   00105A  0E00               	movlw	low _dbuf
  2459   00105C  6F74               	movwf	pad@buf& (0+255),b
  2460   00105E  0E01               	movlw	high _dbuf
  2461   001060  6F75               	movwf	(pad@buf+1)& (0+255),b
  2462   001062  C0B9  F076         	movff	efgtoa@w,pad@p
  2463   001066  C0BA  F077         	movff	efgtoa@w+1,pad@p+1
  2464   00106A  ECF6  F020         	call	_pad	;wreg free
  2465   00106E  EFA5  F00C         	goto	l1182
  2466   001072                     l6141:
  2467                           
  2468                           ; BSR set to: 0
  2469                           ;/opt/microchip/xc8/v2.45/pic/sources/c99/common/doprnt.c: 637:     if (( __fpclassifyf(
      +                          g.f) == 0 )) {
  2470   001072  C0CA  F060         	movff	efgtoa@g,___fpclassifyf@x
  2471   001076  C0CB  F061         	movff	efgtoa@g+1,___fpclassifyf@x+1
  2472   00107A  C0CC  F062         	movff	efgtoa@g+2,___fpclassifyf@x+2
  2473   00107E  C0CD  F063         	movff	efgtoa@g+3,___fpclassifyf@x+3
  2474   001082  EC1F  F01E         	call	___fpclassifyf	;wreg free
  2475   001086  0100               	movlb	0	; () banked
  2476   001088  5160               	movf	?___fpclassifyf& (0+255),w,b
  2477   00108A  1161               	iorwf	(?___fpclassifyf+1)& (0+255),w,b
  2478   00108C  A4D8               	btfss	status,2,c
  2479   00108E  EF4B  F008         	goto	u7281
  2480   001092  EF4D  F008         	goto	u7280
  2481   001096                     u7281:
  2482   001096  EF6A  F008         	goto	l6159
  2483   00109A                     u7280:
  2484   00109A                     
  2485                           ; BSR set to: 0
  2486                           ;/opt/microchip/xc8/v2.45/pic/sources/c99/common/doprnt.c: 638:   if (sign) {
  2487   00109A  51C9               	movf	efgtoa@sign& (0+255),w,b
  2488   00109C  B4D8               	btfsc	status,2,c
  2489   00109E  EF53  F008         	goto	u7291
  2490   0010A2  EF55  F008         	goto	u7290
  2491   0010A6                     u7291:
  2492   0010A6  EF5E  F008         	goto	l6151
  2493   0010AA                     u7290:
  2494   0010AA                     
  2495                           ; BSR set to: 0
  2496                           ;/opt/microchip/xc8/v2.45/pic/sources/c99/common/doprnt.c: 639:    dbuf[0] = sign;
  2497   0010AA  C0C9  F100         	movff	efgtoa@sign,_dbuf
  2498   0010AE                     
  2499                           ; BSR set to: 0
  2500                           ;/opt/microchip/xc8/v2.45/pic/sources/c99/common/doprnt.c: 640:    w--;
  2501   0010AE  07B9               	decf	efgtoa@w& (0+255),f,b
  2502   0010B0  A0D8               	btfss	status,0,c
  2503   0010B2  07BA               	decf	(efgtoa@w+1)& (0+255),f,b
  2504   0010B4                     
  2505                           ; BSR set to: 0
  2506                           ;/opt/microchip/xc8/v2.45/pic/sources/c99/common/doprnt.c: 641:    n = 1;
  2507   0010B4  0E00               	movlw	0
  2508   0010B6  6FCF               	movwf	(efgtoa@n+1)& (0+255),b
  2509   0010B8  0E01               	movlw	1
  2510   0010BA  6FCE               	movwf	efgtoa@n& (0+255),b
  2511   0010BC                     l6151:
  2512                           
  2513                           ; BSR set to: 0
  2514                           ;/opt/microchip/xc8/v2.45/pic/sources/c99/common/doprnt.c: 649:   {;/opt/microchip/xc8/v
      +                          2.45/pic/sources/c99/common/doprnt.c: 650:             strcpy(&dbuf[n], "nan");
  2515   0010BC  0E00               	movlw	low _dbuf
  2516   0010BE  25CE               	addwf	efgtoa@n& (0+255),w,b
  2517   0010C0  6F60               	movwf	strcpy@dest& (0+255),b
  2518   0010C2  0E01               	movlw	high _dbuf
  2519   0010C4  21CF               	addwfc	(efgtoa@n+1)& (0+255),w,b
  2520   0010C6  6F61               	movwf	(strcpy@dest+1)& (0+255),b
  2521   0010C8  0E38               	movlw	low STR_7
  2522   0010CA  6F62               	movwf	strcpy@src& (0+255),b
  2523   0010CC  EC42  F022         	call	_strcpy	;wreg free
  2524   0010D0  EF24  F008         	goto	l6135
  2525   0010D4                     l6159:
  2526                           
  2527                           ; BSR set to: 0
  2528                           ;/opt/microchip/xc8/v2.45/pic/sources/c99/common/doprnt.c: 657:     u.f = 1.0;
  2529   0010D4  0E00               	movlw	0
  2530   0010D6  6FD0               	movwf	efgtoa@u& (0+255),b
  2531   0010D8  0E00               	movlw	0
  2532   0010DA  6FD1               	movwf	(efgtoa@u+1)& (0+255),b
  2533   0010DC  0E80               	movlw	128
  2534   0010DE  6FD2               	movwf	(efgtoa@u+2)& (0+255),b
  2535   0010E0  0E3F               	movlw	63
  2536   0010E2  6FD3               	movwf	(efgtoa@u+3)& (0+255),b
  2537                           
  2538                           ;/opt/microchip/xc8/v2.45/pic/sources/c99/common/doprnt.c: 658:     e = 0;
  2539   0010E4  0E00               	movlw	0
  2540   0010E6  6FB8               	movwf	(efgtoa@e+1)& (0+255),b
  2541   0010E8  0E00               	movlw	0
  2542   0010EA  6FB7               	movwf	efgtoa@e& (0+255),b
  2543   0010EC                     
  2544                           ; BSR set to: 0
  2545                           ;/opt/microchip/xc8/v2.45/pic/sources/c99/common/doprnt.c: 659:  if (!(g.f == 0.0)) {
  2546   0010EC  C0CA  F060         	movff	efgtoa@g,___fleq@ff1
  2547   0010F0  C0CB  F061         	movff	efgtoa@g+1,___fleq@ff1+1
  2548   0010F4  C0CC  F062         	movff	efgtoa@g+2,___fleq@ff1+2
  2549   0010F8  C0CD  F063         	movff	efgtoa@g+3,___fleq@ff1+3
  2550   0010FC  0E00               	movlw	0
  2551   0010FE  6F64               	movwf	___fleq@ff2& (0+255),b
  2552   001100  0E00               	movlw	0
  2553   001102  6F65               	movwf	(___fleq@ff2+1)& (0+255),b
  2554   001104  0E00               	movlw	0
  2555   001106  6F66               	movwf	(___fleq@ff2+2)& (0+255),b
  2556   001108  0E00               	movlw	0
  2557   00110A  6F67               	movwf	(___fleq@ff2+3)& (0+255),b
  2558   00110C  EC20  F020         	call	___fleq	;wreg free
  2559   001110  0100               	movlb	0	; () banked
  2560   001112  B0D8               	btfsc	status,0,c
  2561   001114  EF8E  F008         	goto	u7301
  2562   001118  EF90  F008         	goto	u7300
  2563   00111C                     u7301:
  2564   00111C  EF72  F009         	goto	l1185
  2565   001120                     u7300:
  2566   001120  EF9C  F008         	goto	l6167
  2567   001124                     l1187:
  2568                           
  2569                           ; BSR set to: 0
  2570                           ;/opt/microchip/xc8/v2.45/pic/sources/c99/common/doprnt.c: 661:    u = ou;
  2571   001124  C0BB  F0D0         	movff	efgtoa@ou,efgtoa@u
  2572   001128  C0BC  F0D1         	movff	efgtoa@ou+1,efgtoa@u+1
  2573   00112C  C0BD  F0D2         	movff	efgtoa@ou+2,efgtoa@u+2
  2574   001130  C0BE  F0D3         	movff	efgtoa@ou+3,efgtoa@u+3
  2575   001134                     
  2576                           ; BSR set to: 0
  2577                           ;/opt/microchip/xc8/v2.45/pic/sources/c99/common/doprnt.c: 662:    ++e;
  2578   001134  4BB7               	infsnz	efgtoa@e& (0+255),f,b
  2579   001136  2BB8               	incf	(efgtoa@e+1)& (0+255),f,b
  2580   001138                     l6167:
  2581                           
  2582                           ; BSR set to: 0
  2583                           ;/opt/microchip/xc8/v2.45/pic/sources/c99/common/doprnt.c: 660:   while ((labs((g).u-((o
      +                          u.f = u.f*10.0,ou)).u) <= 1) || g.f > ou.f) {
  2584   001138  C0D0  F060         	movff	efgtoa@u,___flmul@b
  2585   00113C  C0D1  F061         	movff	efgtoa@u+1,___flmul@b+1
  2586   001140  C0D2  F062         	movff	efgtoa@u+2,___flmul@b+2
  2587   001144  C0D3  F063         	movff	efgtoa@u+3,___flmul@b+3
  2588   001148  0E00               	movlw	0
  2589   00114A  6F64               	movwf	___flmul@a& (0+255),b
  2590   00114C  0E00               	movlw	0
  2591   00114E  6F65               	movwf	(___flmul@a+1)& (0+255),b
  2592   001150  0E20               	movlw	32
  2593   001152  6F66               	movwf	(___flmul@a+2)& (0+255),b
  2594   001154  0E41               	movlw	65
  2595   001156  6F67               	movwf	(___flmul@a+3)& (0+255),b
  2596   001158  EC67  F011         	call	___flmul	;wreg free
  2597   00115C  C060  F0BB         	movff	?___flmul,efgtoa@ou
  2598   001160  C061  F0BC         	movff	?___flmul+1,efgtoa@ou+1
  2599   001164  C062  F0BD         	movff	?___flmul+2,efgtoa@ou+2
  2600   001168  C063  F0BE         	movff	?___flmul+3,efgtoa@ou+3
  2601   00116C  0100               	movlb	0	; () banked
  2602   00116E  51BB               	movf	efgtoa@ou& (0+255),w,b
  2603   001170  5DCA               	subwf	efgtoa@g& (0+255),w,b
  2604   001172  6F60               	movwf	labs@a& (0+255),b
  2605   001174  51BC               	movf	(efgtoa@ou+1)& (0+255),w,b
  2606   001176  59CB               	subwfb	(efgtoa@g+1)& (0+255),w,b
  2607   001178  6F61               	movwf	(labs@a+1)& (0+255),b
  2608   00117A  51BD               	movf	(efgtoa@ou+2)& (0+255),w,b
  2609   00117C  59CC               	subwfb	(efgtoa@g+2)& (0+255),w,b
  2610   00117E  6F62               	movwf	(labs@a+2)& (0+255),b
  2611   001180  51BE               	movf	(efgtoa@ou+3)& (0+255),w,b
  2612   001182  59CD               	subwfb	(efgtoa@g+3)& (0+255),w,b
  2613   001184  6F63               	movwf	(labs@a+3)& (0+255),b
  2614   001186  EC2F  F021         	call	_labs	;wreg free
  2615   00118A  0100               	movlb	0	; () banked
  2616   00118C  BF63               	btfsc	(?_labs+3)& (0+255),7,b
  2617   00118E  EFD4  F008         	goto	u7311
  2618   001192  5163               	movf	(?_labs+3)& (0+255),w,b
  2619   001194  1162               	iorwf	(?_labs+2)& (0+255),w,b
  2620   001196  1161               	iorwf	(?_labs+1)& (0+255),w,b
  2621   001198  E109               	bnz	u7310
  2622   00119A  0E02               	movlw	2
  2623   00119C  5D60               	subwf	?_labs& (0+255),w,b
  2624   00119E  A0D8               	btfss	status,0,c
  2625   0011A0  EFD4  F008         	goto	u7311
  2626   0011A4  EFD6  F008         	goto	u7310
  2627   0011A8                     u7311:
  2628   0011A8  EF92  F008         	goto	l1187
  2629   0011AC                     u7310:
  2630   0011AC                     
  2631                           ; BSR set to: 0
  2632   0011AC  C0BB  F079         	movff	efgtoa@ou,___flge@ff1
  2633   0011B0  C0BC  F07A         	movff	efgtoa@ou+1,___flge@ff1+1
  2634   0011B4  C0BD  F07B         	movff	efgtoa@ou+2,___flge@ff1+2
  2635   0011B8  C0BE  F07C         	movff	efgtoa@ou+3,___flge@ff1+3
  2636   0011BC  C0CA  F07D         	movff	efgtoa@g,___flge@ff2
  2637   0011C0  C0CB  F07E         	movff	efgtoa@g+1,___flge@ff2+1
  2638   0011C4  C0CC  F07F         	movff	efgtoa@g+2,___flge@ff2+2
  2639   0011C8  C0CD  F080         	movff	efgtoa@g+3,___flge@ff2+3
  2640   0011CC  EC9C  F01D         	call	___flge	;wreg free
  2641   0011D0  0100               	movlb	0	; () banked
  2642   0011D2  A0D8               	btfss	status,0,c
  2643   0011D4  EFEE  F008         	goto	u7321
  2644   0011D8  EFF0  F008         	goto	u7320
  2645   0011DC                     u7321:
  2646   0011DC  EF92  F008         	goto	l1187
  2647   0011E0                     u7320:
  2648   0011E0                     
  2649                           ; BSR set to: 0
  2650                           ;/opt/microchip/xc8/v2.45/pic/sources/c99/common/doprnt.c: 664:   if ((labs((g).u-(u).u)
      +                           <= 1)) {
  2651   0011E0  51D0               	movf	efgtoa@u& (0+255),w,b
  2652   0011E2  5DCA               	subwf	efgtoa@g& (0+255),w,b
  2653   0011E4  6F60               	movwf	labs@a& (0+255),b
  2654   0011E6  51D1               	movf	(efgtoa@u+1)& (0+255),w,b
  2655   0011E8  59CB               	subwfb	(efgtoa@g+1)& (0+255),w,b
  2656   0011EA  6F61               	movwf	(labs@a+1)& (0+255),b
  2657   0011EC  51D2               	movf	(efgtoa@u+2)& (0+255),w,b
  2658   0011EE  59CC               	subwfb	(efgtoa@g+2)& (0+255),w,b
  2659   0011F0  6F62               	movwf	(labs@a+2)& (0+255),b
  2660   0011F2  51D3               	movf	(efgtoa@u+3)& (0+255),w,b
  2661   0011F4  59CD               	subwfb	(efgtoa@g+3)& (0+255),w,b
  2662   0011F6  6F63               	movwf	(labs@a+3)& (0+255),b
  2663   0011F8  EC2F  F021         	call	_labs	;wreg free
  2664   0011FC  0100               	movlb	0	; () banked
  2665   0011FE  BF63               	btfsc	(?_labs+3)& (0+255),7,b
  2666   001200  EF0F  F009         	goto	u7330
  2667   001204  5163               	movf	(?_labs+3)& (0+255),w,b
  2668   001206  1162               	iorwf	(?_labs+2)& (0+255),w,b
  2669   001208  1161               	iorwf	(?_labs+1)& (0+255),w,b
  2670   00120A  E107               	bnz	u7331
  2671   00120C  0E02               	movlw	2
  2672   00120E  5D60               	subwf	?_labs& (0+255),w,b
  2673   001210  B0D8               	btfsc	status,0,c
  2674   001212  EF0D  F009         	goto	u7331
  2675   001216  EF0F  F009         	goto	u7330
  2676   00121A                     u7331:
  2677   00121A  EF58  F009         	goto	l6185
  2678   00121E                     u7330:
  2679   00121E                     l6175:
  2680                           
  2681                           ; BSR set to: 0
  2682                           ;/opt/microchip/xc8/v2.45/pic/sources/c99/common/doprnt.c: 665:    g = u;
  2683   00121E  C0D0  F0CA         	movff	efgtoa@u,efgtoa@g
  2684   001222  C0D1  F0CB         	movff	efgtoa@u+1,efgtoa@g+1
  2685   001226  C0D2  F0CC         	movff	efgtoa@u+2,efgtoa@g+2
  2686   00122A  C0D3  F0CD         	movff	efgtoa@u+3,efgtoa@g+3
  2687                           
  2688                           ;/opt/microchip/xc8/v2.45/pic/sources/c99/common/doprnt.c: 666:   }
  2689   00122E  EF72  F009         	goto	l1185
  2690   001232                     l6177:
  2691                           
  2692                           ; BSR set to: 0
  2693                           ;/opt/microchip/xc8/v2.45/pic/sources/c99/common/doprnt.c: 669:     u.f = u.f/10.0;
  2694   001232  C0D0  F06E         	movff	efgtoa@u,___fldiv@b
  2695   001236  C0D1  F06F         	movff	efgtoa@u+1,___fldiv@b+1
  2696   00123A  C0D2  F070         	movff	efgtoa@u+2,___fldiv@b+2
  2697   00123E  C0D3  F071         	movff	efgtoa@u+3,___fldiv@b+3
  2698   001242  0E00               	movlw	0
  2699   001244  6F72               	movwf	___fldiv@a& (0+255),b
  2700   001246  0E00               	movlw	0
  2701   001248  6F73               	movwf	(___fldiv@a+1)& (0+255),b
  2702   00124A  0E20               	movlw	32
  2703   00124C  6F74               	movwf	(___fldiv@a+2)& (0+255),b
  2704   00124E  0E41               	movlw	65
  2705   001250  6F75               	movwf	(___fldiv@a+3)& (0+255),b
  2706   001252  EC7D  F013         	call	___fldiv	;wreg free
  2707   001256  C06E  F0D0         	movff	?___fldiv,efgtoa@u
  2708   00125A  C06F  F0D1         	movff	?___fldiv+1,efgtoa@u+1
  2709   00125E  C070  F0D2         	movff	?___fldiv+2,efgtoa@u+2
  2710   001262  C071  F0D3         	movff	?___fldiv+3,efgtoa@u+3
  2711   001266                     
  2712                           ;/opt/microchip/xc8/v2.45/pic/sources/c99/common/doprnt.c: 670:     --e;
  2713   001266  0100               	movlb	0	; () banked
  2714   001268  07B7               	decf	efgtoa@e& (0+255),f,b
  2715   00126A  A0D8               	btfss	status,0,c
  2716   00126C  07B8               	decf	(efgtoa@e+1)& (0+255),f,b
  2717   00126E                     
  2718                           ; BSR set to: 0
  2719                           ;/opt/microchip/xc8/v2.45/pic/sources/c99/common/doprnt.c: 671:     if ((labs((g).u-(u).
      +                          u) <= 1)) {
  2720   00126E  51D0               	movf	efgtoa@u& (0+255),w,b
  2721   001270  5DCA               	subwf	efgtoa@g& (0+255),w,b
  2722   001272  6F60               	movwf	labs@a& (0+255),b
  2723   001274  51D1               	movf	(efgtoa@u+1)& (0+255),w,b
  2724   001276  59CB               	subwfb	(efgtoa@g+1)& (0+255),w,b
  2725   001278  6F61               	movwf	(labs@a+1)& (0+255),b
  2726   00127A  51D2               	movf	(efgtoa@u+2)& (0+255),w,b
  2727   00127C  59CC               	subwfb	(efgtoa@g+2)& (0+255),w,b
  2728   00127E  6F62               	movwf	(labs@a+2)& (0+255),b
  2729   001280  51D3               	movf	(efgtoa@u+3)& (0+255),w,b
  2730   001282  59CD               	subwfb	(efgtoa@g+3)& (0+255),w,b
  2731   001284  6F63               	movwf	(labs@a+3)& (0+255),b
  2732   001286  EC2F  F021         	call	_labs	;wreg free
  2733   00128A  0100               	movlb	0	; () banked
  2734   00128C  BF63               	btfsc	(?_labs+3)& (0+255),7,b
  2735   00128E  EF56  F009         	goto	u7340
  2736   001292  5163               	movf	(?_labs+3)& (0+255),w,b
  2737   001294  1162               	iorwf	(?_labs+2)& (0+255),w,b
  2738   001296  1161               	iorwf	(?_labs+1)& (0+255),w,b
  2739   001298  E107               	bnz	u7341
  2740   00129A  0E02               	movlw	2
  2741   00129C  5D60               	subwf	?_labs& (0+255),w,b
  2742   00129E  B0D8               	btfsc	status,0,c
  2743   0012A0  EF54  F009         	goto	u7341
  2744   0012A4  EF56  F009         	goto	u7340
  2745   0012A8                     u7341:
  2746   0012A8  EF58  F009         	goto	l6185
  2747   0012AC                     u7340:
  2748   0012AC  EF0F  F009         	goto	l6175
  2749   0012B0                     l6185:
  2750                           
  2751                           ; BSR set to: 0
  2752                           ;/opt/microchip/xc8/v2.45/pic/sources/c99/common/doprnt.c: 668:    while (g.f < u.f) {
  2753   0012B0  C0CA  F079         	movff	efgtoa@g,___flge@ff1
  2754   0012B4  C0CB  F07A         	movff	efgtoa@g+1,___flge@ff1+1
  2755   0012B8  C0CC  F07B         	movff	efgtoa@g+2,___flge@ff1+2
  2756   0012BC  C0CD  F07C         	movff	efgtoa@g+3,___flge@ff1+3
  2757   0012C0  C0D0  F07D         	movff	efgtoa@u,___flge@ff2
  2758   0012C4  C0D1  F07E         	movff	efgtoa@u+1,___flge@ff2+1
  2759   0012C8  C0D2  F07F         	movff	efgtoa@u+2,___flge@ff2+2
  2760   0012CC  C0D3  F080         	movff	efgtoa@u+3,___flge@ff2+3
  2761   0012D0  EC9C  F01D         	call	___flge	;wreg free
  2762   0012D4  0100               	movlb	0	; () banked
  2763   0012D6  A0D8               	btfss	status,0,c
  2764   0012D8  EF70  F009         	goto	u7351
  2765   0012DC  EF72  F009         	goto	u7350
  2766   0012E0                     u7351:
  2767   0012E0  EF19  F009         	goto	l6177
  2768   0012E4                     u7350:
  2769   0012E4                     l1185:
  2770                           
  2771                           ; BSR set to: 0
  2772                           ;/opt/microchip/xc8/v2.45/pic/sources/c99/common/doprnt.c: 683:  mode = c;
  2773   0012E4  C0A5  F0B1         	movff	efgtoa@c,efgtoa@mode
  2774                           
  2775                           ;/opt/microchip/xc8/v2.45/pic/sources/c99/common/doprnt.c: 685:     nmode = mode;
  2776   0012E8  C0B1  F0B2         	movff	efgtoa@mode,efgtoa@nmode
  2777   0012EC                     
  2778                           ; BSR set to: 0
  2779                           ;/opt/microchip/xc8/v2.45/pic/sources/c99/common/doprnt.c: 695:  {;/opt/microchip/xc8/v2
      +                          .45/pic/sources/c99/common/doprnt.c: 696:         p = (prec < 0) ? 6 : prec;
  2780   0012EC  BFF1               	btfsc	(_prec+1)& (0+255),7,b
  2781   0012EE  EF7B  F009         	goto	u7361
  2782   0012F2  EF7D  F009         	goto	u7360
  2783   0012F6                     u7361:
  2784   0012F6  EF83  F009         	goto	l6191
  2785   0012FA                     u7360:
  2786   0012FA                     
  2787                           ; BSR set to: 0
  2788   0012FA  C0F0  F0AA         	movff	_prec,efgtoa@p
  2789   0012FE  C0F1  F0AB         	movff	_prec+1,efgtoa@p+1
  2790   001302  EF87  F009         	goto	l6193
  2791   001306                     l6191:
  2792                           
  2793                           ; BSR set to: 0
  2794   001306  0E00               	movlw	0
  2795   001308  6FAB               	movwf	(efgtoa@p+1)& (0+255),b
  2796   00130A  0E06               	movlw	6
  2797   00130C  6FAA               	movwf	efgtoa@p& (0+255),b
  2798   00130E                     l6193:
  2799                           
  2800                           ; BSR set to: 0
  2801                           ;/opt/microchip/xc8/v2.45/pic/sources/c99/common/doprnt.c: 697:     };/opt/microchip/xc8
      +                          /v2.45/pic/sources/c99/common/doprnt.c: 711:     m = p;
  2802   00130E  C0AA  F0B5         	movff	efgtoa@p,efgtoa@m
  2803   001312  C0AB  F0B6         	movff	efgtoa@p+1,efgtoa@m+1
  2804   001316                     
  2805                           ; BSR set to: 0
  2806                           ;/opt/microchip/xc8/v2.45/pic/sources/c99/common/doprnt.c: 715:  {;/opt/microchip/xc8/v2
      +                          .45/pic/sources/c99/common/doprnt.c: 716:         ++m;
  2807   001316  4BB5               	infsnz	efgtoa@m& (0+255),f,b
  2808   001318  2BB6               	incf	(efgtoa@m+1)& (0+255),f,b
  2809   00131A                     
  2810                           ; BSR set to: 0
  2811                           ;/opt/microchip/xc8/v2.45/pic/sources/c99/common/doprnt.c: 717:     };/opt/microchip/xc8
      +                          /v2.45/pic/sources/c99/common/doprnt.c: 721:     if (nmode == 'f') {
  2812   00131A  0E66               	movlw	102
  2813   00131C  19B2               	xorwf	efgtoa@nmode& (0+255),w,b
  2814   00131E  A4D8               	btfss	status,2,c
  2815   001320  EF94  F009         	goto	u7371
  2816   001324  EF96  F009         	goto	u7370
  2817   001328                     u7371:
  2818   001328  EFB6  F009         	goto	l6207
  2819   00132C                     u7370:
  2820   00132C                     
  2821                           ; BSR set to: 0
  2822                           ;/opt/microchip/xc8/v2.45/pic/sources/c99/common/doprnt.c: 722:         if (e < 0) {
  2823   00132C  BFB8               	btfsc	(efgtoa@e+1)& (0+255),7,b
  2824   00132E  EF9D  F009         	goto	u7380
  2825   001332  EF9B  F009         	goto	u7381
  2826   001336                     u7381:
  2827   001336  EFA9  F009         	goto	l6203
  2828   00133A                     u7380:
  2829   00133A                     
  2830                           ; BSR set to: 0
  2831                           ;/opt/microchip/xc8/v2.45/pic/sources/c99/common/doprnt.c: 723:             u.f = 1.0;
  2832   00133A  0E00               	movlw	0
  2833   00133C  6FD0               	movwf	efgtoa@u& (0+255),b
  2834   00133E  0E00               	movlw	0
  2835   001340  6FD1               	movwf	(efgtoa@u+1)& (0+255),b
  2836   001342  0E80               	movlw	128
  2837   001344  6FD2               	movwf	(efgtoa@u+2)& (0+255),b
  2838   001346  0E3F               	movlw	63
  2839   001348  6FD3               	movwf	(efgtoa@u+3)& (0+255),b
  2840                           
  2841                           ;/opt/microchip/xc8/v2.45/pic/sources/c99/common/doprnt.c: 724:             e = 0;
  2842   00134A  0E00               	movlw	0
  2843   00134C  6FB8               	movwf	(efgtoa@e+1)& (0+255),b
  2844   00134E  0E00               	movlw	0
  2845   001350  6FB7               	movwf	efgtoa@e& (0+255),b
  2846   001352                     l6203:
  2847                           
  2848                           ; BSR set to: 0
  2849                           ;/opt/microchip/xc8/v2.45/pic/sources/c99/common/doprnt.c: 726:         if (!(mode == 'g
      +                          ')) {
  2850   001352  0E67               	movlw	103
  2851   001354  19B1               	xorwf	efgtoa@mode& (0+255),w,b
  2852   001356  B4D8               	btfsc	status,2,c
  2853   001358  EFB0  F009         	goto	u7391
  2854   00135C  EFB2  F009         	goto	u7390
  2855   001360                     u7391:
  2856   001360  EFB6  F009         	goto	l6207
  2857   001364                     u7390:
  2858   001364                     
  2859                           ; BSR set to: 0
  2860                           ;/opt/microchip/xc8/v2.45/pic/sources/c99/common/doprnt.c: 727:             m += e;
  2861   001364  51B7               	movf	efgtoa@e& (0+255),w,b
  2862   001366  27B5               	addwf	efgtoa@m& (0+255),f,b
  2863   001368  51B8               	movf	(efgtoa@e+1)& (0+255),w,b
  2864   00136A  23B6               	addwfc	(efgtoa@m+1)& (0+255),f,b
  2865   00136C                     l6207:
  2866                           
  2867                           ; BSR set to: 0
  2868                           ;/opt/microchip/xc8/v2.45/pic/sources/c99/common/doprnt.c: 733:     i = 0;
  2869   00136C  0E00               	movlw	0
  2870   00136E  6FC0               	movwf	(efgtoa@i+1)& (0+255),b
  2871   001370  0E00               	movlw	0
  2872   001372  6FBF               	movwf	efgtoa@i& (0+255),b
  2873   001374                     
  2874                           ; BSR set to: 0
  2875                           ;/opt/microchip/xc8/v2.45/pic/sources/c99/common/doprnt.c: 734:     h = g.f;
  2876   001374  C0CA  F0C1         	movff	efgtoa@g,efgtoa@h
  2877   001378  C0CB  F0C2         	movff	efgtoa@g+1,efgtoa@h+1
  2878   00137C  C0CC  F0C3         	movff	efgtoa@g+2,efgtoa@h+2
  2879   001380  C0CD  F0C4         	movff	efgtoa@g+3,efgtoa@h+3
  2880   001384                     
  2881                           ; BSR set to: 0
  2882                           ;/opt/microchip/xc8/v2.45/pic/sources/c99/common/doprnt.c: 735:     ou = u;
  2883   001384  C0D0  F0BB         	movff	efgtoa@u,efgtoa@ou
  2884   001388  C0D1  F0BC         	movff	efgtoa@u+1,efgtoa@ou+1
  2885   00138C  C0D2  F0BD         	movff	efgtoa@u+2,efgtoa@ou+2
  2886   001390  C0D3  F0BE         	movff	efgtoa@u+3,efgtoa@ou+3
  2887                           
  2888                           ;/opt/microchip/xc8/v2.45/pic/sources/c99/common/doprnt.c: 736:     while (i < m) {
  2889   001394  EF48  F00A         	goto	l6221
  2890   001398                     l6213:
  2891                           
  2892                           ; BSR set to: 0
  2893                           ;/opt/microchip/xc8/v2.45/pic/sources/c99/common/doprnt.c: 737:         l = floorf(h/u.f
      +                          );
  2894   001398  C0C1  F06E         	movff	efgtoa@h,___fldiv@b
  2895   00139C  C0C2  F06F         	movff	efgtoa@h+1,___fldiv@b+1
  2896   0013A0  C0C3  F070         	movff	efgtoa@h+2,___fldiv@b+2
  2897   0013A4  C0C4  F071         	movff	efgtoa@h+3,___fldiv@b+3
  2898   0013A8  C0D0  F072         	movff	efgtoa@u,___fldiv@a
  2899   0013AC  C0D1  F073         	movff	efgtoa@u+1,___fldiv@a+1
  2900   0013B0  C0D2  F074         	movff	efgtoa@u+2,___fldiv@a+2
  2901   0013B4  C0D3  F075         	movff	efgtoa@u+3,___fldiv@a+3
  2902   0013B8  EC7D  F013         	call	___fldiv	;wreg free
  2903   0013BC  C06E  F087         	movff	?___fldiv,floorf@x
  2904   0013C0  C06F  F088         	movff	?___fldiv+1,floorf@x+1
  2905   0013C4  C070  F089         	movff	?___fldiv+2,floorf@x+2
  2906   0013C8  C071  F08A         	movff	?___fldiv+3,floorf@x+3
  2907   0013CC  ECDA  F018         	call	_floorf	;wreg free
  2908   0013D0  C087  F0C5         	movff	?_floorf,efgtoa@l
  2909   0013D4  C088  F0C6         	movff	?_floorf+1,efgtoa@l+1
  2910   0013D8  C089  F0C7         	movff	?_floorf+2,efgtoa@l+2
  2911   0013DC  C08A  F0C8         	movff	?_floorf+3,efgtoa@l+3
  2912                           
  2913                           ;/opt/microchip/xc8/v2.45/pic/sources/c99/common/doprnt.c: 738:         d = (int)l;
  2914   0013E0  C0C5  F060         	movff	efgtoa@l,___fltol@f1
  2915   0013E4  C0C6  F061         	movff	efgtoa@l+1,___fltol@f1+1
  2916   0013E8  C0C7  F062         	movff	efgtoa@l+2,___fltol@f1+2
  2917   0013EC  C0C8  F063         	movff	efgtoa@l+3,___fltol@f1+3
  2918   0013F0  EC18  F01D         	call	___fltol	;wreg free
  2919   0013F4  C060  F0B3         	movff	?___fltol,efgtoa@d
  2920   0013F8  C061  F0B4         	movff	?___fltol+1,efgtoa@d+1
  2921   0013FC                     
  2922                           ;/opt/microchip/xc8/v2.45/pic/sources/c99/common/doprnt.c: 739:         h -= l*u.f;
  2923   0013FC  C0C1  F097         	movff	efgtoa@h,___flsub@b
  2924   001400  C0C2  F098         	movff	efgtoa@h+1,___flsub@b+1
  2925   001404  C0C3  F099         	movff	efgtoa@h+2,___flsub@b+2
  2926   001408  C0C4  F09A         	movff	efgtoa@h+3,___flsub@b+3
  2927   00140C  C0C5  F064         	movff	efgtoa@l,___flmul@a
  2928   001410  C0C6  F065         	movff	efgtoa@l+1,___flmul@a+1
  2929   001414  C0C7  F066         	movff	efgtoa@l+2,___flmul@a+2
  2930   001418  C0C8  F067         	movff	efgtoa@l+3,___flmul@a+3
  2931   00141C  C0D0  F060         	movff	efgtoa@u,___flmul@b
  2932   001420  C0D1  F061         	movff	efgtoa@u+1,___flmul@b+1
  2933   001424  C0D2  F062         	movff	efgtoa@u+2,___flmul@b+2
  2934   001428  C0D3  F063         	movff	efgtoa@u+3,___flmul@b+3
  2935   00142C  EC67  F011         	call	___flmul	;wreg free
  2936   001430  C060  F09B         	movff	?___flmul,___flsub@a
  2937   001434  C061  F09C         	movff	?___flmul+1,___flsub@a+1
  2938   001438  C062  F09D         	movff	?___flmul+2,___flsub@a+2
  2939   00143C  C063  F09E         	movff	?___flmul+3,___flsub@a+3
  2940   001440  ECFA  F021         	call	___flsub	;wreg free
  2941   001444  C097  F0C1         	movff	?___flsub,efgtoa@h
  2942   001448  C098  F0C2         	movff	?___flsub+1,efgtoa@h+1
  2943   00144C  C099  F0C3         	movff	?___flsub+2,efgtoa@h+2
  2944   001450  C09A  F0C4         	movff	?___flsub+3,efgtoa@h+3
  2945   001454                     
  2946                           ;/opt/microchip/xc8/v2.45/pic/sources/c99/common/doprnt.c: 740:         u.f = u.f/10.0;
  2947   001454  C0D0  F06E         	movff	efgtoa@u,___fldiv@b
  2948   001458  C0D1  F06F         	movff	efgtoa@u+1,___fldiv@b+1
  2949   00145C  C0D2  F070         	movff	efgtoa@u+2,___fldiv@b+2
  2950   001460  C0D3  F071         	movff	efgtoa@u+3,___fldiv@b+3
  2951   001464  0E00               	movlw	0
  2952   001466  0100               	movlb	0	; () banked
  2953   001468  6F72               	movwf	___fldiv@a& (0+255),b
  2954   00146A  0E00               	movlw	0
  2955   00146C  6F73               	movwf	(___fldiv@a+1)& (0+255),b
  2956   00146E  0E20               	movlw	32
  2957   001470  6F74               	movwf	(___fldiv@a+2)& (0+255),b
  2958   001472  0E41               	movlw	65
  2959   001474  6F75               	movwf	(___fldiv@a+3)& (0+255),b
  2960   001476  EC7D  F013         	call	___fldiv	;wreg free
  2961   00147A  C06E  F0D0         	movff	?___fldiv,efgtoa@u
  2962   00147E  C06F  F0D1         	movff	?___fldiv+1,efgtoa@u+1
  2963   001482  C070  F0D2         	movff	?___fldiv+2,efgtoa@u+2
  2964   001486  C071  F0D3         	movff	?___fldiv+3,efgtoa@u+3
  2965   00148A                     
  2966                           ;/opt/microchip/xc8/v2.45/pic/sources/c99/common/doprnt.c: 741:         ++i;
  2967   00148A  0100               	movlb	0	; () banked
  2968   00148C  4BBF               	infsnz	efgtoa@i& (0+255),f,b
  2969   00148E  2BC0               	incf	(efgtoa@i+1)& (0+255),f,b
  2970   001490                     l6221:
  2971                           
  2972                           ; BSR set to: 0
  2973                           ;/opt/microchip/xc8/v2.45/pic/sources/c99/common/doprnt.c: 736:     while (i < m) {
  2974   001490  51B5               	movf	efgtoa@m& (0+255),w,b
  2975   001492  5DBF               	subwf	efgtoa@i& (0+255),w,b
  2976   001494  51C0               	movf	(efgtoa@i+1)& (0+255),w,b
  2977   001496  0A80               	xorlw	128
  2978   001498  6FA6               	movwf	??_efgtoa& (0+255),b
  2979   00149A  51B6               	movf	(efgtoa@m+1)& (0+255),w,b
  2980   00149C  0A80               	xorlw	128
  2981   00149E  59A6               	subwfb	??_efgtoa& (0+255),w,b
  2982   0014A0  A0D8               	btfss	status,0,c
  2983   0014A2  EF55  F00A         	goto	u7401
  2984   0014A6  EF57  F00A         	goto	u7400
  2985   0014AA                     u7401:
  2986   0014AA  EFCC  F009         	goto	l6213
  2987   0014AE                     u7400:
  2988   0014AE                     
  2989                           ; BSR set to: 0
  2990                           ;/opt/microchip/xc8/v2.45/pic/sources/c99/common/doprnt.c: 745:     l = u.f*5.0;
  2991   0014AE  C0D0  F060         	movff	efgtoa@u,___flmul@b
  2992   0014B2  C0D1  F061         	movff	efgtoa@u+1,___flmul@b+1
  2993   0014B6  C0D2  F062         	movff	efgtoa@u+2,___flmul@b+2
  2994   0014BA  C0D3  F063         	movff	efgtoa@u+3,___flmul@b+3
  2995   0014BE  0E00               	movlw	0
  2996   0014C0  6F64               	movwf	___flmul@a& (0+255),b
  2997   0014C2  0E00               	movlw	0
  2998   0014C4  6F65               	movwf	(___flmul@a+1)& (0+255),b
  2999   0014C6  0EA0               	movlw	160
  3000   0014C8  6F66               	movwf	(___flmul@a+2)& (0+255),b
  3001   0014CA  0E40               	movlw	64
  3002   0014CC  6F67               	movwf	(___flmul@a+3)& (0+255),b
  3003   0014CE  EC67  F011         	call	___flmul	;wreg free
  3004   0014D2  C060  F0C5         	movff	?___flmul,efgtoa@l
  3005   0014D6  C061  F0C6         	movff	?___flmul+1,efgtoa@l+1
  3006   0014DA  C062  F0C7         	movff	?___flmul+2,efgtoa@l+2
  3007   0014DE  C063  F0C8         	movff	?___flmul+3,efgtoa@l+3
  3008   0014E2                     
  3009                           ;/opt/microchip/xc8/v2.45/pic/sources/c99/common/doprnt.c: 746:     if (h < l) {
  3010   0014E2  C0C1  F079         	movff	efgtoa@h,___flge@ff1
  3011   0014E6  C0C2  F07A         	movff	efgtoa@h+1,___flge@ff1+1
  3012   0014EA  C0C3  F07B         	movff	efgtoa@h+2,___flge@ff1+2
  3013   0014EE  C0C4  F07C         	movff	efgtoa@h+3,___flge@ff1+3
  3014   0014F2  C0C5  F07D         	movff	efgtoa@l,___flge@ff2
  3015   0014F6  C0C6  F07E         	movff	efgtoa@l+1,___flge@ff2+1
  3016   0014FA  C0C7  F07F         	movff	efgtoa@l+2,___flge@ff2+2
  3017   0014FE  C0C8  F080         	movff	efgtoa@l+3,___flge@ff2+3
  3018   001502  EC9C  F01D         	call	___flge	;wreg free
  3019   001506  0100               	movlb	0	; () banked
  3020   001508  B0D8               	btfsc	status,0,c
  3021   00150A  EF89  F00A         	goto	u7411
  3022   00150E  EF8B  F00A         	goto	u7410
  3023   001512                     u7411:
  3024   001512  EF95  F00A         	goto	l6229
  3025   001516                     u7410:
  3026   001516                     
  3027                           ; BSR set to: 0
  3028                           ;/opt/microchip/xc8/v2.45/pic/sources/c99/common/doprnt.c: 747:         l = 0.0;
  3029   001516  0E00               	movlw	0
  3030   001518  6FC5               	movwf	efgtoa@l& (0+255),b
  3031   00151A  0E00               	movlw	0
  3032   00151C  6FC6               	movwf	(efgtoa@l+1)& (0+255),b
  3033   00151E  0E00               	movlw	0
  3034   001520  6FC7               	movwf	(efgtoa@l+2)& (0+255),b
  3035   001522  0E00               	movlw	0
  3036   001524  6FC8               	movwf	(efgtoa@l+3)& (0+255),b
  3037                           
  3038                           ;/opt/microchip/xc8/v2.45/pic/sources/c99/common/doprnt.c: 748:     } else {
  3039   001526  EFBE  F00A         	goto	l6235
  3040   00152A                     l6229:
  3041                           
  3042                           ; BSR set to: 0
  3043                           ;/opt/microchip/xc8/v2.45/pic/sources/c99/common/doprnt.c: 750:         if ((h == l) && 
      +                          !(d % 2)) {
  3044   00152A  C0C1  F060         	movff	efgtoa@h,___fleq@ff1
  3045   00152E  C0C2  F061         	movff	efgtoa@h+1,___fleq@ff1+1
  3046   001532  C0C3  F062         	movff	efgtoa@h+2,___fleq@ff1+2
  3047   001536  C0C4  F063         	movff	efgtoa@h+3,___fleq@ff1+3
  3048   00153A  C0C5  F064         	movff	efgtoa@l,___fleq@ff2
  3049   00153E  C0C6  F065         	movff	efgtoa@l+1,___fleq@ff2+1
  3050   001542  C0C7  F066         	movff	efgtoa@l+2,___fleq@ff2+2
  3051   001546  C0C8  F067         	movff	efgtoa@l+3,___fleq@ff2+3
  3052   00154A  EC20  F020         	call	___fleq	;wreg free
  3053   00154E  0100               	movlb	0	; () banked
  3054   001550  A0D8               	btfss	status,0,c
  3055   001552  EFAD  F00A         	goto	u7421
  3056   001556  EFAF  F00A         	goto	u7420
  3057   00155A                     u7421:
  3058   00155A  EFBE  F00A         	goto	l6235
  3059   00155E                     u7420:
  3060   00155E                     
  3061                           ; BSR set to: 0
  3062   00155E  B1B3               	btfsc	efgtoa@d& (0+255),0,b
  3063   001560  EFB4  F00A         	goto	u7431
  3064   001564  EFB6  F00A         	goto	u7430
  3065   001568                     u7431:
  3066   001568  EFBE  F00A         	goto	l6235
  3067   00156C                     u7430:
  3068   00156C                     
  3069                           ; BSR set to: 0
  3070                           ;/opt/microchip/xc8/v2.45/pic/sources/c99/common/doprnt.c: 751:             l = 0.0;
  3071   00156C  0E00               	movlw	0
  3072   00156E  6FC5               	movwf	efgtoa@l& (0+255),b
  3073   001570  0E00               	movlw	0
  3074   001572  6FC6               	movwf	(efgtoa@l+1)& (0+255),b
  3075   001574  0E00               	movlw	0
  3076   001576  6FC7               	movwf	(efgtoa@l+2)& (0+255),b
  3077   001578  0E00               	movlw	0
  3078   00157A  6FC8               	movwf	(efgtoa@l+3)& (0+255),b
  3079   00157C                     l6235:
  3080                           
  3081                           ; BSR set to: 0
  3082                           ;/opt/microchip/xc8/v2.45/pic/sources/c99/common/doprnt.c: 756:     h = g.f + l;
  3083   00157C  C0CA  F087         	movff	efgtoa@g,___fladd@b
  3084   001580  C0CB  F088         	movff	efgtoa@g+1,___fladd@b+1
  3085   001584  C0CC  F089         	movff	efgtoa@g+2,___fladd@b+2
  3086   001588  C0CD  F08A         	movff	efgtoa@g+3,___fladd@b+3
  3087   00158C  C0C5  F08B         	movff	efgtoa@l,___fladd@a
  3088   001590  C0C6  F08C         	movff	efgtoa@l+1,___fladd@a+1
  3089   001594  C0C7  F08D         	movff	efgtoa@l+2,___fladd@a+2
  3090   001598  C0C8  F08E         	movff	efgtoa@l+3,___fladd@a+3
  3091   00159C  ECA6  F00C         	call	___fladd	;wreg free
  3092   0015A0  C087  F0C1         	movff	?___fladd,efgtoa@h
  3093   0015A4  C088  F0C2         	movff	?___fladd+1,efgtoa@h+1
  3094   0015A8  C089  F0C3         	movff	?___fladd+2,efgtoa@h+2
  3095   0015AC  C08A  F0C4         	movff	?___fladd+3,efgtoa@h+3
  3096   0015B0                     
  3097                           ;/opt/microchip/xc8/v2.45/pic/sources/c99/common/doprnt.c: 758:  if (h >= (ou.f*10.0)) {
  3098   0015B0  C0C1  F079         	movff	efgtoa@h,___flge@ff1
  3099   0015B4  C0C2  F07A         	movff	efgtoa@h+1,___flge@ff1+1
  3100   0015B8  C0C3  F07B         	movff	efgtoa@h+2,___flge@ff1+2
  3101   0015BC  C0C4  F07C         	movff	efgtoa@h+3,___flge@ff1+3
  3102   0015C0  0E00               	movlw	0
  3103   0015C2  0100               	movlb	0	; () banked
  3104   0015C4  6F64               	movwf	___flmul@a& (0+255),b
  3105   0015C6  0E00               	movlw	0
  3106   0015C8  6F65               	movwf	(___flmul@a+1)& (0+255),b
  3107   0015CA  0E20               	movlw	32
  3108   0015CC  6F66               	movwf	(___flmul@a+2)& (0+255),b
  3109   0015CE  0E41               	movlw	65
  3110   0015D0  6F67               	movwf	(___flmul@a+3)& (0+255),b
  3111   0015D2  C0BB  F060         	movff	efgtoa@ou,___flmul@b
  3112   0015D6  C0BC  F061         	movff	efgtoa@ou+1,___flmul@b+1
  3113   0015DA  C0BD  F062         	movff	efgtoa@ou+2,___flmul@b+2
  3114   0015DE  C0BE  F063         	movff	efgtoa@ou+3,___flmul@b+3
  3115   0015E2  EC67  F011         	call	___flmul	;wreg free
  3116   0015E6  C060  F07D         	movff	?___flmul,___flge@ff2
  3117   0015EA  C061  F07E         	movff	?___flmul+1,___flge@ff2+1
  3118   0015EE  C062  F07F         	movff	?___flmul+2,___flge@ff2+2
  3119   0015F2  C063  F080         	movff	?___flmul+3,___flge@ff2+3
  3120   0015F6  EC9C  F01D         	call	___flge	;wreg free
  3121   0015FA  0100               	movlb	0	; () banked
  3122   0015FC  A0D8               	btfss	status,0,c
  3123   0015FE  EF03  F00B         	goto	u7441
  3124   001602  EF05  F00B         	goto	u7440
  3125   001606                     u7441:
  3126   001606  EF2D  F00B         	goto	l6247
  3127   00160A                     u7440:
  3128   00160A                     
  3129                           ; BSR set to: 0
  3130                           ;/opt/microchip/xc8/v2.45/pic/sources/c99/common/doprnt.c: 759:   e++;
  3131   00160A  4BB7               	infsnz	efgtoa@e& (0+255),f,b
  3132   00160C  2BB8               	incf	(efgtoa@e+1)& (0+255),f,b
  3133   00160E                     
  3134                           ; BSR set to: 0
  3135                           ;/opt/microchip/xc8/v2.45/pic/sources/c99/common/doprnt.c: 760:   ou.f *= 10.0;
  3136   00160E  C0BB  F060         	movff	efgtoa@ou,___flmul@b
  3137   001612  C0BC  F061         	movff	efgtoa@ou+1,___flmul@b+1
  3138   001616  C0BD  F062         	movff	efgtoa@ou+2,___flmul@b+2
  3139   00161A  C0BE  F063         	movff	efgtoa@ou+3,___flmul@b+3
  3140   00161E  0E00               	movlw	0
  3141   001620  6F64               	movwf	___flmul@a& (0+255),b
  3142   001622  0E00               	movlw	0
  3143   001624  6F65               	movwf	(___flmul@a+1)& (0+255),b
  3144   001626  0E20               	movlw	32
  3145   001628  6F66               	movwf	(___flmul@a+2)& (0+255),b
  3146   00162A  0E41               	movlw	65
  3147   00162C  6F67               	movwf	(___flmul@a+3)& (0+255),b
  3148   00162E  EC67  F011         	call	___flmul	;wreg free
  3149   001632  C060  F0BB         	movff	?___flmul,efgtoa@ou
  3150   001636  C061  F0BC         	movff	?___flmul+1,efgtoa@ou+1
  3151   00163A  C062  F0BD         	movff	?___flmul+2,efgtoa@ou+2
  3152   00163E  C063  F0BE         	movff	?___flmul+3,efgtoa@ou+3
  3153   001642                     
  3154                           ;/opt/microchip/xc8/v2.45/pic/sources/c99/common/doprnt.c: 762:   if (nmode == 'f') {
  3155   001642  0E66               	movlw	102
  3156   001644  0100               	movlb	0	; () banked
  3157   001646  19B2               	xorwf	efgtoa@nmode& (0+255),w,b
  3158   001648  A4D8               	btfss	status,2,c
  3159   00164A  EF29  F00B         	goto	u7451
  3160   00164E  EF2B  F00B         	goto	u7450
  3161   001652                     u7451:
  3162   001652  EF2D  F00B         	goto	l6247
  3163   001656                     u7450:
  3164   001656                     
  3165                           ; BSR set to: 0
  3166                           ;/opt/microchip/xc8/v2.45/pic/sources/c99/common/doprnt.c: 764:    m++;
  3167   001656  4BB5               	infsnz	efgtoa@m& (0+255),f,b
  3168   001658  2BB6               	incf	(efgtoa@m+1)& (0+255),f,b
  3169   00165A                     l6247:
  3170                           
  3171                           ; BSR set to: 0
  3172                           ;/opt/microchip/xc8/v2.45/pic/sources/c99/common/doprnt.c: 770:     u = ou;
  3173   00165A  C0BB  F0D0         	movff	efgtoa@ou,efgtoa@u
  3174   00165E  C0BC  F0D1         	movff	efgtoa@ou+1,efgtoa@u+1
  3175   001662  C0BD  F0D2         	movff	efgtoa@ou+2,efgtoa@u+2
  3176   001666  C0BE  F0D3         	movff	efgtoa@ou+3,efgtoa@u+3
  3177   00166A                     
  3178                           ; BSR set to: 0
  3179                           ;/opt/microchip/xc8/v2.45/pic/sources/c99/common/doprnt.c: 774:  ne = e;
  3180   00166A  C0B7  F0A8         	movff	efgtoa@e,efgtoa@ne
  3181   00166E  C0B8  F0A9         	movff	efgtoa@e+1,efgtoa@ne+1
  3182   001672                     
  3183                           ; BSR set to: 0
  3184                           ;/opt/microchip/xc8/v2.45/pic/sources/c99/common/doprnt.c: 776:     pp = 0;
  3185   001672  0E00               	movlw	0
  3186   001674  6FB0               	movwf	efgtoa@pp& (0+255),b
  3187   001676                     
  3188                           ; BSR set to: 0
  3189                           ;/opt/microchip/xc8/v2.45/pic/sources/c99/common/doprnt.c: 777:     t = 0;
  3190   001676  0E00               	movlw	0
  3191   001678  6FAD               	movwf	(efgtoa@t+1)& (0+255),b
  3192   00167A  0E00               	movlw	0
  3193   00167C  6FAC               	movwf	efgtoa@t& (0+255),b
  3194   00167E                     
  3195                           ; BSR set to: 0
  3196                           ;/opt/microchip/xc8/v2.45/pic/sources/c99/common/doprnt.c: 778:     i = 0;
  3197   00167E  0E00               	movlw	0
  3198   001680  6FC0               	movwf	(efgtoa@i+1)& (0+255),b
  3199   001682  0E00               	movlw	0
  3200   001684  6FBF               	movwf	efgtoa@i& (0+255),b
  3201                           
  3202                           ;/opt/microchip/xc8/v2.45/pic/sources/c99/common/doprnt.c: 779:     while ((i < m) && (n
      +                           < (80 - 5))) {
  3203   001686  EF2B  F00C         	goto	l6297
  3204   00168A                     l6257:
  3205                           
  3206                           ; BSR set to: 0
  3207                           ;/opt/microchip/xc8/v2.45/pic/sources/c99/common/doprnt.c: 780:         l = floorf(h/u.f
      +                          );
  3208   00168A  C0C1  F06E         	movff	efgtoa@h,___fldiv@b
  3209   00168E  C0C2  F06F         	movff	efgtoa@h+1,___fldiv@b+1
  3210   001692  C0C3  F070         	movff	efgtoa@h+2,___fldiv@b+2
  3211   001696  C0C4  F071         	movff	efgtoa@h+3,___fldiv@b+3
  3212   00169A  C0D0  F072         	movff	efgtoa@u,___fldiv@a
  3213   00169E  C0D1  F073         	movff	efgtoa@u+1,___fldiv@a+1
  3214   0016A2  C0D2  F074         	movff	efgtoa@u+2,___fldiv@a+2
  3215   0016A6  C0D3  F075         	movff	efgtoa@u+3,___fldiv@a+3
  3216   0016AA  EC7D  F013         	call	___fldiv	;wreg free
  3217   0016AE  C06E  F087         	movff	?___fldiv,floorf@x
  3218   0016B2  C06F  F088         	movff	?___fldiv+1,floorf@x+1
  3219   0016B6  C070  F089         	movff	?___fldiv+2,floorf@x+2
  3220   0016BA  C071  F08A         	movff	?___fldiv+3,floorf@x+3
  3221   0016BE  ECDA  F018         	call	_floorf	;wreg free
  3222   0016C2  C087  F0C5         	movff	?_floorf,efgtoa@l
  3223   0016C6  C088  F0C6         	movff	?_floorf+1,efgtoa@l+1
  3224   0016CA  C089  F0C7         	movff	?_floorf+2,efgtoa@l+2
  3225   0016CE  C08A  F0C8         	movff	?_floorf+3,efgtoa@l+3
  3226                           
  3227                           ;/opt/microchip/xc8/v2.45/pic/sources/c99/common/doprnt.c: 781:         d = (int)l > 9 ?
      +                           9 : (int)l;
  3228   0016D2  C0C5  F060         	movff	efgtoa@l,___fltol@f1
  3229   0016D6  C0C6  F061         	movff	efgtoa@l+1,___fltol@f1+1
  3230   0016DA  C0C7  F062         	movff	efgtoa@l+2,___fltol@f1+2
  3231   0016DE  C0C8  F063         	movff	efgtoa@l+3,___fltol@f1+3
  3232   0016E2  EC18  F01D         	call	___fltol	;wreg free
  3233   0016E6  0100               	movlb	0	; () banked
  3234   0016E8  BF61               	btfsc	(?___fltol+1)& (0+255),7,b
  3235   0016EA  EF82  F00B         	goto	u7460
  3236   0016EE  5161               	movf	(?___fltol+1)& (0+255),w,b
  3237   0016F0  E107               	bnz	u7461
  3238   0016F2  0E0A               	movlw	10
  3239   0016F4  5D60               	subwf	?___fltol& (0+255),w,b
  3240   0016F6  B0D8               	btfsc	status,0,c
  3241   0016F8  EF80  F00B         	goto	u7461
  3242   0016FC  EF82  F00B         	goto	u7460
  3243   001700                     u7461:
  3244   001700  EF92  F00B         	goto	l6261
  3245   001704                     u7460:
  3246   001704                     
  3247                           ; BSR set to: 0
  3248   001704  C0C5  F060         	movff	efgtoa@l,___fltol@f1
  3249   001708  C0C6  F061         	movff	efgtoa@l+1,___fltol@f1+1
  3250   00170C  C0C7  F062         	movff	efgtoa@l+2,___fltol@f1+2
  3251   001710  C0C8  F063         	movff	efgtoa@l+3,___fltol@f1+3
  3252   001714  EC18  F01D         	call	___fltol	;wreg free
  3253   001718  C060  F0B3         	movff	?___fltol,efgtoa@d
  3254   00171C  C061  F0B4         	movff	?___fltol+1,efgtoa@d+1
  3255   001720  EF96  F00B         	goto	l1215
  3256   001724                     l6261:
  3257                           
  3258                           ; BSR set to: 0
  3259   001724  0E00               	movlw	0
  3260   001726  6FB4               	movwf	(efgtoa@d+1)& (0+255),b
  3261   001728  0E09               	movlw	9
  3262   00172A  6FB3               	movwf	efgtoa@d& (0+255),b
  3263   00172C                     l1215:
  3264                           
  3265                           ;/opt/microchip/xc8/v2.45/pic/sources/c99/common/doprnt.c: 792:   {;/opt/microchip/xc8/v
      +                          2.45/pic/sources/c99/common/doprnt.c: 793:             if (!pp && (ne < 0)) {
  3266   00172C  0100               	movlb	0	; () banked
  3267   00172E  51B0               	movf	efgtoa@pp& (0+255),w,b
  3268   001730  A4D8               	btfss	status,2,c
  3269   001732  EF9D  F00B         	goto	u7471
  3270   001736  EF9F  F00B         	goto	u7470
  3271   00173A                     u7471:
  3272   00173A  EFC7  F00B         	goto	l6281
  3273   00173E                     u7470:
  3274   00173E                     
  3275                           ; BSR set to: 0
  3276   00173E  BFA9               	btfsc	(efgtoa@ne+1)& (0+255),7,b
  3277   001740  EFA6  F00B         	goto	u7480
  3278   001744  EFA4  F00B         	goto	u7481
  3279   001748                     u7481:
  3280   001748  EFC7  F00B         	goto	l6281
  3281   00174C                     u7480:
  3282   00174C                     
  3283                           ; BSR set to: 0
  3284                           ;/opt/microchip/xc8/v2.45/pic/sources/c99/common/doprnt.c: 794:                 dbuf[n++
      +                          ] = '.';
  3285   00174C  0E00               	movlw	low _dbuf
  3286   00174E  25CE               	addwf	efgtoa@n& (0+255),w,b
  3287   001750  6ED9               	movwf	fsr2l,c
  3288   001752  0E01               	movlw	high _dbuf
  3289   001754  21CF               	addwfc	(efgtoa@n+1)& (0+255),w,b
  3290   001756  6EDA               	movwf	fsr2h,c
  3291   001758  0E2E               	movlw	46
  3292   00175A  6EDF               	movwf	indf2,c
  3293   00175C                     
  3294                           ; BSR set to: 0
  3295   00175C  4BCE               	infsnz	efgtoa@n& (0+255),f,b
  3296   00175E  2BCF               	incf	(efgtoa@n+1)& (0+255),f,b
  3297   001760                     
  3298                           ; BSR set to: 0
  3299                           ;/opt/microchip/xc8/v2.45/pic/sources/c99/common/doprnt.c: 795:                 --w;
  3300   001760  07B9               	decf	efgtoa@w& (0+255),f,b
  3301   001762  A0D8               	btfss	status,0,c
  3302   001764  07BA               	decf	(efgtoa@w+1)& (0+255),f,b
  3303   001766                     
  3304                           ; BSR set to: 0
  3305                           ;/opt/microchip/xc8/v2.45/pic/sources/c99/common/doprnt.c: 796:                 pp = 1;
  3306   001766  0E01               	movlw	1
  3307   001768  6FB0               	movwf	efgtoa@pp& (0+255),b
  3308   00176A  EFC7  F00B         	goto	l6281
  3309   00176E                     l6273:
  3310                           
  3311                           ; BSR set to: 0
  3312                           ;/opt/microchip/xc8/v2.45/pic/sources/c99/common/doprnt.c: 799:                 dbuf[n++
      +                          ] = '0';
  3313   00176E  0E00               	movlw	low _dbuf
  3314   001770  25CE               	addwf	efgtoa@n& (0+255),w,b
  3315   001772  6ED9               	movwf	fsr2l,c
  3316   001774  0E01               	movlw	high _dbuf
  3317   001776  21CF               	addwfc	(efgtoa@n+1)& (0+255),w,b
  3318   001778  6EDA               	movwf	fsr2h,c
  3319   00177A  0E30               	movlw	48
  3320   00177C  6EDF               	movwf	indf2,c
  3321   00177E                     
  3322                           ; BSR set to: 0
  3323   00177E  4BCE               	infsnz	efgtoa@n& (0+255),f,b
  3324   001780  2BCF               	incf	(efgtoa@n+1)& (0+255),f,b
  3325   001782                     
  3326                           ; BSR set to: 0
  3327                           ;/opt/microchip/xc8/v2.45/pic/sources/c99/common/doprnt.c: 800:                 --w;
  3328   001782  07B9               	decf	efgtoa@w& (0+255),f,b
  3329   001784  A0D8               	btfss	status,0,c
  3330   001786  07BA               	decf	(efgtoa@w+1)& (0+255),f,b
  3331   001788                     
  3332                           ; BSR set to: 0
  3333                           ;/opt/microchip/xc8/v2.45/pic/sources/c99/common/doprnt.c: 801:                 --t;
  3334   001788  07AC               	decf	efgtoa@t& (0+255),f,b
  3335   00178A  A0D8               	btfss	status,0,c
  3336   00178C  07AD               	decf	(efgtoa@t+1)& (0+255),f,b
  3337   00178E                     l6281:
  3338                           
  3339                           ; BSR set to: 0
  3340                           ;/opt/microchip/xc8/v2.45/pic/sources/c99/common/doprnt.c: 798:             while (t) {
  3341   00178E  51AC               	movf	efgtoa@t& (0+255),w,b
  3342   001790  11AD               	iorwf	(efgtoa@t+1)& (0+255),w,b
  3343   001792  A4D8               	btfss	status,2,c
  3344   001794  EFCE  F00B         	goto	u7491
  3345   001798  EFD0  F00B         	goto	u7490
  3346   00179C                     u7491:
  3347   00179C  EFB7  F00B         	goto	l6273
  3348   0017A0                     u7490:
  3349   0017A0                     
  3350                           ; BSR set to: 0
  3351                           ;/opt/microchip/xc8/v2.45/pic/sources/c99/common/doprnt.c: 803:             dbuf[n++] = 
      +                          (char)((int)'0' + d);
  3352   0017A0  0E00               	movlw	low _dbuf
  3353   0017A2  25CE               	addwf	efgtoa@n& (0+255),w,b
  3354   0017A4  6ED9               	movwf	fsr2l,c
  3355   0017A6  0E01               	movlw	high _dbuf
  3356   0017A8  21CF               	addwfc	(efgtoa@n+1)& (0+255),w,b
  3357   0017AA  6EDA               	movwf	fsr2h,c
  3358   0017AC  51B3               	movf	efgtoa@d& (0+255),w,b
  3359   0017AE  0F30               	addlw	48
  3360   0017B0  6EDF               	movwf	indf2,c
  3361   0017B2                     
  3362                           ; BSR set to: 0
  3363   0017B2  4BCE               	infsnz	efgtoa@n& (0+255),f,b
  3364   0017B4  2BCF               	incf	(efgtoa@n+1)& (0+255),f,b
  3365   0017B6                     
  3366                           ; BSR set to: 0
  3367                           ;/opt/microchip/xc8/v2.45/pic/sources/c99/common/doprnt.c: 804:             --w;
  3368   0017B6  07B9               	decf	efgtoa@w& (0+255),f,b
  3369   0017B8  A0D8               	btfss	status,0,c
  3370   0017BA  07BA               	decf	(efgtoa@w+1)& (0+255),f,b
  3371   0017BC                     
  3372                           ; BSR set to: 0
  3373                           ;/opt/microchip/xc8/v2.45/pic/sources/c99/common/doprnt.c: 805:         };/opt/microchip
      +                          /xc8/v2.45/pic/sources/c99/common/doprnt.c: 806:         h -= l*u.f;
  3374   0017BC  C0C1  F097         	movff	efgtoa@h,___flsub@b
  3375   0017C0  C0C2  F098         	movff	efgtoa@h+1,___flsub@b+1
  3376   0017C4  C0C3  F099         	movff	efgtoa@h+2,___flsub@b+2
  3377   0017C8  C0C4  F09A         	movff	efgtoa@h+3,___flsub@b+3
  3378   0017CC  C0C5  F064         	movff	efgtoa@l,___flmul@a
  3379   0017D0  C0C6  F065         	movff	efgtoa@l+1,___flmul@a+1
  3380   0017D4  C0C7  F066         	movff	efgtoa@l+2,___flmul@a+2
  3381   0017D8  C0C8  F067         	movff	efgtoa@l+3,___flmul@a+3
  3382   0017DC  C0D0  F060         	movff	efgtoa@u,___flmul@b
  3383   0017E0  C0D1  F061         	movff	efgtoa@u+1,___flmul@b+1
  3384   0017E4  C0D2  F062         	movff	efgtoa@u+2,___flmul@b+2
  3385   0017E8  C0D3  F063         	movff	efgtoa@u+3,___flmul@b+3
  3386   0017EC  EC67  F011         	call	___flmul	;wreg free
  3387   0017F0  C060  F09B         	movff	?___flmul,___flsub@a
  3388   0017F4  C061  F09C         	movff	?___flmul+1,___flsub@a+1
  3389   0017F8  C062  F09D         	movff	?___flmul+2,___flsub@a+2
  3390   0017FC  C063  F09E         	movff	?___flmul+3,___flsub@a+3
  3391   001800  ECFA  F021         	call	___flsub	;wreg free
  3392   001804  C097  F0C1         	movff	?___flsub,efgtoa@h
  3393   001808  C098  F0C2         	movff	?___flsub+1,efgtoa@h+1
  3394   00180C  C099  F0C3         	movff	?___flsub+2,efgtoa@h+2
  3395   001810  C09A  F0C4         	movff	?___flsub+3,efgtoa@h+3
  3396   001814                     
  3397                           ;/opt/microchip/xc8/v2.45/pic/sources/c99/common/doprnt.c: 807:         u.f = u.f/10.0;
  3398   001814  C0D0  F06E         	movff	efgtoa@u,___fldiv@b
  3399   001818  C0D1  F06F         	movff	efgtoa@u+1,___fldiv@b+1
  3400   00181C  C0D2  F070         	movff	efgtoa@u+2,___fldiv@b+2
  3401   001820  C0D3  F071         	movff	efgtoa@u+3,___fldiv@b+3
  3402   001824  0E00               	movlw	0
  3403   001826  0100               	movlb	0	; () banked
  3404   001828  6F72               	movwf	___fldiv@a& (0+255),b
  3405   00182A  0E00               	movlw	0
  3406   00182C  6F73               	movwf	(___fldiv@a+1)& (0+255),b
  3407   00182E  0E20               	movlw	32
  3408   001830  6F74               	movwf	(___fldiv@a+2)& (0+255),b
  3409   001832  0E41               	movlw	65
  3410   001834  6F75               	movwf	(___fldiv@a+3)& (0+255),b
  3411   001836  EC7D  F013         	call	___fldiv	;wreg free
  3412   00183A  C06E  F0D0         	movff	?___fldiv,efgtoa@u
  3413   00183E  C06F  F0D1         	movff	?___fldiv+1,efgtoa@u+1
  3414   001842  C070  F0D2         	movff	?___fldiv+2,efgtoa@u+2
  3415   001846  C071  F0D3         	movff	?___fldiv+3,efgtoa@u+3
  3416   00184A                     
  3417                           ;/opt/microchip/xc8/v2.45/pic/sources/c99/common/doprnt.c: 808:         --ne;
  3418   00184A  0100               	movlb	0	; () banked
  3419   00184C  07A8               	decf	efgtoa@ne& (0+255),f,b
  3420   00184E  A0D8               	btfss	status,0,c
  3421   001850  07A9               	decf	(efgtoa@ne+1)& (0+255),f,b
  3422   001852                     
  3423                           ; BSR set to: 0
  3424                           ;/opt/microchip/xc8/v2.45/pic/sources/c99/common/doprnt.c: 809:         ++i;
  3425   001852  4BBF               	infsnz	efgtoa@i& (0+255),f,b
  3426   001854  2BC0               	incf	(efgtoa@i+1)& (0+255),f,b
  3427   001856                     l6297:
  3428                           
  3429                           ; BSR set to: 0
  3430                           ;/opt/microchip/xc8/v2.45/pic/sources/c99/common/doprnt.c: 779:     while ((i < m) && (n
      +                           < (80 - 5))) {
  3431   001856  51B5               	movf	efgtoa@m& (0+255),w,b
  3432   001858  5DBF               	subwf	efgtoa@i& (0+255),w,b
  3433   00185A  51C0               	movf	(efgtoa@i+1)& (0+255),w,b
  3434   00185C  0A80               	xorlw	128
  3435   00185E  6FA6               	movwf	??_efgtoa& (0+255),b
  3436   001860  51B6               	movf	(efgtoa@m+1)& (0+255),w,b
  3437   001862  0A80               	xorlw	128
  3438   001864  59A6               	subwfb	??_efgtoa& (0+255),w,b
  3439   001866  B0D8               	btfsc	status,0,c
  3440   001868  EF38  F00C         	goto	u7501
  3441   00186C  EF3A  F00C         	goto	u7500
  3442   001870                     u7501:
  3443   001870  EF48  F00C         	goto	l6301
  3444   001874                     u7500:
  3445   001874                     
  3446                           ; BSR set to: 0
  3447   001874  BFCF               	btfsc	(efgtoa@n+1)& (0+255),7,b
  3448   001876  EF46  F00C         	goto	u7511
  3449   00187A  51CF               	movf	(efgtoa@n+1)& (0+255),w,b
  3450   00187C  E109               	bnz	u7510
  3451   00187E  0E4B               	movlw	75
  3452   001880  5DCE               	subwf	efgtoa@n& (0+255),w,b
  3453   001882  A0D8               	btfss	status,0,c
  3454   001884  EF46  F00C         	goto	u7511
  3455   001888  EF48  F00C         	goto	u7510
  3456   00188C                     u7511:
  3457   00188C  EF45  F00B         	goto	l6257
  3458   001890                     u7510:
  3459   001890                     l6301:
  3460                           
  3461                           ; BSR set to: 0
  3462                           ;/opt/microchip/xc8/v2.45/pic/sources/c99/common/doprnt.c: 816:  i = sizeof(dbuf) - 1;
  3463   001890  0E00               	movlw	0
  3464   001892  6FC0               	movwf	(efgtoa@i+1)& (0+255),b
  3465   001894  0E4F               	movlw	79
  3466   001896  6FBF               	movwf	efgtoa@i& (0+255),b
  3467   001898                     
  3468                           ; BSR set to: 0
  3469                           ;/opt/microchip/xc8/v2.45/pic/sources/c99/common/doprnt.c: 817:     dbuf[i] = '\0';
  3470   001898  0E00               	movlw	low _dbuf
  3471   00189A  25BF               	addwf	efgtoa@i& (0+255),w,b
  3472   00189C  6ED9               	movwf	fsr2l,c
  3473   00189E  0E01               	movlw	high _dbuf
  3474   0018A0  21C0               	addwfc	(efgtoa@i+1)& (0+255),w,b
  3475   0018A2  6EDA               	movwf	fsr2h,c
  3476   0018A4  6ADF               	clrf	indf2,c
  3477   0018A6                     
  3478                           ; BSR set to: 0
  3479                           ;/opt/microchip/xc8/v2.45/pic/sources/c99/common/doprnt.c: 848:  memcpy(&dbuf[i-n], &dbu
      +                          f[0], (size_t)n);
  3480   0018A6  0E00               	movlw	low _dbuf
  3481   0018A8  6FA6               	movwf	??_efgtoa& (0+255),b
  3482   0018AA  0E01               	movlw	high _dbuf
  3483   0018AC  6FA7               	movwf	(??_efgtoa+1)& (0+255),b
  3484   0018AE  51CE               	movf	efgtoa@n& (0+255),w,b
  3485   0018B0  5FA6               	subwf	??_efgtoa& (0+255),f,b
  3486   0018B2  51CF               	movf	(efgtoa@n+1)& (0+255),w,b
  3487   0018B4  5BA7               	subwfb	(??_efgtoa+1)& (0+255),f,b
  3488   0018B6  51BF               	movf	efgtoa@i& (0+255),w,b
  3489   0018B8  25A6               	addwf	??_efgtoa& (0+255),w,b
  3490   0018BA  6F60               	movwf	memcpy@d1& (0+255),b
  3491   0018BC  51C0               	movf	(efgtoa@i+1)& (0+255),w,b
  3492   0018BE  21A7               	addwfc	(??_efgtoa+1)& (0+255),w,b
  3493   0018C0  6F61               	movwf	(memcpy@d1+1)& (0+255),b
  3494   0018C2  0E00               	movlw	low _dbuf
  3495   0018C4  6F62               	movwf	memcpy@s1& (0+255),b
  3496   0018C6  0E01               	movlw	high _dbuf
  3497   0018C8  6F63               	movwf	(memcpy@s1+1)& (0+255),b
  3498   0018CA  C0CE  F064         	movff	efgtoa@n,memcpy@n
  3499   0018CE  C0CF  F065         	movff	efgtoa@n+1,memcpy@n+1
  3500   0018D2  EC85  F021         	call	_memcpy	;wreg free
  3501   0018D6                     
  3502                           ;/opt/microchip/xc8/v2.45/pic/sources/c99/common/doprnt.c: 849:  n = i-n;
  3503   0018D6  0100               	movlb	0	; () banked
  3504   0018D8  51CE               	movf	efgtoa@n& (0+255),w,b
  3505   0018DA  5DBF               	subwf	efgtoa@i& (0+255),w,b
  3506   0018DC  6FCE               	movwf	efgtoa@n& (0+255),b
  3507   0018DE  51CF               	movf	(efgtoa@n+1)& (0+255),w,b
  3508   0018E0  59C0               	subwfb	(efgtoa@i+1)& (0+255),w,b
  3509   0018E2  6FCF               	movwf	(efgtoa@n+1)& (0+255),b
  3510   0018E4                     
  3511                           ; BSR set to: 0
  3512                           ;/opt/microchip/xc8/v2.45/pic/sources/c99/common/doprnt.c: 850:  i = sign == 0 ? 0 : 1;
  3513   0018E4  51C9               	movf	efgtoa@sign& (0+255),w,b
  3514   0018E6  A4D8               	btfss	status,2,c
  3515   0018E8  EF78  F00C         	goto	u7521
  3516   0018EC  EF7B  F00C         	goto	u7520
  3517   0018F0                     u7521:
  3518   0018F0  0E01               	movlw	1
  3519   0018F2  EF7C  F00C         	goto	u7530
  3520   0018F6                     u7520:
  3521   0018F6  0E00               	movlw	0
  3522   0018F8                     u7530:
  3523   0018F8  6FBF               	movwf	efgtoa@i& (0+255),b
  3524   0018FA  6BC0               	clrf	(efgtoa@i+1)& (0+255),b
  3525   0018FC                     
  3526                           ; BSR set to: 0
  3527                           ;/opt/microchip/xc8/v2.45/pic/sources/c99/common/doprnt.c: 861:  if (sign) {
  3528   0018FC  51C9               	movf	efgtoa@sign& (0+255),w,b
  3529   0018FE  B4D8               	btfsc	status,2,c
  3530   001900  EF84  F00C         	goto	u7541
  3531   001904  EF86  F00C         	goto	u7540
  3532   001908                     u7541:
  3533   001908  EF91  F00C         	goto	l6315
  3534   00190C                     u7540:
  3535   00190C                     
  3536                           ; BSR set to: 0
  3537                           ;/opt/microchip/xc8/v2.45/pic/sources/c99/common/doprnt.c: 862:   dbuf[--n] = sign;
  3538   00190C  07CE               	decf	efgtoa@n& (0+255),f,b
  3539   00190E  A0D8               	btfss	status,0,c
  3540   001910  07CF               	decf	(efgtoa@n+1)& (0+255),f,b
  3541   001912  0E00               	movlw	low _dbuf
  3542   001914  25CE               	addwf	efgtoa@n& (0+255),w,b
  3543   001916  6ED9               	movwf	fsr2l,c
  3544   001918  0E01               	movlw	high _dbuf
  3545   00191A  21CF               	addwfc	(efgtoa@n+1)& (0+255),w,b
  3546   00191C  6EDA               	movwf	fsr2h,c
  3547   00191E  C0C9  FFDF         	movff	efgtoa@sign,indf2
  3548   001922                     l6315:
  3549                           
  3550                           ; BSR set to: 0
  3551                           ;/opt/microchip/xc8/v2.45/pic/sources/c99/common/doprnt.c: 864:  w -= i;
  3552   001922  51BF               	movf	efgtoa@i& (0+255),w,b
  3553   001924  5FB9               	subwf	efgtoa@w& (0+255),f,b
  3554   001926  51C0               	movf	(efgtoa@i+1)& (0+255),w,b
  3555   001928  5BBA               	subwfb	(efgtoa@w+1)& (0+255),f,b
  3556   00192A                     
  3557                           ; BSR set to: 0
  3558                           ;/opt/microchip/xc8/v2.45/pic/sources/c99/common/doprnt.c: 867:     return (void) pad(fp
      +                          , &dbuf[n], w);
  3559   00192A  C09F  F072         	movff	efgtoa@fp,pad@fp
  3560   00192E  C0A0  F073         	movff	efgtoa@fp+1,pad@fp+1
  3561   001932  0E00               	movlw	low _dbuf
  3562   001934  25CE               	addwf	efgtoa@n& (0+255),w,b
  3563   001936  6F74               	movwf	pad@buf& (0+255),b
  3564   001938  0E01               	movlw	high _dbuf
  3565   00193A  21CF               	addwfc	(efgtoa@n+1)& (0+255),w,b
  3566   00193C  6F75               	movwf	(pad@buf+1)& (0+255),b
  3567   00193E  C0B9  F076         	movff	efgtoa@w,pad@p
  3568   001942  C0BA  F077         	movff	efgtoa@w+1,pad@p+1
  3569   001946  ECF6  F020         	call	_pad	;wreg free
  3570   00194A                     l1182:
  3571   00194A  0012               	return		;funcret
  3572   00194C                     __end_of_efgtoa:
  3573                           	callstack 0
  3574                           
  3575 ;; *************** function _strcpy *****************
  3576 ;; Defined at:
  3577 ;;		line 3 in file "/opt/microchip/xc8/v2.45/pic/sources/c99/common/strcpy.c"
  3578 ;; Parameters:    Size  Location     Type
  3579 ;;  dest            2    0[BANK0 ] PTR unsigned char 
  3580 ;;		 -> dbuf(80), 
  3581 ;;  src             1    2[BANK0 ] PTR const unsigned char 
  3582 ;;		 -> STR_7(4), STR_4(4), 
  3583 ;; Auto vars:     Size  Location     Type
  3584 ;;  d               2    4[BANK0 ] PTR unsigned char 
  3585 ;;		 -> dbuf(80), 
  3586 ;; Return value:  Size  Location     Type
  3587 ;;                  2    0[BANK0 ] PTR unsigned char 
  3588 ;; Registers used:
  3589 ;;		wreg, fsr2l, fsr2h, status,2, status,0, tblptrl, tblptrh, tblptru
  3590 ;; Tracked objects:
  3591 ;;		On entry : 0/0
  3592 ;;		On exit  : 0/0
  3593 ;;		Unchanged: 0/0
  3594 ;; Data sizes:     COMRAM   BANK0   BANK1   BANK2   BANK3   BANK4   BANK5   BANK6   BANK7   BANK8   BANK9  BANK10  BANK1
      +1  BANK12  BANK14
  3595 ;;      Params:         0       3       0       0       0       0       0       0       0       0       0       0       
      +0       0       0
  3596 ;;      Locals:         0       2       0       0       0       0       0       0       0       0       0       0       
      +0       0       0
  3597 ;;      Temps:          0       1       0       0       0       0       0       0       0       0       0       0       
      +0       0       0
  3598 ;;      Totals:         0       6       0       0       0       0       0       0       0       0       0       0       
      +0       0       0
  3599 ;;Total ram usage:        6 bytes
  3600 ;; Hardware stack levels used: 1
  3601 ;; Hardware stack levels required when called: 5
  3602 ;; This function calls:
  3603 ;;		Nothing
  3604 ;; This function is called by:
  3605 ;;		_efgtoa
  3606 ;; This function uses a non-reentrant model
  3607 ;;
  3608                           
  3609                           	psect	text5
  3610   004484                     __ptext5:
  3611                           	callstack 0
  3612   004484                     _strcpy:
  3613                           	callstack 21
  3614   004484  C060  F064         	movff	strcpy@dest,strcpy@d
  3615   004488  C061  F065         	movff	strcpy@dest+1,strcpy@d+1
  3616   00448C                     l5995:
  3617   00448C  0100               	movlb	0	; () banked
  3618   00448E  2B62               	incf	strcpy@src& (0+255),f,b
  3619   004490  0562               	decf	strcpy@src& (0+255),w,b
  3620   004492  6F63               	movwf	??_strcpy& (0+255),b
  3621   004494  C063  FFF6         	movff	??_strcpy,tblptrl
  3622   004498                     	if	1	;There is more than 1 active tblptr byte
  3623   004498  0E0F               	movlw	high __smallconst
  3624   00449A  6EF7               	movwf	tblptrh,c
  3625   00449C                     	endif
  3626   00449C                     	if	0	;tblptru may be non-zero
  3627   00449C                     	endif
  3628   00449C                     	if	1	;Program memory is > 0xFFFF, there are 3 active tblptr bytes
  3629   00449C  0E00               	movlw	low (__smallconst shr (0+16))
  3630   00449E  6EF8               	movwf	tblptru,c
  3631   0044A0                     	endif
  3632   0044A0  C064  FFD9         	movff	strcpy@d,fsr2l
  3633   0044A4  C065  FFDA         	movff	strcpy@d+1,fsr2h
  3634   0044A8  4B64               	infsnz	strcpy@d& (0+255),f,b
  3635   0044AA  2B65               	incf	(strcpy@d+1)& (0+255),f,b
  3636   0044AC  0008               	tblrd		*
  3637   0044AE  CFF5 FFDF          	movff	tablat,indf2
  3638   0044B2  50DF               	movf	indf2,w,c
  3639   0044B4  A4D8               	btfss	status,2,c
  3640   0044B6  EF5F  F022         	goto	u7001
  3641   0044BA  EF61  F022         	goto	u7000
  3642   0044BE                     u7001:
  3643   0044BE  EF46  F022         	goto	l5995
  3644   0044C2                     u7000:
  3645   0044C2                     
  3646                           ; BSR set to: 0
  3647   0044C2  0012               	return		;funcret
  3648   0044C4                     __end_of_strcpy:
  3649                           	callstack 0
  3650                           
  3651 ;; *************** function _memcpy *****************
  3652 ;; Defined at:
  3653 ;;		line 4 in file "/opt/microchip/xc8/v2.45/pic/sources/c99/common/memcpy.c"
  3654 ;; Parameters:    Size  Location     Type
  3655 ;;  d1              2    0[BANK0 ] PTR void 
  3656 ;;		 -> dbuf(80), 
  3657 ;;  s1              2    2[BANK0 ] PTR const void 
  3658 ;;		 -> dbuf(80), 
  3659 ;;  n               2    4[BANK0 ] unsigned int 
  3660 ;; Auto vars:     Size  Location     Type
  3661 ;;  s               2    9[BANK0 ] PTR const unsigned char 
  3662 ;;		 -> dbuf(80), 
  3663 ;;  d               2    7[BANK0 ] PTR unsigned char 
  3664 ;;		 -> dbuf(80), 
  3665 ;;  tmp             1    6[BANK0 ] unsigned char 
  3666 ;; Return value:  Size  Location     Type
  3667 ;;                  2    0[BANK0 ] PTR void 
  3668 ;; Registers used:
  3669 ;;		wreg, fsr2l, fsr2h, status,2, status,0
  3670 ;; Tracked objects:
  3671 ;;		On entry : 0/0
  3672 ;;		On exit  : 0/0
  3673 ;;		Unchanged: 0/0
  3674 ;; Data sizes:     COMRAM   BANK0   BANK1   BANK2   BANK3   BANK4   BANK5   BANK6   BANK7   BANK8   BANK9  BANK10  BANK1
      +1  BANK12  BANK14
  3675 ;;      Params:         0       6       0       0       0       0       0       0       0       0       0       0       
      +0       0       0
  3676 ;;      Locals:         0       5       0       0       0       0       0       0       0       0       0       0       
      +0       0       0
  3677 ;;      Temps:          0       0       0       0       0       0       0       0       0       0       0       0       
      +0       0       0
  3678 ;;      Totals:         0      11       0       0       0       0       0       0       0       0       0       0       
      +0       0       0
  3679 ;;Total ram usage:       11 bytes
  3680 ;; Hardware stack levels used: 1
  3681 ;; Hardware stack levels required when called: 5
  3682 ;; This function calls:
  3683 ;;		Nothing
  3684 ;; This function is called by:
  3685 ;;		_efgtoa
  3686 ;; This function uses a non-reentrant model
  3687 ;;
  3688                           
  3689                           	psect	text6
  3690   00430A                     __ptext6:
  3691                           	callstack 0
  3692   00430A                     _memcpy:
  3693                           	callstack 21
  3694   00430A  C062  F069         	movff	memcpy@s1,memcpy@s
  3695   00430E  C063  F06A         	movff	memcpy@s1+1,memcpy@s+1
  3696   004312  C060  F067         	movff	memcpy@d1,memcpy@d
  3697   004316  C061  F068         	movff	memcpy@d1+1,memcpy@d+1
  3698   00431A  EF9F  F021         	goto	l6043
  3699   00431E                     l6035:
  3700                           
  3701                           ; BSR set to: 0
  3702   00431E  C069  FFD9         	movff	memcpy@s,fsr2l
  3703   004322  C06A  FFDA         	movff	memcpy@s+1,fsr2h
  3704   004326  50DF               	movf	indf2,w,c
  3705   004328  6F66               	movwf	memcpy@tmp& (0+255),b
  3706   00432A                     
  3707                           ; BSR set to: 0
  3708   00432A  4B69               	infsnz	memcpy@s& (0+255),f,b
  3709   00432C  2B6A               	incf	(memcpy@s+1)& (0+255),f,b
  3710   00432E                     
  3711                           ; BSR set to: 0
  3712   00432E  C067  FFD9         	movff	memcpy@d,fsr2l
  3713   004332  C068  FFDA         	movff	memcpy@d+1,fsr2h
  3714   004336  C066  FFDF         	movff	memcpy@tmp,indf2
  3715   00433A                     
  3716                           ; BSR set to: 0
  3717   00433A  4B67               	infsnz	memcpy@d& (0+255),f,b
  3718   00433C  2B68               	incf	(memcpy@d+1)& (0+255),f,b
  3719   00433E                     l6043:
  3720   00433E  0100               	movlb	0	; () banked
  3721   004340  0764               	decf	memcpy@n& (0+255),f,b
  3722   004342  A0D8               	btfss	status,0,c
  3723   004344  0765               	decf	(memcpy@n+1)& (0+255),f,b
  3724   004346  2964               	incf	memcpy@n& (0+255),w,b
  3725   004348  E106               	bnz	u7121
  3726   00434A  2965               	incf	(memcpy@n+1)& (0+255),w,b
  3727   00434C  A4D8               	btfss	status,2,c
  3728   00434E  EFAB  F021         	goto	u7121
  3729   004352  EFAD  F021         	goto	u7120
  3730   004356                     u7121:
  3731   004356  EF8F  F021         	goto	l6035
  3732   00435A                     u7120:
  3733   00435A                     
  3734                           ; BSR set to: 0
  3735   00435A  0012               	return		;funcret
  3736   00435C                     __end_of_memcpy:
  3737                           	callstack 0
  3738                           
  3739 ;; *************** function _labs *****************
  3740 ;; Defined at:
  3741 ;;		line 1 in file "/opt/microchip/xc8/v2.45/pic/sources/c99/common/labs.c"
  3742 ;; Parameters:    Size  Location     Type
  3743 ;;  a               4    0[BANK0 ] long 
  3744 ;; Auto vars:     Size  Location     Type
  3745 ;;		None
  3746 ;; Return value:  Size  Location     Type
  3747 ;;                  4    0[BANK0 ] long 
  3748 ;; Registers used:
  3749 ;;		wreg, status,2, status,0
  3750 ;; Tracked objects:
  3751 ;;		On entry : 0/0
  3752 ;;		On exit  : 0/0
  3753 ;;		Unchanged: 0/0
  3754 ;; Data sizes:     COMRAM   BANK0   BANK1   BANK2   BANK3   BANK4   BANK5   BANK6   BANK7   BANK8   BANK9  BANK10  BANK1
      +1  BANK12  BANK14
  3755 ;;      Params:         0       4       0       0       0       0       0       0       0       0       0       0       
      +0       0       0
  3756 ;;      Locals:         0       0       0       0       0       0       0       0       0       0       0       0       
      +0       0       0
  3757 ;;      Temps:          0       4       0       0       0       0       0       0       0       0       0       0       
      +0       0       0
  3758 ;;      Totals:         0       8       0       0       0       0       0       0       0       0       0       0       
      +0       0       0
  3759 ;;Total ram usage:        8 bytes
  3760 ;; Hardware stack levels used: 1
  3761 ;; Hardware stack levels required when called: 5
  3762 ;; This function calls:
  3763 ;;		Nothing
  3764 ;; This function is called by:
  3765 ;;		_efgtoa
  3766 ;; This function uses a non-reentrant model
  3767 ;;
  3768                           
  3769                           	psect	text7
  3770   00425E                     __ptext7:
  3771                           	callstack 0
  3772   00425E                     _labs:
  3773                           	callstack 21
  3774   00425E  0100               	movlb	0	; () banked
  3775   004260  BF63               	btfsc	(labs@a+3)& (0+255),7,b
  3776   004262  EF35  F021         	goto	u7011
  3777   004266  EF37  F021         	goto	u7010
  3778   00426A                     u7011:
  3779   00426A  EF41  F021         	goto	l6001
  3780   00426E                     u7010:
  3781   00426E                     
  3782                           ; BSR set to: 0
  3783   00426E  C060  F060         	movff	labs@a,?_labs
  3784   004272  C061  F061         	movff	labs@a+1,?_labs+1
  3785   004276  C062  F062         	movff	labs@a+2,?_labs+2
  3786   00427A  C063  F063         	movff	labs@a+3,?_labs+3
  3787   00427E  EF5A  F021         	goto	l1307
  3788   004282                     l6001:
  3789                           
  3790                           ; BSR set to: 0
  3791   004282  C060  F064         	movff	labs@a,??_labs
  3792   004286  C061  F065         	movff	labs@a+1,??_labs+1
  3793   00428A  C062  F066         	movff	labs@a+2,??_labs+2
  3794   00428E  C063  F067         	movff	labs@a+3,??_labs+3
  3795   004292  1F64               	comf	??_labs& (0+255),f,b
  3796   004294  1F65               	comf	(??_labs+1)& (0+255),f,b
  3797   004296  1F66               	comf	(??_labs+2)& (0+255),f,b
  3798   004298  1F67               	comf	(??_labs+3)& (0+255),f,b
  3799   00429A  2B64               	incf	??_labs& (0+255),f,b
  3800   00429C  0E00               	movlw	0
  3801   00429E  2365               	addwfc	(??_labs+1)& (0+255),f,b
  3802   0042A0  2366               	addwfc	(??_labs+2)& (0+255),f,b
  3803   0042A2  2367               	addwfc	(??_labs+3)& (0+255),f,b
  3804   0042A4  C064  F060         	movff	??_labs,?_labs
  3805   0042A8  C065  F061         	movff	??_labs+1,?_labs+1
  3806   0042AC  C066  F062         	movff	??_labs+2,?_labs+2
  3807   0042B0  C067  F063         	movff	??_labs+3,?_labs+3
  3808   0042B4                     l1307:
  3809                           
  3810                           ; BSR set to: 0
  3811   0042B4  0012               	return		;funcret
  3812   0042B6                     __end_of_labs:
  3813                           	callstack 0
  3814                           
  3815 ;; *************** function _floorf *****************
  3816 ;; Defined at:
  3817 ;;		line 3 in file "/opt/microchip/xc8/v2.45/pic/sources/c99/common/floorf.c"
  3818 ;; Parameters:    Size  Location     Type
  3819 ;;  x               4   39[BANK0 ] float 
  3820 ;; Auto vars:     Size  Location     Type
  3821 ;;  u               4   55[BANK0 ] struct .
  3822 ;;  m               4   49[BANK0 ] unsigned long 
  3823 ;;  e               2   53[BANK0 ] int 
  3824 ;; Return value:  Size  Location     Type
  3825 ;;                  4   39[BANK0 ] float 
  3826 ;; Registers used:
  3827 ;;		wreg, status,2, status,0
  3828 ;; Tracked objects:
  3829 ;;		On entry : 0/0
  3830 ;;		On exit  : 0/0
  3831 ;;		Unchanged: 0/0
  3832 ;; Data sizes:     COMRAM   BANK0   BANK1   BANK2   BANK3   BANK4   BANK5   BANK6   BANK7   BANK8   BANK9  BANK10  BANK1
      +1  BANK12  BANK14
  3833 ;;      Params:         0       4       0       0       0       0       0       0       0       0       0       0       
      +0       0       0
  3834 ;;      Locals:         0      10       0       0       0       0       0       0       0       0       0       0       
      +0       0       0
  3835 ;;      Temps:          0       6       0       0       0       0       0       0       0       0       0       0       
      +0       0       0
  3836 ;;      Totals:         0      20       0       0       0       0       0       0       0       0       0       0       
      +0       0       0
  3837 ;;Total ram usage:       20 bytes
  3838 ;; Hardware stack levels used: 1
  3839 ;; Hardware stack levels required when called: 5
  3840 ;; This function calls:
  3841 ;;		Nothing
  3842 ;; This function is called by:
  3843 ;;		_efgtoa
  3844 ;; This function uses a non-reentrant model
  3845 ;;
  3846                           
  3847                           	psect	text8
  3848   0031B4                     __ptext8:
  3849                           	callstack 0
  3850   0031B4                     _floorf:
  3851                           	callstack 21
  3852   0031B4  C03A  F097         	movff	floorf@F521,floorf@u
  3853   0031B8  C03B  F098         	movff	floorf@F521+1,floorf@u+1
  3854   0031BC  C03C  F099         	movff	floorf@F521+2,floorf@u+2
  3855   0031C0  C03D  F09A         	movff	floorf@F521+3,floorf@u+3
  3856   0031C4  C087  F097         	movff	floorf@x,floorf@u
  3857   0031C8  C088  F098         	movff	floorf@x+1,floorf@u+1
  3858   0031CC  C089  F099         	movff	floorf@x+2,floorf@u+2
  3859   0031D0  C08A  F09A         	movff	floorf@x+3,floorf@u+3
  3860   0031D4  0E81               	movlw	129
  3861   0031D6  0100               	movlb	0	; () banked
  3862   0031D8  6F8B               	movwf	??_floorf& (0+255),b
  3863   0031DA  0EFF               	movlw	255
  3864   0031DC  6F8C               	movwf	(??_floorf+1)& (0+255),b
  3865   0031DE  C097  F08D         	movff	floorf@u,??_floorf+2
  3866   0031E2  C098  F08E         	movff	floorf@u+1,??_floorf+3
  3867   0031E6  C099  F08F         	movff	floorf@u+2,??_floorf+4
  3868   0031EA  C09A  F090         	movff	floorf@u+3,??_floorf+5
  3869   0031EE  0E18               	movlw	24
  3870   0031F0  EFFF  F018         	goto	u7020
  3871   0031F4                     u7025:
  3872   0031F4  90D8               	bcf	status,0,c
  3873   0031F6  3390               	rrcf	(??_floorf+5)& (0+255),f,b
  3874   0031F8  338F               	rrcf	(??_floorf+4)& (0+255),f,b
  3875   0031FA  338E               	rrcf	(??_floorf+3)& (0+255),f,b
  3876   0031FC  338D               	rrcf	(??_floorf+2)& (0+255),f,b
  3877   0031FE                     u7020:
  3878   0031FE  2EE8               	decfsz	wreg,f,c
  3879   003200  EFFA  F018         	goto	u7025
  3880   003204  518D               	movf	(??_floorf+2)& (0+255),w,b
  3881   003206  258B               	addwf	??_floorf& (0+255),w,b
  3882   003208  6F95               	movwf	floorf@e& (0+255),b
  3883   00320A  0E00               	movlw	0
  3884   00320C  218C               	addwfc	(??_floorf+1)& (0+255),w,b
  3885   00320E  6F96               	movwf	(floorf@e+1)& (0+255),b
  3886   003210  BF96               	btfsc	(floorf@e+1)& (0+255),7,b
  3887   003212  EF14  F019         	goto	u7031
  3888   003216  5196               	movf	(floorf@e+1)& (0+255),w,b
  3889   003218  E109               	bnz	u7030
  3890   00321A  0E17               	movlw	23
  3891   00321C  5D95               	subwf	floorf@e& (0+255),w,b
  3892   00321E  A0D8               	btfss	status,0,c
  3893   003220  EF14  F019         	goto	u7031
  3894   003224  EF16  F019         	goto	u7030
  3895   003228                     u7031:
  3896   003228  EF20  F019         	goto	l6011
  3897   00322C                     u7030:
  3898   00322C                     l6009:
  3899                           
  3900                           ; BSR set to: 0
  3901   00322C  C087  F087         	movff	floorf@x,?_floorf
  3902   003230  C088  F088         	movff	floorf@x+1,?_floorf+1
  3903   003234  C089  F089         	movff	floorf@x+2,?_floorf+2
  3904   003238  C08A  F08A         	movff	floorf@x+3,?_floorf+3
  3905   00323C  EFE4  F019         	goto	l1293
  3906   003240                     l6011:
  3907                           
  3908                           ; BSR set to: 0
  3909   003240  BF96               	btfsc	(floorf@e+1)& (0+255),7,b
  3910   003242  EF25  F019         	goto	u7041
  3911   003246  EF27  F019         	goto	u7040
  3912   00324A                     u7041:
  3913   00324A  EF98  F019         	goto	l6021
  3914   00324E                     u7040:
  3915   00324E                     
  3916                           ; BSR set to: 0
  3917   00324E  C095  F08B         	movff	floorf@e,??_floorf
  3918   003252  0EFF               	movlw	255
  3919   003254  6F8C               	movwf	(??_floorf+1)& (0+255),b
  3920   003256  0EFF               	movlw	255
  3921   003258  6F8D               	movwf	(??_floorf+2)& (0+255),b
  3922   00325A  0E7F               	movlw	127
  3923   00325C  6F8E               	movwf	(??_floorf+3)& (0+255),b
  3924   00325E  0E00               	movlw	0
  3925   003260  6F8F               	movwf	(??_floorf+4)& (0+255),b
  3926   003262                     u7055:
  3927   003262  678B               	tstfsz	??_floorf& (0+255),b
  3928   003264  EF36  F019         	goto	u7056
  3929   003268  EF3E  F019         	goto	u7057
  3930   00326C                     u7056:
  3931   00326C  358F               	rlcf	(??_floorf+4)& (0+255),w,b
  3932   00326E  338F               	rrcf	(??_floorf+4)& (0+255),f,b
  3933   003270  338E               	rrcf	(??_floorf+3)& (0+255),f,b
  3934   003272  338D               	rrcf	(??_floorf+2)& (0+255),f,b
  3935   003274  338C               	rrcf	(??_floorf+1)& (0+255),f,b
  3936   003276  2F8B               	decfsz	??_floorf& (0+255),f,b
  3937   003278  EF31  F019         	goto	u7055
  3938   00327C                     u7057:
  3939   00327C  C08C  F091         	movff	??_floorf+1,floorf@m
  3940   003280  C08D  F092         	movff	??_floorf+2,floorf@m+1
  3941   003284  C08E  F093         	movff	??_floorf+3,floorf@m+2
  3942   003288  C08F  F094         	movff	??_floorf+4,floorf@m+3
  3943   00328C  0100               	movlb	0	; () banked
  3944   00328E  5191               	movf	floorf@m& (0+255),w,b
  3945   003290  1597               	andwf	floorf@u& (0+255),w,b
  3946   003292  6F8B               	movwf	??_floorf& (0+255),b
  3947   003294  5192               	movf	(floorf@m+1)& (0+255),w,b
  3948   003296  1598               	andwf	(floorf@u+1)& (0+255),w,b
  3949   003298  6F8C               	movwf	(??_floorf+1)& (0+255),b
  3950   00329A  5193               	movf	(floorf@m+2)& (0+255),w,b
  3951   00329C  1599               	andwf	(floorf@u+2)& (0+255),w,b
  3952   00329E  6F8D               	movwf	(??_floorf+2)& (0+255),b
  3953   0032A0  5194               	movf	(floorf@m+3)& (0+255),w,b
  3954   0032A2  159A               	andwf	(floorf@u+3)& (0+255),w,b
  3955   0032A4  6F8E               	movwf	(??_floorf+3)& (0+255),b
  3956   0032A6  518B               	movf	??_floorf& (0+255),w,b
  3957   0032A8  118C               	iorwf	(??_floorf+1)& (0+255),w,b
  3958   0032AA  118D               	iorwf	(??_floorf+2)& (0+255),w,b
  3959   0032AC  118E               	iorwf	(??_floorf+3)& (0+255),w,b
  3960   0032AE  A4D8               	btfss	status,2,c
  3961   0032B0  EF5C  F019         	goto	u7061
  3962   0032B4  EF5E  F019         	goto	u7060
  3963   0032B8                     u7061:
  3964   0032B8  EF60  F019         	goto	l6017
  3965   0032BC                     u7060:
  3966   0032BC  EF16  F019         	goto	l6009
  3967   0032C0                     l6017:
  3968                           
  3969                           ; BSR set to: 0
  3970   0032C0  C097  F08B         	movff	floorf@u,??_floorf
  3971   0032C4  C098  F08C         	movff	floorf@u+1,??_floorf+1
  3972   0032C8  C099  F08D         	movff	floorf@u+2,??_floorf+2
  3973   0032CC  C09A  F08E         	movff	floorf@u+3,??_floorf+3
  3974   0032D0  0E20               	movlw	32
  3975   0032D2  EF70  F019         	goto	u7070
  3976   0032D6                     u7075:
  3977   0032D6  90D8               	bcf	status,0,c
  3978   0032D8  338E               	rrcf	(??_floorf+3)& (0+255),f,b
  3979   0032DA  338D               	rrcf	(??_floorf+2)& (0+255),f,b
  3980   0032DC  338C               	rrcf	(??_floorf+1)& (0+255),f,b
  3981   0032DE  338B               	rrcf	??_floorf& (0+255),f,b
  3982   0032E0                     u7070:
  3983   0032E0  2EE8               	decfsz	wreg,f,c
  3984   0032E2  EF6B  F019         	goto	u7075
  3985   0032E6  518B               	movf	??_floorf& (0+255),w,b
  3986   0032E8  118C               	iorwf	(??_floorf+1)& (0+255),w,b
  3987   0032EA  118D               	iorwf	(??_floorf+2)& (0+255),w,b
  3988   0032EC  118E               	iorwf	(??_floorf+3)& (0+255),w,b
  3989   0032EE  B4D8               	btfsc	status,2,c
  3990   0032F0  EF7C  F019         	goto	u7081
  3991   0032F4  EF7E  F019         	goto	u7080
  3992   0032F8                     u7081:
  3993   0032F8  EF86  F019         	goto	l1296
  3994   0032FC                     u7080:
  3995   0032FC                     
  3996                           ; BSR set to: 0
  3997   0032FC  5191               	movf	floorf@m& (0+255),w,b
  3998   0032FE  2797               	addwf	floorf@u& (0+255),f,b
  3999   003300  5192               	movf	(floorf@m+1)& (0+255),w,b
  4000   003302  2398               	addwfc	(floorf@u+1)& (0+255),f,b
  4001   003304  5193               	movf	(floorf@m+2)& (0+255),w,b
  4002   003306  2399               	addwfc	(floorf@u+2)& (0+255),f,b
  4003   003308  5194               	movf	(floorf@m+3)& (0+255),w,b
  4004   00330A  239A               	addwfc	(floorf@u+3)& (0+255),f,b
  4005   00330C                     l1296:
  4006                           
  4007                           ; BSR set to: 0
  4008   00330C  1D91               	comf	floorf@m& (0+255),w,b
  4009   00330E  6F8B               	movwf	??_floorf& (0+255),b
  4010   003310  1D92               	comf	(floorf@m+1)& (0+255),w,b
  4011   003312  6F8C               	movwf	(??_floorf+1)& (0+255),b
  4012   003314  1D93               	comf	(floorf@m+2)& (0+255),w,b
  4013   003316  6F8D               	movwf	(??_floorf+2)& (0+255),b
  4014   003318  1D94               	comf	(floorf@m+3)& (0+255),w,b
  4015   00331A  6F8E               	movwf	(??_floorf+3)& (0+255),b
  4016   00331C  518B               	movf	??_floorf& (0+255),w,b
  4017   00331E  1797               	andwf	floorf@u& (0+255),f,b
  4018   003320  518C               	movf	(??_floorf+1)& (0+255),w,b
  4019   003322  1798               	andwf	(floorf@u+1)& (0+255),f,b
  4020   003324  518D               	movf	(??_floorf+2)& (0+255),w,b
  4021   003326  1799               	andwf	(floorf@u+2)& (0+255),f,b
  4022   003328  518E               	movf	(??_floorf+3)& (0+255),w,b
  4023   00332A  179A               	andwf	(floorf@u+3)& (0+255),f,b
  4024   00332C  EFDC  F019         	goto	l6029
  4025   003330                     l6021:
  4026                           
  4027                           ; BSR set to: 0
  4028   003330  C097  F08B         	movff	floorf@u,??_floorf
  4029   003334  C098  F08C         	movff	floorf@u+1,??_floorf+1
  4030   003338  C099  F08D         	movff	floorf@u+2,??_floorf+2
  4031   00333C  C09A  F08E         	movff	floorf@u+3,??_floorf+3
  4032   003340  0E20               	movlw	32
  4033   003342  EFA8  F019         	goto	u7090
  4034   003346                     u7095:
  4035   003346  90D8               	bcf	status,0,c
  4036   003348  338E               	rrcf	(??_floorf+3)& (0+255),f,b
  4037   00334A  338D               	rrcf	(??_floorf+2)& (0+255),f,b
  4038   00334C  338C               	rrcf	(??_floorf+1)& (0+255),f,b
  4039   00334E  338B               	rrcf	??_floorf& (0+255),f,b
  4040   003350                     u7090:
  4041   003350  2EE8               	decfsz	wreg,f,c
  4042   003352  EFA3  F019         	goto	u7095
  4043   003356  518B               	movf	??_floorf& (0+255),w,b
  4044   003358  118C               	iorwf	(??_floorf+1)& (0+255),w,b
  4045   00335A  118D               	iorwf	(??_floorf+2)& (0+255),w,b
  4046   00335C  118E               	iorwf	(??_floorf+3)& (0+255),w,b
  4047   00335E  A4D8               	btfss	status,2,c
  4048   003360  EFB4  F019         	goto	u7101
  4049   003364  EFB6  F019         	goto	u7100
  4050   003368                     u7101:
  4051   003368  EFC0  F019         	goto	l6025
  4052   00336C                     u7100:
  4053   00336C                     
  4054                           ; BSR set to: 0
  4055   00336C  0E00               	movlw	0
  4056   00336E  6F97               	movwf	floorf@u& (0+255),b
  4057   003370  0E00               	movlw	0
  4058   003372  6F98               	movwf	(floorf@u+1)& (0+255),b
  4059   003374  0E00               	movlw	0
  4060   003376  6F99               	movwf	(floorf@u+2)& (0+255),b
  4061   003378  0E00               	movlw	0
  4062   00337A  6F9A               	movwf	(floorf@u+3)& (0+255),b
  4063   00337C  EFDC  F019         	goto	l6029
  4064   003380                     l6025:
  4065                           
  4066                           ; BSR set to: 0
  4067   003380  90D8               	bcf	status,0,c
  4068   003382  3597               	rlcf	floorf@u& (0+255),w,b
  4069   003384  6F8B               	movwf	??_floorf& (0+255),b
  4070   003386  3598               	rlcf	(floorf@u+1)& (0+255),w,b
  4071   003388  6F8C               	movwf	(??_floorf+1)& (0+255),b
  4072   00338A  3599               	rlcf	(floorf@u+2)& (0+255),w,b
  4073   00338C  6F8D               	movwf	(??_floorf+2)& (0+255),b
  4074   00338E  359A               	rlcf	(floorf@u+3)& (0+255),w,b
  4075   003390  6F8E               	movwf	(??_floorf+3)& (0+255),b
  4076   003392  518B               	movf	??_floorf& (0+255),w,b
  4077   003394  118C               	iorwf	(??_floorf+1)& (0+255),w,b
  4078   003396  118D               	iorwf	(??_floorf+2)& (0+255),w,b
  4079   003398  118E               	iorwf	(??_floorf+3)& (0+255),w,b
  4080   00339A  B4D8               	btfsc	status,2,c
  4081   00339C  EFD2  F019         	goto	u7111
  4082   0033A0  EFD4  F019         	goto	u7110
  4083   0033A4                     u7111:
  4084   0033A4  EFDC  F019         	goto	l6029
  4085   0033A8                     u7110:
  4086   0033A8                     
  4087                           ; BSR set to: 0
  4088   0033A8  0E00               	movlw	0
  4089   0033AA  6F97               	movwf	floorf@u& (0+255),b
  4090   0033AC  0E00               	movlw	0
  4091   0033AE  6F98               	movwf	(floorf@u+1)& (0+255),b
  4092   0033B0  0E80               	movlw	128
  4093   0033B2  6F99               	movwf	(floorf@u+2)& (0+255),b
  4094   0033B4  0EBF               	movlw	191
  4095   0033B6  6F9A               	movwf	(floorf@u+3)& (0+255),b
  4096   0033B8                     l6029:
  4097                           
  4098                           ; BSR set to: 0
  4099   0033B8  C097  F087         	movff	floorf@u,?_floorf
  4100   0033BC  C098  F088         	movff	floorf@u+1,?_floorf+1
  4101   0033C0  C099  F089         	movff	floorf@u+2,?_floorf+2
  4102   0033C4  C09A  F08A         	movff	floorf@u+3,?_floorf+3
  4103   0033C8                     l1293:
  4104                           
  4105                           ; BSR set to: 0
  4106   0033C8  0012               	return		;funcret
  4107   0033CA                     __end_of_floorf:
  4108                           	callstack 0
  4109                           
  4110 ;; *************** function ___fpclassifyf *****************
  4111 ;; Defined at:
  4112 ;;		line 4 in file "/opt/microchip/xc8/v2.45/pic/sources/c99/common/__fpclassifyf.c"
  4113 ;; Parameters:    Size  Location     Type
  4114 ;;  x               4    0[BANK0 ] float 
  4115 ;; Auto vars:     Size  Location     Type
  4116 ;;  u               4   10[BANK0 ] struct .
  4117 ;;  e               2    8[BANK0 ] int 
  4118 ;; Return value:  Size  Location     Type
  4119 ;;                  2    0[BANK0 ] int 
  4120 ;; Registers used:
  4121 ;;		wreg, status,2, status,0
  4122 ;; Tracked objects:
  4123 ;;		On entry : 0/0
  4124 ;;		On exit  : 0/0
  4125 ;;		Unchanged: 0/0
  4126 ;; Data sizes:     COMRAM   BANK0   BANK1   BANK2   BANK3   BANK4   BANK5   BANK6   BANK7   BANK8   BANK9  BANK10  BANK1
      +1  BANK12  BANK14
  4127 ;;      Params:         0       4       0       0       0       0       0       0       0       0       0       0       
      +0       0       0
  4128 ;;      Locals:         0       6       0       0       0       0       0       0       0       0       0       0       
      +0       0       0
  4129 ;;      Temps:          0       4       0       0       0       0       0       0       0       0       0       0       
      +0       0       0
  4130 ;;      Totals:         0      14       0       0       0       0       0       0       0       0       0       0       
      +0       0       0
  4131 ;;Total ram usage:       14 bytes
  4132 ;; Hardware stack levels used: 1
  4133 ;; Hardware stack levels required when called: 5
  4134 ;; This function calls:
  4135 ;;		Nothing
  4136 ;; This function is called by:
  4137 ;;		_efgtoa
  4138 ;; This function uses a non-reentrant model
  4139 ;;
  4140                           
  4141                           	psect	text9
  4142   003C3E                     __ptext9:
  4143                           	callstack 0
  4144   003C3E                     ___fpclassifyf:
  4145                           	callstack 21
  4146   003C3E  C03E  F06A         	movff	___fpclassifyf@F465,___fpclassifyf@u
  4147   003C42  C03F  F06B         	movff	___fpclassifyf@F465+1,___fpclassifyf@u+1
  4148   003C46  C040  F06C         	movff	___fpclassifyf@F465+2,___fpclassifyf@u+2
  4149   003C4A  C041  F06D         	movff	___fpclassifyf@F465+3,___fpclassifyf@u+3
  4150   003C4E  C060  F06A         	movff	___fpclassifyf@x,___fpclassifyf@u
  4151   003C52  C061  F06B         	movff	___fpclassifyf@x+1,___fpclassifyf@u+1
  4152   003C56  C062  F06C         	movff	___fpclassifyf@x+2,___fpclassifyf@u+2
  4153   003C5A  C063  F06D         	movff	___fpclassifyf@x+3,___fpclassifyf@u+3
  4154   003C5E  C06A  F064         	movff	___fpclassifyf@u,??___fpclassifyf
  4155   003C62  C06B  F065         	movff	___fpclassifyf@u+1,??___fpclassifyf+1
  4156   003C66  C06C  F066         	movff	___fpclassifyf@u+2,??___fpclassifyf+2
  4157   003C6A  C06D  F067         	movff	___fpclassifyf@u+3,??___fpclassifyf+3
  4158   003C6E  0E18               	movlw	24
  4159   003C70  EF40  F01E         	goto	u6930
  4160   003C74                     u6935:
  4161   003C74  0100               	movlb	0	; () banked
  4162   003C76  90D8               	bcf	status,0,c
  4163   003C78  3367               	rrcf	(??___fpclassifyf+3)& (0+255),f,b
  4164   003C7A  3366               	rrcf	(??___fpclassifyf+2)& (0+255),f,b
  4165   003C7C  3365               	rrcf	(??___fpclassifyf+1)& (0+255),f,b
  4166   003C7E  3364               	rrcf	??___fpclassifyf& (0+255),f,b
  4167   003C80                     u6930:
  4168   003C80  2EE8               	decfsz	wreg,f,c
  4169   003C82  EF3A  F01E         	goto	u6935
  4170   003C86  5164               	movf	??___fpclassifyf& (0+255),w,b
  4171   003C88  6F68               	movwf	___fpclassifyf@e& (0+255),b
  4172   003C8A  6B69               	clrf	(___fpclassifyf@e+1)& (0+255),b
  4173   003C8C  5168               	movf	___fpclassifyf@e& (0+255),w,b
  4174   003C8E  1169               	iorwf	(___fpclassifyf@e+1)& (0+255),w,b
  4175   003C90  A4D8               	btfss	status,2,c
  4176   003C92  EF4D  F01E         	goto	u6941
  4177   003C96  EF4F  F01E         	goto	u6940
  4178   003C9A                     u6941:
  4179   003C9A  EF6F  F01E         	goto	l5983
  4180   003C9E                     u6940:
  4181   003C9E                     
  4182                           ; BSR set to: 0
  4183   003C9E  90D8               	bcf	status,0,c
  4184   003CA0  356A               	rlcf	___fpclassifyf@u& (0+255),w,b
  4185   003CA2  6F64               	movwf	??___fpclassifyf& (0+255),b
  4186   003CA4  356B               	rlcf	(___fpclassifyf@u+1)& (0+255),w,b
  4187   003CA6  6F65               	movwf	(??___fpclassifyf+1)& (0+255),b
  4188   003CA8  356C               	rlcf	(___fpclassifyf@u+2)& (0+255),w,b
  4189   003CAA  6F66               	movwf	(??___fpclassifyf+2)& (0+255),b
  4190   003CAC  356D               	rlcf	(___fpclassifyf@u+3)& (0+255),w,b
  4191   003CAE  6F67               	movwf	(??___fpclassifyf+3)& (0+255),b
  4192   003CB0  5164               	movf	??___fpclassifyf& (0+255),w,b
  4193   003CB2  1165               	iorwf	(??___fpclassifyf+1)& (0+255),w,b
  4194   003CB4  1166               	iorwf	(??___fpclassifyf+2)& (0+255),w,b
  4195   003CB6  1167               	iorwf	(??___fpclassifyf+3)& (0+255),w,b
  4196   003CB8  A4D8               	btfss	status,2,c
  4197   003CBA  EF61  F01E         	goto	u6951
  4198   003CBE  EF63  F01E         	goto	u6950
  4199   003CC2                     u6951:
  4200   003CC2  EF69  F01E         	goto	l5979
  4201   003CC6                     u6950:
  4202   003CC6                     
  4203                           ; BSR set to: 0
  4204   003CC6  0E00               	movlw	0
  4205   003CC8  6F61               	movwf	(?___fpclassifyf+1)& (0+255),b
  4206   003CCA  0E02               	movlw	2
  4207   003CCC  6F60               	movwf	?___fpclassifyf& (0+255),b
  4208   003CCE  EF9E  F01E         	goto	l1279
  4209   003CD2                     l5979:
  4210                           
  4211                           ; BSR set to: 0
  4212   003CD2  0E00               	movlw	0
  4213   003CD4  6F61               	movwf	(?___fpclassifyf+1)& (0+255),b
  4214   003CD6  0E03               	movlw	3
  4215   003CD8  6F60               	movwf	?___fpclassifyf& (0+255),b
  4216   003CDA  EF9E  F01E         	goto	l1279
  4217   003CDE                     l5983:
  4218                           
  4219                           ; BSR set to: 0
  4220   003CDE  2968               	incf	___fpclassifyf@e& (0+255),w,b
  4221   003CE0  1169               	iorwf	(___fpclassifyf@e+1)& (0+255),w,b
  4222   003CE2  A4D8               	btfss	status,2,c
  4223   003CE4  EF76  F01E         	goto	u6961
  4224   003CE8  EF78  F01E         	goto	u6960
  4225   003CEC                     u6961:
  4226   003CEC  EF9A  F01E         	goto	l5989
  4227   003CF0                     u6960:
  4228   003CF0                     
  4229                           ; BSR set to: 0
  4230   003CF0  C06A  F064         	movff	___fpclassifyf@u,??___fpclassifyf
  4231   003CF4  C06B  F065         	movff	___fpclassifyf@u+1,??___fpclassifyf+1
  4232   003CF8  C06C  F066         	movff	___fpclassifyf@u+2,??___fpclassifyf+2
  4233   003CFC  C06D  F067         	movff	___fpclassifyf@u+3,??___fpclassifyf+3
  4234   003D00  0E09               	movlw	9
  4235   003D02                     u6975:
  4236   003D02  90D8               	bcf	status,0,c
  4237   003D04  3764               	rlcf	??___fpclassifyf& (0+255),f,b
  4238   003D06  3765               	rlcf	(??___fpclassifyf+1)& (0+255),f,b
  4239   003D08  3766               	rlcf	(??___fpclassifyf+2)& (0+255),f,b
  4240   003D0A  3767               	rlcf	(??___fpclassifyf+3)& (0+255),f,b
  4241   003D0C  2EE8               	decfsz	wreg,f,c
  4242   003D0E  EF81  F01E         	goto	u6975
  4243   003D12  5164               	movf	??___fpclassifyf& (0+255),w,b
  4244   003D14  1165               	iorwf	(??___fpclassifyf+1)& (0+255),w,b
  4245   003D16  1166               	iorwf	(??___fpclassifyf+2)& (0+255),w,b
  4246   003D18  1167               	iorwf	(??___fpclassifyf+3)& (0+255),w,b
  4247   003D1A  B4D8               	btfsc	status,2,c
  4248   003D1C  EF92  F01E         	goto	u6981
  4249   003D20  EF95  F01E         	goto	u6980
  4250   003D24                     u6981:
  4251   003D24  0E01               	movlw	1
  4252   003D26  EF96  F01E         	goto	u6990
  4253   003D2A                     u6980:
  4254   003D2A  0E00               	movlw	0
  4255   003D2C                     u6990:
  4256   003D2C  6F60               	movwf	?___fpclassifyf& (0+255),b
  4257   003D2E  6B61               	clrf	(?___fpclassifyf+1)& (0+255),b
  4258   003D30  EF9E  F01E         	goto	l1279
  4259   003D34                     l5989:
  4260                           
  4261                           ; BSR set to: 0
  4262   003D34  0E00               	movlw	0
  4263   003D36  6F61               	movwf	(?___fpclassifyf+1)& (0+255),b
  4264   003D38  0E04               	movlw	4
  4265   003D3A  6F60               	movwf	?___fpclassifyf& (0+255),b
  4266   003D3C                     l1279:
  4267                           
  4268                           ; BSR set to: 0
  4269   003D3C  0012               	return		;funcret
  4270   003D3E                     __end_of___fpclassifyf:
  4271                           	callstack 0
  4272                           
  4273 ;; *************** function ___fltol *****************
  4274 ;; Defined at:
  4275 ;;		line 43 in file "/opt/microchip/xc8/v2.45/pic/sources/c99/common/fltol.c"
  4276 ;; Parameters:    Size  Location     Type
  4277 ;;  f1              4    0[BANK0 ] int 
  4278 ;; Auto vars:     Size  Location     Type
  4279 ;;  exp1            1    9[BANK0 ] unsigned char 
  4280 ;;  sign1           1    8[BANK0 ] unsigned char 
  4281 ;; Return value:  Size  Location     Type
  4282 ;;                  4    0[BANK0 ] long 
  4283 ;; Registers used:
  4284 ;;		wreg, status,2, status,0
  4285 ;; Tracked objects:
  4286 ;;		On entry : 0/0
  4287 ;;		On exit  : 0/0
  4288 ;;		Unchanged: 0/0
  4289 ;; Data sizes:     COMRAM   BANK0   BANK1   BANK2   BANK3   BANK4   BANK5   BANK6   BANK7   BANK8   BANK9  BANK10  BANK1
      +1  BANK12  BANK14
  4290 ;;      Params:         0       4       0       0       0       0       0       0       0       0       0       0       
      +0       0       0
  4291 ;;      Locals:         0       2       0       0       0       0       0       0       0       0       0       0       
      +0       0       0
  4292 ;;      Temps:          0       4       0       0       0       0       0       0       0       0       0       0       
      +0       0       0
  4293 ;;      Totals:         0      10       0       0       0       0       0       0       0       0       0       0       
      +0       0       0
  4294 ;;Total ram usage:       10 bytes
  4295 ;; Hardware stack levels used: 1
  4296 ;; Hardware stack levels required when called: 5
  4297 ;; This function calls:
  4298 ;;		Nothing
  4299 ;; This function is called by:
  4300 ;;		_efgtoa
  4301 ;; This function uses a non-reentrant model
  4302 ;;
  4303                           
  4304                           	psect	text10
  4305   003A30                     __ptext10:
  4306                           	callstack 0
  4307   003A30                     ___fltol:
  4308                           	callstack 21
  4309   003A30  0100               	movlb	0	; () banked
  4310   003A32  3562               	rlcf	(___fltol@f1+2)& (0+255),w,b
  4311   003A34  3563               	rlcf	(___fltol@f1+3)& (0+255),w,b
  4312   003A36  6F69               	movwf	___fltol@exp1& (0+255),b
  4313   003A38  5169               	movf	___fltol@exp1& (0+255),w,b
  4314   003A3A  A4D8               	btfss	status,2,c
  4315   003A3C  EF22  F01D         	goto	u6831
  4316   003A40  EF24  F01D         	goto	u6830
  4317   003A44                     u6831:
  4318   003A44  EF2E  F01D         	goto	l5917
  4319   003A48                     u6830:
  4320   003A48                     l5913:
  4321                           
  4322                           ; BSR set to: 0
  4323   003A48  0E00               	movlw	0
  4324   003A4A  6F60               	movwf	?___fltol& (0+255),b
  4325   003A4C  0E00               	movlw	0
  4326   003A4E  6F61               	movwf	(?___fltol+1)& (0+255),b
  4327   003A50  0E00               	movlw	0
  4328   003A52  6F62               	movwf	(?___fltol+2)& (0+255),b
  4329   003A54  0E00               	movlw	0
  4330   003A56  6F63               	movwf	(?___fltol+3)& (0+255),b
  4331   003A58  EF9B  F01D         	goto	l739
  4332   003A5C                     l5917:
  4333                           
  4334                           ; BSR set to: 0
  4335   003A5C  C060  F064         	movff	___fltol@f1,??___fltol
  4336   003A60  C061  F065         	movff	___fltol@f1+1,??___fltol+1
  4337   003A64  C062  F066         	movff	___fltol@f1+2,??___fltol+2
  4338   003A68  C063  F067         	movff	___fltol@f1+3,??___fltol+3
  4339   003A6C  0E20               	movlw	32
  4340   003A6E  EF3E  F01D         	goto	u6840
  4341   003A72                     u6845:
  4342   003A72  90D8               	bcf	status,0,c
  4343   003A74  3367               	rrcf	(??___fltol+3)& (0+255),f,b
  4344   003A76  3366               	rrcf	(??___fltol+2)& (0+255),f,b
  4345   003A78  3365               	rrcf	(??___fltol+1)& (0+255),f,b
  4346   003A7A  3364               	rrcf	??___fltol& (0+255),f,b
  4347   003A7C                     u6840:
  4348   003A7C  2EE8               	decfsz	wreg,f,c
  4349   003A7E  EF39  F01D         	goto	u6845
  4350   003A82  5164               	movf	??___fltol& (0+255),w,b
  4351   003A84  6F68               	movwf	___fltol@sign1& (0+255),b
  4352   003A86                     
  4353                           ; BSR set to: 0
  4354   003A86  8F62               	bsf	(___fltol@f1+2)& (0+255),7,b
  4355   003A88                     
  4356                           ; BSR set to: 0
  4357   003A88  0EFF               	movlw	255
  4358   003A8A  1760               	andwf	___fltol@f1& (0+255),f,b
  4359   003A8C  0EFF               	movlw	255
  4360   003A8E  1761               	andwf	(___fltol@f1+1)& (0+255),f,b
  4361   003A90  0EFF               	movlw	255
  4362   003A92  1762               	andwf	(___fltol@f1+2)& (0+255),f,b
  4363   003A94  0E00               	movlw	0
  4364   003A96  1763               	andwf	(___fltol@f1+3)& (0+255),f,b
  4365   003A98                     
  4366                           ; BSR set to: 0
  4367   003A98  0E96               	movlw	150
  4368   003A9A  5F69               	subwf	___fltol@exp1& (0+255),f,b
  4369   003A9C                     
  4370                           ; BSR set to: 0
  4371   003A9C  BF69               	btfsc	___fltol@exp1& (0+255),7,b
  4372   003A9E  EF55  F01D         	goto	u6850
  4373   003AA2  EF53  F01D         	goto	u6851
  4374   003AA6                     u6851:
  4375   003AA6  EF6B  F01D         	goto	l5937
  4376   003AAA                     u6850:
  4377   003AAA                     
  4378                           ; BSR set to: 0
  4379   003AAA  5169               	movf	___fltol@exp1& (0+255),w,b
  4380   003AAC  0A80               	xorlw	128
  4381   003AAE  0F97               	addlw	151
  4382   003AB0  B0D8               	btfsc	status,0,c
  4383   003AB2  EF5D  F01D         	goto	u6861
  4384   003AB6  EF5F  F01D         	goto	u6860
  4385   003ABA                     u6861:
  4386   003ABA  EF61  F01D         	goto	l5933
  4387   003ABE                     u6860:
  4388   003ABE  EF24  F01D         	goto	l5913
  4389   003AC2                     l5933:
  4390                           
  4391                           ; BSR set to: 0
  4392   003AC2  90D8               	bcf	status,0,c
  4393   003AC4  3363               	rrcf	(___fltol@f1+3)& (0+255),f,b
  4394   003AC6  3362               	rrcf	(___fltol@f1+2)& (0+255),f,b
  4395   003AC8  3361               	rrcf	(___fltol@f1+1)& (0+255),f,b
  4396   003ACA  3360               	rrcf	___fltol@f1& (0+255),f,b
  4397   003ACC                     
  4398                           ; BSR set to: 0
  4399   003ACC  3F69               	incfsz	___fltol@exp1& (0+255),f,b
  4400   003ACE  EF61  F01D         	goto	l5933
  4401   003AD2  EF83  F01D         	goto	l5947
  4402   003AD6                     l5937:
  4403                           
  4404                           ; BSR set to: 0
  4405   003AD6  0E1F               	movlw	31
  4406   003AD8  6569               	cpfsgt	___fltol@exp1& (0+255),b
  4407   003ADA  EF71  F01D         	goto	u6871
  4408   003ADE  EF73  F01D         	goto	u6870
  4409   003AE2                     u6871:
  4410   003AE2  EF7B  F01D         	goto	l5945
  4411   003AE6                     u6870:
  4412   003AE6  EF24  F01D         	goto	l5913
  4413   003AEA                     l5943:
  4414                           
  4415                           ; BSR set to: 0
  4416   003AEA  90D8               	bcf	status,0,c
  4417   003AEC  3760               	rlcf	___fltol@f1& (0+255),f,b
  4418   003AEE  3761               	rlcf	(___fltol@f1+1)& (0+255),f,b
  4419   003AF0  3762               	rlcf	(___fltol@f1+2)& (0+255),f,b
  4420   003AF2  3763               	rlcf	(___fltol@f1+3)& (0+255),f,b
  4421   003AF4  0769               	decf	___fltol@exp1& (0+255),f,b
  4422   003AF6                     l5945:
  4423                           
  4424                           ; BSR set to: 0
  4425   003AF6  5169               	movf	___fltol@exp1& (0+255),w,b
  4426   003AF8  A4D8               	btfss	status,2,c
  4427   003AFA  EF81  F01D         	goto	u6881
  4428   003AFE  EF83  F01D         	goto	u6880
  4429   003B02                     u6881:
  4430   003B02  EF75  F01D         	goto	l5943
  4431   003B06                     u6880:
  4432   003B06                     l5947:
  4433                           
  4434                           ; BSR set to: 0
  4435   003B06  5168               	movf	___fltol@sign1& (0+255),w,b
  4436   003B08  B4D8               	btfsc	status,2,c
  4437   003B0A  EF89  F01D         	goto	u6891
  4438   003B0E  EF8B  F01D         	goto	u6890
  4439   003B12                     u6891:
  4440   003B12  EF93  F01D         	goto	l5951
  4441   003B16                     u6890:
  4442   003B16                     
  4443                           ; BSR set to: 0
  4444   003B16  1F63               	comf	(___fltol@f1+3)& (0+255),f,b
  4445   003B18  1F62               	comf	(___fltol@f1+2)& (0+255),f,b
  4446   003B1A  1F61               	comf	(___fltol@f1+1)& (0+255),f,b
  4447   003B1C  6D60               	negf	___fltol@f1& (0+255),b
  4448   003B1E  0E00               	movlw	0
  4449   003B20  2361               	addwfc	(___fltol@f1+1)& (0+255),f,b
  4450   003B22  2362               	addwfc	(___fltol@f1+2)& (0+255),f,b
  4451   003B24  2363               	addwfc	(___fltol@f1+3)& (0+255),f,b
  4452   003B26                     l5951:
  4453                           
  4454                           ; BSR set to: 0
  4455   003B26  C060  F060         	movff	___fltol@f1,?___fltol
  4456   003B2A  C061  F061         	movff	___fltol@f1+1,?___fltol+1
  4457   003B2E  C062  F062         	movff	___fltol@f1+2,?___fltol+2
  4458   003B32  C063  F063         	movff	___fltol@f1+3,?___fltol+3
  4459   003B36                     l739:
  4460                           
  4461                           ; BSR set to: 0
  4462   003B36  0012               	return		;funcret
  4463   003B38                     __end_of___fltol:
  4464                           	callstack 0
  4465                           
  4466 ;; *************** function ___flsub *****************
  4467 ;; Defined at:
  4468 ;;		line 245 in file "/opt/microchip/xc8/v2.45/pic/sources/c99/common/sprcadd.c"
  4469 ;; Parameters:    Size  Location     Type
  4470 ;;  b               4   55[BANK0 ] long 
  4471 ;;  a               4   59[BANK0 ] long 
  4472 ;; Auto vars:     Size  Location     Type
  4473 ;;		None
  4474 ;; Return value:  Size  Location     Type
  4475 ;;                  4   55[BANK0 ] long 
  4476 ;; Registers used:
  4477 ;;		wreg, status,2, status,0, cstack
  4478 ;; Tracked objects:
  4479 ;;		On entry : 0/0
  4480 ;;		On exit  : 0/0
  4481 ;;		Unchanged: 0/0
  4482 ;; Data sizes:     COMRAM   BANK0   BANK1   BANK2   BANK3   BANK4   BANK5   BANK6   BANK7   BANK8   BANK9  BANK10  BANK1
      +1  BANK12  BANK14
  4483 ;;      Params:         0       8       0       0       0       0       0       0       0       0       0       0       
      +0       0       0
  4484 ;;      Locals:         0       0       0       0       0       0       0       0       0       0       0       0       
      +0       0       0
  4485 ;;      Temps:          0       0       0       0       0       0       0       0       0       0       0       0       
      +0       0       0
  4486 ;;      Totals:         0       8       0       0       0       0       0       0       0       0       0       0       
      +0       0       0
  4487 ;;Total ram usage:        8 bytes
  4488 ;; Hardware stack levels used: 1
  4489 ;; Hardware stack levels required when called: 6
  4490 ;; This function calls:
  4491 ;;		___fladd
  4492 ;; This function is called by:
  4493 ;;		_efgtoa
  4494 ;; This function uses a non-reentrant model
  4495 ;;
  4496                           
  4497                           	psect	text11
  4498   0043F4                     __ptext11:
  4499                           	callstack 0
  4500   0043F4                     ___flsub:
  4501                           	callstack 20
  4502   0043F4  0E00               	movlw	0
  4503   0043F6  0100               	movlb	0	; () banked
  4504   0043F8  1B9B               	xorwf	___flsub@a& (0+255),f,b
  4505   0043FA  0E00               	movlw	0
  4506   0043FC  1B9C               	xorwf	(___flsub@a+1)& (0+255),f,b
  4507   0043FE  0E00               	movlw	0
  4508   004400  1B9D               	xorwf	(___flsub@a+2)& (0+255),f,b
  4509   004402  0E80               	movlw	128
  4510   004404  1B9E               	xorwf	(___flsub@a+3)& (0+255),f,b
  4511   004406                     
  4512                           ; BSR set to: 0
  4513   004406  C097  F087         	movff	___flsub@b,___fladd@b
  4514   00440A  C098  F088         	movff	___flsub@b+1,___fladd@b+1
  4515   00440E  C099  F089         	movff	___flsub@b+2,___fladd@b+2
  4516   004412  C09A  F08A         	movff	___flsub@b+3,___fladd@b+3
  4517   004416  C09B  F08B         	movff	___flsub@a,___fladd@a
  4518   00441A  C09C  F08C         	movff	___flsub@a+1,___fladd@a+1
  4519   00441E  C09D  F08D         	movff	___flsub@a+2,___fladd@a+2
  4520   004422  C09E  F08E         	movff	___flsub@a+3,___fladd@a+3
  4521   004426  ECA6  F00C         	call	___fladd	;wreg free
  4522   00442A  C087  F097         	movff	?___fladd,?___flsub
  4523   00442E  C088  F098         	movff	?___fladd+1,?___flsub+1
  4524   004432  C089  F099         	movff	?___fladd+2,?___flsub+2
  4525   004436  C08A  F09A         	movff	?___fladd+3,?___flsub+3
  4526   00443A  0012               	return		;funcret
  4527   00443C                     __end_of___flsub:
  4528                           	callstack 0
  4529                           
  4530 ;; *************** function ___fladd *****************
  4531 ;; Defined at:
  4532 ;;		line 10 in file "/opt/microchip/xc8/v2.45/pic/sources/c99/common/sprcadd.c"
  4533 ;; Parameters:    Size  Location     Type
  4534 ;;  b               4   39[BANK0 ] long 
  4535 ;;  a               4   43[BANK0 ] long 
  4536 ;; Auto vars:     Size  Location     Type
  4537 ;;  grs             1   54[BANK0 ] unsigned char 
  4538 ;;  bexp            1   53[BANK0 ] unsigned char 
  4539 ;;  aexp            1   52[BANK0 ] unsigned char 
  4540 ;;  signs           1   51[BANK0 ] unsigned char 
  4541 ;; Return value:  Size  Location     Type
  4542 ;;                  4   39[BANK0 ] unsigned char 
  4543 ;; Registers used:
  4544 ;;		wreg, status,2, status,0
  4545 ;; Tracked objects:
  4546 ;;		On entry : 0/0
  4547 ;;		On exit  : 0/0
  4548 ;;		Unchanged: 0/0
  4549 ;; Data sizes:     COMRAM   BANK0   BANK1   BANK2   BANK3   BANK4   BANK5   BANK6   BANK7   BANK8   BANK9  BANK10  BANK1
      +1  BANK12  BANK14
  4550 ;;      Params:         0       8       0       0       0       0       0       0       0       0       0       0       
      +0       0       0
  4551 ;;      Locals:         0       4       0       0       0       0       0       0       0       0       0       0       
      +0       0       0
  4552 ;;      Temps:          0       4       0       0       0       0       0       0       0       0       0       0       
      +0       0       0
  4553 ;;      Totals:         0      16       0       0       0       0       0       0       0       0       0       0       
      +0       0       0
  4554 ;;Total ram usage:       16 bytes
  4555 ;; Hardware stack levels used: 1
  4556 ;; Hardware stack levels required when called: 5
  4557 ;; This function calls:
  4558 ;;		Nothing
  4559 ;; This function is called by:
  4560 ;;		_main
  4561 ;;		___flsub
  4562 ;;		_efgtoa
  4563 ;; This function uses a non-reentrant model
  4564 ;;
  4565                           
  4566                           	psect	text12
  4567   00194C                     __ptext12:
  4568                           	callstack 0
  4569   00194C                     ___fladd:
  4570                           	callstack 20
  4571   00194C  0100               	movlb	0	; () banked
  4572   00194E  518A               	movf	(___fladd@b+3)& (0+255),w,b
  4573   001950  0B80               	andlw	128
  4574   001952  6F93               	movwf	___fladd@signs& (0+255),b
  4575   001954  518A               	movf	(___fladd@b+3)& (0+255),w,b
  4576   001956  258A               	addwf	(___fladd@b+3)& (0+255),w,b
  4577   001958  6F95               	movwf	___fladd@bexp& (0+255),b
  4578   00195A                     
  4579                           ; BSR set to: 0
  4580   00195A  AF89               	btfss	(___fladd@b+2)& (0+255),7,b
  4581   00195C  EFB2  F00C         	goto	u5801
  4582   001960  EFB4  F00C         	goto	u5800
  4583   001964                     u5801:
  4584   001964  EFB5  F00C         	goto	l5307
  4585   001968                     u5800:
  4586   001968                     
  4587                           ; BSR set to: 0
  4588   001968  8195               	bsf	___fladd@bexp& (0+255),0,b
  4589   00196A                     l5307:
  4590                           
  4591                           ; BSR set to: 0
  4592   00196A  5195               	movf	___fladd@bexp& (0+255),w,b
  4593   00196C  B4D8               	btfsc	status,2,c
  4594   00196E  EFBB  F00C         	goto	u5811
  4595   001972  EFBD  F00C         	goto	u5810
  4596   001976                     u5811:
  4597   001976  EFD2  F00C         	goto	l5317
  4598   00197A                     u5810:
  4599   00197A                     
  4600                           ; BSR set to: 0
  4601   00197A  2995               	incf	___fladd@bexp& (0+255),w,b
  4602   00197C  A4D8               	btfss	status,2,c
  4603   00197E  EFC3  F00C         	goto	u5821
  4604   001982  EFC5  F00C         	goto	u5820
  4605   001986                     u5821:
  4606   001986  EFCD  F00C         	goto	l5313
  4607   00198A                     u5820:
  4608   00198A                     
  4609                           ; BSR set to: 0
  4610   00198A  0E00               	movlw	0
  4611   00198C  6F87               	movwf	___fladd@b& (0+255),b
  4612   00198E  0E00               	movlw	0
  4613   001990  6F88               	movwf	(___fladd@b+1)& (0+255),b
  4614   001992  0E00               	movlw	0
  4615   001994  6F89               	movwf	(___fladd@b+2)& (0+255),b
  4616   001996  0E00               	movlw	0
  4617   001998  6F8A               	movwf	(___fladd@b+3)& (0+255),b
  4618   00199A                     l5313:
  4619                           
  4620                           ; BSR set to: 0
  4621   00199A  8F89               	bsf	(___fladd@b+2)& (0+255),7,b
  4622   00199C                     
  4623                           ; BSR set to: 0
  4624   00199C  0E00               	movlw	0
  4625   00199E  6F8A               	movwf	(___fladd@b+3)& (0+255),b
  4626   0019A0  EFDA  F00C         	goto	l5319
  4627   0019A4                     l5317:
  4628                           
  4629                           ; BSR set to: 0
  4630   0019A4  0E00               	movlw	0
  4631   0019A6  6F87               	movwf	___fladd@b& (0+255),b
  4632   0019A8  0E00               	movlw	0
  4633   0019AA  6F88               	movwf	(___fladd@b+1)& (0+255),b
  4634   0019AC  0E00               	movlw	0
  4635   0019AE  6F89               	movwf	(___fladd@b+2)& (0+255),b
  4636   0019B0  0E00               	movlw	0
  4637   0019B2  6F8A               	movwf	(___fladd@b+3)& (0+255),b
  4638   0019B4                     l5319:
  4639                           
  4640                           ; BSR set to: 0
  4641   0019B4  518E               	movf	(___fladd@a+3)& (0+255),w,b
  4642   0019B6  0B80               	andlw	128
  4643   0019B8  6F94               	movwf	___fladd@aexp& (0+255),b
  4644   0019BA                     
  4645                           ; BSR set to: 0
  4646   0019BA  5193               	movf	___fladd@signs& (0+255),w,b
  4647   0019BC  1994               	xorwf	___fladd@aexp& (0+255),w,b
  4648   0019BE  B4D8               	btfsc	status,2,c
  4649   0019C0  EFE4  F00C         	goto	u5831
  4650   0019C4  EFE6  F00C         	goto	u5830
  4651   0019C8                     u5831:
  4652   0019C8  EFE7  F00C         	goto	l5325
  4653   0019CC                     u5830:
  4654   0019CC                     
  4655                           ; BSR set to: 0
  4656   0019CC  8D93               	bsf	___fladd@signs& (0+255),6,b
  4657   0019CE                     l5325:
  4658                           
  4659                           ; BSR set to: 0
  4660   0019CE  518E               	movf	(___fladd@a+3)& (0+255),w,b
  4661   0019D0  258E               	addwf	(___fladd@a+3)& (0+255),w,b
  4662   0019D2  6F94               	movwf	___fladd@aexp& (0+255),b
  4663   0019D4                     
  4664                           ; BSR set to: 0
  4665   0019D4  AF8D               	btfss	(___fladd@a+2)& (0+255),7,b
  4666   0019D6  EFEF  F00C         	goto	u5841
  4667   0019DA  EFF1  F00C         	goto	u5840
  4668   0019DE                     u5841:
  4669   0019DE  EFF2  F00C         	goto	l5331
  4670   0019E2                     u5840:
  4671   0019E2                     
  4672                           ; BSR set to: 0
  4673   0019E2  8194               	bsf	___fladd@aexp& (0+255),0,b
  4674   0019E4                     l5331:
  4675                           
  4676                           ; BSR set to: 0
  4677   0019E4  5194               	movf	___fladd@aexp& (0+255),w,b
  4678   0019E6  B4D8               	btfsc	status,2,c
  4679   0019E8  EFF8  F00C         	goto	u5851
  4680   0019EC  EFFA  F00C         	goto	u5850
  4681   0019F0                     u5851:
  4682   0019F0  EF0F  F00D         	goto	l5341
  4683   0019F4                     u5850:
  4684   0019F4                     
  4685                           ; BSR set to: 0
  4686   0019F4  2994               	incf	___fladd@aexp& (0+255),w,b
  4687   0019F6  A4D8               	btfss	status,2,c
  4688   0019F8  EF00  F00D         	goto	u5861
  4689   0019FC  EF02  F00D         	goto	u5860
  4690   001A00                     u5861:
  4691   001A00  EF0A  F00D         	goto	l5337
  4692   001A04                     u5860:
  4693   001A04                     
  4694                           ; BSR set to: 0
  4695   001A04  0E00               	movlw	0
  4696   001A06  6F8B               	movwf	___fladd@a& (0+255),b
  4697   001A08  0E00               	movlw	0
  4698   001A0A  6F8C               	movwf	(___fladd@a+1)& (0+255),b
  4699   001A0C  0E00               	movlw	0
  4700   001A0E  6F8D               	movwf	(___fladd@a+2)& (0+255),b
  4701   001A10  0E00               	movlw	0
  4702   001A12  6F8E               	movwf	(___fladd@a+3)& (0+255),b
  4703   001A14                     l5337:
  4704                           
  4705                           ; BSR set to: 0
  4706   001A14  8F8D               	bsf	(___fladd@a+2)& (0+255),7,b
  4707   001A16                     
  4708                           ; BSR set to: 0
  4709   001A16  0E00               	movlw	0
  4710   001A18  6F8E               	movwf	(___fladd@a+3)& (0+255),b
  4711   001A1A  EF17  F00D         	goto	l5343
  4712   001A1E                     l5341:
  4713                           
  4714                           ; BSR set to: 0
  4715   001A1E  0E00               	movlw	0
  4716   001A20  6F8B               	movwf	___fladd@a& (0+255),b
  4717   001A22  0E00               	movlw	0
  4718   001A24  6F8C               	movwf	(___fladd@a+1)& (0+255),b
  4719   001A26  0E00               	movlw	0
  4720   001A28  6F8D               	movwf	(___fladd@a+2)& (0+255),b
  4721   001A2A  0E00               	movlw	0
  4722   001A2C  6F8E               	movwf	(___fladd@a+3)& (0+255),b
  4723   001A2E                     l5343:
  4724                           
  4725                           ; BSR set to: 0
  4726   001A2E  5195               	movf	___fladd@bexp& (0+255),w,b
  4727   001A30  5D94               	subwf	___fladd@aexp& (0+255),w,b
  4728   001A32  B0D8               	btfsc	status,0,c
  4729   001A34  EF1E  F00D         	goto	u5871
  4730   001A38  EF20  F00D         	goto	u5870
  4731   001A3C                     u5871:
  4732   001A3C  EF47  F00D         	goto	l5379
  4733   001A40                     u5870:
  4734   001A40                     
  4735                           ; BSR set to: 0
  4736   001A40  AD93               	btfss	___fladd@signs& (0+255),6,b
  4737   001A42  EF25  F00D         	goto	u5881
  4738   001A46  EF27  F00D         	goto	u5880
  4739   001A4A                     u5881:
  4740   001A4A  EF29  F00D         	goto	l5349
  4741   001A4E                     u5880:
  4742   001A4E                     
  4743                           ; BSR set to: 0
  4744   001A4E  0E80               	movlw	128
  4745   001A50  1B93               	xorwf	___fladd@signs& (0+255),f,b
  4746   001A52                     l5349:
  4747                           
  4748                           ; BSR set to: 0
  4749   001A52  C095  F096         	movff	___fladd@bexp,___fladd@grs
  4750   001A56                     
  4751                           ; BSR set to: 0
  4752   001A56  C094  F095         	movff	___fladd@aexp,___fladd@bexp
  4753   001A5A                     
  4754                           ; BSR set to: 0
  4755   001A5A  C096  F094         	movff	___fladd@grs,___fladd@aexp
  4756   001A5E                     
  4757                           ; BSR set to: 0
  4758   001A5E  C087  F096         	movff	___fladd@b,___fladd@grs
  4759   001A62                     
  4760                           ; BSR set to: 0
  4761   001A62  C08B  F087         	movff	___fladd@a,___fladd@b
  4762   001A66                     
  4763                           ; BSR set to: 0
  4764   001A66  C096  F08B         	movff	___fladd@grs,___fladd@a
  4765   001A6A                     
  4766                           ; BSR set to: 0
  4767   001A6A  C088  F096         	movff	___fladd@b+1,___fladd@grs
  4768   001A6E                     
  4769                           ; BSR set to: 0
  4770   001A6E  C08C  F088         	movff	___fladd@a+1,___fladd@b+1
  4771   001A72                     
  4772                           ; BSR set to: 0
  4773   001A72  C096  F08C         	movff	___fladd@grs,___fladd@a+1
  4774   001A76                     
  4775                           ; BSR set to: 0
  4776   001A76  C089  F096         	movff	___fladd@b+2,___fladd@grs
  4777   001A7A                     
  4778                           ; BSR set to: 0
  4779   001A7A  C08D  F089         	movff	___fladd@a+2,___fladd@b+2
  4780   001A7E                     
  4781                           ; BSR set to: 0
  4782   001A7E  C096  F08D         	movff	___fladd@grs,___fladd@a+2
  4783   001A82                     
  4784                           ; BSR set to: 0
  4785   001A82  C08A  F096         	movff	___fladd@b+3,___fladd@grs
  4786   001A86                     
  4787                           ; BSR set to: 0
  4788   001A86  C08E  F08A         	movff	___fladd@a+3,___fladd@b+3
  4789   001A8A                     
  4790                           ; BSR set to: 0
  4791   001A8A  C096  F08E         	movff	___fladd@grs,___fladd@a+3
  4792   001A8E                     l5379:
  4793                           
  4794                           ; BSR set to: 0
  4795   001A8E  0E00               	movlw	0
  4796   001A90  6F96               	movwf	___fladd@grs& (0+255),b
  4797   001A92                     
  4798                           ; BSR set to: 0
  4799   001A92  5195               	movf	___fladd@bexp& (0+255),w,b
  4800   001A94  C094  F08F         	movff	___fladd@aexp,??___fladd
  4801   001A98  6B90               	clrf	(??___fladd+1)& (0+255),b
  4802   001A9A  5F8F               	subwf	??___fladd& (0+255),f,b
  4803   001A9C  0E00               	movlw	0
  4804   001A9E  5B90               	subwfb	(??___fladd+1)& (0+255),f,b
  4805   001AA0  BF90               	btfsc	(??___fladd+1)& (0+255),7,b
  4806   001AA2  EF5C  F00D         	goto	u5891
  4807   001AA6  5190               	movf	(??___fladd+1)& (0+255),w,b
  4808   001AA8  E109               	bnz	u5890
  4809   001AAA  0E1A               	movlw	26
  4810   001AAC  5D8F               	subwf	??___fladd& (0+255),w,b
  4811   001AAE  A0D8               	btfss	status,0,c
  4812   001AB0  EF5C  F00D         	goto	u5891
  4813   001AB4  EF5E  F00D         	goto	u5890
  4814   001AB8                     u5891:
  4815   001AB8  EF95  F00D         	goto	l971
  4816   001ABC                     u5890:
  4817   001ABC                     
  4818                           ; BSR set to: 0
  4819   001ABC  5187               	movf	___fladd@b& (0+255),w,b
  4820   001ABE  1188               	iorwf	(___fladd@b+1)& (0+255),w,b
  4821   001AC0  1189               	iorwf	(___fladd@b+2)& (0+255),w,b
  4822   001AC2  118A               	iorwf	(___fladd@b+3)& (0+255),w,b
  4823   001AC4  A4D8               	btfss	status,2,c
  4824   001AC6  EF67  F00D         	goto	u5901
  4825   001ACA  EF6A  F00D         	goto	u5900
  4826   001ACE                     u5901:
  4827   001ACE  0E01               	movlw	1
  4828   001AD0  EF6B  F00D         	goto	u5910
  4829   001AD4                     u5900:
  4830   001AD4  0E00               	movlw	0
  4831   001AD6                     u5910:
  4832   001AD6  6F96               	movwf	___fladd@grs& (0+255),b
  4833   001AD8                     
  4834                           ; BSR set to: 0
  4835   001AD8  0E00               	movlw	0
  4836   001ADA  6F87               	movwf	___fladd@b& (0+255),b
  4837   001ADC  0E00               	movlw	0
  4838   001ADE  6F88               	movwf	(___fladd@b+1)& (0+255),b
  4839   001AE0  0E00               	movlw	0
  4840   001AE2  6F89               	movwf	(___fladd@b+2)& (0+255),b
  4841   001AE4  0E00               	movlw	0
  4842   001AE6  6F8A               	movwf	(___fladd@b+3)& (0+255),b
  4843   001AE8                     
  4844                           ; BSR set to: 0
  4845   001AE8  C094  F095         	movff	___fladd@aexp,___fladd@bexp
  4846   001AEC  EF9E  F00D         	goto	l970
  4847   001AF0                     l972:
  4848                           
  4849                           ; BSR set to: 0
  4850   001AF0  A196               	btfss	___fladd@grs& (0+255),0,b
  4851   001AF2  EF7D  F00D         	goto	u5921
  4852   001AF6  EF7F  F00D         	goto	u5920
  4853   001AFA                     u5921:
  4854   001AFA  EF85  F00D         	goto	l5391
  4855   001AFE                     u5920:
  4856   001AFE                     
  4857                           ; BSR set to: 0
  4858   001AFE  90D8               	bcf	status,0,c
  4859   001B00  3196               	rrcf	___fladd@grs& (0+255),w,b
  4860   001B02  0901               	iorlw	1
  4861   001B04  6F96               	movwf	___fladd@grs& (0+255),b
  4862   001B06  EF87  F00D         	goto	l5393
  4863   001B0A                     l5391:
  4864                           
  4865                           ; BSR set to: 0
  4866   001B0A  90D8               	bcf	status,0,c
  4867   001B0C  3396               	rrcf	___fladd@grs& (0+255),f,b
  4868   001B0E                     l5393:
  4869                           
  4870                           ; BSR set to: 0
  4871   001B0E  A187               	btfss	___fladd@b& (0+255),0,b
  4872   001B10  EF8C  F00D         	goto	u5931
  4873   001B14  EF8E  F00D         	goto	u5930
  4874   001B18                     u5931:
  4875   001B18  EF8F  F00D         	goto	l5397
  4876   001B1C                     u5930:
  4877   001B1C                     
  4878                           ; BSR set to: 0
  4879   001B1C  8F96               	bsf	___fladd@grs& (0+255),7,b
  4880   001B1E                     l5397:
  4881                           
  4882                           ; BSR set to: 0
  4883   001B1E  358A               	rlcf	(___fladd@b+3)& (0+255),w,b
  4884   001B20  338A               	rrcf	(___fladd@b+3)& (0+255),f,b
  4885   001B22  3389               	rrcf	(___fladd@b+2)& (0+255),f,b
  4886   001B24  3388               	rrcf	(___fladd@b+1)& (0+255),f,b
  4887   001B26  3387               	rrcf	___fladd@b& (0+255),f,b
  4888   001B28                     
  4889                           ; BSR set to: 0
  4890   001B28  2B95               	incf	___fladd@bexp& (0+255),f,b
  4891   001B2A                     l971:
  4892                           
  4893                           ; BSR set to: 0
  4894   001B2A  5194               	movf	___fladd@aexp& (0+255),w,b
  4895   001B2C  5D95               	subwf	___fladd@bexp& (0+255),w,b
  4896   001B2E  A0D8               	btfss	status,0,c
  4897   001B30  EF9C  F00D         	goto	u5941
  4898   001B34  EF9E  F00D         	goto	u5940
  4899   001B38                     u5941:
  4900   001B38  EF78  F00D         	goto	l972
  4901   001B3C                     u5940:
  4902   001B3C                     l970:
  4903                           
  4904                           ; BSR set to: 0
  4905   001B3C  BD93               	btfsc	___fladd@signs& (0+255),6,b
  4906   001B3E  EFA3  F00D         	goto	u5951
  4907   001B42  EFA5  F00D         	goto	u5950
  4908   001B46                     u5951:
  4909   001B46  EFE5  F00D         	goto	l5425
  4910   001B4A                     u5950:
  4911   001B4A                     
  4912                           ; BSR set to: 0
  4913   001B4A  5195               	movf	___fladd@bexp& (0+255),w,b
  4914   001B4C  A4D8               	btfss	status,2,c
  4915   001B4E  EFAB  F00D         	goto	u5961
  4916   001B52  EFAD  F00D         	goto	u5960
  4917   001B56                     u5961:
  4918   001B56  EFB7  F00D         	goto	l5407
  4919   001B5A                     u5960:
  4920   001B5A                     
  4921                           ; BSR set to: 0
  4922   001B5A  0E00               	movlw	0
  4923   001B5C  6F87               	movwf	?___fladd& (0+255),b
  4924   001B5E  0E00               	movlw	0
  4925   001B60  6F88               	movwf	(?___fladd+1)& (0+255),b
  4926   001B62  0E00               	movlw	0
  4927   001B64  6F89               	movwf	(?___fladd+2)& (0+255),b
  4928   001B66  0E00               	movlw	0
  4929   001B68  6F8A               	movwf	(?___fladd+3)& (0+255),b
  4930   001B6A  EF06  F00F         	goto	l979
  4931   001B6E                     l5407:
  4932                           
  4933                           ; BSR set to: 0
  4934   001B6E  518B               	movf	___fladd@a& (0+255),w,b
  4935   001B70  2787               	addwf	___fladd@b& (0+255),f,b
  4936   001B72  518C               	movf	(___fladd@a+1)& (0+255),w,b
  4937   001B74  2388               	addwfc	(___fladd@b+1)& (0+255),f,b
  4938   001B76  518D               	movf	(___fladd@a+2)& (0+255),w,b
  4939   001B78  2389               	addwfc	(___fladd@b+2)& (0+255),f,b
  4940   001B7A  518E               	movf	(___fladd@a+3)& (0+255),w,b
  4941   001B7C  238A               	addwfc	(___fladd@b+3)& (0+255),f,b
  4942   001B7E                     
  4943                           ; BSR set to: 0
  4944   001B7E  A18A               	btfss	(___fladd@b+3)& (0+255),0,b
  4945   001B80  EFC4  F00D         	goto	u5971
  4946   001B84  EFC6  F00D         	goto	u5970
  4947   001B88                     u5971:
  4948   001B88  EF72  F00E         	goto	l5461
  4949   001B8C                     u5970:
  4950   001B8C                     
  4951                           ; BSR set to: 0
  4952   001B8C  A196               	btfss	___fladd@grs& (0+255),0,b
  4953   001B8E  EFCB  F00D         	goto	u5981
  4954   001B92  EFCD  F00D         	goto	u5980
  4955   001B96                     u5981:
  4956   001B96  EFD3  F00D         	goto	l5415
  4957   001B9A                     u5980:
  4958   001B9A                     
  4959                           ; BSR set to: 0
  4960   001B9A  90D8               	bcf	status,0,c
  4961   001B9C  3196               	rrcf	___fladd@grs& (0+255),w,b
  4962   001B9E  0901               	iorlw	1
  4963   001BA0  6F96               	movwf	___fladd@grs& (0+255),b
  4964   001BA2  EFD5  F00D         	goto	l5417
  4965   001BA6                     l5415:
  4966                           
  4967                           ; BSR set to: 0
  4968   001BA6  90D8               	bcf	status,0,c
  4969   001BA8  3396               	rrcf	___fladd@grs& (0+255),f,b
  4970   001BAA                     l5417:
  4971                           
  4972                           ; BSR set to: 0
  4973   001BAA  A187               	btfss	___fladd@b& (0+255),0,b
  4974   001BAC  EFDA  F00D         	goto	u5991
  4975   001BB0  EFDC  F00D         	goto	u5990
  4976   001BB4                     u5991:
  4977   001BB4  EFDD  F00D         	goto	l5421
  4978   001BB8                     u5990:
  4979   001BB8                     
  4980                           ; BSR set to: 0
  4981   001BB8  8F96               	bsf	___fladd@grs& (0+255),7,b
  4982   001BBA                     l5421:
  4983                           
  4984                           ; BSR set to: 0
  4985   001BBA  358A               	rlcf	(___fladd@b+3)& (0+255),w,b
  4986   001BBC  338A               	rrcf	(___fladd@b+3)& (0+255),f,b
  4987   001BBE  3389               	rrcf	(___fladd@b+2)& (0+255),f,b
  4988   001BC0  3388               	rrcf	(___fladd@b+1)& (0+255),f,b
  4989   001BC2  3387               	rrcf	___fladd@b& (0+255),f,b
  4990   001BC4                     
  4991                           ; BSR set to: 0
  4992   001BC4  2B95               	incf	___fladd@bexp& (0+255),f,b
  4993   001BC6  EF72  F00E         	goto	l5461
  4994   001BCA                     l5425:
  4995                           
  4996                           ; BSR set to: 0
  4997   001BCA  518B               	movf	___fladd@a& (0+255),w,b
  4998   001BCC  5D87               	subwf	___fladd@b& (0+255),w,b
  4999   001BCE  518C               	movf	(___fladd@a+1)& (0+255),w,b
  5000   001BD0  5988               	subwfb	(___fladd@b+1)& (0+255),w,b
  5001   001BD2  518D               	movf	(___fladd@a+2)& (0+255),w,b
  5002   001BD4  5989               	subwfb	(___fladd@b+2)& (0+255),w,b
  5003   001BD6  518A               	movf	(___fladd@b+3)& (0+255),w,b
  5004   001BD8  0A80               	xorlw	128
  5005   001BDA  6F8F               	movwf	??___fladd& (0+255),b
  5006   001BDC  518E               	movf	(___fladd@a+3)& (0+255),w,b
  5007   001BDE  0A80               	xorlw	128
  5008   001BE0  598F               	subwfb	??___fladd& (0+255),w,b
  5009   001BE2  B0D8               	btfsc	status,0,c
  5010   001BE4  EFF6  F00D         	goto	u6001
  5011   001BE8  EFF8  F00D         	goto	u6000
  5012   001BEC                     u6001:
  5013   001BEC  EF23  F00E         	goto	l5435
  5014   001BF0                     u6000:
  5015   001BF0                     
  5016                           ; BSR set to: 0
  5017   001BF0  5187               	movf	___fladd@b& (0+255),w,b
  5018   001BF2  5D8B               	subwf	___fladd@a& (0+255),w,b
  5019   001BF4  6F8F               	movwf	??___fladd& (0+255),b
  5020   001BF6  5188               	movf	(___fladd@b+1)& (0+255),w,b
  5021   001BF8  598C               	subwfb	(___fladd@a+1)& (0+255),w,b
  5022   001BFA  6F90               	movwf	(??___fladd+1)& (0+255),b
  5023   001BFC  5189               	movf	(___fladd@b+2)& (0+255),w,b
  5024   001BFE  598D               	subwfb	(___fladd@a+2)& (0+255),w,b
  5025   001C00  6F91               	movwf	(??___fladd+2)& (0+255),b
  5026   001C02  518A               	movf	(___fladd@b+3)& (0+255),w,b
  5027   001C04  598E               	subwfb	(___fladd@a+3)& (0+255),w,b
  5028   001C06  6F92               	movwf	(??___fladd+3)& (0+255),b
  5029   001C08  0EFF               	movlw	255
  5030   001C0A  258F               	addwf	??___fladd& (0+255),w,b
  5031   001C0C  6F87               	movwf	___fladd@b& (0+255),b
  5032   001C0E  0EFF               	movlw	255
  5033   001C10  2190               	addwfc	(??___fladd+1)& (0+255),w,b
  5034   001C12  6F88               	movwf	(___fladd@b+1)& (0+255),b
  5035   001C14  0EFF               	movlw	255
  5036   001C16  2191               	addwfc	(??___fladd+2)& (0+255),w,b
  5037   001C18  6F89               	movwf	(___fladd@b+2)& (0+255),b
  5038   001C1A  0EFF               	movlw	255
  5039   001C1C  2192               	addwfc	(??___fladd+3)& (0+255),w,b
  5040   001C1E  6F8A               	movwf	(___fladd@b+3)& (0+255),b
  5041   001C20  0E80               	movlw	128
  5042   001C22  1B93               	xorwf	___fladd@signs& (0+255),f,b
  5043   001C24                     
  5044                           ; BSR set to: 0
  5045   001C24  6D96               	negf	___fladd@grs& (0+255),b
  5046   001C26                     
  5047                           ; BSR set to: 0
  5048   001C26  5196               	movf	___fladd@grs& (0+255),w,b
  5049   001C28  A4D8               	btfss	status,2,c
  5050   001C2A  EF19  F00E         	goto	u6011
  5051   001C2E  EF1B  F00E         	goto	u6010
  5052   001C32                     u6011:
  5053   001C32  EF2B  F00E         	goto	l987
  5054   001C36                     u6010:
  5055   001C36                     
  5056                           ; BSR set to: 0
  5057   001C36  0E01               	movlw	1
  5058   001C38  2787               	addwf	___fladd@b& (0+255),f,b
  5059   001C3A  0E00               	movlw	0
  5060   001C3C  2388               	addwfc	(___fladd@b+1)& (0+255),f,b
  5061   001C3E  2389               	addwfc	(___fladd@b+2)& (0+255),f,b
  5062   001C40  238A               	addwfc	(___fladd@b+3)& (0+255),f,b
  5063   001C42  EF2B  F00E         	goto	l987
  5064   001C46                     l5435:
  5065                           
  5066                           ; BSR set to: 0
  5067   001C46  518B               	movf	___fladd@a& (0+255),w,b
  5068   001C48  5F87               	subwf	___fladd@b& (0+255),f,b
  5069   001C4A  518C               	movf	(___fladd@a+1)& (0+255),w,b
  5070   001C4C  5B88               	subwfb	(___fladd@b+1)& (0+255),f,b
  5071   001C4E  518D               	movf	(___fladd@a+2)& (0+255),w,b
  5072   001C50  5B89               	subwfb	(___fladd@b+2)& (0+255),f,b
  5073   001C52  518E               	movf	(___fladd@a+3)& (0+255),w,b
  5074   001C54  5B8A               	subwfb	(___fladd@b+3)& (0+255),f,b
  5075   001C56                     l987:
  5076                           
  5077                           ; BSR set to: 0
  5078   001C56  5187               	movf	___fladd@b& (0+255),w,b
  5079   001C58  1188               	iorwf	(___fladd@b+1)& (0+255),w,b
  5080   001C5A  1189               	iorwf	(___fladd@b+2)& (0+255),w,b
  5081   001C5C  118A               	iorwf	(___fladd@b+3)& (0+255),w,b
  5082   001C5E  A4D8               	btfss	status,2,c
  5083   001C60  EF34  F00E         	goto	u6021
  5084   001C64  EF36  F00E         	goto	u6020
  5085   001C68                     u6021:
  5086   001C68  EF6B  F00E         	goto	l5459
  5087   001C6C                     u6020:
  5088   001C6C                     
  5089                           ; BSR set to: 0
  5090   001C6C  5196               	movf	___fladd@grs& (0+255),w,b
  5091   001C6E  A4D8               	btfss	status,2,c
  5092   001C70  EF3C  F00E         	goto	u6031
  5093   001C74  EF3E  F00E         	goto	u6030
  5094   001C78                     u6031:
  5095   001C78  EF6B  F00E         	goto	l5459
  5096   001C7C                     u6030:
  5097   001C7C                     
  5098                           ; BSR set to: 0
  5099   001C7C  0E00               	movlw	0
  5100   001C7E  6F87               	movwf	?___fladd& (0+255),b
  5101   001C80  0E00               	movlw	0
  5102   001C82  6F88               	movwf	(?___fladd+1)& (0+255),b
  5103   001C84  0E00               	movlw	0
  5104   001C86  6F89               	movwf	(?___fladd+2)& (0+255),b
  5105   001C88  0E00               	movlw	0
  5106   001C8A  6F8A               	movwf	(?___fladd+3)& (0+255),b
  5107   001C8C  EF06  F00F         	goto	l979
  5108   001C90                     l5443:
  5109                           
  5110                           ; BSR set to: 0
  5111   001C90  90D8               	bcf	status,0,c
  5112   001C92  3787               	rlcf	___fladd@b& (0+255),f,b
  5113   001C94  3788               	rlcf	(___fladd@b+1)& (0+255),f,b
  5114   001C96  3789               	rlcf	(___fladd@b+2)& (0+255),f,b
  5115   001C98  378A               	rlcf	(___fladd@b+3)& (0+255),f,b
  5116   001C9A                     
  5117                           ; BSR set to: 0
  5118   001C9A  AF96               	btfss	___fladd@grs& (0+255),7,b
  5119   001C9C  EF52  F00E         	goto	u6041
  5120   001CA0  EF54  F00E         	goto	u6040
  5121   001CA4                     u6041:
  5122   001CA4  EF55  F00E         	goto	l5449
  5123   001CA8                     u6040:
  5124   001CA8                     
  5125                           ; BSR set to: 0
  5126   001CA8  8187               	bsf	___fladd@b& (0+255),0,b
  5127   001CAA                     l5449:
  5128                           
  5129                           ; BSR set to: 0
  5130   001CAA  A196               	btfss	___fladd@grs& (0+255),0,b
  5131   001CAC  EF5A  F00E         	goto	u6051
  5132   001CB0  EF5C  F00E         	goto	u6050
  5133   001CB4                     u6051:
  5134   001CB4  EF60  F00E         	goto	l5453
  5135   001CB8                     u6050:
  5136   001CB8                     
  5137                           ; BSR set to: 0
  5138   001CB8  80D8               	bsf	status,0,c
  5139   001CBA  3796               	rlcf	___fladd@grs& (0+255),f,b
  5140   001CBC  EF62  F00E         	goto	l5455
  5141   001CC0                     l5453:
  5142                           
  5143                           ; BSR set to: 0
  5144   001CC0  90D8               	bcf	status,0,c
  5145   001CC2  3796               	rlcf	___fladd@grs& (0+255),f,b
  5146   001CC4                     l5455:
  5147                           
  5148                           ; BSR set to: 0
  5149   001CC4  5195               	movf	___fladd@bexp& (0+255),w,b
  5150   001CC6  B4D8               	btfsc	status,2,c
  5151   001CC8  EF68  F00E         	goto	u6061
  5152   001CCC  EF6A  F00E         	goto	u6060
  5153   001CD0                     u6061:
  5154   001CD0  EF6B  F00E         	goto	l5459
  5155   001CD4                     u6060:
  5156   001CD4                     
  5157                           ; BSR set to: 0
  5158   001CD4  0795               	decf	___fladd@bexp& (0+255),f,b
  5159   001CD6                     l5459:
  5160                           
  5161                           ; BSR set to: 0
  5162   001CD6  AF89               	btfss	(___fladd@b+2)& (0+255),7,b
  5163   001CD8  EF70  F00E         	goto	u6071
  5164   001CDC  EF72  F00E         	goto	u6070
  5165   001CE0                     u6071:
  5166   001CE0  EF48  F00E         	goto	l5443
  5167   001CE4                     u6070:
  5168   001CE4                     l5461:
  5169                           
  5170                           ; BSR set to: 0
  5171   001CE4  0E00               	movlw	0
  5172   001CE6  6F94               	movwf	___fladd@aexp& (0+255),b
  5173   001CE8                     
  5174                           ; BSR set to: 0
  5175   001CE8  AF96               	btfss	___fladd@grs& (0+255),7,b
  5176   001CEA  EF79  F00E         	goto	u6081
  5177   001CEE  EF7B  F00E         	goto	u6080
  5178   001CF2                     u6081:
  5179   001CF2  EF93  F00E         	goto	l996
  5180   001CF6                     u6080:
  5181   001CF6                     
  5182                           ; BSR set to: 0
  5183   001CF6  C096  F08F         	movff	___fladd@grs,??___fladd
  5184   001CFA  0E7F               	movlw	127
  5185   001CFC  178F               	andwf	??___fladd& (0+255),f,b
  5186   001CFE  B4D8               	btfsc	status,2,c
  5187   001D00  EF84  F00E         	goto	u6091
  5188   001D04  EF86  F00E         	goto	u6090
  5189   001D08                     u6091:
  5190   001D08  EF8A  F00E         	goto	l997
  5191   001D0C                     u6090:
  5192   001D0C                     l5467:
  5193                           
  5194                           ; BSR set to: 0
  5195   001D0C  0E01               	movlw	1
  5196   001D0E  6F94               	movwf	___fladd@aexp& (0+255),b
  5197   001D10  EF93  F00E         	goto	l996
  5198   001D14                     l997:
  5199                           
  5200                           ; BSR set to: 0
  5201   001D14  A187               	btfss	___fladd@b& (0+255),0,b
  5202   001D16  EF8F  F00E         	goto	u6101
  5203   001D1A  EF91  F00E         	goto	u6100
  5204   001D1E                     u6101:
  5205   001D1E  EF93  F00E         	goto	l996
  5206   001D22                     u6100:
  5207   001D22  EF86  F00E         	goto	l5467
  5208   001D26                     l996:
  5209                           
  5210                           ; BSR set to: 0
  5211   001D26  5194               	movf	___fladd@aexp& (0+255),w,b
  5212   001D28  B4D8               	btfsc	status,2,c
  5213   001D2A  EF99  F00E         	goto	u6111
  5214   001D2E  EF9B  F00E         	goto	u6110
  5215   001D32                     u6111:
  5216   001D32  EFC6  F00E         	goto	l5479
  5217   001D36                     u6110:
  5218   001D36                     
  5219                           ; BSR set to: 0
  5220   001D36  0E01               	movlw	1
  5221   001D38  2787               	addwf	___fladd@b& (0+255),f,b
  5222   001D3A  0E00               	movlw	0
  5223   001D3C  2388               	addwfc	(___fladd@b+1)& (0+255),f,b
  5224   001D3E  2389               	addwfc	(___fladd@b+2)& (0+255),f,b
  5225   001D40  238A               	addwfc	(___fladd@b+3)& (0+255),f,b
  5226   001D42                     
  5227                           ; BSR set to: 0
  5228   001D42  A18A               	btfss	(___fladd@b+3)& (0+255),0,b
  5229   001D44  EFA6  F00E         	goto	u6121
  5230   001D48  EFA8  F00E         	goto	u6120
  5231   001D4C                     u6121:
  5232   001D4C  EFC6  F00E         	goto	l5479
  5233   001D50                     u6120:
  5234   001D50                     
  5235                           ; BSR set to: 0
  5236   001D50  C087  F08F         	movff	___fladd@b,??___fladd
  5237   001D54  C088  F090         	movff	___fladd@b+1,??___fladd+1
  5238   001D58  C089  F091         	movff	___fladd@b+2,??___fladd+2
  5239   001D5C  C08A  F092         	movff	___fladd@b+3,??___fladd+3
  5240   001D60  3592               	rlcf	(??___fladd+3)& (0+255),w,b
  5241   001D62  3392               	rrcf	(??___fladd+3)& (0+255),f,b
  5242   001D64  3391               	rrcf	(??___fladd+2)& (0+255),f,b
  5243   001D66  3390               	rrcf	(??___fladd+1)& (0+255),f,b
  5244   001D68  338F               	rrcf	??___fladd& (0+255),f,b
  5245   001D6A  C08F  F087         	movff	??___fladd,___fladd@b
  5246   001D6E  C090  F088         	movff	??___fladd+1,___fladd@b+1
  5247   001D72  C091  F089         	movff	??___fladd+2,___fladd@b+2
  5248   001D76  C092  F08A         	movff	??___fladd+3,___fladd@b+3
  5249   001D7A  2995               	incf	___fladd@bexp& (0+255),w,b
  5250   001D7C  B4D8               	btfsc	status,2,c
  5251   001D7E  EFC3  F00E         	goto	u6131
  5252   001D82  EFC5  F00E         	goto	u6130
  5253   001D86                     u6131:
  5254   001D86  EFC6  F00E         	goto	l5479
  5255   001D8A                     u6130:
  5256   001D8A                     
  5257                           ; BSR set to: 0
  5258   001D8A  2B95               	incf	___fladd@bexp& (0+255),f,b
  5259   001D8C                     l5479:
  5260                           
  5261                           ; BSR set to: 0
  5262   001D8C  2995               	incf	___fladd@bexp& (0+255),w,b
  5263   001D8E  B4D8               	btfsc	status,2,c
  5264   001D90  EFCC  F00E         	goto	u6141
  5265   001D94  EFCE  F00E         	goto	u6140
  5266   001D98                     u6141:
  5267   001D98  EFD6  F00E         	goto	l5483
  5268   001D9C                     u6140:
  5269   001D9C                     
  5270                           ; BSR set to: 0
  5271   001D9C  5195               	movf	___fladd@bexp& (0+255),w,b
  5272   001D9E  A4D8               	btfss	status,2,c
  5273   001DA0  EFD4  F00E         	goto	u6151
  5274   001DA4  EFD6  F00E         	goto	u6150
  5275   001DA8                     u6151:
  5276   001DA8  EFE8  F00E         	goto	l5487
  5277   001DAC                     u6150:
  5278   001DAC                     l5483:
  5279                           
  5280                           ; BSR set to: 0
  5281   001DAC  0E00               	movlw	0
  5282   001DAE  6F87               	movwf	___fladd@b& (0+255),b
  5283   001DB0  0E00               	movlw	0
  5284   001DB2  6F88               	movwf	(___fladd@b+1)& (0+255),b
  5285   001DB4  0E00               	movlw	0
  5286   001DB6  6F89               	movwf	(___fladd@b+2)& (0+255),b
  5287   001DB8  0E00               	movlw	0
  5288   001DBA  6F8A               	movwf	(___fladd@b+3)& (0+255),b
  5289   001DBC  5195               	movf	___fladd@bexp& (0+255),w,b
  5290   001DBE  A4D8               	btfss	status,2,c
  5291   001DC0  EFE4  F00E         	goto	u6161
  5292   001DC4  EFE6  F00E         	goto	u6160
  5293   001DC8                     u6161:
  5294   001DC8  EFE8  F00E         	goto	l5487
  5295   001DCC                     u6160:
  5296   001DCC                     
  5297                           ; BSR set to: 0
  5298   001DCC  0E00               	movlw	0
  5299   001DCE  6F93               	movwf	___fladd@signs& (0+255),b
  5300   001DD0                     l5487:
  5301                           
  5302                           ; BSR set to: 0
  5303   001DD0  A195               	btfss	___fladd@bexp& (0+255),0,b
  5304   001DD2  EFED  F00E         	goto	u6171
  5305   001DD6  EFEF  F00E         	goto	u6170
  5306   001DDA                     u6171:
  5307   001DDA  EFF2  F00E         	goto	l5491
  5308   001DDE                     u6170:
  5309   001DDE                     
  5310                           ; BSR set to: 0
  5311   001DDE  8F89               	bsf	(___fladd@b+2)& (0+255),7,b
  5312   001DE0  EFF3  F00E         	goto	l5493
  5313   001DE4                     l5491:
  5314                           
  5315                           ; BSR set to: 0
  5316   001DE4  9F89               	bcf	(___fladd@b+2)& (0+255),7,b
  5317   001DE6                     l5493:
  5318                           
  5319                           ; BSR set to: 0
  5320   001DE6  90D8               	bcf	status,0,c
  5321   001DE8  3195               	rrcf	___fladd@bexp& (0+255),w,b
  5322   001DEA  6F8A               	movwf	(___fladd@b+3)& (0+255),b
  5323   001DEC                     
  5324                           ; BSR set to: 0
  5325   001DEC  AF93               	btfss	___fladd@signs& (0+255),7,b
  5326   001DEE  EFFB  F00E         	goto	u6181
  5327   001DF2  EFFD  F00E         	goto	u6180
  5328   001DF6                     u6181:
  5329   001DF6  EFFE  F00E         	goto	l5499
  5330   001DFA                     u6180:
  5331   001DFA                     
  5332                           ; BSR set to: 0
  5333   001DFA  8F8A               	bsf	(___fladd@b+3)& (0+255),7,b
  5334   001DFC                     l5499:
  5335                           
  5336                           ; BSR set to: 0
  5337   001DFC  C087  F087         	movff	___fladd@b,?___fladd
  5338   001E00  C088  F088         	movff	___fladd@b+1,?___fladd+1
  5339   001E04  C089  F089         	movff	___fladd@b+2,?___fladd+2
  5340   001E08  C08A  F08A         	movff	___fladd@b+3,?___fladd+3
  5341   001E0C                     l979:
  5342                           
  5343                           ; BSR set to: 0
  5344   001E0C  0012               	return		;funcret
  5345   001E0E                     __end_of___fladd:
  5346                           	callstack 0
  5347                           
  5348 ;; *************** function ___flneg *****************
  5349 ;; Defined at:
  5350 ;;		line 15 in file "/opt/microchip/xc8/v2.45/pic/sources/c99/common/flneg.c"
  5351 ;; Parameters:    Size  Location     Type
  5352 ;;  f1              4    0[BANK0 ] unsigned char 
  5353 ;; Auto vars:     Size  Location     Type
  5354 ;;		None
  5355 ;; Return value:  Size  Location     Type
  5356 ;;                  4    0[BANK0 ] unsigned char 
  5357 ;; Registers used:
  5358 ;;		wreg, status,2, status,0
  5359 ;; Tracked objects:
  5360 ;;		On entry : 0/0
  5361 ;;		On exit  : 0/0
  5362 ;;		Unchanged: 0/0
  5363 ;; Data sizes:     COMRAM   BANK0   BANK1   BANK2   BANK3   BANK4   BANK5   BANK6   BANK7   BANK8   BANK9  BANK10  BANK1
      +1  BANK12  BANK14
  5364 ;;      Params:         0       4       0       0       0       0       0       0       0       0       0       0       
      +0       0       0
  5365 ;;      Locals:         0       0       0       0       0       0       0       0       0       0       0       0       
      +0       0       0
  5366 ;;      Temps:          0       0       0       0       0       0       0       0       0       0       0       0       
      +0       0       0
  5367 ;;      Totals:         0       4       0       0       0       0       0       0       0       0       0       0       
      +0       0       0
  5368 ;;Total ram usage:        4 bytes
  5369 ;; Hardware stack levels used: 1
  5370 ;; Hardware stack levels required when called: 5
  5371 ;; This function calls:
  5372 ;;		Nothing
  5373 ;; This function is called by:
  5374 ;;		_efgtoa
  5375 ;; This function uses a non-reentrant model
  5376 ;;
  5377                           
  5378                           	psect	text13
  5379   0044C4                     __ptext13:
  5380                           	callstack 0
  5381   0044C4                     ___flneg:
  5382                           	callstack 21
  5383   0044C4  0100               	movlb	0	; () banked
  5384   0044C6  5160               	movf	___flneg@f1& (0+255),w,b
  5385   0044C8  1161               	iorwf	(___flneg@f1+1)& (0+255),w,b
  5386   0044CA  1162               	iorwf	(___flneg@f1+2)& (0+255),w,b
  5387   0044CC  1163               	iorwf	(___flneg@f1+3)& (0+255),w,b
  5388   0044CE  B4D8               	btfsc	status,2,c
  5389   0044D0  EF6C  F022         	goto	u6821
  5390   0044D4  EF6E  F022         	goto	u6820
  5391   0044D8                     u6821:
  5392   0044D8  EF76  F022         	goto	l5907
  5393   0044DC                     u6820:
  5394   0044DC                     
  5395                           ; BSR set to: 0
  5396   0044DC  0E00               	movlw	0
  5397   0044DE  1B60               	xorwf	___flneg@f1& (0+255),f,b
  5398   0044E0  0E00               	movlw	0
  5399   0044E2  1B61               	xorwf	(___flneg@f1+1)& (0+255),f,b
  5400   0044E4  0E00               	movlw	0
  5401   0044E6  1B62               	xorwf	(___flneg@f1+2)& (0+255),f,b
  5402   0044E8  0E80               	movlw	128
  5403   0044EA  1B63               	xorwf	(___flneg@f1+3)& (0+255),f,b
  5404   0044EC                     l5907:
  5405                           
  5406                           ; BSR set to: 0
  5407   0044EC  C060  F060         	movff	___flneg@f1,?___flneg
  5408   0044F0  C061  F061         	movff	___flneg@f1+1,?___flneg+1
  5409   0044F4  C062  F062         	movff	___flneg@f1+2,?___flneg+2
  5410   0044F8  C063  F063         	movff	___flneg@f1+3,?___flneg+3
  5411   0044FC                     
  5412                           ; BSR set to: 0
  5413   0044FC  0012               	return		;funcret
  5414   0044FE                     __end_of___flneg:
  5415                           	callstack 0
  5416                           
  5417 ;; *************** function ___flmul *****************
  5418 ;; Defined at:
  5419 ;;		line 8 in file "/opt/microchip/xc8/v2.45/pic/sources/c99/common/sprcmul.c"
  5420 ;; Parameters:    Size  Location     Type
  5421 ;;  b               4    0[BANK0 ] unsigned char 
  5422 ;;  a               4    4[BANK0 ] unsigned char 
  5423 ;; Auto vars:     Size  Location     Type
  5424 ;;  prod            4   19[BANK0 ] struct .
  5425 ;;  grs             4   14[BANK0 ] unsigned long 
  5426 ;;  temp            2   23[BANK0 ] struct .
  5427 ;;  bexp            1   18[BANK0 ] unsigned char 
  5428 ;;  aexp            1   13[BANK0 ] unsigned char 
  5429 ;;  sign            1   12[BANK0 ] unsigned char 
  5430 ;; Return value:  Size  Location     Type
  5431 ;;                  4    0[BANK0 ] unsigned char 
  5432 ;; Registers used:
  5433 ;;		wreg, status,2, status,0, prodl, prodh
  5434 ;; Tracked objects:
  5435 ;;		On entry : 0/0
  5436 ;;		On exit  : 0/0
  5437 ;;		Unchanged: 0/0
  5438 ;; Data sizes:     COMRAM   BANK0   BANK1   BANK2   BANK3   BANK4   BANK5   BANK6   BANK7   BANK8   BANK9  BANK10  BANK1
      +1  BANK12  BANK14
  5439 ;;      Params:         0       8       0       0       0       0       0       0       0       0       0       0       
      +0       0       0
  5440 ;;      Locals:         0      13       0       0       0       0       0       0       0       0       0       0       
      +0       0       0
  5441 ;;      Temps:          0       4       0       0       0       0       0       0       0       0       0       0       
      +0       0       0
  5442 ;;      Totals:         0      25       0       0       0       0       0       0       0       0       0       0       
      +0       0       0
  5443 ;;Total ram usage:       25 bytes
  5444 ;; Hardware stack levels used: 1
  5445 ;; Hardware stack levels required when called: 5
  5446 ;; This function calls:
  5447 ;;		Nothing
  5448 ;; This function is called by:
  5449 ;;		_efgtoa
  5450 ;; This function uses a non-reentrant model
  5451 ;;
  5452                           
  5453                           	psect	text14
  5454   0022CE                     __ptext14:
  5455                           	callstack 0
  5456   0022CE                     ___flmul:
  5457                           	callstack 21
  5458   0022CE  0100               	movlb	0	; () banked
  5459   0022D0  5163               	movf	(___flmul@b+3)& (0+255),w,b
  5460   0022D2  0B80               	andlw	128
  5461   0022D4  6F6C               	movwf	___flmul@sign& (0+255),b
  5462   0022D6  5163               	movf	(___flmul@b+3)& (0+255),w,b
  5463   0022D8  2563               	addwf	(___flmul@b+3)& (0+255),w,b
  5464   0022DA  6F72               	movwf	___flmul@bexp& (0+255),b
  5465   0022DC                     
  5466                           ; BSR set to: 0
  5467   0022DC  AF62               	btfss	(___flmul@b+2)& (0+255),7,b
  5468   0022DE  EF73  F011         	goto	u6431
  5469   0022E2  EF75  F011         	goto	u6430
  5470   0022E6                     u6431:
  5471   0022E6  EF76  F011         	goto	l5655
  5472   0022EA                     u6430:
  5473   0022EA                     
  5474                           ; BSR set to: 0
  5475   0022EA  8172               	bsf	___flmul@bexp& (0+255),0,b
  5476   0022EC                     l5655:
  5477                           
  5478                           ; BSR set to: 0
  5479   0022EC  5172               	movf	___flmul@bexp& (0+255),w,b
  5480   0022EE  B4D8               	btfsc	status,2,c
  5481   0022F0  EF7C  F011         	goto	u6441
  5482   0022F4  EF7E  F011         	goto	u6440
  5483   0022F8                     u6441:
  5484   0022F8  EF91  F011         	goto	l5663
  5485   0022FC                     u6440:
  5486   0022FC                     
  5487                           ; BSR set to: 0
  5488   0022FC  2972               	incf	___flmul@bexp& (0+255),w,b
  5489   0022FE  A4D8               	btfss	status,2,c
  5490   002300  EF84  F011         	goto	u6451
  5491   002304  EF86  F011         	goto	u6450
  5492   002308                     u6451:
  5493   002308  EF8E  F011         	goto	l5661
  5494   00230C                     u6450:
  5495   00230C                     
  5496                           ; BSR set to: 0
  5497   00230C  0E00               	movlw	0
  5498   00230E  6F60               	movwf	___flmul@b& (0+255),b
  5499   002310  0E00               	movlw	0
  5500   002312  6F61               	movwf	(___flmul@b+1)& (0+255),b
  5501   002314  0E00               	movlw	0
  5502   002316  6F62               	movwf	(___flmul@b+2)& (0+255),b
  5503   002318  0E00               	movlw	0
  5504   00231A  6F63               	movwf	(___flmul@b+3)& (0+255),b
  5505   00231C                     l5661:
  5506                           
  5507                           ; BSR set to: 0
  5508   00231C  8F62               	bsf	(___flmul@b+2)& (0+255),7,b
  5509   00231E  EF99  F011         	goto	l5665
  5510   002322                     l5663:
  5511                           
  5512                           ; BSR set to: 0
  5513   002322  0E00               	movlw	0
  5514   002324  6F60               	movwf	___flmul@b& (0+255),b
  5515   002326  0E00               	movlw	0
  5516   002328  6F61               	movwf	(___flmul@b+1)& (0+255),b
  5517   00232A  0E00               	movlw	0
  5518   00232C  6F62               	movwf	(___flmul@b+2)& (0+255),b
  5519   00232E  0E00               	movlw	0
  5520   002330  6F63               	movwf	(___flmul@b+3)& (0+255),b
  5521   002332                     l5665:
  5522                           
  5523                           ; BSR set to: 0
  5524   002332  5167               	movf	(___flmul@a+3)& (0+255),w,b
  5525   002334  0B80               	andlw	128
  5526   002336  1B6C               	xorwf	___flmul@sign& (0+255),f,b
  5527   002338                     
  5528                           ; BSR set to: 0
  5529   002338  5167               	movf	(___flmul@a+3)& (0+255),w,b
  5530   00233A  2567               	addwf	(___flmul@a+3)& (0+255),w,b
  5531   00233C  6F6D               	movwf	___flmul@aexp& (0+255),b
  5532   00233E                     
  5533                           ; BSR set to: 0
  5534   00233E  AF66               	btfss	(___flmul@a+2)& (0+255),7,b
  5535   002340  EFA4  F011         	goto	u6461
  5536   002344  EFA6  F011         	goto	u6460
  5537   002348                     u6461:
  5538   002348  EFA7  F011         	goto	l5673
  5539   00234C                     u6460:
  5540   00234C                     
  5541                           ; BSR set to: 0
  5542   00234C  816D               	bsf	___flmul@aexp& (0+255),0,b
  5543   00234E                     l5673:
  5544                           
  5545                           ; BSR set to: 0
  5546   00234E  516D               	movf	___flmul@aexp& (0+255),w,b
  5547   002350  B4D8               	btfsc	status,2,c
  5548   002352  EFAD  F011         	goto	u6471
  5549   002356  EFAF  F011         	goto	u6470
  5550   00235A                     u6471:
  5551   00235A  EFC2  F011         	goto	l5681
  5552   00235E                     u6470:
  5553   00235E                     
  5554                           ; BSR set to: 0
  5555   00235E  296D               	incf	___flmul@aexp& (0+255),w,b
  5556   002360  A4D8               	btfss	status,2,c
  5557   002362  EFB5  F011         	goto	u6481
  5558   002366  EFB7  F011         	goto	u6480
  5559   00236A                     u6481:
  5560   00236A  EFBF  F011         	goto	l5679
  5561   00236E                     u6480:
  5562   00236E                     
  5563                           ; BSR set to: 0
  5564   00236E  0E00               	movlw	0
  5565   002370  6F64               	movwf	___flmul@a& (0+255),b
  5566   002372  0E00               	movlw	0
  5567   002374  6F65               	movwf	(___flmul@a+1)& (0+255),b
  5568   002376  0E00               	movlw	0
  5569   002378  6F66               	movwf	(___flmul@a+2)& (0+255),b
  5570   00237A  0E00               	movlw	0
  5571   00237C  6F67               	movwf	(___flmul@a+3)& (0+255),b
  5572   00237E                     l5679:
  5573                           
  5574                           ; BSR set to: 0
  5575   00237E  8F66               	bsf	(___flmul@a+2)& (0+255),7,b
  5576   002380  EFCA  F011         	goto	l1056
  5577   002384                     l5681:
  5578                           
  5579                           ; BSR set to: 0
  5580   002384  0E00               	movlw	0
  5581   002386  6F64               	movwf	___flmul@a& (0+255),b
  5582   002388  0E00               	movlw	0
  5583   00238A  6F65               	movwf	(___flmul@a+1)& (0+255),b
  5584   00238C  0E00               	movlw	0
  5585   00238E  6F66               	movwf	(___flmul@a+2)& (0+255),b
  5586   002390  0E00               	movlw	0
  5587   002392  6F67               	movwf	(___flmul@a+3)& (0+255),b
  5588   002394                     l1056:
  5589                           
  5590                           ; BSR set to: 0
  5591   002394  516D               	movf	___flmul@aexp& (0+255),w,b
  5592   002396  B4D8               	btfsc	status,2,c
  5593   002398  EFD0  F011         	goto	u6491
  5594   00239C  EFD2  F011         	goto	u6490
  5595   0023A0                     u6491:
  5596   0023A0  EFDA  F011         	goto	l5685
  5597   0023A4                     u6490:
  5598   0023A4                     
  5599                           ; BSR set to: 0
  5600   0023A4  5172               	movf	___flmul@bexp& (0+255),w,b
  5601   0023A6  A4D8               	btfss	status,2,c
  5602   0023A8  EFD8  F011         	goto	u6501
  5603   0023AC  EFDA  F011         	goto	u6500
  5604   0023B0                     u6501:
  5605   0023B0  EFE4  F011         	goto	l5689
  5606   0023B4                     u6500:
  5607   0023B4                     l5685:
  5608                           
  5609                           ; BSR set to: 0
  5610   0023B4  0E00               	movlw	0
  5611   0023B6  6F60               	movwf	?___flmul& (0+255),b
  5612   0023B8  0E00               	movlw	0
  5613   0023BA  6F61               	movwf	(?___flmul+1)& (0+255),b
  5614   0023BC  0E00               	movlw	0
  5615   0023BE  6F62               	movwf	(?___flmul+2)& (0+255),b
  5616   0023C0  0E00               	movlw	0
  5617   0023C2  6F63               	movwf	(?___flmul+3)& (0+255),b
  5618   0023C4  EF7C  F013         	goto	l1060
  5619   0023C8                     l5689:
  5620                           
  5621                           ; BSR set to: 0
  5622   0023C8  5166               	movf	(___flmul@a+2)& (0+255),w,b
  5623   0023CA  0360               	mulwf	___flmul@b& (0+255),b
  5624   0023CC  CFF3 F077          	movff	prodl,___flmul@temp
  5625   0023D0  CFF4 F078          	movff	prodh,___flmul@temp+1
  5626   0023D4                     
  5627                           ; BSR set to: 0
  5628   0023D4  5177               	movf	___flmul@temp& (0+255),w,b
  5629   0023D6  6F6E               	movwf	___flmul@grs& (0+255),b
  5630   0023D8  6B6F               	clrf	(___flmul@grs+1)& (0+255),b
  5631   0023DA  6B70               	clrf	(___flmul@grs+2)& (0+255),b
  5632   0023DC  6B71               	clrf	(___flmul@grs+3)& (0+255),b
  5633   0023DE                     
  5634                           ; BSR set to: 0
  5635   0023DE  5178               	movf	(___flmul@temp+1)& (0+255),w,b
  5636   0023E0  6F73               	movwf	___flmul@prod& (0+255),b
  5637   0023E2  6B74               	clrf	(___flmul@prod+1)& (0+255),b
  5638   0023E4  6B75               	clrf	(___flmul@prod+2)& (0+255),b
  5639   0023E6  6B76               	clrf	(___flmul@prod+3)& (0+255),b
  5640   0023E8  5165               	movf	(___flmul@a+1)& (0+255),w,b
  5641   0023EA  0361               	mulwf	(___flmul@b+1)& (0+255),b
  5642   0023EC  CFF3 F077          	movff	prodl,___flmul@temp
  5643   0023F0  CFF4 F078          	movff	prodh,___flmul@temp+1
  5644   0023F4                     
  5645                           ; BSR set to: 0
  5646   0023F4  5177               	movf	___flmul@temp& (0+255),w,b
  5647   0023F6  276E               	addwf	___flmul@grs& (0+255),f,b
  5648   0023F8  0E00               	movlw	0
  5649   0023FA  236F               	addwfc	(___flmul@grs+1)& (0+255),f,b
  5650   0023FC  2370               	addwfc	(___flmul@grs+2)& (0+255),f,b
  5651   0023FE  2371               	addwfc	(___flmul@grs+3)& (0+255),f,b
  5652   002400                     
  5653                           ; BSR set to: 0
  5654   002400  5178               	movf	(___flmul@temp+1)& (0+255),w,b
  5655   002402  2773               	addwf	___flmul@prod& (0+255),f,b
  5656   002404  0E00               	movlw	0
  5657   002406  2374               	addwfc	(___flmul@prod+1)& (0+255),f,b
  5658   002408  2375               	addwfc	(___flmul@prod+2)& (0+255),f,b
  5659   00240A  2376               	addwfc	(___flmul@prod+3)& (0+255),f,b
  5660   00240C  5164               	movf	___flmul@a& (0+255),w,b
  5661   00240E  0362               	mulwf	(___flmul@b+2)& (0+255),b
  5662   002410  CFF3 F077          	movff	prodl,___flmul@temp
  5663   002414  CFF4 F078          	movff	prodh,___flmul@temp+1
  5664   002418                     
  5665                           ; BSR set to: 0
  5666   002418  5177               	movf	___flmul@temp& (0+255),w,b
  5667   00241A  276E               	addwf	___flmul@grs& (0+255),f,b
  5668   00241C  0E00               	movlw	0
  5669   00241E  236F               	addwfc	(___flmul@grs+1)& (0+255),f,b
  5670   002420  2370               	addwfc	(___flmul@grs+2)& (0+255),f,b
  5671   002422  2371               	addwfc	(___flmul@grs+3)& (0+255),f,b
  5672   002424                     
  5673                           ; BSR set to: 0
  5674   002424  5178               	movf	(___flmul@temp+1)& (0+255),w,b
  5675   002426  2773               	addwf	___flmul@prod& (0+255),f,b
  5676   002428  0E00               	movlw	0
  5677   00242A  2374               	addwfc	(___flmul@prod+1)& (0+255),f,b
  5678   00242C  2375               	addwfc	(___flmul@prod+2)& (0+255),f,b
  5679   00242E  2376               	addwfc	(___flmul@prod+3)& (0+255),f,b
  5680   002430                     
  5681                           ; BSR set to: 0
  5682   002430  C070  F071         	movff	___flmul@grs+2,___flmul@grs+3
  5683   002434  C06F  F070         	movff	___flmul@grs+1,___flmul@grs+2
  5684   002438  C06E  F06F         	movff	___flmul@grs,___flmul@grs+1
  5685   00243C  6B6E               	clrf	___flmul@grs& (0+255),b
  5686   00243E                     
  5687                           ; BSR set to: 0
  5688   00243E  5164               	movf	___flmul@a& (0+255),w,b
  5689   002440  0361               	mulwf	(___flmul@b+1)& (0+255),b
  5690   002442  CFF3 F077          	movff	prodl,___flmul@temp
  5691   002446  CFF4 F078          	movff	prodh,___flmul@temp+1
  5692   00244A                     
  5693                           ; BSR set to: 0
  5694   00244A  5177               	movf	___flmul@temp& (0+255),w,b
  5695   00244C  276E               	addwf	___flmul@grs& (0+255),f,b
  5696   00244E  5178               	movf	(___flmul@temp+1)& (0+255),w,b
  5697   002450  236F               	addwfc	(___flmul@grs+1)& (0+255),f,b
  5698   002452  0E00               	movlw	0
  5699   002454  2370               	addwfc	(___flmul@grs+2)& (0+255),f,b
  5700   002456  0E00               	movlw	0
  5701   002458  2371               	addwfc	(___flmul@grs+3)& (0+255),f,b
  5702   00245A                     
  5703                           ; BSR set to: 0
  5704   00245A  5165               	movf	(___flmul@a+1)& (0+255),w,b
  5705   00245C  0360               	mulwf	___flmul@b& (0+255),b
  5706   00245E  CFF3 F077          	movff	prodl,___flmul@temp
  5707   002462  CFF4 F078          	movff	prodh,___flmul@temp+1
  5708   002466                     
  5709                           ; BSR set to: 0
  5710   002466  5177               	movf	___flmul@temp& (0+255),w,b
  5711   002468  276E               	addwf	___flmul@grs& (0+255),f,b
  5712   00246A  5178               	movf	(___flmul@temp+1)& (0+255),w,b
  5713   00246C  236F               	addwfc	(___flmul@grs+1)& (0+255),f,b
  5714   00246E  0E00               	movlw	0
  5715   002470  2370               	addwfc	(___flmul@grs+2)& (0+255),f,b
  5716   002472  0E00               	movlw	0
  5717   002474  2371               	addwfc	(___flmul@grs+3)& (0+255),f,b
  5718   002476                     
  5719                           ; BSR set to: 0
  5720   002476  C070  F071         	movff	___flmul@grs+2,___flmul@grs+3
  5721   00247A  C06F  F070         	movff	___flmul@grs+1,___flmul@grs+2
  5722   00247E  C06E  F06F         	movff	___flmul@grs,___flmul@grs+1
  5723   002482  6B6E               	clrf	___flmul@grs& (0+255),b
  5724   002484  5164               	movf	___flmul@a& (0+255),w,b
  5725   002486  0360               	mulwf	___flmul@b& (0+255),b
  5726   002488  CFF3 F077          	movff	prodl,___flmul@temp
  5727   00248C  CFF4 F078          	movff	prodh,___flmul@temp+1
  5728   002490                     
  5729                           ; BSR set to: 0
  5730   002490  5177               	movf	___flmul@temp& (0+255),w,b
  5731   002492  276E               	addwf	___flmul@grs& (0+255),f,b
  5732   002494  5178               	movf	(___flmul@temp+1)& (0+255),w,b
  5733   002496  236F               	addwfc	(___flmul@grs+1)& (0+255),f,b
  5734   002498  0E00               	movlw	0
  5735   00249A  2370               	addwfc	(___flmul@grs+2)& (0+255),f,b
  5736   00249C  0E00               	movlw	0
  5737   00249E  2371               	addwfc	(___flmul@grs+3)& (0+255),f,b
  5738   0024A0                     
  5739                           ; BSR set to: 0
  5740   0024A0  5166               	movf	(___flmul@a+2)& (0+255),w,b
  5741   0024A2  0361               	mulwf	(___flmul@b+1)& (0+255),b
  5742   0024A4  CFF3 F077          	movff	prodl,___flmul@temp
  5743   0024A8  CFF4 F078          	movff	prodh,___flmul@temp+1
  5744   0024AC  5177               	movf	___flmul@temp& (0+255),w,b
  5745   0024AE  2773               	addwf	___flmul@prod& (0+255),f,b
  5746   0024B0  5178               	movf	(___flmul@temp+1)& (0+255),w,b
  5747   0024B2  2374               	addwfc	(___flmul@prod+1)& (0+255),f,b
  5748   0024B4  0E00               	movlw	0
  5749   0024B6  2375               	addwfc	(___flmul@prod+2)& (0+255),f,b
  5750   0024B8  0E00               	movlw	0
  5751   0024BA  2376               	addwfc	(___flmul@prod+3)& (0+255),f,b
  5752   0024BC                     
  5753                           ; BSR set to: 0
  5754   0024BC  5165               	movf	(___flmul@a+1)& (0+255),w,b
  5755   0024BE  0362               	mulwf	(___flmul@b+2)& (0+255),b
  5756   0024C0  CFF3 F077          	movff	prodl,___flmul@temp
  5757   0024C4  CFF4 F078          	movff	prodh,___flmul@temp+1
  5758   0024C8                     
  5759                           ; BSR set to: 0
  5760   0024C8  5177               	movf	___flmul@temp& (0+255),w,b
  5761   0024CA  2773               	addwf	___flmul@prod& (0+255),f,b
  5762   0024CC  5178               	movf	(___flmul@temp+1)& (0+255),w,b
  5763   0024CE  2374               	addwfc	(___flmul@prod+1)& (0+255),f,b
  5764   0024D0  0E00               	movlw	0
  5765   0024D2  2375               	addwfc	(___flmul@prod+2)& (0+255),f,b
  5766   0024D4  0E00               	movlw	0
  5767   0024D6  2376               	addwfc	(___flmul@prod+3)& (0+255),f,b
  5768   0024D8  5166               	movf	(___flmul@a+2)& (0+255),w,b
  5769   0024DA  0362               	mulwf	(___flmul@b+2)& (0+255),b
  5770   0024DC  CFF3 F077          	movff	prodl,___flmul@temp
  5771   0024E0  CFF4 F078          	movff	prodh,___flmul@temp+1
  5772   0024E4                     
  5773                           ; BSR set to: 0
  5774   0024E4  5177               	movf	___flmul@temp& (0+255),w,b
  5775   0024E6  6F68               	movwf	??___flmul& (0+255),b
  5776   0024E8  5178               	movf	(___flmul@temp+1)& (0+255),w,b
  5777   0024EA  6F69               	movwf	(??___flmul+1)& (0+255),b
  5778   0024EC  6B6A               	clrf	(??___flmul+2)& (0+255),b
  5779   0024EE  6B6B               	clrf	(??___flmul+3)& (0+255),b
  5780   0024F0  C06A  F06B         	movff	??___flmul+2,??___flmul+3
  5781   0024F4  C069  F06A         	movff	??___flmul+1,??___flmul+2
  5782   0024F8  C068  F069         	movff	??___flmul,??___flmul+1
  5783   0024FC  6B68               	clrf	??___flmul& (0+255),b
  5784   0024FE  5168               	movf	??___flmul& (0+255),w,b
  5785   002500  2773               	addwf	___flmul@prod& (0+255),f,b
  5786   002502  5169               	movf	(??___flmul+1)& (0+255),w,b
  5787   002504  2374               	addwfc	(___flmul@prod+1)& (0+255),f,b
  5788   002506  516A               	movf	(??___flmul+2)& (0+255),w,b
  5789   002508  2375               	addwfc	(___flmul@prod+2)& (0+255),f,b
  5790   00250A  516B               	movf	(??___flmul+3)& (0+255),w,b
  5791   00250C  2376               	addwfc	(___flmul@prod+3)& (0+255),f,b
  5792   00250E                     
  5793                           ; BSR set to: 0
  5794   00250E  C06E  F068         	movff	___flmul@grs,??___flmul
  5795   002512  C06F  F069         	movff	___flmul@grs+1,??___flmul+1
  5796   002516  C070  F06A         	movff	___flmul@grs+2,??___flmul+2
  5797   00251A  C071  F06B         	movff	___flmul@grs+3,??___flmul+3
  5798   00251E  0E19               	movlw	25
  5799   002520  EF97  F012         	goto	u6510
  5800   002524                     u6515:
  5801   002524  90D8               	bcf	status,0,c
  5802   002526  336B               	rrcf	(??___flmul+3)& (0+255),f,b
  5803   002528  336A               	rrcf	(??___flmul+2)& (0+255),f,b
  5804   00252A  3369               	rrcf	(??___flmul+1)& (0+255),f,b
  5805   00252C  3368               	rrcf	??___flmul& (0+255),f,b
  5806   00252E                     u6510:
  5807   00252E  2EE8               	decfsz	wreg,f,c
  5808   002530  EF92  F012         	goto	u6515
  5809   002534  5168               	movf	??___flmul& (0+255),w,b
  5810   002536  2773               	addwf	___flmul@prod& (0+255),f,b
  5811   002538  5169               	movf	(??___flmul+1)& (0+255),w,b
  5812   00253A  2374               	addwfc	(___flmul@prod+1)& (0+255),f,b
  5813   00253C  516A               	movf	(??___flmul+2)& (0+255),w,b
  5814   00253E  2375               	addwfc	(___flmul@prod+2)& (0+255),f,b
  5815   002540  516B               	movf	(??___flmul+3)& (0+255),w,b
  5816   002542  2376               	addwfc	(___flmul@prod+3)& (0+255),f,b
  5817   002544                     
  5818                           ; BSR set to: 0
  5819   002544  C070  F071         	movff	___flmul@grs+2,___flmul@grs+3
  5820   002548  C06F  F070         	movff	___flmul@grs+1,___flmul@grs+2
  5821   00254C  C06E  F06F         	movff	___flmul@grs,___flmul@grs+1
  5822   002550  6B6E               	clrf	___flmul@grs& (0+255),b
  5823   002552                     
  5824                           ; BSR set to: 0
  5825   002552  516D               	movf	___flmul@aexp& (0+255),w,b
  5826   002554  C072  F068         	movff	___flmul@bexp,??___flmul
  5827   002558  6B69               	clrf	(??___flmul+1)& (0+255),b
  5828   00255A  2768               	addwf	??___flmul& (0+255),f,b
  5829   00255C  0E00               	movlw	0
  5830   00255E  2369               	addwfc	(??___flmul+1)& (0+255),f,b
  5831   002560  0E82               	movlw	130
  5832   002562  2568               	addwf	??___flmul& (0+255),w,b
  5833   002564  6F77               	movwf	___flmul@temp& (0+255),b
  5834   002566  0EFF               	movlw	255
  5835   002568  2169               	addwfc	(??___flmul+1)& (0+255),w,b
  5836   00256A  6F78               	movwf	(___flmul@temp+1)& (0+255),b
  5837   00256C  EFCD  F012         	goto	l5737
  5838   002570                     l5731:
  5839                           
  5840                           ; BSR set to: 0
  5841   002570  90D8               	bcf	status,0,c
  5842   002572  3773               	rlcf	___flmul@prod& (0+255),f,b
  5843   002574  3774               	rlcf	(___flmul@prod+1)& (0+255),f,b
  5844   002576  3775               	rlcf	(___flmul@prod+2)& (0+255),f,b
  5845   002578  3776               	rlcf	(___flmul@prod+3)& (0+255),f,b
  5846   00257A                     
  5847                           ; BSR set to: 0
  5848   00257A  AF71               	btfss	(___flmul@grs+3)& (0+255),7,b
  5849   00257C  EFC2  F012         	goto	u6521
  5850   002580  EFC4  F012         	goto	u6520
  5851   002584                     u6521:
  5852   002584  EFC5  F012         	goto	l1063
  5853   002588                     u6520:
  5854   002588                     
  5855                           ; BSR set to: 0
  5856   002588  8173               	bsf	___flmul@prod& (0+255),0,b
  5857   00258A                     l1063:
  5858                           
  5859                           ; BSR set to: 0
  5860   00258A  90D8               	bcf	status,0,c
  5861   00258C  376E               	rlcf	___flmul@grs& (0+255),f,b
  5862   00258E  376F               	rlcf	(___flmul@grs+1)& (0+255),f,b
  5863   002590  3770               	rlcf	(___flmul@grs+2)& (0+255),f,b
  5864   002592  3771               	rlcf	(___flmul@grs+3)& (0+255),f,b
  5865   002594  0777               	decf	___flmul@temp& (0+255),f,b
  5866   002596  A0D8               	btfss	status,0,c
  5867   002598  0778               	decf	(___flmul@temp+1)& (0+255),f,b
  5868   00259A                     l5737:
  5869                           
  5870                           ; BSR set to: 0
  5871   00259A  AF75               	btfss	(___flmul@prod+2)& (0+255),7,b
  5872   00259C  EFD2  F012         	goto	u6531
  5873   0025A0  EFD4  F012         	goto	u6530
  5874   0025A4                     u6531:
  5875   0025A4  EFB8  F012         	goto	l5731
  5876   0025A8                     u6530:
  5877   0025A8                     
  5878                           ; BSR set to: 0
  5879   0025A8  0E00               	movlw	0
  5880   0025AA  6F6D               	movwf	___flmul@aexp& (0+255),b
  5881   0025AC                     
  5882                           ; BSR set to: 0
  5883   0025AC  AF71               	btfss	(___flmul@grs+3)& (0+255),7,b
  5884   0025AE  EFDB  F012         	goto	u6541
  5885   0025B2  EFDD  F012         	goto	u6540
  5886   0025B6                     u6541:
  5887   0025B6  EF01  F013         	goto	l1065
  5888   0025BA                     u6540:
  5889   0025BA                     
  5890                           ; BSR set to: 0
  5891   0025BA  0EFF               	movlw	255
  5892   0025BC  156E               	andwf	___flmul@grs& (0+255),w,b
  5893   0025BE  6F68               	movwf	??___flmul& (0+255),b
  5894   0025C0  0EFF               	movlw	255
  5895   0025C2  156F               	andwf	(___flmul@grs+1)& (0+255),w,b
  5896   0025C4  6F69               	movwf	(??___flmul+1)& (0+255),b
  5897   0025C6  0EFF               	movlw	255
  5898   0025C8  1570               	andwf	(___flmul@grs+2)& (0+255),w,b
  5899   0025CA  6F6A               	movwf	(??___flmul+2)& (0+255),b
  5900   0025CC  0E7F               	movlw	127
  5901   0025CE  1571               	andwf	(___flmul@grs+3)& (0+255),w,b
  5902   0025D0  6F6B               	movwf	(??___flmul+3)& (0+255),b
  5903   0025D2  5168               	movf	??___flmul& (0+255),w,b
  5904   0025D4  1169               	iorwf	(??___flmul+1)& (0+255),w,b
  5905   0025D6  116A               	iorwf	(??___flmul+2)& (0+255),w,b
  5906   0025D8  116B               	iorwf	(??___flmul+3)& (0+255),w,b
  5907   0025DA  B4D8               	btfsc	status,2,c
  5908   0025DC  EFF2  F012         	goto	u6551
  5909   0025E0  EFF4  F012         	goto	u6550
  5910   0025E4                     u6551:
  5911   0025E4  EFF8  F012         	goto	l1066
  5912   0025E8                     u6550:
  5913   0025E8                     l5745:
  5914                           
  5915                           ; BSR set to: 0
  5916   0025E8  0E01               	movlw	1
  5917   0025EA  6F6D               	movwf	___flmul@aexp& (0+255),b
  5918   0025EC  EF01  F013         	goto	l1065
  5919   0025F0                     l1066:
  5920                           
  5921                           ; BSR set to: 0
  5922   0025F0  A173               	btfss	___flmul@prod& (0+255),0,b
  5923   0025F2  EFFD  F012         	goto	u6561
  5924   0025F6  EFFF  F012         	goto	u6560
  5925   0025FA                     u6561:
  5926   0025FA  EF01  F013         	goto	l1065
  5927   0025FE                     u6560:
  5928   0025FE  EFF4  F012         	goto	l5745
  5929   002602                     l1065:
  5930                           
  5931                           ; BSR set to: 0
  5932   002602  516D               	movf	___flmul@aexp& (0+255),w,b
  5933   002604  B4D8               	btfsc	status,2,c
  5934   002606  EF07  F013         	goto	u6571
  5935   00260A  EF09  F013         	goto	u6570
  5936   00260E                     u6571:
  5937   00260E  EF2D  F013         	goto	l5757
  5938   002612                     u6570:
  5939   002612                     
  5940                           ; BSR set to: 0
  5941   002612  0E01               	movlw	1
  5942   002614  2773               	addwf	___flmul@prod& (0+255),f,b
  5943   002616  0E00               	movlw	0
  5944   002618  2374               	addwfc	(___flmul@prod+1)& (0+255),f,b
  5945   00261A  2375               	addwfc	(___flmul@prod+2)& (0+255),f,b
  5946   00261C  2376               	addwfc	(___flmul@prod+3)& (0+255),f,b
  5947   00261E                     
  5948                           ; BSR set to: 0
  5949   00261E  A176               	btfss	(___flmul@prod+3)& (0+255),0,b
  5950   002620  EF14  F013         	goto	u6581
  5951   002624  EF16  F013         	goto	u6580
  5952   002628                     u6581:
  5953   002628  EF2D  F013         	goto	l5757
  5954   00262C                     u6580:
  5955   00262C                     
  5956                           ; BSR set to: 0
  5957   00262C  C073  F068         	movff	___flmul@prod,??___flmul
  5958   002630  C074  F069         	movff	___flmul@prod+1,??___flmul+1
  5959   002634  C075  F06A         	movff	___flmul@prod+2,??___flmul+2
  5960   002638  C076  F06B         	movff	___flmul@prod+3,??___flmul+3
  5961   00263C  356B               	rlcf	(??___flmul+3)& (0+255),w,b
  5962   00263E  336B               	rrcf	(??___flmul+3)& (0+255),f,b
  5963   002640  336A               	rrcf	(??___flmul+2)& (0+255),f,b
  5964   002642  3369               	rrcf	(??___flmul+1)& (0+255),f,b
  5965   002644  3368               	rrcf	??___flmul& (0+255),f,b
  5966   002646  C068  F073         	movff	??___flmul,___flmul@prod
  5967   00264A  C069  F074         	movff	??___flmul+1,___flmul@prod+1
  5968   00264E  C06A  F075         	movff	??___flmul+2,___flmul@prod+2
  5969   002652  C06B  F076         	movff	??___flmul+3,___flmul@prod+3
  5970   002656                     
  5971                           ; BSR set to: 0
  5972   002656  4B77               	infsnz	___flmul@temp& (0+255),f,b
  5973   002658  2B78               	incf	(___flmul@temp+1)& (0+255),f,b
  5974   00265A                     l5757:
  5975                           
  5976                           ; BSR set to: 0
  5977   00265A  BF78               	btfsc	(___flmul@temp+1)& (0+255),7,b
  5978   00265C  EF38  F013         	goto	u6591
  5979   002660  5178               	movf	(___flmul@temp+1)& (0+255),w,b
  5980   002662  E108               	bnz	u6590
  5981   002664  2977               	incf	___flmul@temp& (0+255),w,b
  5982   002666  A0D8               	btfss	status,0,c
  5983   002668  EF38  F013         	goto	u6591
  5984   00266C  EF3A  F013         	goto	u6590
  5985   002670                     u6591:
  5986   002670  EF44  F013         	goto	l5761
  5987   002674                     u6590:
  5988   002674                     
  5989                           ; BSR set to: 0
  5990   002674  0E00               	movlw	0
  5991   002676  6F73               	movwf	___flmul@prod& (0+255),b
  5992   002678  0E00               	movlw	0
  5993   00267A  6F74               	movwf	(___flmul@prod+1)& (0+255),b
  5994   00267C  0E80               	movlw	128
  5995   00267E  6F75               	movwf	(___flmul@prod+2)& (0+255),b
  5996   002680  0E7F               	movlw	127
  5997   002682  6F76               	movwf	(___flmul@prod+3)& (0+255),b
  5998   002684  EF72  F013         	goto	l5773
  5999   002688                     l5761:
  6000                           
  6001                           ; BSR set to: 0
  6002   002688  BF78               	btfsc	(___flmul@temp+1)& (0+255),7,b
  6003   00268A  EF51  F013         	goto	u6600
  6004   00268E  5178               	movf	(___flmul@temp+1)& (0+255),w,b
  6005   002690  E106               	bnz	u6601
  6006   002692  0577               	decf	___flmul@temp& (0+255),w,b
  6007   002694  B0D8               	btfsc	status,0,c
  6008   002696  EF4F  F013         	goto	u6601
  6009   00269A  EF51  F013         	goto	u6600
  6010   00269E                     u6601:
  6011   00269E  EF5D  F013         	goto	l1073
  6012   0026A2                     u6600:
  6013   0026A2                     
  6014                           ; BSR set to: 0
  6015   0026A2  0E00               	movlw	0
  6016   0026A4  6F73               	movwf	___flmul@prod& (0+255),b
  6017   0026A6  0E00               	movlw	0
  6018   0026A8  6F74               	movwf	(___flmul@prod+1)& (0+255),b
  6019   0026AA  0E00               	movlw	0
  6020   0026AC  6F75               	movwf	(___flmul@prod+2)& (0+255),b
  6021   0026AE  0E00               	movlw	0
  6022   0026B0  6F76               	movwf	(___flmul@prod+3)& (0+255),b
  6023   0026B2  0E00               	movlw	0
  6024   0026B4  6F6C               	movwf	___flmul@sign& (0+255),b
  6025   0026B6  EF72  F013         	goto	l5773
  6026   0026BA                     l1073:
  6027                           
  6028                           ; BSR set to: 0
  6029   0026BA  C077  F072         	movff	___flmul@temp,___flmul@bexp
  6030   0026BE                     
  6031                           ; BSR set to: 0
  6032   0026BE  0EFF               	movlw	255
  6033   0026C0  1773               	andwf	___flmul@prod& (0+255),f,b
  6034   0026C2  0EFF               	movlw	255
  6035   0026C4  1774               	andwf	(___flmul@prod+1)& (0+255),f,b
  6036   0026C6  0E7F               	movlw	127
  6037   0026C8  1775               	andwf	(___flmul@prod+2)& (0+255),f,b
  6038   0026CA  0E00               	movlw	0
  6039   0026CC  1776               	andwf	(___flmul@prod+3)& (0+255),f,b
  6040   0026CE                     
  6041                           ; BSR set to: 0
  6042   0026CE  A172               	btfss	___flmul@bexp& (0+255),0,b
  6043   0026D0  EF6C  F013         	goto	u6611
  6044   0026D4  EF6E  F013         	goto	u6610
  6045   0026D8                     u6611:
  6046   0026D8  EF6F  F013         	goto	l5771
  6047   0026DC                     u6610:
  6048   0026DC                     
  6049                           ; BSR set to: 0
  6050   0026DC  8F75               	bsf	(___flmul@prod+2)& (0+255),7,b
  6051   0026DE                     l5771:
  6052                           
  6053                           ; BSR set to: 0
  6054   0026DE  90D8               	bcf	status,0,c
  6055   0026E0  3172               	rrcf	___flmul@bexp& (0+255),w,b
  6056   0026E2  6F76               	movwf	(___flmul@prod+3)& (0+255),b
  6057   0026E4                     l5773:
  6058                           
  6059                           ; BSR set to: 0
  6060   0026E4  516C               	movf	___flmul@sign& (0+255),w,b
  6061   0026E6  1376               	iorwf	(___flmul@prod+3)& (0+255),f,b
  6062   0026E8                     
  6063                           ; BSR set to: 0
  6064   0026E8  C073  F060         	movff	___flmul@prod,?___flmul
  6065   0026EC  C074  F061         	movff	___flmul@prod+1,?___flmul+1
  6066   0026F0  C075  F062         	movff	___flmul@prod+2,?___flmul+2
  6067   0026F4  C076  F063         	movff	___flmul@prod+3,?___flmul+3
  6068   0026F8                     l1060:
  6069                           
  6070                           ; BSR set to: 0
  6071   0026F8  0012               	return		;funcret
  6072   0026FA                     __end_of___flmul:
  6073                           	callstack 0
  6074                           
  6075 ;; *************** function ___flge *****************
  6076 ;; Defined at:
  6077 ;;		line 4 in file "/opt/microchip/xc8/v2.45/pic/sources/c99/common/flge.c"
  6078 ;; Parameters:    Size  Location     Type
  6079 ;;  ff1             4   25[BANK0 ] unsigned char 
  6080 ;;  ff2             4   29[BANK0 ] unsigned char 
  6081 ;; Auto vars:     Size  Location     Type
  6082 ;;		None
  6083 ;; Return value:  Size  Location     Type
  6084 ;;		None               void
  6085 ;; Registers used:
  6086 ;;		wreg, status,2, status,0
  6087 ;; Tracked objects:
  6088 ;;		On entry : 0/0
  6089 ;;		On exit  : 0/0
  6090 ;;		Unchanged: 0/0
  6091 ;; Data sizes:     COMRAM   BANK0   BANK1   BANK2   BANK3   BANK4   BANK5   BANK6   BANK7   BANK8   BANK9  BANK10  BANK1
      +1  BANK12  BANK14
  6092 ;;      Params:         0       8       0       0       0       0       0       0       0       0       0       0       
      +0       0       0
  6093 ;;      Locals:         0       0       0       0       0       0       0       0       0       0       0       0       
      +0       0       0
  6094 ;;      Temps:          0       4       0       0       0       0       0       0       0       0       0       0       
      +0       0       0
  6095 ;;      Totals:         0      12       0       0       0       0       0       0       0       0       0       0       
      +0       0       0
  6096 ;;Total ram usage:       12 bytes
  6097 ;; Hardware stack levels used: 1
  6098 ;; Hardware stack levels required when called: 5
  6099 ;; This function calls:
  6100 ;;		Nothing
  6101 ;; This function is called by:
  6102 ;;		_efgtoa
  6103 ;; This function uses a non-reentrant model
  6104 ;;
  6105                           
  6106                           	psect	text15
  6107   003B38                     __ptext15:
  6108                           	callstack 0
  6109   003B38                     ___flge:
  6110                           	callstack 21
  6111   003B38  0E00               	movlw	0
  6112   003B3A  0100               	movlb	0	; () banked
  6113   003B3C  1579               	andwf	___flge@ff1& (0+255),w,b
  6114   003B3E  6F81               	movwf	??___flge& (0+255),b
  6115   003B40  0E00               	movlw	0
  6116   003B42  157A               	andwf	(___flge@ff1+1)& (0+255),w,b
  6117   003B44  6F82               	movwf	(??___flge+1)& (0+255),b
  6118   003B46  0E80               	movlw	128
  6119   003B48  157B               	andwf	(___flge@ff1+2)& (0+255),w,b
  6120   003B4A  6F83               	movwf	(??___flge+2)& (0+255),b
  6121   003B4C  0E7F               	movlw	127
  6122   003B4E  157C               	andwf	(___flge@ff1+3)& (0+255),w,b
  6123   003B50  6F84               	movwf	(??___flge+3)& (0+255),b
  6124   003B52  5181               	movf	??___flge& (0+255),w,b
  6125   003B54  1182               	iorwf	(??___flge+1)& (0+255),w,b
  6126   003B56  1183               	iorwf	(??___flge+2)& (0+255),w,b
  6127   003B58  1184               	iorwf	(??___flge+3)& (0+255),w,b
  6128   003B5A  A4D8               	btfss	status,2,c
  6129   003B5C  EFB2  F01D         	goto	u6771
  6130   003B60  EFB4  F01D         	goto	u6770
  6131   003B64                     u6771:
  6132   003B64  EFBC  F01D         	goto	l5885
  6133   003B68                     u6770:
  6134   003B68                     
  6135                           ; BSR set to: 0
  6136   003B68  0E00               	movlw	0
  6137   003B6A  6F79               	movwf	___flge@ff1& (0+255),b
  6138   003B6C  0E00               	movlw	0
  6139   003B6E  6F7A               	movwf	(___flge@ff1+1)& (0+255),b
  6140   003B70  0E00               	movlw	0
  6141   003B72  6F7B               	movwf	(___flge@ff1+2)& (0+255),b
  6142   003B74  0E00               	movlw	0
  6143   003B76  6F7C               	movwf	(___flge@ff1+3)& (0+255),b
  6144   003B78                     l5885:
  6145                           
  6146                           ; BSR set to: 0
  6147   003B78  0E00               	movlw	0
  6148   003B7A  157D               	andwf	___flge@ff2& (0+255),w,b
  6149   003B7C  6F81               	movwf	??___flge& (0+255),b
  6150   003B7E  0E00               	movlw	0
  6151   003B80  157E               	andwf	(___flge@ff2+1)& (0+255),w,b
  6152   003B82  6F82               	movwf	(??___flge+1)& (0+255),b
  6153   003B84  0E80               	movlw	128
  6154   003B86  157F               	andwf	(___flge@ff2+2)& (0+255),w,b
  6155   003B88  6F83               	movwf	(??___flge+2)& (0+255),b
  6156   003B8A  0E7F               	movlw	127
  6157   003B8C  1580               	andwf	(___flge@ff2+3)& (0+255),w,b
  6158   003B8E  6F84               	movwf	(??___flge+3)& (0+255),b
  6159   003B90  5181               	movf	??___flge& (0+255),w,b
  6160   003B92  1182               	iorwf	(??___flge+1)& (0+255),w,b
  6161   003B94  1183               	iorwf	(??___flge+2)& (0+255),w,b
  6162   003B96  1184               	iorwf	(??___flge+3)& (0+255),w,b
  6163   003B98  A4D8               	btfss	status,2,c
  6164   003B9A  EFD1  F01D         	goto	u6781
  6165   003B9E  EFD3  F01D         	goto	u6780
  6166   003BA2                     u6781:
  6167   003BA2  EFDB  F01D         	goto	l5889
  6168   003BA6                     u6780:
  6169   003BA6                     
  6170                           ; BSR set to: 0
  6171   003BA6  0E00               	movlw	0
  6172   003BA8  6F7D               	movwf	___flge@ff2& (0+255),b
  6173   003BAA  0E00               	movlw	0
  6174   003BAC  6F7E               	movwf	(___flge@ff2+1)& (0+255),b
  6175   003BAE  0E00               	movlw	0
  6176   003BB0  6F7F               	movwf	(___flge@ff2+2)& (0+255),b
  6177   003BB2  0E00               	movlw	0
  6178   003BB4  6F80               	movwf	(___flge@ff2+3)& (0+255),b
  6179   003BB6                     l5889:
  6180                           
  6181                           ; BSR set to: 0
  6182   003BB6  AF7C               	btfss	(___flge@ff1+3)& (0+255),7,b
  6183   003BB8  EFE0  F01D         	goto	u6791
  6184   003BBC  EFE2  F01D         	goto	u6790
  6185   003BC0                     u6791:
  6186   003BC0  EFEB  F01D         	goto	l5893
  6187   003BC4                     u6790:
  6188   003BC4                     
  6189                           ; BSR set to: 0
  6190   003BC4  6D79               	negf	___flge@ff1& (0+255),b
  6191   003BC6  1F7A               	comf	(___flge@ff1+1)& (0+255),f,b
  6192   003BC8  B0D8               	btfsc	status,0,c
  6193   003BCA  2B7A               	incf	(___flge@ff1+1)& (0+255),f,b
  6194   003BCC  1F7B               	comf	(___flge@ff1+2)& (0+255),f,b
  6195   003BCE  B0D8               	btfsc	status,0,c
  6196   003BD0  2B7B               	incf	(___flge@ff1+2)& (0+255),f,b
  6197   003BD2  0E80               	movlw	128
  6198   003BD4  577C               	subfwb	(___flge@ff1+3)& (0+255),f,b
  6199   003BD6                     l5893:
  6200                           
  6201                           ; BSR set to: 0
  6202   003BD6  AF80               	btfss	(___flge@ff2+3)& (0+255),7,b
  6203   003BD8  EFF0  F01D         	goto	u6801
  6204   003BDC  EFF2  F01D         	goto	u6800
  6205   003BE0                     u6801:
  6206   003BE0  EFFB  F01D         	goto	l707
  6207   003BE4                     u6800:
  6208   003BE4                     
  6209                           ; BSR set to: 0
  6210   003BE4  6D7D               	negf	___flge@ff2& (0+255),b
  6211   003BE6  1F7E               	comf	(___flge@ff2+1)& (0+255),f,b
  6212   003BE8  B0D8               	btfsc	status,0,c
  6213   003BEA  2B7E               	incf	(___flge@ff2+1)& (0+255),f,b
  6214   003BEC  1F7F               	comf	(___flge@ff2+2)& (0+255),f,b
  6215   003BEE  B0D8               	btfsc	status,0,c
  6216   003BF0  2B7F               	incf	(___flge@ff2+2)& (0+255),f,b
  6217   003BF2  0E80               	movlw	128
  6218   003BF4  5780               	subfwb	(___flge@ff2+3)& (0+255),f,b
  6219   003BF6                     l707:
  6220                           
  6221                           ; BSR set to: 0
  6222   003BF6  0E00               	movlw	0
  6223   003BF8  1B79               	xorwf	___flge@ff1& (0+255),f,b
  6224   003BFA  0E00               	movlw	0
  6225   003BFC  1B7A               	xorwf	(___flge@ff1+1)& (0+255),f,b
  6226   003BFE  0E00               	movlw	0
  6227   003C00  1B7B               	xorwf	(___flge@ff1+2)& (0+255),f,b
  6228   003C02  0E80               	movlw	128
  6229   003C04  1B7C               	xorwf	(___flge@ff1+3)& (0+255),f,b
  6230   003C06  0E00               	movlw	0
  6231   003C08  1B7D               	xorwf	___flge@ff2& (0+255),f,b
  6232   003C0A  0E00               	movlw	0
  6233   003C0C  1B7E               	xorwf	(___flge@ff2+1)& (0+255),f,b
  6234   003C0E  0E00               	movlw	0
  6235   003C10  1B7F               	xorwf	(___flge@ff2+2)& (0+255),f,b
  6236   003C12  0E80               	movlw	128
  6237   003C14  1B80               	xorwf	(___flge@ff2+3)& (0+255),f,b
  6238   003C16  517D               	movf	___flge@ff2& (0+255),w,b
  6239   003C18  5D79               	subwf	___flge@ff1& (0+255),w,b
  6240   003C1A  517E               	movf	(___flge@ff2+1)& (0+255),w,b
  6241   003C1C  597A               	subwfb	(___flge@ff1+1)& (0+255),w,b
  6242   003C1E  517F               	movf	(___flge@ff2+2)& (0+255),w,b
  6243   003C20  597B               	subwfb	(___flge@ff1+2)& (0+255),w,b
  6244   003C22  5180               	movf	(___flge@ff2+3)& (0+255),w,b
  6245   003C24  597C               	subwfb	(___flge@ff1+3)& (0+255),w,b
  6246   003C26  B0D8               	btfsc	status,0,c
  6247   003C28  EF18  F01E         	goto	u6811
  6248   003C2C  EF1A  F01E         	goto	u6810
  6249   003C30                     u6811:
  6250   003C30  EF1D  F01E         	goto	l5899
  6251   003C34                     u6810:
  6252   003C34                     
  6253                           ; BSR set to: 0
  6254   003C34  90D8               	bcf	status,0,c
  6255   003C36  EF1E  F01E         	goto	l712
  6256   003C3A                     l5899:
  6257                           
  6258                           ; BSR set to: 0
  6259   003C3A  80D8               	bsf	status,0,c
  6260   003C3C                     l712:
  6261                           
  6262                           ; BSR set to: 0
  6263   003C3C  0012               	return		;funcret
  6264   003C3E                     __end_of___flge:
  6265                           	callstack 0
  6266                           
  6267 ;; *************** function ___fleq *****************
  6268 ;; Defined at:
  6269 ;;		line 4 in file "/opt/microchip/xc8/v2.45/pic/sources/c99/common/fleq.c"
  6270 ;; Parameters:    Size  Location     Type
  6271 ;;  ff1             4    0[BANK0 ] unsigned char 
  6272 ;;  ff2             4    4[BANK0 ] unsigned char 
  6273 ;; Auto vars:     Size  Location     Type
  6274 ;;		None
  6275 ;; Return value:  Size  Location     Type
  6276 ;;		None               void
  6277 ;; Registers used:
  6278 ;;		wreg, status,2, status,0
  6279 ;; Tracked objects:
  6280 ;;		On entry : 0/0
  6281 ;;		On exit  : 0/0
  6282 ;;		Unchanged: 0/0
  6283 ;; Data sizes:     COMRAM   BANK0   BANK1   BANK2   BANK3   BANK4   BANK5   BANK6   BANK7   BANK8   BANK9  BANK10  BANK1
      +1  BANK12  BANK14
  6284 ;;      Params:         0       8       0       0       0       0       0       0       0       0       0       0       
      +0       0       0
  6285 ;;      Locals:         0       0       0       0       0       0       0       0       0       0       0       0       
      +0       0       0
  6286 ;;      Temps:          0       4       0       0       0       0       0       0       0       0       0       0       
      +0       0       0
  6287 ;;      Totals:         0      12       0       0       0       0       0       0       0       0       0       0       
      +0       0       0
  6288 ;;Total ram usage:       12 bytes
  6289 ;; Hardware stack levels used: 1
  6290 ;; Hardware stack levels required when called: 5
  6291 ;; This function calls:
  6292 ;;		Nothing
  6293 ;; This function is called by:
  6294 ;;		_efgtoa
  6295 ;; This function uses a non-reentrant model
  6296 ;;
  6297                           
  6298                           	psect	text16
  6299   004040                     __ptext16:
  6300                           	callstack 0
  6301   004040                     ___fleq:
  6302                           	callstack 21
  6303   004040  0E00               	movlw	0
  6304   004042  0100               	movlb	0	; () banked
  6305   004044  1560               	andwf	___fleq@ff1& (0+255),w,b
  6306   004046  6F68               	movwf	??___fleq& (0+255),b
  6307   004048  0E00               	movlw	0
  6308   00404A  1561               	andwf	(___fleq@ff1+1)& (0+255),w,b
  6309   00404C  6F69               	movwf	(??___fleq+1)& (0+255),b
  6310   00404E  0E80               	movlw	128
  6311   004050  1562               	andwf	(___fleq@ff1+2)& (0+255),w,b
  6312   004052  6F6A               	movwf	(??___fleq+2)& (0+255),b
  6313   004054  0E7F               	movlw	127
  6314   004056  1563               	andwf	(___fleq@ff1+3)& (0+255),w,b
  6315   004058  6F6B               	movwf	(??___fleq+3)& (0+255),b
  6316   00405A  5168               	movf	??___fleq& (0+255),w,b
  6317   00405C  1169               	iorwf	(??___fleq+1)& (0+255),w,b
  6318   00405E  116A               	iorwf	(??___fleq+2)& (0+255),w,b
  6319   004060  116B               	iorwf	(??___fleq+3)& (0+255),w,b
  6320   004062  A4D8               	btfss	status,2,c
  6321   004064  EF36  F020         	goto	u6741
  6322   004068  EF38  F020         	goto	u6740
  6323   00406C                     u6741:
  6324   00406C  EF40  F020         	goto	l5869
  6325   004070                     u6740:
  6326   004070                     
  6327                           ; BSR set to: 0
  6328   004070  0E00               	movlw	0
  6329   004072  6F60               	movwf	___fleq@ff1& (0+255),b
  6330   004074  0E00               	movlw	0
  6331   004076  6F61               	movwf	(___fleq@ff1+1)& (0+255),b
  6332   004078  0E00               	movlw	0
  6333   00407A  6F62               	movwf	(___fleq@ff1+2)& (0+255),b
  6334   00407C  0E00               	movlw	0
  6335   00407E  6F63               	movwf	(___fleq@ff1+3)& (0+255),b
  6336   004080                     l5869:
  6337                           
  6338                           ; BSR set to: 0
  6339   004080  0E00               	movlw	0
  6340   004082  1564               	andwf	___fleq@ff2& (0+255),w,b
  6341   004084  6F68               	movwf	??___fleq& (0+255),b
  6342   004086  0E00               	movlw	0
  6343   004088  1565               	andwf	(___fleq@ff2+1)& (0+255),w,b
  6344   00408A  6F69               	movwf	(??___fleq+1)& (0+255),b
  6345   00408C  0E80               	movlw	128
  6346   00408E  1566               	andwf	(___fleq@ff2+2)& (0+255),w,b
  6347   004090  6F6A               	movwf	(??___fleq+2)& (0+255),b
  6348   004092  0E7F               	movlw	127
  6349   004094  1567               	andwf	(___fleq@ff2+3)& (0+255),w,b
  6350   004096  6F6B               	movwf	(??___fleq+3)& (0+255),b
  6351   004098  5168               	movf	??___fleq& (0+255),w,b
  6352   00409A  1169               	iorwf	(??___fleq+1)& (0+255),w,b
  6353   00409C  116A               	iorwf	(??___fleq+2)& (0+255),w,b
  6354   00409E  116B               	iorwf	(??___fleq+3)& (0+255),w,b
  6355   0040A0  A4D8               	btfss	status,2,c
  6356   0040A2  EF55  F020         	goto	u6751
  6357   0040A6  EF57  F020         	goto	u6750
  6358   0040AA                     u6751:
  6359   0040AA  EF5F  F020         	goto	l5873
  6360   0040AE                     u6750:
  6361   0040AE                     
  6362                           ; BSR set to: 0
  6363   0040AE  0E00               	movlw	0
  6364   0040B0  6F64               	movwf	___fleq@ff2& (0+255),b
  6365   0040B2  0E00               	movlw	0
  6366   0040B4  6F65               	movwf	(___fleq@ff2+1)& (0+255),b
  6367   0040B6  0E00               	movlw	0
  6368   0040B8  6F66               	movwf	(___fleq@ff2+2)& (0+255),b
  6369   0040BA  0E00               	movlw	0
  6370   0040BC  6F67               	movwf	(___fleq@ff2+3)& (0+255),b
  6371   0040BE                     l5873:
  6372                           
  6373                           ; BSR set to: 0
  6374   0040BE  5164               	movf	___fleq@ff2& (0+255),w,b
  6375   0040C0  1960               	xorwf	___fleq@ff1& (0+255),w,b
  6376   0040C2  E10F               	bnz	u6760
  6377   0040C4  5165               	movf	(___fleq@ff2+1)& (0+255),w,b
  6378   0040C6  1961               	xorwf	(___fleq@ff1+1)& (0+255),w,b
  6379   0040C8  E10C               	bnz	u6760
  6380   0040CA  5166               	movf	(___fleq@ff2+2)& (0+255),w,b
  6381   0040CC  1962               	xorwf	(___fleq@ff1+2)& (0+255),w,b
  6382   0040CE  E109               	bnz	u6760
  6383   0040D0  5167               	movf	(___fleq@ff2+3)& (0+255),w,b
  6384   0040D2  1963               	xorwf	(___fleq@ff1+3)& (0+255),w,b
  6385   0040D4  B4D8               	btfsc	status,2,c
  6386   0040D6  EF6F  F020         	goto	u6761
  6387   0040DA  EF71  F020         	goto	u6760
  6388   0040DE                     u6761:
  6389   0040DE  EF74  F020         	goto	l5877
  6390   0040E2                     u6760:
  6391   0040E2                     
  6392                           ; BSR set to: 0
  6393   0040E2  90D8               	bcf	status,0,c
  6394   0040E4  EF75  F020         	goto	l701
  6395   0040E8                     l5877:
  6396                           
  6397                           ; BSR set to: 0
  6398   0040E8  80D8               	bsf	status,0,c
  6399   0040EA                     l701:
  6400                           
  6401                           ; BSR set to: 0
  6402   0040EA  0012               	return		;funcret
  6403   0040EC                     __end_of___fleq:
  6404                           	callstack 0
  6405                           
  6406 ;; *************** function ___fldiv *****************
  6407 ;; Defined at:
  6408 ;;		line 11 in file "/opt/microchip/xc8/v2.45/pic/sources/c99/common/sprcdiv.c"
  6409 ;; Parameters:    Size  Location     Type
  6410 ;;  b               4   14[BANK0 ] unsigned char 
  6411 ;;  a               4   18[BANK0 ] unsigned char 
  6412 ;; Auto vars:     Size  Location     Type
  6413 ;;  grs             4   33[BANK0 ] unsigned long 
  6414 ;;  rem             4   26[BANK0 ] unsigned long 
  6415 ;;  new_exp         2   31[BANK0 ] short 
  6416 ;;  aexp            1   38[BANK0 ] unsigned char 
  6417 ;;  bexp            1   37[BANK0 ] unsigned char 
  6418 ;;  sign            1   30[BANK0 ] unsigned char 
  6419 ;; Return value:  Size  Location     Type
  6420 ;;                  4   14[BANK0 ] unsigned char 
  6421 ;; Registers used:
  6422 ;;		wreg, status,2, status,0
  6423 ;; Tracked objects:
  6424 ;;		On entry : 0/0
  6425 ;;		On exit  : 0/0
  6426 ;;		Unchanged: 0/0
  6427 ;; Data sizes:     COMRAM   BANK0   BANK1   BANK2   BANK3   BANK4   BANK5   BANK6   BANK7   BANK8   BANK9  BANK10  BANK1
      +1  BANK12  BANK14
  6428 ;;      Params:         0       8       0       0       0       0       0       0       0       0       0       0       
      +0       0       0
  6429 ;;      Locals:         0      13       0       0       0       0       0       0       0       0       0       0       
      +0       0       0
  6430 ;;      Temps:          0       4       0       0       0       0       0       0       0       0       0       0       
      +0       0       0
  6431 ;;      Totals:         0      25       0       0       0       0       0       0       0       0       0       0       
      +0       0       0
  6432 ;;Total ram usage:       25 bytes
  6433 ;; Hardware stack levels used: 1
  6434 ;; Hardware stack levels required when called: 5
  6435 ;; This function calls:
  6436 ;;		Nothing
  6437 ;; This function is called by:
  6438 ;;		_main
  6439 ;;		_efgtoa
  6440 ;; This function uses a non-reentrant model
  6441 ;;
  6442                           
  6443                           	psect	text17
  6444   0026FA                     __ptext17:
  6445                           	callstack 0
  6446   0026FA                     ___fldiv:
  6447                           	callstack 21
  6448   0026FA  0100               	movlb	0	; () banked
  6449   0026FC  5171               	movf	(___fldiv@b+3)& (0+255),w,b
  6450   0026FE  0B80               	andlw	128
  6451   002700  6F7E               	movwf	___fldiv@sign& (0+255),b
  6452   002702  5171               	movf	(___fldiv@b+3)& (0+255),w,b
  6453   002704  2571               	addwf	(___fldiv@b+3)& (0+255),w,b
  6454   002706  6F85               	movwf	___fldiv@bexp& (0+255),b
  6455   002708                     
  6456                           ; BSR set to: 0
  6457   002708  AF70               	btfss	(___fldiv@b+2)& (0+255),7,b
  6458   00270A  EF89  F013         	goto	u6201
  6459   00270E  EF8B  F013         	goto	u6200
  6460   002712                     u6201:
  6461   002712  EF8C  F013         	goto	l5517
  6462   002716                     u6200:
  6463   002716                     
  6464                           ; BSR set to: 0
  6465   002716  8185               	bsf	___fldiv@bexp& (0+255),0,b
  6466   002718                     l5517:
  6467                           
  6468                           ; BSR set to: 0
  6469   002718  5185               	movf	___fldiv@bexp& (0+255),w,b
  6470   00271A  B4D8               	btfsc	status,2,c
  6471   00271C  EF92  F013         	goto	u6211
  6472   002720  EF94  F013         	goto	u6210
  6473   002724                     u6211:
  6474   002724  EFA9  F013         	goto	l5527
  6475   002728                     u6210:
  6476   002728                     
  6477                           ; BSR set to: 0
  6478   002728  2985               	incf	___fldiv@bexp& (0+255),w,b
  6479   00272A  A4D8               	btfss	status,2,c
  6480   00272C  EF9A  F013         	goto	u6221
  6481   002730  EF9C  F013         	goto	u6220
  6482   002734                     u6221:
  6483   002734  EFA4  F013         	goto	l5523
  6484   002738                     u6220:
  6485   002738                     
  6486                           ; BSR set to: 0
  6487   002738  0E00               	movlw	0
  6488   00273A  6F6E               	movwf	___fldiv@b& (0+255),b
  6489   00273C  0E00               	movlw	0
  6490   00273E  6F6F               	movwf	(___fldiv@b+1)& (0+255),b
  6491   002740  0E00               	movlw	0
  6492   002742  6F70               	movwf	(___fldiv@b+2)& (0+255),b
  6493   002744  0E00               	movlw	0
  6494   002746  6F71               	movwf	(___fldiv@b+3)& (0+255),b
  6495   002748                     l5523:
  6496                           
  6497                           ; BSR set to: 0
  6498   002748  8F70               	bsf	(___fldiv@b+2)& (0+255),7,b
  6499   00274A                     
  6500                           ; BSR set to: 0
  6501   00274A  0E00               	movlw	0
  6502   00274C  6F71               	movwf	(___fldiv@b+3)& (0+255),b
  6503   00274E  EFB1  F013         	goto	l5529
  6504   002752                     l5527:
  6505                           
  6506                           ; BSR set to: 0
  6507   002752  0E00               	movlw	0
  6508   002754  6F6E               	movwf	___fldiv@b& (0+255),b
  6509   002756  0E00               	movlw	0
  6510   002758  6F6F               	movwf	(___fldiv@b+1)& (0+255),b
  6511   00275A  0E00               	movlw	0
  6512   00275C  6F70               	movwf	(___fldiv@b+2)& (0+255),b
  6513   00275E  0E00               	movlw	0
  6514   002760  6F71               	movwf	(___fldiv@b+3)& (0+255),b
  6515   002762                     l5529:
  6516                           
  6517                           ; BSR set to: 0
  6518   002762  5175               	movf	(___fldiv@a+3)& (0+255),w,b
  6519   002764  0B80               	andlw	128
  6520   002766  1B7E               	xorwf	___fldiv@sign& (0+255),f,b
  6521   002768                     
  6522                           ; BSR set to: 0
  6523   002768  5175               	movf	(___fldiv@a+3)& (0+255),w,b
  6524   00276A  2575               	addwf	(___fldiv@a+3)& (0+255),w,b
  6525   00276C  6F86               	movwf	___fldiv@aexp& (0+255),b
  6526   00276E                     
  6527                           ; BSR set to: 0
  6528   00276E  AF74               	btfss	(___fldiv@a+2)& (0+255),7,b
  6529   002770  EFBC  F013         	goto	u6231
  6530   002774  EFBE  F013         	goto	u6230
  6531   002778                     u6231:
  6532   002778  EFBF  F013         	goto	l5537
  6533   00277C                     u6230:
  6534   00277C                     
  6535                           ; BSR set to: 0
  6536   00277C  8186               	bsf	___fldiv@aexp& (0+255),0,b
  6537   00277E                     l5537:
  6538                           
  6539                           ; BSR set to: 0
  6540   00277E  5186               	movf	___fldiv@aexp& (0+255),w,b
  6541   002780  B4D8               	btfsc	status,2,c
  6542   002782  EFC5  F013         	goto	u6241
  6543   002786  EFC7  F013         	goto	u6240
  6544   00278A                     u6241:
  6545   00278A  EFDC  F013         	goto	l5547
  6546   00278E                     u6240:
  6547   00278E                     
  6548                           ; BSR set to: 0
  6549   00278E  2986               	incf	___fldiv@aexp& (0+255),w,b
  6550   002790  A4D8               	btfss	status,2,c
  6551   002792  EFCD  F013         	goto	u6251
  6552   002796  EFCF  F013         	goto	u6250
  6553   00279A                     u6251:
  6554   00279A  EFD7  F013         	goto	l5543
  6555   00279E                     u6250:
  6556   00279E                     
  6557                           ; BSR set to: 0
  6558   00279E  0E00               	movlw	0
  6559   0027A0  6F72               	movwf	___fldiv@a& (0+255),b
  6560   0027A2  0E00               	movlw	0
  6561   0027A4  6F73               	movwf	(___fldiv@a+1)& (0+255),b
  6562   0027A6  0E00               	movlw	0
  6563   0027A8  6F74               	movwf	(___fldiv@a+2)& (0+255),b
  6564   0027AA  0E00               	movlw	0
  6565   0027AC  6F75               	movwf	(___fldiv@a+3)& (0+255),b
  6566   0027AE                     l5543:
  6567                           
  6568                           ; BSR set to: 0
  6569   0027AE  8F74               	bsf	(___fldiv@a+2)& (0+255),7,b
  6570   0027B0                     
  6571                           ; BSR set to: 0
  6572   0027B0  0E00               	movlw	0
  6573   0027B2  6F75               	movwf	(___fldiv@a+3)& (0+255),b
  6574   0027B4  EFE4  F013         	goto	l5549
  6575   0027B8                     l5547:
  6576                           
  6577                           ; BSR set to: 0
  6578   0027B8  0E00               	movlw	0
  6579   0027BA  6F72               	movwf	___fldiv@a& (0+255),b
  6580   0027BC  0E00               	movlw	0
  6581   0027BE  6F73               	movwf	(___fldiv@a+1)& (0+255),b
  6582   0027C0  0E00               	movlw	0
  6583   0027C2  6F74               	movwf	(___fldiv@a+2)& (0+255),b
  6584   0027C4  0E00               	movlw	0
  6585   0027C6  6F75               	movwf	(___fldiv@a+3)& (0+255),b
  6586   0027C8                     l5549:
  6587                           
  6588                           ; BSR set to: 0
  6589   0027C8  5172               	movf	___fldiv@a& (0+255),w,b
  6590   0027CA  1173               	iorwf	(___fldiv@a+1)& (0+255),w,b
  6591   0027CC  1174               	iorwf	(___fldiv@a+2)& (0+255),w,b
  6592   0027CE  1175               	iorwf	(___fldiv@a+3)& (0+255),w,b
  6593   0027D0  A4D8               	btfss	status,2,c
  6594   0027D2  EFED  F013         	goto	u6261
  6595   0027D6  EFEF  F013         	goto	u6260
  6596   0027DA                     u6261:
  6597   0027DA  EF07  F014         	goto	l5561
  6598   0027DE                     u6260:
  6599   0027DE                     
  6600                           ; BSR set to: 0
  6601   0027DE  0E00               	movlw	0
  6602   0027E0  6F6E               	movwf	___fldiv@b& (0+255),b
  6603   0027E2  0E00               	movlw	0
  6604   0027E4  6F6F               	movwf	(___fldiv@b+1)& (0+255),b
  6605   0027E6  0E00               	movlw	0
  6606   0027E8  6F70               	movwf	(___fldiv@b+2)& (0+255),b
  6607   0027EA  0E00               	movlw	0
  6608   0027EC  6F71               	movwf	(___fldiv@b+3)& (0+255),b
  6609   0027EE                     
  6610                           ; BSR set to: 0
  6611   0027EE  0E80               	movlw	128
  6612   0027F0  1370               	iorwf	(___fldiv@b+2)& (0+255),f,b
  6613   0027F2  0E7F               	movlw	127
  6614   0027F4  1371               	iorwf	(___fldiv@b+3)& (0+255),f,b
  6615   0027F6                     l5555:
  6616                           
  6617                           ; BSR set to: 0
  6618   0027F6  517E               	movf	___fldiv@sign& (0+255),w,b
  6619   0027F8  1371               	iorwf	(___fldiv@b+3)& (0+255),f,b
  6620   0027FA                     
  6621                           ; BSR set to: 0
  6622   0027FA  C06E  F06E         	movff	___fldiv@b,?___fldiv
  6623   0027FE  C06F  F06F         	movff	___fldiv@b+1,?___fldiv+1
  6624   002802  C070  F070         	movff	___fldiv@b+2,?___fldiv+2
  6625   002806  C071  F071         	movff	___fldiv@b+3,?___fldiv+3
  6626   00280A  EF4A  F015         	goto	l1024
  6627   00280E                     l5561:
  6628                           
  6629                           ; BSR set to: 0
  6630   00280E  5185               	movf	___fldiv@bexp& (0+255),w,b
  6631   002810  A4D8               	btfss	status,2,c
  6632   002812  EF0D  F014         	goto	u6271
  6633   002816  EF0F  F014         	goto	u6270
  6634   00281A                     u6271:
  6635   00281A  EF19  F014         	goto	l5569
  6636   00281E                     u6270:
  6637   00281E                     
  6638                           ; BSR set to: 0
  6639   00281E  0E00               	movlw	0
  6640   002820  6F6E               	movwf	?___fldiv& (0+255),b
  6641   002822  0E00               	movlw	0
  6642   002824  6F6F               	movwf	(?___fldiv+1)& (0+255),b
  6643   002826  0E00               	movlw	0
  6644   002828  6F70               	movwf	(?___fldiv+2)& (0+255),b
  6645   00282A  0E00               	movlw	0
  6646   00282C  6F71               	movwf	(?___fldiv+3)& (0+255),b
  6647   00282E  EF4A  F015         	goto	l1024
  6648   002832                     l5569:
  6649                           
  6650                           ; BSR set to: 0
  6651   002832  5186               	movf	___fldiv@aexp& (0+255),w,b
  6652   002834  C085  F076         	movff	___fldiv@bexp,??___fldiv
  6653   002838  6B77               	clrf	(??___fldiv+1)& (0+255),b
  6654   00283A  5F76               	subwf	??___fldiv& (0+255),f,b
  6655   00283C  0E00               	movlw	0
  6656   00283E  5B77               	subwfb	(??___fldiv+1)& (0+255),f,b
  6657   002840  0E7F               	movlw	127
  6658   002842  2576               	addwf	??___fldiv& (0+255),w,b
  6659   002844  6F7F               	movwf	___fldiv@new_exp& (0+255),b
  6660   002846  0E00               	movlw	0
  6661   002848  2177               	addwfc	(??___fldiv+1)& (0+255),w,b
  6662   00284A  6F80               	movwf	(___fldiv@new_exp+1)& (0+255),b
  6663   00284C                     
  6664                           ; BSR set to: 0
  6665   00284C  C06E  F07A         	movff	___fldiv@b,___fldiv@rem
  6666   002850  C06F  F07B         	movff	___fldiv@b+1,___fldiv@rem+1
  6667   002854  C070  F07C         	movff	___fldiv@b+2,___fldiv@rem+2
  6668   002858  C071  F07D         	movff	___fldiv@b+3,___fldiv@rem+3
  6669   00285C                     
  6670                           ; BSR set to: 0
  6671   00285C  0E00               	movlw	0
  6672   00285E  6F6E               	movwf	___fldiv@b& (0+255),b
  6673   002860  0E00               	movlw	0
  6674   002862  6F6F               	movwf	(___fldiv@b+1)& (0+255),b
  6675   002864  0E00               	movlw	0
  6676   002866  6F70               	movwf	(___fldiv@b+2)& (0+255),b
  6677   002868  0E00               	movlw	0
  6678   00286A  6F71               	movwf	(___fldiv@b+3)& (0+255),b
  6679   00286C                     
  6680                           ; BSR set to: 0
  6681   00286C  0E00               	movlw	0
  6682   00286E  6F81               	movwf	___fldiv@grs& (0+255),b
  6683   002870  0E00               	movlw	0
  6684   002872  6F82               	movwf	(___fldiv@grs+1)& (0+255),b
  6685   002874  0E00               	movlw	0
  6686   002876  6F83               	movwf	(___fldiv@grs+2)& (0+255),b
  6687   002878  0E00               	movlw	0
  6688   00287A  6F84               	movwf	(___fldiv@grs+3)& (0+255),b
  6689   00287C                     
  6690                           ; BSR set to: 0
  6691   00287C  0E00               	movlw	0
  6692   00287E  6F86               	movwf	___fldiv@aexp& (0+255),b
  6693   002880  EF7A  F014         	goto	l1026
  6694   002884                     l5579:
  6695                           
  6696                           ; BSR set to: 0
  6697   002884  5186               	movf	___fldiv@aexp& (0+255),w,b
  6698   002886  B4D8               	btfsc	status,2,c
  6699   002888  EF48  F014         	goto	u6281
  6700   00288C  EF4A  F014         	goto	u6280
  6701   002890                     u6281:
  6702   002890  EF61  F014         	goto	l5587
  6703   002894                     u6280:
  6704   002894                     
  6705                           ; BSR set to: 0
  6706   002894  90D8               	bcf	status,0,c
  6707   002896  377A               	rlcf	___fldiv@rem& (0+255),f,b
  6708   002898  377B               	rlcf	(___fldiv@rem+1)& (0+255),f,b
  6709   00289A  377C               	rlcf	(___fldiv@rem+2)& (0+255),f,b
  6710   00289C  377D               	rlcf	(___fldiv@rem+3)& (0+255),f,b
  6711   00289E  90D8               	bcf	status,0,c
  6712   0028A0  376E               	rlcf	___fldiv@b& (0+255),f,b
  6713   0028A2  376F               	rlcf	(___fldiv@b+1)& (0+255),f,b
  6714   0028A4  3770               	rlcf	(___fldiv@b+2)& (0+255),f,b
  6715   0028A6  3771               	rlcf	(___fldiv@b+3)& (0+255),f,b
  6716   0028A8                     
  6717                           ; BSR set to: 0
  6718   0028A8  AF84               	btfss	(___fldiv@grs+3)& (0+255),7,b
  6719   0028AA  EF59  F014         	goto	u6291
  6720   0028AE  EF5B  F014         	goto	u6290
  6721   0028B2                     u6291:
  6722   0028B2  EF5C  F014         	goto	l1029
  6723   0028B6                     u6290:
  6724   0028B6                     
  6725                           ; BSR set to: 0
  6726   0028B6  816E               	bsf	___fldiv@b& (0+255),0,b
  6727   0028B8                     l1029:
  6728                           
  6729                           ; BSR set to: 0
  6730   0028B8  90D8               	bcf	status,0,c
  6731   0028BA  3781               	rlcf	___fldiv@grs& (0+255),f,b
  6732   0028BC  3782               	rlcf	(___fldiv@grs+1)& (0+255),f,b
  6733   0028BE  3783               	rlcf	(___fldiv@grs+2)& (0+255),f,b
  6734   0028C0  3784               	rlcf	(___fldiv@grs+3)& (0+255),f,b
  6735   0028C2                     l5587:
  6736                           
  6737                           ; BSR set to: 0
  6738   0028C2  5172               	movf	___fldiv@a& (0+255),w,b
  6739   0028C4  5D7A               	subwf	___fldiv@rem& (0+255),w,b
  6740   0028C6  5173               	movf	(___fldiv@a+1)& (0+255),w,b
  6741   0028C8  597B               	subwfb	(___fldiv@rem+1)& (0+255),w,b
  6742   0028CA  5174               	movf	(___fldiv@a+2)& (0+255),w,b
  6743   0028CC  597C               	subwfb	(___fldiv@rem+2)& (0+255),w,b
  6744   0028CE  5175               	movf	(___fldiv@a+3)& (0+255),w,b
  6745   0028D0  597D               	subwfb	(___fldiv@rem+3)& (0+255),w,b
  6746   0028D2  A0D8               	btfss	status,0,c
  6747   0028D4  EF6E  F014         	goto	u6301
  6748   0028D8  EF70  F014         	goto	u6300
  6749   0028DC                     u6301:
  6750   0028DC  EF79  F014         	goto	l5593
  6751   0028E0                     u6300:
  6752   0028E0                     
  6753                           ; BSR set to: 0
  6754   0028E0  8D84               	bsf	(___fldiv@grs+3)& (0+255),6,b
  6755   0028E2                     
  6756                           ; BSR set to: 0
  6757   0028E2  5172               	movf	___fldiv@a& (0+255),w,b
  6758   0028E4  5F7A               	subwf	___fldiv@rem& (0+255),f,b
  6759   0028E6  5173               	movf	(___fldiv@a+1)& (0+255),w,b
  6760   0028E8  5B7B               	subwfb	(___fldiv@rem+1)& (0+255),f,b
  6761   0028EA  5174               	movf	(___fldiv@a+2)& (0+255),w,b
  6762   0028EC  5B7C               	subwfb	(___fldiv@rem+2)& (0+255),f,b
  6763   0028EE  5175               	movf	(___fldiv@a+3)& (0+255),w,b
  6764   0028F0  5B7D               	subwfb	(___fldiv@rem+3)& (0+255),f,b
  6765   0028F2                     l5593:
  6766                           
  6767                           ; BSR set to: 0
  6768   0028F2  2B86               	incf	___fldiv@aexp& (0+255),f,b
  6769   0028F4                     l1026:
  6770                           
  6771                           ; BSR set to: 0
  6772   0028F4  0E19               	movlw	25
  6773   0028F6  6586               	cpfsgt	___fldiv@aexp& (0+255),b
  6774   0028F8  EF80  F014         	goto	u6311
  6775   0028FC  EF82  F014         	goto	u6310
  6776   002900                     u6311:
  6777   002900  EF42  F014         	goto	l5579
  6778   002904                     u6310:
  6779   002904                     
  6780                           ; BSR set to: 0
  6781   002904  517A               	movf	___fldiv@rem& (0+255),w,b
  6782   002906  117B               	iorwf	(___fldiv@rem+1)& (0+255),w,b
  6783   002908  117C               	iorwf	(___fldiv@rem+2)& (0+255),w,b
  6784   00290A  117D               	iorwf	(___fldiv@rem+3)& (0+255),w,b
  6785   00290C  B4D8               	btfsc	status,2,c
  6786   00290E  EF8B  F014         	goto	u6321
  6787   002912  EF8D  F014         	goto	u6320
  6788   002916                     u6321:
  6789   002916  EFA5  F014         	goto	l5605
  6790   00291A                     u6320:
  6791   00291A                     
  6792                           ; BSR set to: 0
  6793   00291A  8181               	bsf	___fldiv@grs& (0+255),0,b
  6794   00291C  EFA5  F014         	goto	l5605
  6795   002920                     l5599:
  6796                           
  6797                           ; BSR set to: 0
  6798   002920  90D8               	bcf	status,0,c
  6799   002922  376E               	rlcf	___fldiv@b& (0+255),f,b
  6800   002924  376F               	rlcf	(___fldiv@b+1)& (0+255),f,b
  6801   002926  3770               	rlcf	(___fldiv@b+2)& (0+255),f,b
  6802   002928  3771               	rlcf	(___fldiv@b+3)& (0+255),f,b
  6803   00292A                     
  6804                           ; BSR set to: 0
  6805   00292A  AF84               	btfss	(___fldiv@grs+3)& (0+255),7,b
  6806   00292C  EF9A  F014         	goto	u6331
  6807   002930  EF9C  F014         	goto	u6330
  6808   002934                     u6331:
  6809   002934  EF9D  F014         	goto	l1035
  6810   002938                     u6330:
  6811   002938                     
  6812                           ; BSR set to: 0
  6813   002938  816E               	bsf	___fldiv@b& (0+255),0,b
  6814   00293A                     l1035:
  6815                           
  6816                           ; BSR set to: 0
  6817   00293A  90D8               	bcf	status,0,c
  6818   00293C  3781               	rlcf	___fldiv@grs& (0+255),f,b
  6819   00293E  3782               	rlcf	(___fldiv@grs+1)& (0+255),f,b
  6820   002940  3783               	rlcf	(___fldiv@grs+2)& (0+255),f,b
  6821   002942  3784               	rlcf	(___fldiv@grs+3)& (0+255),f,b
  6822   002944  077F               	decf	___fldiv@new_exp& (0+255),f,b
  6823   002946  A0D8               	btfss	status,0,c
  6824   002948  0780               	decf	(___fldiv@new_exp+1)& (0+255),f,b
  6825   00294A                     l5605:
  6826                           
  6827                           ; BSR set to: 0
  6828   00294A  AF70               	btfss	(___fldiv@b+2)& (0+255),7,b
  6829   00294C  EFAA  F014         	goto	u6341
  6830   002950  EFAC  F014         	goto	u6340
  6831   002954                     u6341:
  6832   002954  EF90  F014         	goto	l5599
  6833   002958                     u6340:
  6834   002958                     
  6835                           ; BSR set to: 0
  6836   002958  0E00               	movlw	0
  6837   00295A  6F86               	movwf	___fldiv@aexp& (0+255),b
  6838   00295C                     
  6839                           ; BSR set to: 0
  6840   00295C  AF84               	btfss	(___fldiv@grs+3)& (0+255),7,b
  6841   00295E  EFB3  F014         	goto	u6351
  6842   002962  EFB5  F014         	goto	u6350
  6843   002966                     u6351:
  6844   002966  EFD9  F014         	goto	l1037
  6845   00296A                     u6350:
  6846   00296A                     
  6847                           ; BSR set to: 0
  6848   00296A  0EFF               	movlw	255
  6849   00296C  1581               	andwf	___fldiv@grs& (0+255),w,b
  6850   00296E  6F76               	movwf	??___fldiv& (0+255),b
  6851   002970  0EFF               	movlw	255
  6852   002972  1582               	andwf	(___fldiv@grs+1)& (0+255),w,b
  6853   002974  6F77               	movwf	(??___fldiv+1)& (0+255),b
  6854   002976  0EFF               	movlw	255
  6855   002978  1583               	andwf	(___fldiv@grs+2)& (0+255),w,b
  6856   00297A  6F78               	movwf	(??___fldiv+2)& (0+255),b
  6857   00297C  0E7F               	movlw	127
  6858   00297E  1584               	andwf	(___fldiv@grs+3)& (0+255),w,b
  6859   002980  6F79               	movwf	(??___fldiv+3)& (0+255),b
  6860   002982  5176               	movf	??___fldiv& (0+255),w,b
  6861   002984  1177               	iorwf	(??___fldiv+1)& (0+255),w,b
  6862   002986  1178               	iorwf	(??___fldiv+2)& (0+255),w,b
  6863   002988  1179               	iorwf	(??___fldiv+3)& (0+255),w,b
  6864   00298A  B4D8               	btfsc	status,2,c
  6865   00298C  EFCA  F014         	goto	u6361
  6866   002990  EFCC  F014         	goto	u6360
  6867   002994                     u6361:
  6868   002994  EFD0  F014         	goto	l1038
  6869   002998                     u6360:
  6870   002998                     l5613:
  6871                           
  6872                           ; BSR set to: 0
  6873   002998  0E01               	movlw	1
  6874   00299A  6F86               	movwf	___fldiv@aexp& (0+255),b
  6875   00299C  EFD9  F014         	goto	l1037
  6876   0029A0                     l1038:
  6877                           
  6878                           ; BSR set to: 0
  6879   0029A0  A16E               	btfss	___fldiv@b& (0+255),0,b
  6880   0029A2  EFD5  F014         	goto	u6371
  6881   0029A6  EFD7  F014         	goto	u6370
  6882   0029AA                     u6371:
  6883   0029AA  EFD9  F014         	goto	l1037
  6884   0029AE                     u6370:
  6885   0029AE  EFCC  F014         	goto	l5613
  6886   0029B2                     l1037:
  6887                           
  6888                           ; BSR set to: 0
  6889   0029B2  5186               	movf	___fldiv@aexp& (0+255),w,b
  6890   0029B4  B4D8               	btfsc	status,2,c
  6891   0029B6  EFDF  F014         	goto	u6381
  6892   0029BA  EFE1  F014         	goto	u6380
  6893   0029BE                     u6381:
  6894   0029BE  EF05  F015         	goto	l5625
  6895   0029C2                     u6380:
  6896   0029C2                     
  6897                           ; BSR set to: 0
  6898   0029C2  0E01               	movlw	1
  6899   0029C4  276E               	addwf	___fldiv@b& (0+255),f,b
  6900   0029C6  0E00               	movlw	0
  6901   0029C8  236F               	addwfc	(___fldiv@b+1)& (0+255),f,b
  6902   0029CA  2370               	addwfc	(___fldiv@b+2)& (0+255),f,b
  6903   0029CC  2371               	addwfc	(___fldiv@b+3)& (0+255),f,b
  6904   0029CE                     
  6905                           ; BSR set to: 0
  6906   0029CE  A171               	btfss	(___fldiv@b+3)& (0+255),0,b
  6907   0029D0  EFEC  F014         	goto	u6391
  6908   0029D4  EFEE  F014         	goto	u6390
  6909   0029D8                     u6391:
  6910   0029D8  EF05  F015         	goto	l5625
  6911   0029DC                     u6390:
  6912   0029DC                     
  6913                           ; BSR set to: 0
  6914   0029DC  C06E  F076         	movff	___fldiv@b,??___fldiv
  6915   0029E0  C06F  F077         	movff	___fldiv@b+1,??___fldiv+1
  6916   0029E4  C070  F078         	movff	___fldiv@b+2,??___fldiv+2
  6917   0029E8  C071  F079         	movff	___fldiv@b+3,??___fldiv+3
  6918   0029EC  3579               	rlcf	(??___fldiv+3)& (0+255),w,b
  6919   0029EE  3379               	rrcf	(??___fldiv+3)& (0+255),f,b
  6920   0029F0  3378               	rrcf	(??___fldiv+2)& (0+255),f,b
  6921   0029F2  3377               	rrcf	(??___fldiv+1)& (0+255),f,b
  6922   0029F4  3376               	rrcf	??___fldiv& (0+255),f,b
  6923   0029F6  C076  F06E         	movff	??___fldiv,___fldiv@b
  6924   0029FA  C077  F06F         	movff	??___fldiv+1,___fldiv@b+1
  6925   0029FE  C078  F070         	movff	??___fldiv+2,___fldiv@b+2
  6926   002A02  C079  F071         	movff	??___fldiv+3,___fldiv@b+3
  6927   002A06                     
  6928                           ; BSR set to: 0
  6929   002A06  4B7F               	infsnz	___fldiv@new_exp& (0+255),f,b
  6930   002A08  2B80               	incf	(___fldiv@new_exp+1)& (0+255),f,b
  6931   002A0A                     l5625:
  6932                           
  6933                           ; BSR set to: 0
  6934   002A0A  BF80               	btfsc	(___fldiv@new_exp+1)& (0+255),7,b
  6935   002A0C  EF10  F015         	goto	u6401
  6936   002A10  5180               	movf	(___fldiv@new_exp+1)& (0+255),w,b
  6937   002A12  E108               	bnz	u6400
  6938   002A14  297F               	incf	___fldiv@new_exp& (0+255),w,b
  6939   002A16  A0D8               	btfss	status,0,c
  6940   002A18  EF10  F015         	goto	u6401
  6941   002A1C  EF12  F015         	goto	u6400
  6942   002A20                     u6401:
  6943   002A20  EF1D  F015         	goto	l5629
  6944   002A24                     u6400:
  6945   002A24                     
  6946                           ; BSR set to: 0
  6947   002A24  0E00               	movlw	0
  6948   002A26  6F80               	movwf	(___fldiv@new_exp+1)& (0+255),b
  6949   002A28  697F               	setf	___fldiv@new_exp& (0+255),b
  6950   002A2A  0E00               	movlw	0
  6951   002A2C  6F6E               	movwf	___fldiv@b& (0+255),b
  6952   002A2E  0E00               	movlw	0
  6953   002A30  6F6F               	movwf	(___fldiv@b+1)& (0+255),b
  6954   002A32  0E00               	movlw	0
  6955   002A34  6F70               	movwf	(___fldiv@b+2)& (0+255),b
  6956   002A36  0E00               	movlw	0
  6957   002A38  6F71               	movwf	(___fldiv@b+3)& (0+255),b
  6958   002A3A                     l5629:
  6959                           
  6960                           ; BSR set to: 0
  6961   002A3A  BF80               	btfsc	(___fldiv@new_exp+1)& (0+255),7,b
  6962   002A3C  EF2A  F015         	goto	u6410
  6963   002A40  5180               	movf	(___fldiv@new_exp+1)& (0+255),w,b
  6964   002A42  E106               	bnz	u6411
  6965   002A44  057F               	decf	___fldiv@new_exp& (0+255),w,b
  6966   002A46  B0D8               	btfsc	status,0,c
  6967   002A48  EF28  F015         	goto	u6411
  6968   002A4C  EF2A  F015         	goto	u6410
  6969   002A50                     u6411:
  6970   002A50  EF38  F015         	goto	l5633
  6971   002A54                     u6410:
  6972   002A54                     
  6973                           ; BSR set to: 0
  6974   002A54  0E00               	movlw	0
  6975   002A56  6F80               	movwf	(___fldiv@new_exp+1)& (0+255),b
  6976   002A58  0E00               	movlw	0
  6977   002A5A  6F7F               	movwf	___fldiv@new_exp& (0+255),b
  6978   002A5C  0E00               	movlw	0
  6979   002A5E  6F6E               	movwf	___fldiv@b& (0+255),b
  6980   002A60  0E00               	movlw	0
  6981   002A62  6F6F               	movwf	(___fldiv@b+1)& (0+255),b
  6982   002A64  0E00               	movlw	0
  6983   002A66  6F70               	movwf	(___fldiv@b+2)& (0+255),b
  6984   002A68  0E00               	movlw	0
  6985   002A6A  6F71               	movwf	(___fldiv@b+3)& (0+255),b
  6986   002A6C  0E00               	movlw	0
  6987   002A6E  6F7E               	movwf	___fldiv@sign& (0+255),b
  6988   002A70                     l5633:
  6989                           
  6990                           ; BSR set to: 0
  6991   002A70  C07F  F085         	movff	___fldiv@new_exp,___fldiv@bexp
  6992   002A74                     
  6993                           ; BSR set to: 0
  6994   002A74  A185               	btfss	___fldiv@bexp& (0+255),0,b
  6995   002A76  EF3F  F015         	goto	u6421
  6996   002A7A  EF41  F015         	goto	u6420
  6997   002A7E                     u6421:
  6998   002A7E  EF44  F015         	goto	l5639
  6999   002A82                     u6420:
  7000   002A82                     
  7001                           ; BSR set to: 0
  7002   002A82  8F70               	bsf	(___fldiv@b+2)& (0+255),7,b
  7003   002A84  EF45  F015         	goto	l5641
  7004   002A88                     l5639:
  7005                           
  7006                           ; BSR set to: 0
  7007   002A88  9F70               	bcf	(___fldiv@b+2)& (0+255),7,b
  7008   002A8A                     l5641:
  7009                           
  7010                           ; BSR set to: 0
  7011   002A8A  90D8               	bcf	status,0,c
  7012   002A8C  3185               	rrcf	___fldiv@bexp& (0+255),w,b
  7013   002A8E  6F71               	movwf	(___fldiv@b+3)& (0+255),b
  7014   002A90  EFFB  F013         	goto	l5555
  7015   002A94                     l1024:
  7016                           
  7017                           ; BSR set to: 0
  7018   002A94  0012               	return		;funcret
  7019   002A96                     __end_of___fldiv:
  7020                           	callstack 0
  7021                           
  7022 ;; *************** function _dtoa *****************
  7023 ;; Defined at:
  7024 ;;		line 513 in file "/opt/microchip/xc8/v2.45/pic/sources/c99/common/doprnt.c"
  7025 ;; Parameters:    Size  Location     Type
  7026 ;;  fp              2   27[BANK0 ] PTR struct _IO_FILE
  7027 ;;		 -> NULL(0), 
  7028 ;;  d               2   29[BANK0 ] int 
  7029 ;; Auto vars:     Size  Location     Type
  7030 ;;  i               2   37[BANK0 ] int 
  7031 ;;  w               2   34[BANK0 ] int 
  7032 ;;  s               1   36[BANK0 ] unsigned char 
  7033 ;;  p               1   33[BANK0 ] _Bool 
  7034 ;; Return value:  Size  Location     Type
  7035 ;;                  1    wreg      void 
  7036 ;; Registers used:
  7037 ;;		wreg, fsr1l, fsr1h, fsr2l, fsr2h, status,2, status,0, cstack
  7038 ;; Tracked objects:
  7039 ;;		On entry : 0/0
  7040 ;;		On exit  : 0/0
  7041 ;;		Unchanged: 0/0
  7042 ;; Data sizes:     COMRAM   BANK0   BANK1   BANK2   BANK3   BANK4   BANK5   BANK6   BANK7   BANK8   BANK9  BANK10  BANK1
      +1  BANK12  BANK14
  7043 ;;      Params:         0       4       0       0       0       0       0       0       0       0       0       0       
      +0       0       0
  7044 ;;      Locals:         0       8       0       0       0       0       0       0       0       0       0       0       
      +0       0       0
  7045 ;;      Temps:          0       0       0       0       0       0       0       0       0       0       0       0       
      +0       0       0
  7046 ;;      Totals:         0      12       0       0       0       0       0       0       0       0       0       0       
      +0       0       0
  7047 ;;Total ram usage:       12 bytes
  7048 ;; Hardware stack levels used: 1
  7049 ;; Hardware stack levels required when called: 10
  7050 ;; This function calls:
  7051 ;;		___awdiv
  7052 ;;		___awmod
  7053 ;;		_abs
  7054 ;;		_pad
  7055 ;; This function is called by:
  7056 ;;		_vfpfcnvrt
  7057 ;; This function uses a non-reentrant model
  7058 ;;
  7059                           
  7060                           	psect	text18
  7061   0038BC                     __ptext18:
  7062                           	callstack 0
  7063   0038BC                     _dtoa:
  7064                           	callstack 17
  7065   0038BC                     
  7066                           ;/opt/microchip/xc8/v2.45/pic/sources/c99/common/doprnt.c: 513: static void dtoa(FILE *f
      +                          p, vfpf_sint_t d);/opt/microchip/xc8/v2.45/pic/sources/c99/common/doprnt.c: 514: {;/opt/
      +                          microchip/xc8/v2.45/pic/sources/c99/common/doprnt.c: 515:  char s;;/opt/microchip/xc8/v2
      +                          .45/pic/sources/c99/common/doprnt.c: 516:     int i, w;;/opt/microchip/xc8/v2.45/pic/sou
      +                          rces/c99/common/doprnt.c: 520:  _Bool p = 1;
  7067   0038BC  0E01               	movlw	1
  7068   0038BE  0100               	movlb	0	; () banked
  7069   0038C0  6F81               	movwf	dtoa@p& (0+255),b
  7070   0038C2                     
  7071                           ; BSR set to: 0
  7072                           ;/opt/microchip/xc8/v2.45/pic/sources/c99/common/doprnt.c: 524:     s = d < 0 ? 1 : 0;
  7073   0038C2  BF7E               	btfsc	(dtoa@d+1)& (0+255),7,b
  7074   0038C4  EF66  F01C         	goto	u7131
  7075   0038C8  EF69  F01C         	goto	u7130
  7076   0038CC                     u7131:
  7077   0038CC  0E01               	movlw	1
  7078   0038CE  EF6A  F01C         	goto	u7140
  7079   0038D2                     u7130:
  7080   0038D2  0E00               	movlw	0
  7081   0038D4                     u7140:
  7082   0038D4  6F84               	movwf	dtoa@s& (0+255),b
  7083   0038D6                     
  7084                           ; BSR set to: 0
  7085                           ;/opt/microchip/xc8/v2.45/pic/sources/c99/common/doprnt.c: 535:     w = width;
  7086   0038D6  C0EE  F082         	movff	_width,dtoa@w
  7087   0038DA  C0EF  F083         	movff	_width+1,dtoa@w+1
  7088   0038DE                     
  7089                           ; BSR set to: 0
  7090                           ;/opt/microchip/xc8/v2.45/pic/sources/c99/common/doprnt.c: 536:     if (s
  7091   0038DE  5184               	movf	dtoa@s& (0+255),w,b
  7092   0038E0  B4D8               	btfsc	status,2,c
  7093   0038E2  EF75  F01C         	goto	u7151
  7094   0038E6  EF77  F01C         	goto	u7150
  7095   0038EA                     u7151:
  7096   0038EA  EF90  F01C         	goto	l1156
  7097   0038EE                     u7150:
  7098   0038EE                     
  7099                           ; BSR set to: 0
  7100                           ;/opt/microchip/xc8/v2.45/pic/sources/c99/common/doprnt.c: 540:     ) {;/opt/microchip/x
      +                          c8/v2.45/pic/sources/c99/common/doprnt.c: 541:         --w;
  7101   0038EE  0782               	decf	dtoa@w& (0+255),f,b
  7102   0038F0  A0D8               	btfss	status,0,c
  7103   0038F2  0783               	decf	(dtoa@w+1)& (0+255),f,b
  7104   0038F4                     
  7105                           ; BSR set to: 0
  7106                           ;/opt/microchip/xc8/v2.45/pic/sources/c99/common/doprnt.c: 542:   s = s ? '-' : '+';
  7107   0038F4  5184               	movf	dtoa@s& (0+255),w,b
  7108   0038F6  A4D8               	btfss	status,2,c
  7109   0038F8  EF80  F01C         	goto	u7161
  7110   0038FC  EF82  F01C         	goto	u7160
  7111   003900                     u7161:
  7112   003900  EF88  F01C         	goto	l6059
  7113   003904                     u7160:
  7114   003904                     
  7115                           ; BSR set to: 0
  7116   003904  0E00               	movlw	0
  7117   003906  6F80               	movwf	(_dtoa$1507+1)& (0+255),b
  7118   003908  0E2B               	movlw	43
  7119   00390A  6F7F               	movwf	_dtoa$1507& (0+255),b
  7120   00390C  EF8C  F01C         	goto	l6061
  7121   003910                     l6059:
  7122                           
  7123                           ; BSR set to: 0
  7124   003910  0E00               	movlw	0
  7125   003912  6F80               	movwf	(_dtoa$1507+1)& (0+255),b
  7126   003914  0E2D               	movlw	45
  7127   003916  6F7F               	movwf	_dtoa$1507& (0+255),b
  7128   003918                     l6061:
  7129                           
  7130                           ; BSR set to: 0
  7131   003918  C07F  F084         	movff	_dtoa$1507,dtoa@s
  7132                           
  7133                           ;/opt/microchip/xc8/v2.45/pic/sources/c99/common/doprnt.c: 543:     }
  7134   00391C  EF9C  F01C         	goto	l6067
  7135   003920                     l1156:
  7136                           
  7137                           ; BSR set to: 0
  7138   003920  A7F4               	btfss	_flags& (0+255),3,b
  7139   003922  EF95  F01C         	goto	u7171
  7140   003926  EF97  F01C         	goto	u7170
  7141   00392A                     u7171:
  7142   00392A  EF9C  F01C         	goto	l6067
  7143   00392E                     u7170:
  7144   00392E                     
  7145                           ; BSR set to: 0
  7146                           ;/opt/microchip/xc8/v2.45/pic/sources/c99/common/doprnt.c: 546:         --w;
  7147   00392E  0782               	decf	dtoa@w& (0+255),f,b
  7148   003930  A0D8               	btfss	status,0,c
  7149   003932  0783               	decf	(dtoa@w+1)& (0+255),f,b
  7150   003934                     
  7151                           ; BSR set to: 0
  7152                           ;/opt/microchip/xc8/v2.45/pic/sources/c99/common/doprnt.c: 547:   s = ' ';
  7153   003934  0E20               	movlw	32
  7154   003936  6F84               	movwf	dtoa@s& (0+255),b
  7155   003938                     l6067:
  7156                           
  7157                           ; BSR set to: 0
  7158                           ;/opt/microchip/xc8/v2.45/pic/sources/c99/common/doprnt.c: 552:     i = sizeof(dbuf) - 1
      +                          ;
  7159   003938  0E00               	movlw	0
  7160   00393A  6F86               	movwf	(dtoa@i+1)& (0+255),b
  7161   00393C  0E4F               	movlw	79
  7162   00393E  6F85               	movwf	dtoa@i& (0+255),b
  7163   003940                     
  7164                           ; BSR set to: 0
  7165                           ;/opt/microchip/xc8/v2.45/pic/sources/c99/common/doprnt.c: 553:     dbuf[i] = '\0';
  7166   003940  0E00               	movlw	0
  7167   003942  0101               	movlb	1	; () banked
  7168   003944  6F4F               	movwf	(_dbuf+79)& (0+255),b
  7169                           
  7170                           ;/opt/microchip/xc8/v2.45/pic/sources/c99/common/doprnt.c: 554:     while (!(i < 1) && (
      +                          d != 0
  7171   003946  EFD5  F01C         	goto	l6081
  7172   00394A                     l6071:
  7173                           
  7174                           ; BSR set to: 0
  7175                           ;/opt/microchip/xc8/v2.45/pic/sources/c99/common/doprnt.c: 563:     )) {;/opt/microchip/
      +                          xc8/v2.45/pic/sources/c99/common/doprnt.c: 564:         --i;
  7176   00394A  0785               	decf	dtoa@i& (0+255),f,b
  7177   00394C  A0D8               	btfss	status,0,c
  7178   00394E  0786               	decf	(dtoa@i+1)& (0+255),f,b
  7179   003950                     
  7180                           ; BSR set to: 0
  7181                           ;/opt/microchip/xc8/v2.45/pic/sources/c99/common/doprnt.c: 565:         dbuf[i] = (char)
      +                          ((int)'0' + abs(d % 10));
  7182   003950  0E00               	movlw	low _dbuf
  7183   003952  2585               	addwf	dtoa@i& (0+255),w,b
  7184   003954  6ED9               	movwf	fsr2l,c
  7185   003956  0E01               	movlw	high _dbuf
  7186   003958  2186               	addwfc	(dtoa@i+1)& (0+255),w,b
  7187   00395A  6EDA               	movwf	fsr2h,c
  7188   00395C  C07D  F060         	movff	dtoa@d,___awmod@dividend
  7189   003960  C07E  F061         	movff	dtoa@d+1,___awmod@dividend+1
  7190   003964  0E00               	movlw	0
  7191   003966  6F63               	movwf	(___awmod@divisor+1)& (0+255),b
  7192   003968  0E0A               	movlw	10
  7193   00396A  6F62               	movwf	___awmod@divisor& (0+255),b
  7194   00396C  ECC7  F01F         	call	___awmod	;wreg free
  7195   003970  C060  F066         	movff	?___awmod,abs@a
  7196   003974  C061  F067         	movff	?___awmod+1,abs@a+1
  7197   003978  EC7F  F022         	call	_abs	;wreg free
  7198   00397C  0100               	movlb	0	; () banked
  7199   00397E  5166               	movf	?_abs& (0+255),w,b
  7200   003980  0F30               	addlw	48
  7201   003982  6EDF               	movwf	indf2,c
  7202   003984                     
  7203                           ; BSR set to: 0
  7204                           ;/opt/microchip/xc8/v2.45/pic/sources/c99/common/doprnt.c: 569:   p = 0;
  7205   003984  0E00               	movlw	0
  7206   003986  6F81               	movwf	dtoa@p& (0+255),b
  7207   003988                     
  7208                           ; BSR set to: 0
  7209                           ;/opt/microchip/xc8/v2.45/pic/sources/c99/common/doprnt.c: 571:         --w;
  7210   003988  0782               	decf	dtoa@w& (0+255),f,b
  7211   00398A  A0D8               	btfss	status,0,c
  7212   00398C  0783               	decf	(dtoa@w+1)& (0+255),f,b
  7213   00398E                     
  7214                           ; BSR set to: 0
  7215                           ;/opt/microchip/xc8/v2.45/pic/sources/c99/common/doprnt.c: 572:         d = d / 10;
  7216   00398E  C07D  F060         	movff	dtoa@d,___awdiv@dividend
  7217   003992  C07E  F061         	movff	dtoa@d+1,___awdiv@dividend+1
  7218   003996  0E00               	movlw	0
  7219   003998  6F63               	movwf	(___awdiv@divisor+1)& (0+255),b
  7220   00399A  0E0A               	movlw	10
  7221   00399C  6F62               	movwf	___awdiv@divisor& (0+255),b
  7222   00399E  EC05  F01F         	call	___awdiv	;wreg free
  7223   0039A2  C060  F07D         	movff	?___awdiv,dtoa@d
  7224   0039A6  C061  F07E         	movff	?___awdiv+1,dtoa@d+1
  7225   0039AA                     l6081:
  7226                           
  7227                           ;/opt/microchip/xc8/v2.45/pic/sources/c99/common/doprnt.c: 554:     while (!(i < 1) && (
      +                          d != 0
  7228   0039AA  0100               	movlb	0	; () banked
  7229   0039AC  BF86               	btfsc	(dtoa@i+1)& (0+255),7,b
  7230   0039AE  EFE1  F01C         	goto	u7181
  7231   0039B2  5186               	movf	(dtoa@i+1)& (0+255),w,b
  7232   0039B4  E108               	bnz	u7180
  7233   0039B6  0585               	decf	dtoa@i& (0+255),w,b
  7234   0039B8  A0D8               	btfss	status,0,c
  7235   0039BA  EFE1  F01C         	goto	u7181
  7236   0039BE  EFE3  F01C         	goto	u7180
  7237   0039C2                     u7181:
  7238   0039C2  EFF4  F01C         	goto	l6087
  7239   0039C6                     u7180:
  7240   0039C6                     
  7241                           ; BSR set to: 0
  7242   0039C6  517D               	movf	dtoa@d& (0+255),w,b
  7243   0039C8  117E               	iorwf	(dtoa@d+1)& (0+255),w,b
  7244   0039CA  A4D8               	btfss	status,2,c
  7245   0039CC  EFEA  F01C         	goto	u7191
  7246   0039D0  EFEC  F01C         	goto	u7190
  7247   0039D4                     u7191:
  7248   0039D4  EFA5  F01C         	goto	l6071
  7249   0039D8                     u7190:
  7250   0039D8                     
  7251                           ; BSR set to: 0
  7252   0039D8  5181               	movf	dtoa@p& (0+255),w,b
  7253   0039DA  A4D8               	btfss	status,2,c
  7254   0039DC  EFF2  F01C         	goto	u7201
  7255   0039E0  EFF4  F01C         	goto	u7200
  7256   0039E4                     u7201:
  7257   0039E4  EFA5  F01C         	goto	l6071
  7258   0039E8                     u7200:
  7259   0039E8                     l6087:
  7260                           
  7261                           ; BSR set to: 0
  7262                           ;/opt/microchip/xc8/v2.45/pic/sources/c99/common/doprnt.c: 576:     if (s != 0) {
  7263   0039E8  5184               	movf	dtoa@s& (0+255),w,b
  7264   0039EA  B4D8               	btfsc	status,2,c
  7265   0039EC  EFFA  F01C         	goto	u7211
  7266   0039F0  EFFC  F01C         	goto	u7210
  7267   0039F4                     u7211:
  7268   0039F4  EF07  F01D         	goto	l6093
  7269   0039F8                     u7210:
  7270   0039F8                     
  7271                           ; BSR set to: 0
  7272                           ;/opt/microchip/xc8/v2.45/pic/sources/c99/common/doprnt.c: 577:         --i;
  7273   0039F8  0785               	decf	dtoa@i& (0+255),f,b
  7274   0039FA  A0D8               	btfss	status,0,c
  7275   0039FC  0786               	decf	(dtoa@i+1)& (0+255),f,b
  7276   0039FE                     
  7277                           ; BSR set to: 0
  7278                           ;/opt/microchip/xc8/v2.45/pic/sources/c99/common/doprnt.c: 578:         dbuf[i] = s;
  7279   0039FE  0E00               	movlw	low _dbuf
  7280   003A00  2585               	addwf	dtoa@i& (0+255),w,b
  7281   003A02  6ED9               	movwf	fsr2l,c
  7282   003A04  0E01               	movlw	high _dbuf
  7283   003A06  2186               	addwfc	(dtoa@i+1)& (0+255),w,b
  7284   003A08  6EDA               	movwf	fsr2h,c
  7285   003A0A  C084  FFDF         	movff	dtoa@s,indf2
  7286   003A0E                     l6093:
  7287                           
  7288                           ; BSR set to: 0
  7289                           ;/opt/microchip/xc8/v2.45/pic/sources/c99/common/doprnt.c: 582:     return (void) pad(fp
      +                          , &dbuf[i], w);
  7290   003A0E  C07B  F072         	movff	dtoa@fp,pad@fp
  7291   003A12  C07C  F073         	movff	dtoa@fp+1,pad@fp+1
  7292   003A16  0E00               	movlw	low _dbuf
  7293   003A18  2585               	addwf	dtoa@i& (0+255),w,b
  7294   003A1A  6F74               	movwf	pad@buf& (0+255),b
  7295   003A1C  0E01               	movlw	high _dbuf
  7296   003A1E  2186               	addwfc	(dtoa@i+1)& (0+255),w,b
  7297   003A20  6F75               	movwf	(pad@buf+1)& (0+255),b
  7298   003A22  C082  F076         	movff	dtoa@w,pad@p
  7299   003A26  C083  F077         	movff	dtoa@w+1,pad@p+1
  7300   003A2A  ECF6  F020         	call	_pad	;wreg free
  7301   003A2E  0012               	return		;funcret
  7302   003A30                     __end_of_dtoa:
  7303                           	callstack 0
  7304                           
  7305 ;; *************** function _pad *****************
  7306 ;; Defined at:
  7307 ;;		line 193 in file "/opt/microchip/xc8/v2.45/pic/sources/c99/common/doprnt.c"
  7308 ;; Parameters:    Size  Location     Type
  7309 ;;  fp              2   18[BANK0 ] PTR struct _IO_FILE
  7310 ;;		 -> NULL(0), 
  7311 ;;  buf             2   20[BANK0 ] PTR unsigned char 
  7312 ;;		 -> dbuf(80), 
  7313 ;;  p               2   22[BANK0 ] int 
  7314 ;; Auto vars:     Size  Location     Type
  7315 ;;  i               2   25[BANK0 ] int 
  7316 ;; Return value:  Size  Location     Type
  7317 ;;                  1    wreg      void 
  7318 ;; Registers used:
  7319 ;;		wreg, fsr1l, fsr1h, fsr2l, fsr2h, status,2, status,0, cstack
  7320 ;; Tracked objects:
  7321 ;;		On entry : 0/0
  7322 ;;		On exit  : 0/0
  7323 ;;		Unchanged: 0/0
  7324 ;; Data sizes:     COMRAM   BANK0   BANK1   BANK2   BANK3   BANK4   BANK5   BANK6   BANK7   BANK8   BANK9  BANK10  BANK1
      +1  BANK12  BANK14
  7325 ;;      Params:         0       6       0       0       0       0       0       0       0       0       0       0       
      +0       0       0
  7326 ;;      Locals:         0       2       0       0       0       0       0       0       0       0       0       0       
      +0       0       0
  7327 ;;      Temps:          0       1       0       0       0       0       0       0       0       0       0       0       
      +0       0       0
  7328 ;;      Totals:         0       9       0       0       0       0       0       0       0       0       0       0       
      +0       0       0
  7329 ;;Total ram usage:        9 bytes
  7330 ;; Hardware stack levels used: 1
  7331 ;; Hardware stack levels required when called: 9
  7332 ;; This function calls:
  7333 ;;		_fputc
  7334 ;;		_fputs
  7335 ;; This function is called by:
  7336 ;;		_dtoa
  7337 ;;		_efgtoa
  7338 ;; This function uses a non-reentrant model
  7339 ;;
  7340                           
  7341                           	psect	text19
  7342   0041EC                     __ptext19:
  7343                           	callstack 0
  7344   0041EC                     _pad:
  7345                           	callstack 17
  7346   0041EC                     
  7347                           ;/opt/microchip/xc8/v2.45/pic/sources/c99/common/doprnt.c: 193: static void pad(FILE *fp
      +                          , char *buf, int p);/opt/microchip/xc8/v2.45/pic/sources/c99/common/doprnt.c: 194: {;/op
      +                          t/microchip/xc8/v2.45/pic/sources/c99/common/doprnt.c: 195:     int i;;/opt/microchip/xc
      +                          8/v2.45/pic/sources/c99/common/doprnt.c: 205:  if (p < 0) {
  7348   0041EC  0100               	movlb	0	; () banked
  7349   0041EE  BF77               	btfsc	(pad@p+1)& (0+255),7,b
  7350   0041F0  EFFE  F020         	goto	u6900
  7351   0041F4  EFFC  F020         	goto	u6901
  7352   0041F8                     u6901:
  7353   0041F8  EF02  F021         	goto	l1149
  7354   0041FC                     u6900:
  7355   0041FC                     
  7356                           ; BSR set to: 0
  7357                           ;/opt/microchip/xc8/v2.45/pic/sources/c99/common/doprnt.c: 206:   p = 0;
  7358   0041FC  0E00               	movlw	0
  7359   0041FE  6F77               	movwf	(pad@p+1)& (0+255),b
  7360   004200  0E00               	movlw	0
  7361   004202  6F76               	movwf	pad@p& (0+255),b
  7362   004204                     l1149:
  7363                           
  7364                           ; BSR set to: 0
  7365                           ;/opt/microchip/xc8/v2.45/pic/sources/c99/common/doprnt.c: 208:     i = 0;
  7366   004204  0E00               	movlw	0
  7367   004206  6F7A               	movwf	(pad@i+1)& (0+255),b
  7368   004208  0E00               	movlw	0
  7369   00420A  6F79               	movwf	pad@i& (0+255),b
  7370                           
  7371                           ;/opt/microchip/xc8/v2.45/pic/sources/c99/common/doprnt.c: 209:     while (i < p) {
  7372   00420C  EF15  F021         	goto	l5963
  7373   004210                     l5959:
  7374                           
  7375                           ; BSR set to: 0
  7376                           ;/opt/microchip/xc8/v2.45/pic/sources/c99/common/doprnt.c: 210:         fputc(' ', fp);
  7377   004210  0E00               	movlw	0
  7378   004212  6F63               	movwf	(fputc@c+1)& (0+255),b
  7379   004214  0E20               	movlw	32
  7380   004216  6F62               	movwf	fputc@c& (0+255),b
  7381   004218  C072  F064         	movff	pad@fp,fputc@fp
  7382   00421C  C073  F065         	movff	pad@fp+1,fputc@fp+1
  7383   004220  EC9F  F01E         	call	_fputc	;wreg free
  7384   004224                     
  7385                           ;/opt/microchip/xc8/v2.45/pic/sources/c99/common/doprnt.c: 211:         ++i;
  7386   004224  0100               	movlb	0	; () banked
  7387   004226  4B79               	infsnz	pad@i& (0+255),f,b
  7388   004228  2B7A               	incf	(pad@i+1)& (0+255),f,b
  7389   00422A                     l5963:
  7390                           
  7391                           ; BSR set to: 0
  7392                           ;/opt/microchip/xc8/v2.45/pic/sources/c99/common/doprnt.c: 209:     while (i < p) {
  7393   00422A  5176               	movf	pad@p& (0+255),w,b
  7394   00422C  5D79               	subwf	pad@i& (0+255),w,b
  7395   00422E  517A               	movf	(pad@i+1)& (0+255),w,b
  7396   004230  0A80               	xorlw	128
  7397   004232  6F78               	movwf	??_pad& (0+255),b
  7398   004234  5177               	movf	(pad@p+1)& (0+255),w,b
  7399   004236  0A80               	xorlw	128
  7400   004238  5978               	subwfb	??_pad& (0+255),w,b
  7401   00423A  A0D8               	btfss	status,0,c
  7402   00423C  EF22  F021         	goto	u6911
  7403   004240  EF24  F021         	goto	u6910
  7404   004244                     u6911:
  7405   004244  EF08  F021         	goto	l5959
  7406   004248                     u6910:
  7407   004248                     
  7408                           ; BSR set to: 0
  7409                           ;/opt/microchip/xc8/v2.45/pic/sources/c99/common/doprnt.c: 218:         fputs((const cha
      +                          r *)buf, fp);
  7410   004248  C074  F06B         	movff	pad@buf,fputs@s
  7411   00424C  C075  F06C         	movff	pad@buf+1,fputs@s+1
  7412   004250  C072  F06D         	movff	pad@fp,fputs@fp
  7413   004254  C073  F06E         	movff	pad@fp+1,fputs@fp+1
  7414   004258  EC1E  F022         	call	_fputs	;wreg free
  7415   00425C  0012               	return		;funcret
  7416   00425E                     __end_of_pad:
  7417                           	callstack 0
  7418                           
  7419 ;; *************** function _fputs *****************
  7420 ;; Defined at:
  7421 ;;		line 8 in file "/opt/microchip/xc8/v2.45/pic/sources/c99/common/nf_fputs.c"
  7422 ;; Parameters:    Size  Location     Type
  7423 ;;  s               2   11[BANK0 ] PTR const unsigned char 
  7424 ;;		 -> dbuf(80), 
  7425 ;;  fp              2   13[BANK0 ] PTR struct _IO_FILE
  7426 ;;		 -> NULL(0), 
  7427 ;; Auto vars:     Size  Location     Type
  7428 ;;  i               2   16[BANK0 ] int 
  7429 ;;  c               1   15[BANK0 ] unsigned char 
  7430 ;; Return value:  Size  Location     Type
  7431 ;;                  2   11[BANK0 ] int 
  7432 ;; Registers used:
  7433 ;;		wreg, fsr1l, fsr1h, fsr2l, fsr2h, status,2, status,0, cstack
  7434 ;; Tracked objects:
  7435 ;;		On entry : 0/0
  7436 ;;		On exit  : 0/0
  7437 ;;		Unchanged: 0/0
  7438 ;; Data sizes:     COMRAM   BANK0   BANK1   BANK2   BANK3   BANK4   BANK5   BANK6   BANK7   BANK8   BANK9  BANK10  BANK1
      +1  BANK12  BANK14
  7439 ;;      Params:         0       4       0       0       0       0       0       0       0       0       0       0       
      +0       0       0
  7440 ;;      Locals:         0       3       0       0       0       0       0       0       0       0       0       0       
      +0       0       0
  7441 ;;      Temps:          0       0       0       0       0       0       0       0       0       0       0       0       
      +0       0       0
  7442 ;;      Totals:         0       7       0       0       0       0       0       0       0       0       0       0       
      +0       0       0
  7443 ;;Total ram usage:        7 bytes
  7444 ;; Hardware stack levels used: 1
  7445 ;; Hardware stack levels required when called: 8
  7446 ;; This function calls:
  7447 ;;		_fputc
  7448 ;; This function is called by:
  7449 ;;		_pad
  7450 ;; This function uses a non-reentrant model
  7451 ;;
  7452                           
  7453                           	psect	text20
  7454   00443C                     __ptext20:
  7455                           	callstack 0
  7456   00443C                     _fputs:
  7457                           	callstack 17
  7458   00443C  0E00               	movlw	0
  7459   00443E  0100               	movlb	0	; () banked
  7460   004440  6F71               	movwf	(fputs@i+1)& (0+255),b
  7461   004442  0E00               	movlw	0
  7462   004444  6F70               	movwf	fputs@i& (0+255),b
  7463   004446  EF31  F022         	goto	l5509
  7464   00444A                     l5505:
  7465                           
  7466                           ; BSR set to: 0
  7467   00444A  C06F  F062         	movff	fputs@c,fputc@c
  7468   00444E  6B63               	clrf	(fputc@c+1)& (0+255),b
  7469   004450  C06D  F064         	movff	fputs@fp,fputc@fp
  7470   004454  C06E  F065         	movff	fputs@fp+1,fputc@fp+1
  7471   004458  EC9F  F01E         	call	_fputc	;wreg free
  7472   00445C  0100               	movlb	0	; () banked
  7473   00445E  4B70               	infsnz	fputs@i& (0+255),f,b
  7474   004460  2B71               	incf	(fputs@i+1)& (0+255),f,b
  7475   004462                     l5509:
  7476                           
  7477                           ; BSR set to: 0
  7478   004462  5170               	movf	fputs@i& (0+255),w,b
  7479   004464  256B               	addwf	fputs@s& (0+255),w,b
  7480   004466  6ED9               	movwf	fsr2l,c
  7481   004468  5171               	movf	(fputs@i+1)& (0+255),w,b
  7482   00446A  216C               	addwfc	(fputs@s+1)& (0+255),w,b
  7483   00446C  6EDA               	movwf	fsr2h,c
  7484   00446E  50DF               	movf	indf2,w,c
  7485   004470  6F6F               	movwf	fputs@c& (0+255),b
  7486   004472  516F               	movf	fputs@c& (0+255),w,b
  7487   004474  A4D8               	btfss	status,2,c
  7488   004476  EF3F  F022         	goto	u6191
  7489   00447A  EF41  F022         	goto	u6190
  7490   00447E                     u6191:
  7491   00447E  EF25  F022         	goto	l5505
  7492   004482                     u6190:
  7493   004482                     
  7494                           ; BSR set to: 0
  7495   004482  0012               	return		;funcret
  7496   004484                     __end_of_fputs:
  7497                           	callstack 0
  7498                           
  7499 ;; *************** function _fputc *****************
  7500 ;; Defined at:
  7501 ;;		line 8 in file "/opt/microchip/xc8/v2.45/pic/sources/c99/common/nf_fputc.c"
  7502 ;; Parameters:    Size  Location     Type
  7503 ;;  c               2    2[BANK0 ] int 
  7504 ;;  fp              2    4[BANK0 ] PTR struct _IO_FILE
  7505 ;;		 -> NULL(0), 
  7506 ;; Auto vars:     Size  Location     Type
  7507 ;;		None
  7508 ;; Return value:  Size  Location     Type
  7509 ;;                  2    2[BANK0 ] int 
  7510 ;; Registers used:
  7511 ;;		wreg, fsr1l, fsr1h, fsr2l, fsr2h, status,2, status,0, cstack
  7512 ;; Tracked objects:
  7513 ;;		On entry : 0/0
  7514 ;;		On exit  : 0/0
  7515 ;;		Unchanged: 0/0
  7516 ;; Data sizes:     COMRAM   BANK0   BANK1   BANK2   BANK3   BANK4   BANK5   BANK6   BANK7   BANK8   BANK9  BANK10  BANK1
      +1  BANK12  BANK14
  7517 ;;      Params:         0       4       0       0       0       0       0       0       0       0       0       0       
      +0       0       0
  7518 ;;      Locals:         0       0       0       0       0       0       0       0       0       0       0       0       
      +0       0       0
  7519 ;;      Temps:          0       5       0       0       0       0       0       0       0       0       0       0       
      +0       0       0
  7520 ;;      Totals:         0       9       0       0       0       0       0       0       0       0       0       0       
      +0       0       0
  7521 ;;Total ram usage:        9 bytes
  7522 ;; Hardware stack levels used: 1
  7523 ;; Hardware stack levels required when called: 7
  7524 ;; This function calls:
  7525 ;;		_putch
  7526 ;; This function is called by:
  7527 ;;		_pad
  7528 ;;		_vfpfcnvrt
  7529 ;;		_fputs
  7530 ;; This function uses a non-reentrant model
  7531 ;;
  7532                           
  7533                           	psect	text21
  7534   003D3E                     __ptext21:
  7535                           	callstack 0
  7536   003D3E                     _fputc:
  7537                           	callstack 20
  7538   003D3E  0100               	movlb	0	; () banked
  7539   003D40  5164               	movf	fputc@fp& (0+255),w,b
  7540   003D42  1165               	iorwf	(fputc@fp+1)& (0+255),w,b
  7541   003D44  B4D8               	btfsc	status,2,c
  7542   003D46  EFA7  F01E         	goto	u5761
  7543   003D4A  EFA9  F01E         	goto	u5760
  7544   003D4E                     u5761:
  7545   003D4E  EFB2  F01E         	goto	l5291
  7546   003D52                     u5760:
  7547   003D52                     
  7548                           ; BSR set to: 0
  7549   003D52  5164               	movf	fputc@fp& (0+255),w,b
  7550   003D54  1165               	iorwf	(fputc@fp+1)& (0+255),w,b
  7551   003D56  A4D8               	btfss	status,2,c
  7552   003D58  EFB0  F01E         	goto	u5771
  7553   003D5C  EFB2  F01E         	goto	u5770
  7554   003D60                     u5771:
  7555   003D60  EFB7  F01E         	goto	l5293
  7556   003D64                     u5770:
  7557   003D64                     l5291:
  7558                           
  7559                           ; BSR set to: 0
  7560   003D64  5162               	movf	fputc@c& (0+255),w,b
  7561   003D66  EC71  F023         	call	_putch
  7562   003D6A  EF04  F01F         	goto	l1325
  7563   003D6E                     l5293:
  7564                           
  7565                           ; BSR set to: 0
  7566   003D6E  EE20 F00A          	lfsr	2,10
  7567   003D72  5164               	movf	fputc@fp& (0+255),w,b
  7568   003D74  26D9               	addwf	fsr2l,f,c
  7569   003D76  5165               	movf	(fputc@fp+1)& (0+255),w,b
  7570   003D78  22DA               	addwfc	fsr2h,f,c
  7571   003D7A  50DE               	movf	postinc2,w,c
  7572   003D7C  10DE               	iorwf	postinc2,w,c
  7573   003D7E  B4D8               	btfsc	status,2,c
  7574   003D80  EFC4  F01E         	goto	u5781
  7575   003D84  EFC6  F01E         	goto	u5780
  7576   003D88                     u5781:
  7577   003D88  EFE1  F01E         	goto	l5297
  7578   003D8C                     u5780:
  7579   003D8C                     
  7580                           ; BSR set to: 0
  7581   003D8C  EE20 F00A          	lfsr	2,10
  7582   003D90  5164               	movf	fputc@fp& (0+255),w,b
  7583   003D92  26D9               	addwf	fsr2l,f,c
  7584   003D94  5165               	movf	(fputc@fp+1)& (0+255),w,b
  7585   003D96  22DA               	addwfc	fsr2h,f,c
  7586   003D98  EE10 F003          	lfsr	1,3
  7587   003D9C  5164               	movf	fputc@fp& (0+255),w,b
  7588   003D9E  26E1               	addwf	fsr1l,f,c
  7589   003DA0  5165               	movf	(fputc@fp+1)& (0+255),w,b
  7590   003DA2  22E2               	addwfc	fsr1h,f,c
  7591   003DA4  50DE               	movf	postinc2,w,c
  7592   003DA6  5CE6               	subwf	postinc1,w,c
  7593   003DA8  50E6               	movf	postinc1,w,c
  7594   003DAA  0A80               	xorlw	128
  7595   003DAC  6F6A               	movwf	(??_fputc+4)& (0+255),b
  7596   003DAE  50DE               	movf	postinc2,w,c
  7597   003DB0  0A80               	xorlw	128
  7598   003DB2  596A               	subwfb	(??_fputc+4)& (0+255),w,b
  7599   003DB4  B0D8               	btfsc	status,0,c
  7600   003DB6  EFDF  F01E         	goto	u5791
  7601   003DBA  EFE1  F01E         	goto	u5790
  7602   003DBE                     u5791:
  7603   003DBE  EF04  F01F         	goto	l1325
  7604   003DC2                     u5790:
  7605   003DC2                     l5297:
  7606                           
  7607                           ; BSR set to: 0
  7608   003DC2  EE20 F003          	lfsr	2,3
  7609   003DC6  5164               	movf	fputc@fp& (0+255),w,b
  7610   003DC8  26D9               	addwf	fsr2l,f,c
  7611   003DCA  5165               	movf	(fputc@fp+1)& (0+255),w,b
  7612   003DCC  22DA               	addwfc	fsr2h,f,c
  7613   003DCE  CFDE F066          	movff	postinc2,??_fputc
  7614   003DD2  CFDD F067          	movff	postdec2,??_fputc+1
  7615   003DD6  C064  FFD9         	movff	fputc@fp,fsr2l
  7616   003DDA  C065  FFDA         	movff	fputc@fp+1,fsr2h
  7617   003DDE  CFDE F068          	movff	postinc2,??_fputc+2
  7618   003DE2  CFDD F069          	movff	postdec2,??_fputc+3
  7619   003DE6  5166               	movf	??_fputc& (0+255),w,b
  7620   003DE8  2568               	addwf	(??_fputc+2)& (0+255),w,b
  7621   003DEA  6ED9               	movwf	fsr2l,c
  7622   003DEC  5167               	movf	(??_fputc+1)& (0+255),w,b
  7623   003DEE  2169               	addwfc	(??_fputc+3)& (0+255),w,b
  7624   003DF0  6EDA               	movwf	fsr2h,c
  7625   003DF2  C062  FFDF         	movff	fputc@c,indf2
  7626   003DF6  EE20 F003          	lfsr	2,3
  7627   003DFA  5164               	movf	fputc@fp& (0+255),w,b
  7628   003DFC  26D9               	addwf	fsr2l,f,c
  7629   003DFE  5165               	movf	(fputc@fp+1)& (0+255),w,b
  7630   003E00  22DA               	addwfc	fsr2h,f,c
  7631   003E02  2ADE               	incf	postinc2,f,c
  7632   003E04  0E00               	movlw	0
  7633   003E06  22DD               	addwfc	postdec2,f,c
  7634   003E08                     l1325:
  7635   003E08  0012               	return		;funcret
  7636   003E0A                     __end_of_fputc:
  7637                           	callstack 0
  7638                           
  7639 ;; *************** function _putch *****************
  7640 ;; Defined at:
  7641 ;;		line 146 in file "mcc_generated_files/eusart2.c"
  7642 ;; Parameters:    Size  Location     Type
  7643 ;;  txData          1    wreg     unsigned char 
  7644 ;; Auto vars:     Size  Location     Type
  7645 ;;  txData          1    1[BANK0 ] unsigned char 
  7646 ;; Return value:  Size  Location     Type
  7647 ;;                  1    wreg      void 
  7648 ;; Registers used:
  7649 ;;		wreg, status,2, cstack
  7650 ;; Tracked objects:
  7651 ;;		On entry : 0/0
  7652 ;;		On exit  : 0/0
  7653 ;;		Unchanged: 0/0
  7654 ;; Data sizes:     COMRAM   BANK0   BANK1   BANK2   BANK3   BANK4   BANK5   BANK6   BANK7   BANK8   BANK9  BANK10  BANK1
      +1  BANK12  BANK14
  7655 ;;      Params:         0       0       0       0       0       0       0       0       0       0       0       0       
      +0       0       0
  7656 ;;      Locals:         0       1       0       0       0       0       0       0       0       0       0       0       
      +0       0       0
  7657 ;;      Temps:          0       0       0       0       0       0       0       0       0       0       0       0       
      +0       0       0
  7658 ;;      Totals:         0       1       0       0       0       0       0       0       0       0       0       0       
      +0       0       0
  7659 ;;Total ram usage:        1 bytes
  7660 ;; Hardware stack levels used: 1
  7661 ;; Hardware stack levels required when called: 6
  7662 ;; This function calls:
  7663 ;;		_EUSART2_Write
  7664 ;; This function is called by:
  7665 ;;		_fputc
  7666 ;; This function uses a non-reentrant model
  7667 ;;
  7668                           
  7669                           	psect	text22
  7670   0046E2                     __ptext22:
  7671                           	callstack 0
  7672   0046E2                     _putch:
  7673                           	callstack 20
  7674                           
  7675                           ;incstack = 0
  7676                           ;putch@txData stored from wreg
  7677   0046E2  0100               	movlb	0	; () banked
  7678   0046E4  6F61               	movwf	putch@txData& (0+255),b
  7679   0046E6                     
  7680                           ;mcc_generated_files/eusart2.c: 146: void putch(char txData);mcc_generated_files/eusart2
      +                          .c: 147: {;mcc_generated_files/eusart2.c: 148:     EUSART2_Write(txData);
  7681   0046E6  0100               	movlb	0	; () banked
  7682   0046E8  5161               	movf	putch@txData& (0+255),w,b
  7683   0046EA  EC4B  F023         	call	_EUSART2_Write
  7684   0046EE  0012               	return		;funcret
  7685   0046F0                     __end_of_putch:
  7686                           	callstack 0
  7687                           
  7688 ;; *************** function _EUSART2_Write *****************
  7689 ;; Defined at:
  7690 ;;		line 132 in file "mcc_generated_files/eusart2.c"
  7691 ;; Parameters:    Size  Location     Type
  7692 ;;  txData          1    wreg     unsigned char 
  7693 ;; Auto vars:     Size  Location     Type
  7694 ;;  txData          1    0[BANK0 ] unsigned char 
  7695 ;; Return value:  Size  Location     Type
  7696 ;;                  1    wreg      void 
  7697 ;; Registers used:
  7698 ;;		wreg
  7699 ;; Tracked objects:
  7700 ;;		On entry : 0/0
  7701 ;;		On exit  : 0/0
  7702 ;;		Unchanged: 0/0
  7703 ;; Data sizes:     COMRAM   BANK0   BANK1   BANK2   BANK3   BANK4   BANK5   BANK6   BANK7   BANK8   BANK9  BANK10  BANK1
      +1  BANK12  BANK14
  7704 ;;      Params:         0       0       0       0       0       0       0       0       0       0       0       0       
      +0       0       0
  7705 ;;      Locals:         0       1       0       0       0       0       0       0       0       0       0       0       
      +0       0       0
  7706 ;;      Temps:          0       0       0       0       0       0       0       0       0       0       0       0       
      +0       0       0
  7707 ;;      Totals:         0       1       0       0       0       0       0       0       0       0       0       0       
      +0       0       0
  7708 ;;Total ram usage:        1 bytes
  7709 ;; Hardware stack levels used: 1
  7710 ;; Hardware stack levels required when called: 5
  7711 ;; This function calls:
  7712 ;;		Nothing
  7713 ;; This function is called by:
  7714 ;;		_putch
  7715 ;; This function uses a non-reentrant model
  7716 ;;
  7717                           
  7718                           	psect	text23
  7719   004696                     __ptext23:
  7720                           	callstack 0
  7721   004696                     _EUSART2_Write:
  7722                           	callstack 20
  7723                           
  7724                           ;incstack = 0
  7725                           ;EUSART2_Write@txData stored from wreg
  7726   004696  0100               	movlb	0	; () banked
  7727   004698  6F60               	movwf	EUSART2_Write@txData& (0+255),b
  7728   00469A                     l191:
  7729                           
  7730                           ;mcc_generated_files/eusart2.c: 134:     while(0 == PIR3bits.TX2IF)
  7731   00469A  010E               	movlb	14	; () banked
  7732   00469C  ADC8               	btfss	200,6,b	;volatile
  7733   00469E  EF53  F023         	goto	u5751
  7734   0046A2  EF55  F023         	goto	u5750
  7735   0046A6                     u5751:
  7736   0046A6  EF4D  F023         	goto	l191
  7737   0046AA                     u5750:
  7738   0046AA                     
  7739                           ; BSR set to: 14
  7740                           ;mcc_generated_files/eusart2.c: 138:     TX2REG = txData;
  7741   0046AA  C060  FE95         	movff	EUSART2_Write@txData,3733	;volatile
  7742   0046AE                     
  7743                           ; BSR set to: 14
  7744   0046AE  0012               	return		;funcret
  7745   0046B0                     __end_of_EUSART2_Write:
  7746                           	callstack 0
  7747                           
  7748 ;; *************** function _abs *****************
  7749 ;; Defined at:
  7750 ;;		line 1 in file "/opt/microchip/xc8/v2.45/pic/sources/c99/common/abs.c"
  7751 ;; Parameters:    Size  Location     Type
  7752 ;;  a               2    6[BANK0 ] int 
  7753 ;; Auto vars:     Size  Location     Type
  7754 ;;		None
  7755 ;; Return value:  Size  Location     Type
  7756 ;;                  2    6[BANK0 ] int 
  7757 ;; Registers used:
  7758 ;;		wreg, status,2, status,0
  7759 ;; Tracked objects:
  7760 ;;		On entry : 0/0
  7761 ;;		On exit  : 0/0
  7762 ;;		Unchanged: 0/0
  7763 ;; Data sizes:     COMRAM   BANK0   BANK1   BANK2   BANK3   BANK4   BANK5   BANK6   BANK7   BANK8   BANK9  BANK10  BANK1
      +1  BANK12  BANK14
  7764 ;;      Params:         0       2       0       0       0       0       0       0       0       0       0       0       
      +0       0       0
  7765 ;;      Locals:         0       0       0       0       0       0       0       0       0       0       0       0       
      +0       0       0
  7766 ;;      Temps:          0       2       0       0       0       0       0       0       0       0       0       0       
      +0       0       0
  7767 ;;      Totals:         0       4       0       0       0       0       0       0       0       0       0       0       
      +0       0       0
  7768 ;;Total ram usage:        4 bytes
  7769 ;; Hardware stack levels used: 1
  7770 ;; Hardware stack levels required when called: 5
  7771 ;; This function calls:
  7772 ;;		Nothing
  7773 ;; This function is called by:
  7774 ;;		_dtoa
  7775 ;; This function uses a non-reentrant model
  7776 ;;
  7777                           
  7778                           	psect	text24
  7779   0044FE                     __ptext24:
  7780                           	callstack 0
  7781   0044FE                     _abs:
  7782                           	callstack 21
  7783   0044FE  0100               	movlb	0	; () banked
  7784   004500  BF67               	btfsc	(abs@a+1)& (0+255),7,b
  7785   004502  EF85  F022         	goto	u6921
  7786   004506  EF87  F022         	goto	u6920
  7787   00450A                     u6921:
  7788   00450A  EF8D  F022         	goto	l1284
  7789   00450E                     u6920:
  7790   00450E                     
  7791                           ; BSR set to: 0
  7792   00450E  C066  F066         	movff	abs@a,?_abs
  7793   004512  C067  F067         	movff	abs@a+1,?_abs+1
  7794   004516  EF99  F022         	goto	l1287
  7795   00451A                     l1284:
  7796                           
  7797                           ; BSR set to: 0
  7798   00451A  C066  F068         	movff	abs@a,??_abs
  7799   00451E  C067  F069         	movff	abs@a+1,??_abs+1
  7800   004522  1F68               	comf	??_abs& (0+255),f,b
  7801   004524  1F69               	comf	(??_abs+1)& (0+255),f,b
  7802   004526  4B68               	infsnz	??_abs& (0+255),f,b
  7803   004528  2B69               	incf	(??_abs+1)& (0+255),f,b
  7804   00452A  C068  F066         	movff	??_abs,?_abs
  7805   00452E  C069  F067         	movff	??_abs+1,?_abs+1
  7806   004532                     l1287:
  7807                           
  7808                           ; BSR set to: 0
  7809   004532  0012               	return		;funcret
  7810   004534                     __end_of_abs:
  7811                           	callstack 0
  7812                           
  7813 ;; *************** function ___awmod *****************
  7814 ;; Defined at:
  7815 ;;		line 7 in file "/opt/microchip/xc8/v2.45/pic/sources/c99/common/awmod.c"
  7816 ;; Parameters:    Size  Location     Type
  7817 ;;  dividend        2    0[BANK0 ] int 
  7818 ;;  divisor         2    2[BANK0 ] int 
  7819 ;; Auto vars:     Size  Location     Type
  7820 ;;  sign            1    5[BANK0 ] unsigned char 
  7821 ;;  counter         1    4[BANK0 ] unsigned char 
  7822 ;; Return value:  Size  Location     Type
  7823 ;;                  2    0[BANK0 ] int 
  7824 ;; Registers used:
  7825 ;;		wreg, status,2, status,0
  7826 ;; Tracked objects:
  7827 ;;		On entry : 0/0
  7828 ;;		On exit  : 0/0
  7829 ;;		Unchanged: 0/0
  7830 ;; Data sizes:     COMRAM   BANK0   BANK1   BANK2   BANK3   BANK4   BANK5   BANK6   BANK7   BANK8   BANK9  BANK10  BANK1
      +1  BANK12  BANK14
  7831 ;;      Params:         0       4       0       0       0       0       0       0       0       0       0       0       
      +0       0       0
  7832 ;;      Locals:         0       2       0       0       0       0       0       0       0       0       0       0       
      +0       0       0
  7833 ;;      Temps:          0       0       0       0       0       0       0       0       0       0       0       0       
      +0       0       0
  7834 ;;      Totals:         0       6       0       0       0       0       0       0       0       0       0       0       
      +0       0       0
  7835 ;;Total ram usage:        6 bytes
  7836 ;; Hardware stack levels used: 1
  7837 ;; Hardware stack levels required when called: 5
  7838 ;; This function calls:
  7839 ;;		Nothing
  7840 ;; This function is called by:
  7841 ;;		_dtoa
  7842 ;; This function uses a non-reentrant model
  7843 ;;
  7844                           
  7845                           	psect	text25
  7846   003F8E                     __ptext25:
  7847                           	callstack 0
  7848   003F8E                     ___awmod:
  7849                           	callstack 21
  7850   003F8E  0E00               	movlw	0
  7851   003F90  0100               	movlb	0	; () banked
  7852   003F92  6F65               	movwf	___awmod@sign& (0+255),b
  7853   003F94                     
  7854                           ; BSR set to: 0
  7855   003F94  BF61               	btfsc	(___awmod@dividend+1)& (0+255),7,b
  7856   003F96  EFD1  F01F         	goto	u6680
  7857   003F9A  EFCF  F01F         	goto	u6681
  7858   003F9E                     u6681:
  7859   003F9E  EFD7  F01F         	goto	l5837
  7860   003FA2                     u6680:
  7861   003FA2                     
  7862                           ; BSR set to: 0
  7863   003FA2  6D60               	negf	___awmod@dividend& (0+255),b
  7864   003FA4  1F61               	comf	(___awmod@dividend+1)& (0+255),f,b
  7865   003FA6  B0D8               	btfsc	status,0,c
  7866   003FA8  2B61               	incf	(___awmod@dividend+1)& (0+255),f,b
  7867   003FAA                     
  7868                           ; BSR set to: 0
  7869   003FAA  0E01               	movlw	1
  7870   003FAC  6F65               	movwf	___awmod@sign& (0+255),b
  7871   003FAE                     l5837:
  7872                           
  7873                           ; BSR set to: 0
  7874   003FAE  BF63               	btfsc	(___awmod@divisor+1)& (0+255),7,b
  7875   003FB0  EFDE  F01F         	goto	u6690
  7876   003FB4  EFDC  F01F         	goto	u6691
  7877   003FB8                     u6691:
  7878   003FB8  EFE2  F01F         	goto	l5841
  7879   003FBC                     u6690:
  7880   003FBC                     
  7881                           ; BSR set to: 0
  7882   003FBC  6D62               	negf	___awmod@divisor& (0+255),b
  7883   003FBE  1F63               	comf	(___awmod@divisor+1)& (0+255),f,b
  7884   003FC0  B0D8               	btfsc	status,0,c
  7885   003FC2  2B63               	incf	(___awmod@divisor+1)& (0+255),f,b
  7886   003FC4                     l5841:
  7887                           
  7888                           ; BSR set to: 0
  7889   003FC4  5162               	movf	___awmod@divisor& (0+255),w,b
  7890   003FC6  1163               	iorwf	(___awmod@divisor+1)& (0+255),w,b
  7891   003FC8  B4D8               	btfsc	status,2,c
  7892   003FCA  EFE9  F01F         	goto	u6701
  7893   003FCE  EFEB  F01F         	goto	u6700
  7894   003FD2                     u6701:
  7895   003FD2  EF0F  F020         	goto	l5857
  7896   003FD6                     u6700:
  7897   003FD6                     
  7898                           ; BSR set to: 0
  7899   003FD6  0E01               	movlw	1
  7900   003FD8  6F64               	movwf	___awmod@counter& (0+255),b
  7901   003FDA  EFF3  F01F         	goto	l5847
  7902   003FDE                     l5845:
  7903                           
  7904                           ; BSR set to: 0
  7905   003FDE  90D8               	bcf	status,0,c
  7906   003FE0  3762               	rlcf	___awmod@divisor& (0+255),f,b
  7907   003FE2  3763               	rlcf	(___awmod@divisor+1)& (0+255),f,b
  7908   003FE4  2B64               	incf	___awmod@counter& (0+255),f,b
  7909   003FE6                     l5847:
  7910                           
  7911                           ; BSR set to: 0
  7912   003FE6  AF63               	btfss	(___awmod@divisor+1)& (0+255),7,b
  7913   003FE8  EFF8  F01F         	goto	u6711
  7914   003FEC  EFFA  F01F         	goto	u6710
  7915   003FF0                     u6711:
  7916   003FF0  EFEF  F01F         	goto	l5845
  7917   003FF4                     u6710:
  7918   003FF4                     l5849:
  7919                           
  7920                           ; BSR set to: 0
  7921   003FF4  5162               	movf	___awmod@divisor& (0+255),w,b
  7922   003FF6  5D60               	subwf	___awmod@dividend& (0+255),w,b
  7923   003FF8  5163               	movf	(___awmod@divisor+1)& (0+255),w,b
  7924   003FFA  5961               	subwfb	(___awmod@dividend+1)& (0+255),w,b
  7925   003FFC  A0D8               	btfss	status,0,c
  7926   003FFE  EF03  F020         	goto	u6721
  7927   004002  EF05  F020         	goto	u6720
  7928   004006                     u6721:
  7929   004006  EF09  F020         	goto	l5853
  7930   00400A                     u6720:
  7931   00400A                     
  7932                           ; BSR set to: 0
  7933   00400A  5162               	movf	___awmod@divisor& (0+255),w,b
  7934   00400C  5F60               	subwf	___awmod@dividend& (0+255),f,b
  7935   00400E  5163               	movf	(___awmod@divisor+1)& (0+255),w,b
  7936   004010  5B61               	subwfb	(___awmod@dividend+1)& (0+255),f,b
  7937   004012                     l5853:
  7938                           
  7939                           ; BSR set to: 0
  7940   004012  90D8               	bcf	status,0,c
  7941   004014  3363               	rrcf	(___awmod@divisor+1)& (0+255),f,b
  7942   004016  3362               	rrcf	___awmod@divisor& (0+255),f,b
  7943   004018                     
  7944                           ; BSR set to: 0
  7945   004018  2F64               	decfsz	___awmod@counter& (0+255),f,b
  7946   00401A  EFFA  F01F         	goto	l5849
  7947   00401E                     l5857:
  7948                           
  7949                           ; BSR set to: 0
  7950   00401E  5165               	movf	___awmod@sign& (0+255),w,b
  7951   004020  B4D8               	btfsc	status,2,c
  7952   004022  EF15  F020         	goto	u6731
  7953   004026  EF17  F020         	goto	u6730
  7954   00402A                     u6731:
  7955   00402A  EF1B  F020         	goto	l5861
  7956   00402E                     u6730:
  7957   00402E                     
  7958                           ; BSR set to: 0
  7959   00402E  6D60               	negf	___awmod@dividend& (0+255),b
  7960   004030  1F61               	comf	(___awmod@dividend+1)& (0+255),f,b
  7961   004032  B0D8               	btfsc	status,0,c
  7962   004034  2B61               	incf	(___awmod@dividend+1)& (0+255),f,b
  7963   004036                     l5861:
  7964                           
  7965                           ; BSR set to: 0
  7966   004036  C060  F060         	movff	___awmod@dividend,?___awmod
  7967   00403A  C061  F061         	movff	___awmod@dividend+1,?___awmod+1
  7968   00403E                     
  7969                           ; BSR set to: 0
  7970   00403E  0012               	return		;funcret
  7971   004040                     __end_of___awmod:
  7972                           	callstack 0
  7973                           
  7974 ;; *************** function ___awdiv *****************
  7975 ;; Defined at:
  7976 ;;		line 7 in file "/opt/microchip/xc8/v2.45/pic/sources/c99/common/awdiv.c"
  7977 ;; Parameters:    Size  Location     Type
  7978 ;;  dividend        2    0[BANK0 ] int 
  7979 ;;  divisor         2    2[BANK0 ] int 
  7980 ;; Auto vars:     Size  Location     Type
  7981 ;;  quotient        2    6[BANK0 ] int 
  7982 ;;  sign            1    5[BANK0 ] unsigned char 
  7983 ;;  counter         1    4[BANK0 ] unsigned char 
  7984 ;; Return value:  Size  Location     Type
  7985 ;;                  2    0[BANK0 ] int 
  7986 ;; Registers used:
  7987 ;;		wreg, status,2, status,0
  7988 ;; Tracked objects:
  7989 ;;		On entry : 0/0
  7990 ;;		On exit  : 0/0
  7991 ;;		Unchanged: 0/0
  7992 ;; Data sizes:     COMRAM   BANK0   BANK1   BANK2   BANK3   BANK4   BANK5   BANK6   BANK7   BANK8   BANK9  BANK10  BANK1
      +1  BANK12  BANK14
  7993 ;;      Params:         0       4       0       0       0       0       0       0       0       0       0       0       
      +0       0       0
  7994 ;;      Locals:         0       4       0       0       0       0       0       0       0       0       0       0       
      +0       0       0
  7995 ;;      Temps:          0       0       0       0       0       0       0       0       0       0       0       0       
      +0       0       0
  7996 ;;      Totals:         0       8       0       0       0       0       0       0       0       0       0       0       
      +0       0       0
  7997 ;;Total ram usage:        8 bytes
  7998 ;; Hardware stack levels used: 1
  7999 ;; Hardware stack levels required when called: 5
  8000 ;; This function calls:
  8001 ;;		Nothing
  8002 ;; This function is called by:
  8003 ;;		_dtoa
  8004 ;; This function uses a non-reentrant model
  8005 ;;
  8006                           
  8007                           	psect	text26
  8008   003E0A                     __ptext26:
  8009                           	callstack 0
  8010   003E0A                     ___awdiv:
  8011                           	callstack 21
  8012   003E0A  0E00               	movlw	0
  8013   003E0C  0100               	movlb	0	; () banked
  8014   003E0E  6F65               	movwf	___awdiv@sign& (0+255),b
  8015   003E10                     
  8016                           ; BSR set to: 0
  8017   003E10  BF63               	btfsc	(___awdiv@divisor+1)& (0+255),7,b
  8018   003E12  EF0F  F01F         	goto	u6620
  8019   003E16  EF0D  F01F         	goto	u6621
  8020   003E1A                     u6621:
  8021   003E1A  EF15  F01F         	goto	l5793
  8022   003E1E                     u6620:
  8023   003E1E                     
  8024                           ; BSR set to: 0
  8025   003E1E  6D62               	negf	___awdiv@divisor& (0+255),b
  8026   003E20  1F63               	comf	(___awdiv@divisor+1)& (0+255),f,b
  8027   003E22  B0D8               	btfsc	status,0,c
  8028   003E24  2B63               	incf	(___awdiv@divisor+1)& (0+255),f,b
  8029   003E26                     
  8030                           ; BSR set to: 0
  8031   003E26  0E01               	movlw	1
  8032   003E28  6F65               	movwf	___awdiv@sign& (0+255),b
  8033   003E2A                     l5793:
  8034                           
  8035                           ; BSR set to: 0
  8036   003E2A  BF61               	btfsc	(___awdiv@dividend+1)& (0+255),7,b
  8037   003E2C  EF1C  F01F         	goto	u6630
  8038   003E30  EF1A  F01F         	goto	u6631
  8039   003E34                     u6631:
  8040   003E34  EF22  F01F         	goto	l5799
  8041   003E38                     u6630:
  8042   003E38                     
  8043                           ; BSR set to: 0
  8044   003E38  6D60               	negf	___awdiv@dividend& (0+255),b
  8045   003E3A  1F61               	comf	(___awdiv@dividend+1)& (0+255),f,b
  8046   003E3C  B0D8               	btfsc	status,0,c
  8047   003E3E  2B61               	incf	(___awdiv@dividend+1)& (0+255),f,b
  8048   003E40                     
  8049                           ; BSR set to: 0
  8050   003E40  0E01               	movlw	1
  8051   003E42  1B65               	xorwf	___awdiv@sign& (0+255),f,b
  8052   003E44                     l5799:
  8053                           
  8054                           ; BSR set to: 0
  8055   003E44  0E00               	movlw	0
  8056   003E46  6F67               	movwf	(___awdiv@quotient+1)& (0+255),b
  8057   003E48  0E00               	movlw	0
  8058   003E4A  6F66               	movwf	___awdiv@quotient& (0+255),b
  8059   003E4C                     
  8060                           ; BSR set to: 0
  8061   003E4C  5162               	movf	___awdiv@divisor& (0+255),w,b
  8062   003E4E  1163               	iorwf	(___awdiv@divisor+1)& (0+255),w,b
  8063   003E50  B4D8               	btfsc	status,2,c
  8064   003E52  EF2D  F01F         	goto	u6641
  8065   003E56  EF2F  F01F         	goto	u6640
  8066   003E5A                     u6641:
  8067   003E5A  EF57  F01F         	goto	l5821
  8068   003E5E                     u6640:
  8069   003E5E                     
  8070                           ; BSR set to: 0
  8071   003E5E  0E01               	movlw	1
  8072   003E60  6F64               	movwf	___awdiv@counter& (0+255),b
  8073   003E62  EF37  F01F         	goto	l5807
  8074   003E66                     l5805:
  8075                           
  8076                           ; BSR set to: 0
  8077   003E66  90D8               	bcf	status,0,c
  8078   003E68  3762               	rlcf	___awdiv@divisor& (0+255),f,b
  8079   003E6A  3763               	rlcf	(___awdiv@divisor+1)& (0+255),f,b
  8080   003E6C  2B64               	incf	___awdiv@counter& (0+255),f,b
  8081   003E6E                     l5807:
  8082                           
  8083                           ; BSR set to: 0
  8084   003E6E  AF63               	btfss	(___awdiv@divisor+1)& (0+255),7,b
  8085   003E70  EF3C  F01F         	goto	u6651
  8086   003E74  EF3E  F01F         	goto	u6650
  8087   003E78                     u6651:
  8088   003E78  EF33  F01F         	goto	l5805
  8089   003E7C                     u6650:
  8090   003E7C                     l5809:
  8091                           
  8092                           ; BSR set to: 0
  8093   003E7C  90D8               	bcf	status,0,c
  8094   003E7E  3766               	rlcf	___awdiv@quotient& (0+255),f,b
  8095   003E80  3767               	rlcf	(___awdiv@quotient+1)& (0+255),f,b
  8096   003E82                     
  8097                           ; BSR set to: 0
  8098   003E82  5162               	movf	___awdiv@divisor& (0+255),w,b
  8099   003E84  5D60               	subwf	___awdiv@dividend& (0+255),w,b
  8100   003E86  5163               	movf	(___awdiv@divisor+1)& (0+255),w,b
  8101   003E88  5961               	subwfb	(___awdiv@dividend+1)& (0+255),w,b
  8102   003E8A  A0D8               	btfss	status,0,c
  8103   003E8C  EF4A  F01F         	goto	u6661
  8104   003E90  EF4C  F01F         	goto	u6660
  8105   003E94                     u6661:
  8106   003E94  EF51  F01F         	goto	l5817
  8107   003E98                     u6660:
  8108   003E98                     
  8109                           ; BSR set to: 0
  8110   003E98  5162               	movf	___awdiv@divisor& (0+255),w,b
  8111   003E9A  5F60               	subwf	___awdiv@dividend& (0+255),f,b
  8112   003E9C  5163               	movf	(___awdiv@divisor+1)& (0+255),w,b
  8113   003E9E  5B61               	subwfb	(___awdiv@dividend+1)& (0+255),f,b
  8114   003EA0                     
  8115                           ; BSR set to: 0
  8116   003EA0  8166               	bsf	___awdiv@quotient& (0+255),0,b
  8117   003EA2                     l5817:
  8118                           
  8119                           ; BSR set to: 0
  8120   003EA2  90D8               	bcf	status,0,c
  8121   003EA4  3363               	rrcf	(___awdiv@divisor+1)& (0+255),f,b
  8122   003EA6  3362               	rrcf	___awdiv@divisor& (0+255),f,b
  8123   003EA8                     
  8124                           ; BSR set to: 0
  8125   003EA8  2F64               	decfsz	___awdiv@counter& (0+255),f,b
  8126   003EAA  EF3E  F01F         	goto	l5809
  8127   003EAE                     l5821:
  8128                           
  8129                           ; BSR set to: 0
  8130   003EAE  5165               	movf	___awdiv@sign& (0+255),w,b
  8131   003EB0  B4D8               	btfsc	status,2,c
  8132   003EB2  EF5D  F01F         	goto	u6671
  8133   003EB6  EF5F  F01F         	goto	u6670
  8134   003EBA                     u6671:
  8135   003EBA  EF63  F01F         	goto	l5825
  8136   003EBE                     u6670:
  8137   003EBE                     
  8138                           ; BSR set to: 0
  8139   003EBE  6D66               	negf	___awdiv@quotient& (0+255),b
  8140   003EC0  1F67               	comf	(___awdiv@quotient+1)& (0+255),f,b
  8141   003EC2  B0D8               	btfsc	status,0,c
  8142   003EC4  2B67               	incf	(___awdiv@quotient+1)& (0+255),f,b
  8143   003EC6                     l5825:
  8144                           
  8145                           ; BSR set to: 0
  8146   003EC6  C066  F060         	movff	___awdiv@quotient,?___awdiv
  8147   003ECA  C067  F061         	movff	___awdiv@quotient+1,?___awdiv+1
  8148   003ECE                     
  8149                           ; BSR set to: 0
  8150   003ECE  0012               	return		;funcret
  8151   003ED0                     __end_of___awdiv:
  8152                           	callstack 0
  8153                           
  8154 ;; *************** function ___xxtofl *****************
  8155 ;; Defined at:
  8156 ;;		line 10 in file "/opt/microchip/xc8/v2.45/pic/sources/c99/common/xxtofl.c"
  8157 ;; Parameters:    Size  Location     Type
  8158 ;;  sign            1    wreg     unsigned char 
  8159 ;;  val             4    0[BANK0 ] long 
  8160 ;; Auto vars:     Size  Location     Type
  8161 ;;  sign            1    8[BANK0 ] unsigned char 
  8162 ;;  arg             4   10[BANK0 ] unsigned long 
  8163 ;;  exp             1    9[BANK0 ] unsigned char 
  8164 ;; Return value:  Size  Location     Type
  8165 ;;                  4    0[BANK0 ] unsigned char 
  8166 ;; Registers used:
  8167 ;;		wreg, status,2, status,0
  8168 ;; Tracked objects:
  8169 ;;		On entry : 0/0
  8170 ;;		On exit  : 0/0
  8171 ;;		Unchanged: 0/0
  8172 ;; Data sizes:     COMRAM   BANK0   BANK1   BANK2   BANK3   BANK4   BANK5   BANK6   BANK7   BANK8   BANK9  BANK10  BANK1
      +1  BANK12  BANK14
  8173 ;;      Params:         0       4       0       0       0       0       0       0       0       0       0       0       
      +0       0       0
  8174 ;;      Locals:         0       6       0       0       0       0       0       0       0       0       0       0       
      +0       0       0
  8175 ;;      Temps:          0       4       0       0       0       0       0       0       0       0       0       0       
      +0       0       0
  8176 ;;      Totals:         0      14       0       0       0       0       0       0       0       0       0       0       
      +0       0       0
  8177 ;;Total ram usage:       14 bytes
  8178 ;; Hardware stack levels used: 1
  8179 ;; Hardware stack levels required when called: 5
  8180 ;; This function calls:
  8181 ;;		Nothing
  8182 ;; This function is called by:
  8183 ;;		_main
  8184 ;; This function uses a non-reentrant model
  8185 ;;
  8186                           
  8187                           	psect	text27
  8188   0033CA                     __ptext27:
  8189                           	callstack 0
  8190   0033CA                     ___xxtofl:
  8191                           	callstack 25
  8192                           
  8193                           ; BSR set to: 0
  8194                           ;incstack = 0
  8195                           ;___xxtofl@sign stored from wreg
  8196   0033CA  0100               	movlb	0	; () banked
  8197   0033CC  6F68               	movwf	___xxtofl@sign& (0+255),b
  8198   0033CE  0100               	movlb	0	; () banked
  8199   0033D0  5168               	movf	___xxtofl@sign& (0+255),w,b
  8200   0033D2  B4D8               	btfsc	status,2,c
  8201   0033D4  EFEE  F019         	goto	u7611
  8202   0033D8  EFF0  F019         	goto	u7610
  8203   0033DC                     u7611:
  8204   0033DC  EF12  F01A         	goto	l1097
  8205   0033E0                     u7610:
  8206   0033E0                     
  8207                           ; BSR set to: 0
  8208   0033E0  BF63               	btfsc	(___xxtofl@val+3)& (0+255),7,b
  8209   0033E2  EFF7  F019         	goto	u7620
  8210   0033E6  EFF5  F019         	goto	u7621
  8211   0033EA                     u7621:
  8212   0033EA  EF12  F01A         	goto	l1097
  8213   0033EE                     u7620:
  8214   0033EE                     
  8215                           ; BSR set to: 0
  8216   0033EE  C060  F064         	movff	___xxtofl@val,??___xxtofl
  8217   0033F2  C061  F065         	movff	___xxtofl@val+1,??___xxtofl+1
  8218   0033F6  C062  F066         	movff	___xxtofl@val+2,??___xxtofl+2
  8219   0033FA  C063  F067         	movff	___xxtofl@val+3,??___xxtofl+3
  8220   0033FE  1F64               	comf	??___xxtofl& (0+255),f,b
  8221   003400  1F65               	comf	(??___xxtofl+1)& (0+255),f,b
  8222   003402  1F66               	comf	(??___xxtofl+2)& (0+255),f,b
  8223   003404  1F67               	comf	(??___xxtofl+3)& (0+255),f,b
  8224   003406  2B64               	incf	??___xxtofl& (0+255),f,b
  8225   003408  0E00               	movlw	0
  8226   00340A  2365               	addwfc	(??___xxtofl+1)& (0+255),f,b
  8227   00340C  2366               	addwfc	(??___xxtofl+2)& (0+255),f,b
  8228   00340E  2367               	addwfc	(??___xxtofl+3)& (0+255),f,b
  8229   003410  C064  F06A         	movff	??___xxtofl,___xxtofl@arg
  8230   003414  C065  F06B         	movff	??___xxtofl+1,___xxtofl@arg+1
  8231   003418  C066  F06C         	movff	??___xxtofl+2,___xxtofl@arg+2
  8232   00341C  C067  F06D         	movff	??___xxtofl+3,___xxtofl@arg+3
  8233   003420  EF1A  F01A         	goto	l6557
  8234   003424                     l1097:
  8235                           
  8236                           ; BSR set to: 0
  8237   003424  C060  F06A         	movff	___xxtofl@val,___xxtofl@arg
  8238   003428  C061  F06B         	movff	___xxtofl@val+1,___xxtofl@arg+1
  8239   00342C  C062  F06C         	movff	___xxtofl@val+2,___xxtofl@arg+2
  8240   003430  C063  F06D         	movff	___xxtofl@val+3,___xxtofl@arg+3
  8241   003434                     l6557:
  8242                           
  8243                           ; BSR set to: 0
  8244   003434  5160               	movf	___xxtofl@val& (0+255),w,b
  8245   003436  1161               	iorwf	(___xxtofl@val+1)& (0+255),w,b
  8246   003438  1162               	iorwf	(___xxtofl@val+2)& (0+255),w,b
  8247   00343A  1163               	iorwf	(___xxtofl@val+3)& (0+255),w,b
  8248   00343C  A4D8               	btfss	status,2,c
  8249   00343E  EF23  F01A         	goto	u7631
  8250   003442  EF25  F01A         	goto	u7630
  8251   003446                     u7631:
  8252   003446  EF2F  F01A         	goto	l6563
  8253   00344A                     u7630:
  8254   00344A                     
  8255                           ; BSR set to: 0
  8256   00344A  0E00               	movlw	0
  8257   00344C  6F60               	movwf	?___xxtofl& (0+255),b
  8258   00344E  0E00               	movlw	0
  8259   003450  6F61               	movwf	(?___xxtofl+1)& (0+255),b
  8260   003452  0E00               	movlw	0
  8261   003454  6F62               	movwf	(?___xxtofl+2)& (0+255),b
  8262   003456  0E00               	movlw	0
  8263   003458  6F63               	movwf	(?___xxtofl+3)& (0+255),b
  8264   00345A  EFC0  F01A         	goto	l1100
  8265   00345E                     l6563:
  8266                           
  8267                           ; BSR set to: 0
  8268   00345E  0E96               	movlw	150
  8269   003460  6F69               	movwf	___xxtofl@exp& (0+255),b
  8270   003462  EF39  F01A         	goto	l6567
  8271   003466                     l6565:
  8272                           
  8273                           ; BSR set to: 0
  8274   003466  2B69               	incf	___xxtofl@exp& (0+255),f,b
  8275   003468  90D8               	bcf	status,0,c
  8276   00346A  336D               	rrcf	(___xxtofl@arg+3)& (0+255),f,b
  8277   00346C  336C               	rrcf	(___xxtofl@arg+2)& (0+255),f,b
  8278   00346E  336B               	rrcf	(___xxtofl@arg+1)& (0+255),f,b
  8279   003470  336A               	rrcf	___xxtofl@arg& (0+255),f,b
  8280   003472                     l6567:
  8281                           
  8282                           ; BSR set to: 0
  8283   003472  0E00               	movlw	0
  8284   003474  156A               	andwf	___xxtofl@arg& (0+255),w,b
  8285   003476  6F64               	movwf	??___xxtofl& (0+255),b
  8286   003478  0E00               	movlw	0
  8287   00347A  156B               	andwf	(___xxtofl@arg+1)& (0+255),w,b
  8288   00347C  6F65               	movwf	(??___xxtofl+1)& (0+255),b
  8289   00347E  0E00               	movlw	0
  8290   003480  156C               	andwf	(___xxtofl@arg+2)& (0+255),w,b
  8291   003482  6F66               	movwf	(??___xxtofl+2)& (0+255),b
  8292   003484  0EFE               	movlw	254
  8293   003486  156D               	andwf	(___xxtofl@arg+3)& (0+255),w,b
  8294   003488  6F67               	movwf	(??___xxtofl+3)& (0+255),b
  8295   00348A  5164               	movf	??___xxtofl& (0+255),w,b
  8296   00348C  1165               	iorwf	(??___xxtofl+1)& (0+255),w,b
  8297   00348E  1166               	iorwf	(??___xxtofl+2)& (0+255),w,b
  8298   003490  1167               	iorwf	(??___xxtofl+3)& (0+255),w,b
  8299   003492  A4D8               	btfss	status,2,c
  8300   003494  EF4E  F01A         	goto	u7641
  8301   003498  EF50  F01A         	goto	u7640
  8302   00349C                     u7641:
  8303   00349C  EF33  F01A         	goto	l6565
  8304   0034A0                     u7640:
  8305   0034A0  EF5E  F01A         	goto	l1104
  8306   0034A4                     l6569:
  8307                           
  8308                           ; BSR set to: 0
  8309   0034A4  2B69               	incf	___xxtofl@exp& (0+255),f,b
  8310   0034A6                     
  8311                           ; BSR set to: 0
  8312   0034A6  0E01               	movlw	1
  8313   0034A8  276A               	addwf	___xxtofl@arg& (0+255),f,b
  8314   0034AA  0E00               	movlw	0
  8315   0034AC  236B               	addwfc	(___xxtofl@arg+1)& (0+255),f,b
  8316   0034AE  236C               	addwfc	(___xxtofl@arg+2)& (0+255),f,b
  8317   0034B0  236D               	addwfc	(___xxtofl@arg+3)& (0+255),f,b
  8318   0034B2                     
  8319                           ; BSR set to: 0
  8320   0034B2  90D8               	bcf	status,0,c
  8321   0034B4  336D               	rrcf	(___xxtofl@arg+3)& (0+255),f,b
  8322   0034B6  336C               	rrcf	(___xxtofl@arg+2)& (0+255),f,b
  8323   0034B8  336B               	rrcf	(___xxtofl@arg+1)& (0+255),f,b
  8324   0034BA  336A               	rrcf	___xxtofl@arg& (0+255),f,b
  8325   0034BC                     l1104:
  8326                           
  8327                           ; BSR set to: 0
  8328   0034BC  0E00               	movlw	0
  8329   0034BE  156A               	andwf	___xxtofl@arg& (0+255),w,b
  8330   0034C0  6F64               	movwf	??___xxtofl& (0+255),b
  8331   0034C2  0E00               	movlw	0
  8332   0034C4  156B               	andwf	(___xxtofl@arg+1)& (0+255),w,b
  8333   0034C6  6F65               	movwf	(??___xxtofl+1)& (0+255),b
  8334   0034C8  0E00               	movlw	0
  8335   0034CA  156C               	andwf	(___xxtofl@arg+2)& (0+255),w,b
  8336   0034CC  6F66               	movwf	(??___xxtofl+2)& (0+255),b
  8337   0034CE  0EFF               	movlw	255
  8338   0034D0  156D               	andwf	(___xxtofl@arg+3)& (0+255),w,b
  8339   0034D2  6F67               	movwf	(??___xxtofl+3)& (0+255),b
  8340   0034D4  5164               	movf	??___xxtofl& (0+255),w,b
  8341   0034D6  1165               	iorwf	(??___xxtofl+1)& (0+255),w,b
  8342   0034D8  1166               	iorwf	(??___xxtofl+2)& (0+255),w,b
  8343   0034DA  1167               	iorwf	(??___xxtofl+3)& (0+255),w,b
  8344   0034DC  A4D8               	btfss	status,2,c
  8345   0034DE  EF73  F01A         	goto	u7651
  8346   0034E2  EF75  F01A         	goto	u7650
  8347   0034E6                     u7651:
  8348   0034E6  EF52  F01A         	goto	l6569
  8349   0034EA                     u7650:
  8350   0034EA  EF7D  F01A         	goto	l6577
  8351   0034EE                     l6575:
  8352                           
  8353                           ; BSR set to: 0
  8354   0034EE  0769               	decf	___xxtofl@exp& (0+255),f,b
  8355   0034F0  90D8               	bcf	status,0,c
  8356   0034F2  376A               	rlcf	___xxtofl@arg& (0+255),f,b
  8357   0034F4  376B               	rlcf	(___xxtofl@arg+1)& (0+255),f,b
  8358   0034F6  376C               	rlcf	(___xxtofl@arg+2)& (0+255),f,b
  8359   0034F8  376D               	rlcf	(___xxtofl@arg+3)& (0+255),f,b
  8360   0034FA                     l6577:
  8361                           
  8362                           ; BSR set to: 0
  8363   0034FA  BF6C               	btfsc	(___xxtofl@arg+2)& (0+255),7,b
  8364   0034FC  EF82  F01A         	goto	u7661
  8365   003500  EF84  F01A         	goto	u7660
  8366   003504                     u7661:
  8367   003504  EF8C  F01A         	goto	l1111
  8368   003508                     u7660:
  8369   003508                     
  8370                           ; BSR set to: 0
  8371   003508  0E02               	movlw	2
  8372   00350A  6169               	cpfslt	___xxtofl@exp& (0+255),b
  8373   00350C  EF8A  F01A         	goto	u7671
  8374   003510  EF8C  F01A         	goto	u7670
  8375   003514                     u7671:
  8376   003514  EF77  F01A         	goto	l6575
  8377   003518                     u7670:
  8378   003518                     l1111:
  8379                           
  8380                           ; BSR set to: 0
  8381   003518  B169               	btfsc	___xxtofl@exp& (0+255),0,b
  8382   00351A  EF91  F01A         	goto	u7681
  8383   00351E  EF93  F01A         	goto	u7680
  8384   003522                     u7681:
  8385   003522  EF94  F01A         	goto	l6583
  8386   003526                     u7680:
  8387   003526                     
  8388                           ; BSR set to: 0
  8389   003526  9F6C               	bcf	(___xxtofl@arg+2)& (0+255),7,b
  8390   003528                     l6583:
  8391                           
  8392                           ; BSR set to: 0
  8393   003528  90D8               	bcf	status,0,c
  8394   00352A  3369               	rrcf	___xxtofl@exp& (0+255),f,b
  8395   00352C                     
  8396                           ; BSR set to: 0
  8397   00352C  C069  F064         	movff	___xxtofl@exp,??___xxtofl
  8398   003530  6B65               	clrf	(??___xxtofl+1)& (0+255),b
  8399   003532  6B66               	clrf	(??___xxtofl+2)& (0+255),b
  8400   003534  6B67               	clrf	(??___xxtofl+3)& (0+255),b
  8401   003536  C064  F067         	movff	??___xxtofl,??___xxtofl+3
  8402   00353A  6B66               	clrf	(??___xxtofl+2)& (0+255),b
  8403   00353C  6B65               	clrf	(??___xxtofl+1)& (0+255),b
  8404   00353E  6B64               	clrf	??___xxtofl& (0+255),b
  8405   003540  5164               	movf	??___xxtofl& (0+255),w,b
  8406   003542  136A               	iorwf	___xxtofl@arg& (0+255),f,b
  8407   003544  5165               	movf	(??___xxtofl+1)& (0+255),w,b
  8408   003546  136B               	iorwf	(___xxtofl@arg+1)& (0+255),f,b
  8409   003548  5166               	movf	(??___xxtofl+2)& (0+255),w,b
  8410   00354A  136C               	iorwf	(___xxtofl@arg+2)& (0+255),f,b
  8411   00354C  5167               	movf	(??___xxtofl+3)& (0+255),w,b
  8412   00354E  136D               	iorwf	(___xxtofl@arg+3)& (0+255),f,b
  8413   003550                     
  8414                           ; BSR set to: 0
  8415   003550  5168               	movf	___xxtofl@sign& (0+255),w,b
  8416   003552  B4D8               	btfsc	status,2,c
  8417   003554  EFAE  F01A         	goto	u7691
  8418   003558  EFB0  F01A         	goto	u7690
  8419   00355C                     u7691:
  8420   00355C  EFB8  F01A         	goto	l6593
  8421   003560                     u7690:
  8422   003560                     
  8423                           ; BSR set to: 0
  8424   003560  BF63               	btfsc	(___xxtofl@val+3)& (0+255),7,b
  8425   003562  EFB7  F01A         	goto	u7700
  8426   003566  EFB5  F01A         	goto	u7701
  8427   00356A                     u7701:
  8428   00356A  EFB8  F01A         	goto	l6593
  8429   00356E                     u7700:
  8430   00356E                     
  8431                           ; BSR set to: 0
  8432   00356E  8F6D               	bsf	(___xxtofl@arg+3)& (0+255),7,b
  8433   003570                     l6593:
  8434                           
  8435                           ; BSR set to: 0
  8436   003570  C06A  F060         	movff	___xxtofl@arg,?___xxtofl
  8437   003574  C06B  F061         	movff	___xxtofl@arg+1,?___xxtofl+1
  8438   003578  C06C  F062         	movff	___xxtofl@arg+2,?___xxtofl+2
  8439   00357C  C06D  F063         	movff	___xxtofl@arg+3,?___xxtofl+3
  8440   003580                     l1100:
  8441                           
  8442                           ; BSR set to: 0
  8443   003580  0012               	return		;funcret
  8444   003582                     __end_of___xxtofl:
  8445                           	callstack 0
  8446                           
  8447 ;; *************** function _TMR2_StartTimer *****************
  8448 ;; Defined at:
  8449 ;;		line 114 in file "mcc_generated_files/tmr2.c"
  8450 ;; Parameters:    Size  Location     Type
  8451 ;;		None
  8452 ;; Auto vars:     Size  Location     Type
  8453 ;;		None
  8454 ;; Return value:  Size  Location     Type
  8455 ;;                  1    wreg      void 
  8456 ;; Registers used:
  8457 ;;		cstack
  8458 ;; Tracked objects:
  8459 ;;		On entry : 0/0
  8460 ;;		On exit  : 0/0
  8461 ;;		Unchanged: 0/0
  8462 ;; Data sizes:     COMRAM   BANK0   BANK1   BANK2   BANK3   BANK4   BANK5   BANK6   BANK7   BANK8   BANK9  BANK10  BANK1
      +1  BANK12  BANK14
  8463 ;;      Params:         0       0       0       0       0       0       0       0       0       0       0       0       
      +0       0       0
  8464 ;;      Locals:         0       0       0       0       0       0       0       0       0       0       0       0       
      +0       0       0
  8465 ;;      Temps:          0       0       0       0       0       0       0       0       0       0       0       0       
      +0       0       0
  8466 ;;      Totals:         0       0       0       0       0       0       0       0       0       0       0       0       
      +0       0       0
  8467 ;;Total ram usage:        0 bytes
  8468 ;; Hardware stack levels used: 1
  8469 ;; Hardware stack levels required when called: 6
  8470 ;; This function calls:
  8471 ;;		_TMR2_Start
  8472 ;; This function is called by:
  8473 ;;		_main
  8474 ;; This function uses a non-reentrant model
  8475 ;;
  8476                           
  8477                           	psect	text28
  8478   00474C                     __ptext28:
  8479                           	callstack 0
  8480   00474C                     _TMR2_StartTimer:
  8481                           	callstack 24
  8482   00474C                     
  8483                           ;mcc_generated_files/tmr2.c: 116:     TMR2_Start();
  8484   00474C  ECA9  F023         	call	_TMR2_Start	;wreg free
  8485   004750  0012               	return		;funcret
  8486   004752                     __end_of_TMR2_StartTimer:
  8487                           	callstack 0
  8488                           
  8489 ;; *************** function _TMR2_Start *****************
  8490 ;; Defined at:
  8491 ;;		line 108 in file "mcc_generated_files/tmr2.c"
  8492 ;; Parameters:    Size  Location     Type
  8493 ;;		None
  8494 ;; Auto vars:     Size  Location     Type
  8495 ;;		None
  8496 ;; Return value:  Size  Location     Type
  8497 ;;                  1    wreg      void 
  8498 ;; Registers used:
  8499 ;;		None
  8500 ;; Tracked objects:
  8501 ;;		On entry : 0/0
  8502 ;;		On exit  : 0/0
  8503 ;;		Unchanged: 0/0
  8504 ;; Data sizes:     COMRAM   BANK0   BANK1   BANK2   BANK3   BANK4   BANK5   BANK6   BANK7   BANK8   BANK9  BANK10  BANK1
      +1  BANK12  BANK14
  8505 ;;      Params:         0       0       0       0       0       0       0       0       0       0       0       0       
      +0       0       0
  8506 ;;      Locals:         0       0       0       0       0       0       0       0       0       0       0       0       
      +0       0       0
  8507 ;;      Temps:          0       0       0       0       0       0       0       0       0       0       0       0       
      +0       0       0
  8508 ;;      Totals:         0       0       0       0       0       0       0       0       0       0       0       0       
      +0       0       0
  8509 ;;Total ram usage:        0 bytes
  8510 ;; Hardware stack levels used: 1
  8511 ;; Hardware stack levels required when called: 5
  8512 ;; This function calls:
  8513 ;;		Nothing
  8514 ;; This function is called by:
  8515 ;;		_TMR2_StartTimer
  8516 ;; This function uses a non-reentrant model
  8517 ;;
  8518                           
  8519                           	psect	text29
  8520   004752                     __ptext29:
  8521                           	callstack 0
  8522   004752                     _TMR2_Start:
  8523                           	callstack 24
  8524   004752                     
  8525                           ;mcc_generated_files/tmr2.c: 111:     T2CONbits.TMR2ON = 1;
  8526   004752  8EBC               	bsf	188,7,c	;volatile
  8527   004754  0012               	return		;funcret
  8528   004756                     __end_of_TMR2_Start:
  8529                           	callstack 0
  8530                           
  8531 ;; *************** function _SYSTEM_Initialize *****************
  8532 ;; Defined at:
  8533 ;;		line 50 in file "mcc_generated_files/mcc.c"
  8534 ;; Parameters:    Size  Location     Type
  8535 ;;		None
  8536 ;; Auto vars:     Size  Location     Type
  8537 ;;		None
  8538 ;; Return value:  Size  Location     Type
  8539 ;;                  1    wreg      void 
  8540 ;; Registers used:
  8541 ;;		wreg, status,2, status,0, cstack
  8542 ;; Tracked objects:
  8543 ;;		On entry : 0/0
  8544 ;;		On exit  : 0/0
  8545 ;;		Unchanged: 0/0
  8546 ;; Data sizes:     COMRAM   BANK0   BANK1   BANK2   BANK3   BANK4   BANK5   BANK6   BANK7   BANK8   BANK9  BANK10  BANK1
      +1  BANK12  BANK14
  8547 ;;      Params:         0       0       0       0       0       0       0       0       0       0       0       0       
      +0       0       0
  8548 ;;      Locals:         0       0       0       0       0       0       0       0       0       0       0       0       
      +0       0       0
  8549 ;;      Temps:          0       0       0       0       0       0       0       0       0       0       0       0       
      +0       0       0
  8550 ;;      Totals:         0       0       0       0       0       0       0       0       0       0       0       0       
      +0       0       0
  8551 ;;Total ram usage:        0 bytes
  8552 ;; Hardware stack levels used: 1
  8553 ;; Hardware stack levels required when called: 7
  8554 ;; This function calls:
  8555 ;;		_EUSART2_Initialize
  8556 ;;		_INTERRUPT_Initialize
  8557 ;;		_OSCILLATOR_Initialize
  8558 ;;		_PIN_MANAGER_Initialize
  8559 ;;		_PMD_Initialize
  8560 ;;		_TMR2_Initialize
  8561 ;; This function is called by:
  8562 ;;		_main
  8563 ;; This function uses a non-reentrant model
  8564 ;;
  8565                           
  8566                           	psect	text30
  8567   0046B0                     __ptext30:
  8568                           	callstack 0
  8569   0046B0                     _SYSTEM_Initialize:
  8570                           	callstack 23
  8571   0046B0                     
  8572                           ;mcc_generated_files/mcc.c: 52:     INTERRUPT_Initialize();
  8573   0046B0  ECAB  F023         	call	_INTERRUPT_Initialize	;wreg free
  8574   0046B4                     
  8575                           ;mcc_generated_files/mcc.c: 53:     PMD_Initialize();
  8576   0046B4  EC3D  F023         	call	_PMD_Initialize	;wreg free
  8577   0046B8                     
  8578                           ;mcc_generated_files/mcc.c: 54:     PIN_MANAGER_Initialize();
  8579   0046B8  EC68  F01F         	call	_PIN_MANAGER_Initialize	;wreg free
  8580   0046BC                     
  8581                           ;mcc_generated_files/mcc.c: 55:     OSCILLATOR_Initialize();
  8582   0046BC  EC65  F023         	call	_OSCILLATOR_Initialize	;wreg free
  8583   0046C0                     
  8584                           ;mcc_generated_files/mcc.c: 56:     TMR2_Initialize();
  8585   0046C0  ECE9  F022         	call	_TMR2_Initialize	;wreg free
  8586   0046C4                     
  8587                           ;mcc_generated_files/mcc.c: 57:     EUSART2_Initialize();
  8588   0046C4  EC5B  F021         	call	_EUSART2_Initialize	;wreg free
  8589   0046C8  0012               	return		;funcret
  8590   0046CA                     __end_of_SYSTEM_Initialize:
  8591                           	callstack 0
  8592                           
  8593 ;; *************** function _TMR2_Initialize *****************
  8594 ;; Defined at:
  8595 ;;		line 64 in file "mcc_generated_files/tmr2.c"
  8596 ;; Parameters:    Size  Location     Type
  8597 ;;		None
  8598 ;; Auto vars:     Size  Location     Type
  8599 ;;		None
  8600 ;; Return value:  Size  Location     Type
  8601 ;;                  1    wreg      void 
  8602 ;; Registers used:
  8603 ;;		wreg, status,2, status,0, cstack
  8604 ;; Tracked objects:
  8605 ;;		On entry : 0/0
  8606 ;;		On exit  : 0/0
  8607 ;;		Unchanged: 0/0
  8608 ;; Data sizes:     COMRAM   BANK0   BANK1   BANK2   BANK3   BANK4   BANK5   BANK6   BANK7   BANK8   BANK9  BANK10  BANK1
      +1  BANK12  BANK14
  8609 ;;      Params:         0       0       0       0       0       0       0       0       0       0       0       0       
      +0       0       0
  8610 ;;      Locals:         0       0       0       0       0       0       0       0       0       0       0       0       
      +0       0       0
  8611 ;;      Temps:          0       0       0       0       0       0       0       0       0       0       0       0       
      +0       0       0
  8612 ;;      Totals:         0       0       0       0       0       0       0       0       0       0       0       0       
      +0       0       0
  8613 ;;Total ram usage:        0 bytes
  8614 ;; Hardware stack levels used: 1
  8615 ;; Hardware stack levels required when called: 6
  8616 ;; This function calls:
  8617 ;;		_TMR2_SetInterruptHandler
  8618 ;; This function is called by:
  8619 ;;		_SYSTEM_Initialize
  8620 ;; This function uses a non-reentrant model
  8621 ;;
  8622                           
  8623                           	psect	text31
  8624   0045D2                     __ptext31:
  8625                           	callstack 0
  8626   0045D2                     _TMR2_Initialize:
  8627                           	callstack 23
  8628   0045D2                     
  8629                           ;mcc_generated_files/tmr2.c: 69:     T2CLKCON = 0x04;
  8630   0045D2  0E04               	movlw	4
  8631   0045D4  6EBE               	movwf	190,c	;volatile
  8632                           
  8633                           ;mcc_generated_files/tmr2.c: 72:     T2HLT = 0x00;
  8634   0045D6  0E00               	movlw	0
  8635   0045D8  6EBD               	movwf	189,c	;volatile
  8636                           
  8637                           ;mcc_generated_files/tmr2.c: 75:     T2RST = 0x00;
  8638   0045DA  0E00               	movlw	0
  8639   0045DC  6EBF               	movwf	191,c	;volatile
  8640                           
  8641                           ;mcc_generated_files/tmr2.c: 78:     T2PR = 0x01;
  8642   0045DE  0E01               	movlw	1
  8643   0045E0  6EBB               	movwf	187,c	;volatile
  8644                           
  8645                           ;mcc_generated_files/tmr2.c: 81:     T2TMR = 0x00;
  8646   0045E2  0E00               	movlw	0
  8647   0045E4  6EBA               	movwf	186,c	;volatile
  8648   0045E6                     
  8649                           ;mcc_generated_files/tmr2.c: 84:     PIR4bits.TMR2IF = 0;
  8650   0045E6  010E               	movlb	14	; () banked
  8651   0045E8  93C9               	bcf	201,1,b	;volatile
  8652   0045EA                     
  8653                           ; BSR set to: 14
  8654                           ;mcc_generated_files/tmr2.c: 87:     PIE4bits.TMR2IE = 1;
  8655   0045EA  83C1               	bsf	193,1,b	;volatile
  8656   0045EC                     
  8657                           ; BSR set to: 14
  8658                           ;mcc_generated_files/tmr2.c: 90:     TMR2_SetInterruptHandler(TMR2_DefaultInterruptHandl
      +                          er);
  8659   0045EC  0E5A               	movlw	low _TMR2_DefaultInterruptHandler
  8660   0045EE  0100               	movlb	0	; () banked
  8661   0045F0  6F60               	movwf	TMR2_SetInterruptHandler@InterruptHandler& (0+255),b
  8662   0045F2  0E47               	movlw	high _TMR2_DefaultInterruptHandler
  8663   0045F4  6F61               	movwf	(TMR2_SetInterruptHandler@InterruptHandler+1)& (0+255),b
  8664   0045F6  0E00               	movlw	low (_TMR2_DefaultInterruptHandler shr (0+16))
  8665   0045F8  6F62               	movwf	(TMR2_SetInterruptHandler@InterruptHandler+2)& (0+255),b
  8666   0045FA  EC78  F023         	call	_TMR2_SetInterruptHandler	;wreg free
  8667   0045FE                     
  8668                           ;mcc_generated_files/tmr2.c: 93:     T2CON = 0xA3;
  8669   0045FE  0EA3               	movlw	163
  8670   004600  6EBC               	movwf	188,c	;volatile
  8671   004602  0012               	return		;funcret
  8672   004604                     __end_of_TMR2_Initialize:
  8673                           	callstack 0
  8674                           
  8675 ;; *************** function _TMR2_SetInterruptHandler *****************
  8676 ;; Defined at:
  8677 ;;		line 178 in file "mcc_generated_files/tmr2.c"
  8678 ;; Parameters:    Size  Location     Type
  8679 ;;  InterruptHan    3    0[BANK0 ] PTR FTN()void 
  8680 ;;		 -> timer_callback(1), TMR2_DefaultInterruptHandler(1), 
  8681 ;; Auto vars:     Size  Location     Type
  8682 ;;		None
  8683 ;; Return value:  Size  Location     Type
  8684 ;;                  1    wreg      void 
  8685 ;; Registers used:
  8686 ;;		wreg, status,2, status,0
  8687 ;; Tracked objects:
  8688 ;;		On entry : 0/0
  8689 ;;		On exit  : 0/0
  8690 ;;		Unchanged: 0/0
  8691 ;; Data sizes:     COMRAM   BANK0   BANK1   BANK2   BANK3   BANK4   BANK5   BANK6   BANK7   BANK8   BANK9  BANK10  BANK1
      +1  BANK12  BANK14
  8692 ;;      Params:         0       3       0       0       0       0       0       0       0       0       0       0       
      +0       0       0
  8693 ;;      Locals:         0       0       0       0       0       0       0       0       0       0       0       0       
      +0       0       0
  8694 ;;      Temps:          0       0       0       0       0       0       0       0       0       0       0       0       
      +0       0       0
  8695 ;;      Totals:         0       3       0       0       0       0       0       0       0       0       0       0       
      +0       0       0
  8696 ;;Total ram usage:        3 bytes
  8697 ;; Hardware stack levels used: 1
  8698 ;; Hardware stack levels required when called: 5
  8699 ;; This function calls:
  8700 ;;		Nothing
  8701 ;; This function is called by:
  8702 ;;		_TMR2_Initialize
  8703 ;;		_main
  8704 ;; This function uses a non-reentrant model
  8705 ;;
  8706                           
  8707                           	psect	text32
  8708   0046F0                     __ptext32:
  8709                           	callstack 0
  8710   0046F0                     _TMR2_SetInterruptHandler:
  8711                           	callstack 25
  8712   0046F0                     
  8713                           ;mcc_generated_files/tmr2.c: 179:     TMR2_InterruptHandler = InterruptHandler;
  8714   0046F0  C060  F0F6         	movff	TMR2_SetInterruptHandler@InterruptHandler,_TMR2_InterruptHandler
  8715   0046F4  C061  F0F7         	movff	TMR2_SetInterruptHandler@InterruptHandler+1,_TMR2_InterruptHandler+1
  8716   0046F8  C062  F0F8         	movff	TMR2_SetInterruptHandler@InterruptHandler+2,_TMR2_InterruptHandler+2
  8717   0046FC  0012               	return		;funcret
  8718   0046FE                     __end_of_TMR2_SetInterruptHandler:
  8719                           	callstack 0
  8720                           
  8721 ;; *************** function _PMD_Initialize *****************
  8722 ;; Defined at:
  8723 ;;		line 74 in file "mcc_generated_files/mcc.c"
  8724 ;; Parameters:    Size  Location     Type
  8725 ;;		None
  8726 ;; Auto vars:     Size  Location     Type
  8727 ;;		None
  8728 ;; Return value:  Size  Location     Type
  8729 ;;                  1    wreg      void 
  8730 ;; Registers used:
  8731 ;;		wreg, status,2
  8732 ;; Tracked objects:
  8733 ;;		On entry : 0/0
  8734 ;;		On exit  : 0/0
  8735 ;;		Unchanged: 0/0
  8736 ;; Data sizes:     COMRAM   BANK0   BANK1   BANK2   BANK3   BANK4   BANK5   BANK6   BANK7   BANK8   BANK9  BANK10  BANK1
      +1  BANK12  BANK14
  8737 ;;      Params:         0       0       0       0       0       0       0       0       0       0       0       0       
      +0       0       0
  8738 ;;      Locals:         0       0       0       0       0       0       0       0       0       0       0       0       
      +0       0       0
  8739 ;;      Temps:          0       0       0       0       0       0       0       0       0       0       0       0       
      +0       0       0
  8740 ;;      Totals:         0       0       0       0       0       0       0       0       0       0       0       0       
      +0       0       0
  8741 ;;Total ram usage:        0 bytes
  8742 ;; Hardware stack levels used: 1
  8743 ;; Hardware stack levels required when called: 5
  8744 ;; This function calls:
  8745 ;;		Nothing
  8746 ;; This function is called by:
  8747 ;;		_SYSTEM_Initialize
  8748 ;; This function uses a non-reentrant model
  8749 ;;
  8750                           
  8751                           	psect	text33
  8752   00467A                     __ptext33:
  8753                           	callstack 0
  8754   00467A                     _PMD_Initialize:
  8755                           	callstack 24
  8756   00467A                     
  8757                           ;mcc_generated_files/mcc.c: 77:     PMD0 = 0x00;
  8758   00467A  0E00               	movlw	0
  8759   00467C  010E               	movlb	14	; () banked
  8760   00467E  6FDC               	movwf	220,b	;volatile
  8761                           
  8762                           ;mcc_generated_files/mcc.c: 79:     PMD1 = 0x00;
  8763   004680  0E00               	movlw	0
  8764   004682  6FDD               	movwf	221,b	;volatile
  8765                           
  8766                           ;mcc_generated_files/mcc.c: 81:     PMD2 = 0x00;
  8767   004684  0E00               	movlw	0
  8768   004686  6FDE               	movwf	222,b	;volatile
  8769                           
  8770                           ;mcc_generated_files/mcc.c: 83:     PMD3 = 0x00;
  8771   004688  0E00               	movlw	0
  8772   00468A  6FDF               	movwf	223,b	;volatile
  8773                           
  8774                           ;mcc_generated_files/mcc.c: 85:     PMD4 = 0x00;
  8775   00468C  0E00               	movlw	0
  8776   00468E  6FE0               	movwf	224,b	;volatile
  8777                           
  8778                           ;mcc_generated_files/mcc.c: 87:     PMD5 = 0x00;
  8779   004690  0E00               	movlw	0
  8780   004692  6FE1               	movwf	225,b	;volatile
  8781   004694                     
  8782                           ; BSR set to: 14
  8783   004694  0012               	return		;funcret
  8784   004696                     __end_of_PMD_Initialize:
  8785                           	callstack 0
  8786                           
  8787 ;; *************** function _PIN_MANAGER_Initialize *****************
  8788 ;; Defined at:
  8789 ;;		line 58 in file "mcc_generated_files/pin_manager.c"
  8790 ;; Parameters:    Size  Location     Type
  8791 ;;		None
  8792 ;; Auto vars:     Size  Location     Type
  8793 ;;		None
  8794 ;; Return value:  Size  Location     Type
  8795 ;;                  1    wreg      void 
  8796 ;; Registers used:
  8797 ;;		wreg, status,2, status,0, cstack
  8798 ;; Tracked objects:
  8799 ;;		On entry : 0/0
  8800 ;;		On exit  : 0/0
  8801 ;;		Unchanged: 0/0
  8802 ;; Data sizes:     COMRAM   BANK0   BANK1   BANK2   BANK3   BANK4   BANK5   BANK6   BANK7   BANK8   BANK9  BANK10  BANK1
      +1  BANK12  BANK14
  8803 ;;      Params:         0       0       0       0       0       0       0       0       0       0       0       0       
      +0       0       0
  8804 ;;      Locals:         0       0       0       0       0       0       0       0       0       0       0       0       
      +0       0       0
  8805 ;;      Temps:          0       0       0       0       0       0       0       0       0       0       0       0       
      +0       0       0
  8806 ;;      Totals:         0       0       0       0       0       0       0       0       0       0       0       0       
      +0       0       0
  8807 ;;Total ram usage:        0 bytes
  8808 ;; Hardware stack levels used: 1
  8809 ;; Hardware stack levels required when called: 6
  8810 ;; This function calls:
  8811 ;;		_IOCAF0_SetInterruptHandler
  8812 ;;		_IOCAF1_SetInterruptHandler
  8813 ;; This function is called by:
  8814 ;;		_SYSTEM_Initialize
  8815 ;;		_main
  8816 ;; This function uses a non-reentrant model
  8817 ;;
  8818                           
  8819                           	psect	text34
  8820   003ED0                     __ptext34:
  8821                           	callstack 0
  8822   003ED0                     _PIN_MANAGER_Initialize:
  8823                           	callstack 23
  8824   003ED0                     
  8825                           ;mcc_generated_files/pin_manager.c: 63:     LATE = 0x00;
  8826   003ED0  0E00               	movlw	0
  8827   003ED2  6E86               	movwf	134,c	;volatile
  8828                           
  8829                           ;mcc_generated_files/pin_manager.c: 64:     LATD = 0x00;
  8830   003ED4  0E00               	movlw	0
  8831   003ED6  6E85               	movwf	133,c	;volatile
  8832                           
  8833                           ;mcc_generated_files/pin_manager.c: 65:     LATA = 0x00;
  8834   003ED8  0E00               	movlw	0
  8835   003EDA  6E82               	movwf	130,c	;volatile
  8836                           
  8837                           ;mcc_generated_files/pin_manager.c: 66:     LATB = 0x00;
  8838   003EDC  0E00               	movlw	0
  8839   003EDE  6E83               	movwf	131,c	;volatile
  8840                           
  8841                           ;mcc_generated_files/pin_manager.c: 67:     LATC = 0x00;
  8842   003EE0  0E00               	movlw	0
  8843   003EE2  6E84               	movwf	132,c	;volatile
  8844                           
  8845                           ;mcc_generated_files/pin_manager.c: 72:     TRISE = 0x06;
  8846   003EE4  0E06               	movlw	6
  8847   003EE6  6E8B               	movwf	139,c	;volatile
  8848   003EE8                     
  8849                           ;mcc_generated_files/pin_manager.c: 73:     TRISA = 0xFF;
  8850   003EE8  6887               	setf	135,c	;volatile
  8851                           
  8852                           ;mcc_generated_files/pin_manager.c: 74:     TRISB = 0xBF;
  8853   003EEA  0EBF               	movlw	191
  8854   003EEC  6E88               	movwf	136,c	;volatile
  8855                           
  8856                           ;mcc_generated_files/pin_manager.c: 75:     TRISC = 0x7F;
  8857   003EEE  0E7F               	movlw	127
  8858   003EF0  6E89               	movwf	137,c	;volatile
  8859                           
  8860                           ;mcc_generated_files/pin_manager.c: 76:     TRISD = 0xFE;
  8861   003EF2  0EFE               	movlw	254
  8862   003EF4  6E8A               	movwf	138,c	;volatile
  8863                           
  8864                           ;mcc_generated_files/pin_manager.c: 81:     ANSELD = 0xFC;
  8865   003EF6  0EFC               	movlw	252
  8866   003EF8  010F               	movlb	15	; () banked
  8867   003EFA  6F21               	movwf	33,b	;volatile
  8868                           
  8869                           ;mcc_generated_files/pin_manager.c: 82:     ANSELC = 0x7F;
  8870   003EFC  0E7F               	movlw	127
  8871   003EFE  6F1C               	movwf	28,b	;volatile
  8872                           
  8873                           ;mcc_generated_files/pin_manager.c: 83:     ANSELB = 0xBF;
  8874   003F00  0EBF               	movlw	191
  8875   003F02  6F14               	movwf	20,b	;volatile
  8876                           
  8877                           ;mcc_generated_files/pin_manager.c: 84:     ANSELE = 0x06;
  8878   003F04  0E06               	movlw	6
  8879   003F06  6F29               	movwf	41,b	;volatile
  8880                           
  8881                           ;mcc_generated_files/pin_manager.c: 85:     ANSELA = 0xFC;
  8882   003F08  0EFC               	movlw	252
  8883   003F0A  6F0C               	movwf	12,b	;volatile
  8884                           
  8885                           ;mcc_generated_files/pin_manager.c: 90:     WPUD = 0x00;
  8886   003F0C  0E00               	movlw	0
  8887   003F0E  6F20               	movwf	32,b	;volatile
  8888                           
  8889                           ;mcc_generated_files/pin_manager.c: 91:     WPUE = 0x00;
  8890   003F10  0E00               	movlw	0
  8891   003F12  6F28               	movwf	40,b	;volatile
  8892                           
  8893                           ;mcc_generated_files/pin_manager.c: 92:     WPUB = 0x00;
  8894   003F14  0E00               	movlw	0
  8895   003F16  6F13               	movwf	19,b	;volatile
  8896                           
  8897                           ;mcc_generated_files/pin_manager.c: 93:     WPUA = 0x03;
  8898   003F18  0E03               	movlw	3
  8899   003F1A  6F0B               	movwf	11,b	;volatile
  8900                           
  8901                           ;mcc_generated_files/pin_manager.c: 94:     WPUC = 0x00;
  8902   003F1C  0E00               	movlw	0
  8903   003F1E  6F1B               	movwf	27,b	;volatile
  8904                           
  8905                           ;mcc_generated_files/pin_manager.c: 99:     ODCONE = 0x00;
  8906   003F20  0E00               	movlw	0
  8907   003F22  6F27               	movwf	39,b	;volatile
  8908                           
  8909                           ;mcc_generated_files/pin_manager.c: 100:     ODCONA = 0x00;
  8910   003F24  0E00               	movlw	0
  8911   003F26  6F0A               	movwf	10,b	;volatile
  8912                           
  8913                           ;mcc_generated_files/pin_manager.c: 101:     ODCONB = 0x00;
  8914   003F28  0E00               	movlw	0
  8915   003F2A  6F12               	movwf	18,b	;volatile
  8916                           
  8917                           ;mcc_generated_files/pin_manager.c: 102:     ODCONC = 0x00;
  8918   003F2C  0E00               	movlw	0
  8919   003F2E  6F1A               	movwf	26,b	;volatile
  8920                           
  8921                           ;mcc_generated_files/pin_manager.c: 103:     ODCOND = 0x00;
  8922   003F30  0E00               	movlw	0
  8923   003F32  6F1F               	movwf	31,b	;volatile
  8924   003F34                     
  8925                           ; BSR set to: 15
  8926                           ;mcc_generated_files/pin_manager.c: 108:     SLRCONA = 0xFF;
  8927   003F34  6909               	setf	9,b	;volatile
  8928   003F36                     
  8929                           ; BSR set to: 15
  8930                           ;mcc_generated_files/pin_manager.c: 109:     SLRCONB = 0xFF;
  8931   003F36  6911               	setf	17,b	;volatile
  8932   003F38                     
  8933                           ; BSR set to: 15
  8934                           ;mcc_generated_files/pin_manager.c: 110:     SLRCONC = 0xFF;
  8935   003F38  6919               	setf	25,b	;volatile
  8936   003F3A                     
  8937                           ; BSR set to: 15
  8938                           ;mcc_generated_files/pin_manager.c: 111:     SLRCOND = 0xFF;
  8939   003F3A  691E               	setf	30,b	;volatile
  8940                           
  8941                           ;mcc_generated_files/pin_manager.c: 112:     SLRCONE = 0x07;
  8942   003F3C  0E07               	movlw	7
  8943   003F3E  6F26               	movwf	38,b	;volatile
  8944   003F40                     
  8945                           ; BSR set to: 15
  8946                           ;mcc_generated_files/pin_manager.c: 117:     INLVLA = 0xFF;
  8947   003F40  6908               	setf	8,b	;volatile
  8948   003F42                     
  8949                           ; BSR set to: 15
  8950                           ;mcc_generated_files/pin_manager.c: 118:     INLVLB = 0xFF;
  8951   003F42  6910               	setf	16,b	;volatile
  8952   003F44                     
  8953                           ; BSR set to: 15
  8954                           ;mcc_generated_files/pin_manager.c: 119:     INLVLC = 0xFF;
  8955   003F44  6918               	setf	24,b	;volatile
  8956   003F46                     
  8957                           ; BSR set to: 15
  8958                           ;mcc_generated_files/pin_manager.c: 120:     INLVLD = 0xFF;
  8959   003F46  691D               	setf	29,b	;volatile
  8960                           
  8961                           ;mcc_generated_files/pin_manager.c: 121:     INLVLE = 0x0F;
  8962   003F48  0E0F               	movlw	15
  8963   003F4A  6F25               	movwf	37,b	;volatile
  8964   003F4C                     
  8965                           ; BSR set to: 15
  8966                           ;mcc_generated_files/pin_manager.c: 128:     IOCAFbits.IOCAF0 = 0;
  8967   003F4C  9105               	bcf	5,0,b	;volatile
  8968   003F4E                     
  8969                           ; BSR set to: 15
  8970                           ;mcc_generated_files/pin_manager.c: 130:     IOCAFbits.IOCAF1 = 0;
  8971   003F4E  9305               	bcf	5,1,b	;volatile
  8972   003F50                     
  8973                           ; BSR set to: 15
  8974                           ;mcc_generated_files/pin_manager.c: 132:     IOCANbits.IOCAN0 = 1;
  8975   003F50  8106               	bsf	6,0,b	;volatile
  8976   003F52                     
  8977                           ; BSR set to: 15
  8978                           ;mcc_generated_files/pin_manager.c: 134:     IOCANbits.IOCAN1 = 1;
  8979   003F52  8306               	bsf	6,1,b	;volatile
  8980   003F54                     
  8981                           ; BSR set to: 15
  8982                           ;mcc_generated_files/pin_manager.c: 136:     IOCAPbits.IOCAP0 = 0;
  8983   003F54  9107               	bcf	7,0,b	;volatile
  8984   003F56                     
  8985                           ; BSR set to: 15
  8986                           ;mcc_generated_files/pin_manager.c: 138:     IOCAPbits.IOCAP1 = 0;
  8987   003F56  9307               	bcf	7,1,b	;volatile
  8988   003F58                     
  8989                           ; BSR set to: 15
  8990                           ;mcc_generated_files/pin_manager.c: 143:     IOCAF0_SetInterruptHandler(IOCAF0_DefaultIn
      +                          terruptHandler);
  8991   003F58  0E5E               	movlw	low _IOCAF0_DefaultInterruptHandler
  8992   003F5A  0100               	movlb	0	; () banked
  8993   003F5C  6F60               	movwf	IOCAF0_SetInterruptHandler@InterruptHandler& (0+255),b
  8994   003F5E  0E47               	movlw	high _IOCAF0_DefaultInterruptHandler
  8995   003F60  6F61               	movwf	(IOCAF0_SetInterruptHandler@InterruptHandler+1)& (0+255),b
  8996   003F62  0E00               	movlw	low (_IOCAF0_DefaultInterruptHandler shr (0+16))
  8997   003F64  6F62               	movwf	(IOCAF0_SetInterruptHandler@InterruptHandler+2)& (0+255),b
  8998   003F66  EC86  F023         	call	_IOCAF0_SetInterruptHandler	;wreg free
  8999   003F6A                     
  9000                           ;mcc_generated_files/pin_manager.c: 144:     IOCAF1_SetInterruptHandler(IOCAF1_DefaultIn
      +                          terruptHandler);
  9001   003F6A  0E5C               	movlw	low _IOCAF1_DefaultInterruptHandler
  9002   003F6C  0100               	movlb	0	; () banked
  9003   003F6E  6F60               	movwf	IOCAF1_SetInterruptHandler@InterruptHandler& (0+255),b
  9004   003F70  0E47               	movlw	high _IOCAF1_DefaultInterruptHandler
  9005   003F72  6F61               	movwf	(IOCAF1_SetInterruptHandler@InterruptHandler+1)& (0+255),b
  9006   003F74  0E00               	movlw	low (_IOCAF1_DefaultInterruptHandler shr (0+16))
  9007   003F76  6F62               	movwf	(IOCAF1_SetInterruptHandler@InterruptHandler+2)& (0+255),b
  9008   003F78  EC7F  F023         	call	_IOCAF1_SetInterruptHandler	;wreg free
  9009   003F7C                     
  9010                           ;mcc_generated_files/pin_manager.c: 147:     PIE0bits.IOCIE = 1;
  9011   003F7C  010E               	movlb	14	; () banked
  9012   003F7E  89BD               	bsf	189,4,b	;volatile
  9013                           
  9014                           ;mcc_generated_files/pin_manager.c: 150:     RB6PPS = 0x0B;
  9015   003F80  0E0B               	movlw	11
  9016   003F82  6FF0               	movwf	240,b	;volatile
  9017                           
  9018                           ;mcc_generated_files/pin_manager.c: 151:     RD0PPS = 0x0B;
  9019   003F84  0E0B               	movlw	11
  9020   003F86  6FFA               	movwf	250,b	;volatile
  9021                           
  9022                           ;mcc_generated_files/pin_manager.c: 152:     RX2PPS = 0x19;
  9023   003F88  0E19               	movlw	25
  9024   003F8A  6F88               	movwf	136,b	;volatile
  9025   003F8C                     
  9026                           ; BSR set to: 14
  9027   003F8C  0012               	return		;funcret
  9028   003F8E                     __end_of_PIN_MANAGER_Initialize:
  9029                           	callstack 0
  9030                           
  9031 ;; *************** function _IOCAF1_SetInterruptHandler *****************
  9032 ;; Defined at:
  9033 ;;		line 217 in file "mcc_generated_files/pin_manager.c"
  9034 ;; Parameters:    Size  Location     Type
  9035 ;;  InterruptHan    3    0[BANK0 ] PTR FTN()void 
  9036 ;;		 -> IOCAF1_DefaultInterruptHandler(1), 
  9037 ;; Auto vars:     Size  Location     Type
  9038 ;;		None
  9039 ;; Return value:  Size  Location     Type
  9040 ;;                  1    wreg      void 
  9041 ;; Registers used:
  9042 ;;		wreg, status,2, status,0
  9043 ;; Tracked objects:
  9044 ;;		On entry : 0/0
  9045 ;;		On exit  : 0/0
  9046 ;;		Unchanged: 0/0
  9047 ;; Data sizes:     COMRAM   BANK0   BANK1   BANK2   BANK3   BANK4   BANK5   BANK6   BANK7   BANK8   BANK9  BANK10  BANK1
      +1  BANK12  BANK14
  9048 ;;      Params:         0       3       0       0       0       0       0       0       0       0       0       0       
      +0       0       0
  9049 ;;      Locals:         0       0       0       0       0       0       0       0       0       0       0       0       
      +0       0       0
  9050 ;;      Temps:          0       0       0       0       0       0       0       0       0       0       0       0       
      +0       0       0
  9051 ;;      Totals:         0       3       0       0       0       0       0       0       0       0       0       0       
      +0       0       0
  9052 ;;Total ram usage:        3 bytes
  9053 ;; Hardware stack levels used: 1
  9054 ;; Hardware stack levels required when called: 5
  9055 ;; This function calls:
  9056 ;;		Nothing
  9057 ;; This function is called by:
  9058 ;;		_PIN_MANAGER_Initialize
  9059 ;; This function uses a non-reentrant model
  9060 ;;
  9061                           
  9062                           	psect	text35
  9063   0046FE                     __ptext35:
  9064                           	callstack 0
  9065   0046FE                     _IOCAF1_SetInterruptHandler:
  9066                           	callstack 23
  9067   0046FE                     
  9068                           ;mcc_generated_files/pin_manager.c: 218:     IOCAF1_InterruptHandler = InterruptHandler;
  9069   0046FE  C060  F04E         	movff	IOCAF1_SetInterruptHandler@InterruptHandler,_IOCAF1_InterruptHandler
  9070   004702  C061  F04F         	movff	IOCAF1_SetInterruptHandler@InterruptHandler+1,_IOCAF1_InterruptHandler+1
  9071   004706  C062  F050         	movff	IOCAF1_SetInterruptHandler@InterruptHandler+2,_IOCAF1_InterruptHandler+2
  9072   00470A  0012               	return		;funcret
  9073   00470C                     __end_of_IOCAF1_SetInterruptHandler:
  9074                           	callstack 0
  9075                           
  9076 ;; *************** function _IOCAF0_SetInterruptHandler *****************
  9077 ;; Defined at:
  9078 ;;		line 187 in file "mcc_generated_files/pin_manager.c"
  9079 ;; Parameters:    Size  Location     Type
  9080 ;;  InterruptHan    3    0[BANK0 ] PTR FTN()void 
  9081 ;;		 -> pin_down(1), pin_up(1), IOCAF0_DefaultInterruptHandler(1), 
  9082 ;; Auto vars:     Size  Location     Type
  9083 ;;		None
  9084 ;; Return value:  Size  Location     Type
  9085 ;;                  1    wreg      void 
  9086 ;; Registers used:
  9087 ;;		wreg, status,2, status,0
  9088 ;; Tracked objects:
  9089 ;;		On entry : 0/0
  9090 ;;		On exit  : 0/0
  9091 ;;		Unchanged: 0/0
  9092 ;; Data sizes:     COMRAM   BANK0   BANK1   BANK2   BANK3   BANK4   BANK5   BANK6   BANK7   BANK8   BANK9  BANK10  BANK1
      +1  BANK12  BANK14
  9093 ;;      Params:         0       3       0       0       0       0       0       0       0       0       0       0       
      +0       0       0
  9094 ;;      Locals:         0       0       0       0       0       0       0       0       0       0       0       0       
      +0       0       0
  9095 ;;      Temps:          0       0       0       0       0       0       0       0       0       0       0       0       
      +0       0       0
  9096 ;;      Totals:         0       3       0       0       0       0       0       0       0       0       0       0       
      +0       0       0
  9097 ;;Total ram usage:        3 bytes
  9098 ;; Hardware stack levels used: 1
  9099 ;; Hardware stack levels required when called: 5
  9100 ;; This function calls:
  9101 ;;		Nothing
  9102 ;; This function is called by:
  9103 ;;		_PIN_MANAGER_Initialize
  9104 ;;		_main
  9105 ;; This function uses a non-reentrant model
  9106 ;;
  9107                           
  9108                           	psect	text36
  9109   00470C                     __ptext36:
  9110                           	callstack 0
  9111   00470C                     _IOCAF0_SetInterruptHandler:
  9112                           	callstack 23
  9113   00470C                     
  9114                           ;mcc_generated_files/pin_manager.c: 188:     IOCAF0_InterruptHandler = InterruptHandler;
  9115   00470C  C060  F051         	movff	IOCAF0_SetInterruptHandler@InterruptHandler,_IOCAF0_InterruptHandler
  9116   004710  C061  F052         	movff	IOCAF0_SetInterruptHandler@InterruptHandler+1,_IOCAF0_InterruptHandler+1
  9117   004714  C062  F053         	movff	IOCAF0_SetInterruptHandler@InterruptHandler+2,_IOCAF0_InterruptHandler+2
  9118   004718  0012               	return		;funcret
  9119   00471A                     __end_of_IOCAF0_SetInterruptHandler:
  9120                           	callstack 0
  9121                           
  9122 ;; *************** function _OSCILLATOR_Initialize *****************
  9123 ;; Defined at:
  9124 ;;		line 60 in file "mcc_generated_files/mcc.c"
  9125 ;; Parameters:    Size  Location     Type
  9126 ;;		None
  9127 ;; Auto vars:     Size  Location     Type
  9128 ;;		None
  9129 ;; Return value:  Size  Location     Type
  9130 ;;                  1    wreg      void 
  9131 ;; Registers used:
  9132 ;;		wreg, status,2
  9133 ;; Tracked objects:
  9134 ;;		On entry : 0/0
  9135 ;;		On exit  : 0/0
  9136 ;;		Unchanged: 0/0
  9137 ;; Data sizes:     COMRAM   BANK0   BANK1   BANK2   BANK3   BANK4   BANK5   BANK6   BANK7   BANK8   BANK9  BANK10  BANK1
      +1  BANK12  BANK14
  9138 ;;      Params:         0       0       0       0       0       0       0       0       0       0       0       0       
      +0       0       0
  9139 ;;      Locals:         0       0       0       0       0       0       0       0       0       0       0       0       
      +0       0       0
  9140 ;;      Temps:          0       0       0       0       0       0       0       0       0       0       0       0       
      +0       0       0
  9141 ;;      Totals:         0       0       0       0       0       0       0       0       0       0       0       0       
      +0       0       0
  9142 ;;Total ram usage:        0 bytes
  9143 ;; Hardware stack levels used: 1
  9144 ;; Hardware stack levels required when called: 5
  9145 ;; This function calls:
  9146 ;;		Nothing
  9147 ;; This function is called by:
  9148 ;;		_SYSTEM_Initialize
  9149 ;; This function uses a non-reentrant model
  9150 ;;
  9151                           
  9152                           	psect	text37
  9153   0046CA                     __ptext37:
  9154                           	callstack 0
  9155   0046CA                     _OSCILLATOR_Initialize:
  9156                           	callstack 24
  9157   0046CA                     
  9158                           ;mcc_generated_files/mcc.c: 63:     OSCCON1 = 0x62;
  9159   0046CA  0E62               	movlw	98
  9160   0046CC  010E               	movlb	14	; () banked
  9161   0046CE  6FD3               	movwf	211,b	;volatile
  9162                           
  9163                           ;mcc_generated_files/mcc.c: 65:     OSCCON3 = 0x00;
  9164   0046D0  0E00               	movlw	0
  9165   0046D2  6FD5               	movwf	213,b	;volatile
  9166                           
  9167                           ;mcc_generated_files/mcc.c: 67:     OSCEN = 0x00;
  9168   0046D4  0E00               	movlw	0
  9169   0046D6  6FD7               	movwf	215,b	;volatile
  9170                           
  9171                           ;mcc_generated_files/mcc.c: 69:     OSCFRQ = 0x02;
  9172   0046D8  0E02               	movlw	2
  9173   0046DA  6FD9               	movwf	217,b	;volatile
  9174                           
  9175                           ;mcc_generated_files/mcc.c: 71:     OSCTUNE = 0x00;
  9176   0046DC  0E00               	movlw	0
  9177   0046DE  6FD8               	movwf	216,b	;volatile
  9178   0046E0                     
  9179                           ; BSR set to: 14
  9180   0046E0  0012               	return		;funcret
  9181   0046E2                     __end_of_OSCILLATOR_Initialize:
  9182                           	callstack 0
  9183                           
  9184 ;; *************** function _INTERRUPT_Initialize *****************
  9185 ;; Defined at:
  9186 ;;		line 52 in file "mcc_generated_files/interrupt_manager.c"
  9187 ;; Parameters:    Size  Location     Type
  9188 ;;		None
  9189 ;; Auto vars:     Size  Location     Type
  9190 ;;		None
  9191 ;; Return value:  Size  Location     Type
  9192 ;;                  1    wreg      void 
  9193 ;; Registers used:
  9194 ;;		None
  9195 ;; Tracked objects:
  9196 ;;		On entry : 0/0
  9197 ;;		On exit  : 0/0
  9198 ;;		Unchanged: 0/0
  9199 ;; Data sizes:     COMRAM   BANK0   BANK1   BANK2   BANK3   BANK4   BANK5   BANK6   BANK7   BANK8   BANK9  BANK10  BANK1
      +1  BANK12  BANK14
  9200 ;;      Params:         0       0       0       0       0       0       0       0       0       0       0       0       
      +0       0       0
  9201 ;;      Locals:         0       0       0       0       0       0       0       0       0       0       0       0       
      +0       0       0
  9202 ;;      Temps:          0       0       0       0       0       0       0       0       0       0       0       0       
      +0       0       0
  9203 ;;      Totals:         0       0       0       0       0       0       0       0       0       0       0       0       
      +0       0       0
  9204 ;;Total ram usage:        0 bytes
  9205 ;; Hardware stack levels used: 1
  9206 ;; Hardware stack levels required when called: 5
  9207 ;; This function calls:
  9208 ;;		Nothing
  9209 ;; This function is called by:
  9210 ;;		_SYSTEM_Initialize
  9211 ;; This function uses a non-reentrant model
  9212 ;;
  9213                           
  9214                           	psect	text38
  9215   004756                     __ptext38:
  9216                           	callstack 0
  9217   004756                     _INTERRUPT_Initialize:
  9218                           	callstack 24
  9219   004756                     
  9220                           ;mcc_generated_files/interrupt_manager.c: 55:     INTCONbits.IPEN = 0;
  9221   004756  9AF2               	bcf	242,5,c	;volatile
  9222   004758  0012               	return		;funcret
  9223   00475A                     __end_of_INTERRUPT_Initialize:
  9224                           	callstack 0
  9225                           
  9226 ;; *************** function _EUSART2_Initialize *****************
  9227 ;; Defined at:
  9228 ;;		line 66 in file "mcc_generated_files/eusart2.c"
  9229 ;; Parameters:    Size  Location     Type
  9230 ;;		None
  9231 ;; Auto vars:     Size  Location     Type
  9232 ;;		None
  9233 ;; Return value:  Size  Location     Type
  9234 ;;                  1    wreg      void 
  9235 ;; Registers used:
  9236 ;;		wreg, status,2, status,0, cstack
  9237 ;; Tracked objects:
  9238 ;;		On entry : 0/0
  9239 ;;		On exit  : 0/0
  9240 ;;		Unchanged: 0/0
  9241 ;; Data sizes:     COMRAM   BANK0   BANK1   BANK2   BANK3   BANK4   BANK5   BANK6   BANK7   BANK8   BANK9  BANK10  BANK1
      +1  BANK12  BANK14
  9242 ;;      Params:         0       0       0       0       0       0       0       0       0       0       0       0       
      +0       0       0
  9243 ;;      Locals:         0       0       0       0       0       0       0       0       0       0       0       0       
      +0       0       0
  9244 ;;      Temps:          0       0       0       0       0       0       0       0       0       0       0       0       
      +0       0       0
  9245 ;;      Totals:         0       0       0       0       0       0       0       0       0       0       0       0       
      +0       0       0
  9246 ;;Total ram usage:        0 bytes
  9247 ;; Hardware stack levels used: 1
  9248 ;; Hardware stack levels required when called: 6
  9249 ;; This function calls:
  9250 ;;		_EUSART2_SetErrorHandler
  9251 ;;		_EUSART2_SetFramingErrorHandler
  9252 ;;		_EUSART2_SetOverrunErrorHandler
  9253 ;; This function is called by:
  9254 ;;		_SYSTEM_Initialize
  9255 ;;		_main
  9256 ;; This function uses a non-reentrant model
  9257 ;;
  9258                           
  9259                           	psect	text39
  9260   0042B6                     __ptext39:
  9261                           	callstack 0
  9262   0042B6                     _EUSART2_Initialize:
  9263                           	callstack 23
  9264   0042B6                     
  9265                           ;mcc_generated_files/eusart2.c: 71:     BAUD2CON = 0x08;
  9266   0042B6  0E08               	movlw	8
  9267   0042B8  010E               	movlb	14	; () banked
  9268   0042BA  6F9A               	movwf	154,b	;volatile
  9269                           
  9270                           ;mcc_generated_files/eusart2.c: 74:     RC2STA = 0x90;
  9271   0042BC  0E90               	movlw	144
  9272   0042BE  6F98               	movwf	152,b	;volatile
  9273                           
  9274                           ;mcc_generated_files/eusart2.c: 77:     TX2STA = 0x24;
  9275   0042C0  0E24               	movlw	36
  9276   0042C2  6F99               	movwf	153,b	;volatile
  9277                           
  9278                           ;mcc_generated_files/eusart2.c: 80:     SP2BRGL = 0x19;
  9279   0042C4  0E19               	movlw	25
  9280   0042C6  6F96               	movwf	150,b	;volatile
  9281                           
  9282                           ;mcc_generated_files/eusart2.c: 83:     SP2BRGH = 0x00;
  9283   0042C8  0E00               	movlw	0
  9284   0042CA  6F97               	movwf	151,b	;volatile
  9285   0042CC                     
  9286                           ; BSR set to: 14
  9287                           ;mcc_generated_files/eusart2.c: 86:     EUSART2_SetFramingErrorHandler(EUSART2_DefaultFr
      +                          amingErrorHandler);
  9288   0042CC  0E00               	movlw	0
  9289   0042CE  0100               	movlb	0	; () banked
  9290   0042D0  6F60               	movwf	EUSART2_SetFramingErrorHandler@interruptHandler& (0+255),b
  9291   0042D2  0E00               	movlw	0
  9292   0042D4  6F61               	movwf	(EUSART2_SetFramingErrorHandler@interruptHandler+1)& (0+255),b
  9293   0042D6  0E00               	movlw	0
  9294   0042D8  6F62               	movwf	(EUSART2_SetFramingErrorHandler@interruptHandler+2)& (0+255),b
  9295   0042DA  EC94  F023         	call	_EUSART2_SetFramingErrorHandler	;wreg free
  9296   0042DE                     
  9297                           ;mcc_generated_files/eusart2.c: 87:     EUSART2_SetOverrunErrorHandler(EUSART2_DefaultOv
      +                          errunErrorHandler);
  9298   0042DE  0E00               	movlw	0
  9299   0042E0  0100               	movlb	0	; () banked
  9300   0042E2  6F60               	movwf	EUSART2_SetOverrunErrorHandler@interruptHandler& (0+255),b
  9301   0042E4  0E00               	movlw	0
  9302   0042E6  6F61               	movwf	(EUSART2_SetOverrunErrorHandler@interruptHandler+1)& (0+255),b
  9303   0042E8  0E00               	movlw	0
  9304   0042EA  6F62               	movwf	(EUSART2_SetOverrunErrorHandler@interruptHandler+2)& (0+255),b
  9305   0042EC  EC8D  F023         	call	_EUSART2_SetOverrunErrorHandler	;wreg free
  9306   0042F0                     
  9307                           ;mcc_generated_files/eusart2.c: 88:     EUSART2_SetErrorHandler(EUSART2_DefaultErrorHand
      +                          ler);
  9308   0042F0  0E00               	movlw	0
  9309   0042F2  0100               	movlb	0	; () banked
  9310   0042F4  6F60               	movwf	EUSART2_SetErrorHandler@interruptHandler& (0+255),b
  9311   0042F6  0E00               	movlw	0
  9312   0042F8  6F61               	movwf	(EUSART2_SetErrorHandler@interruptHandler+1)& (0+255),b
  9313   0042FA  0E00               	movlw	0
  9314   0042FC  6F62               	movwf	(EUSART2_SetErrorHandler@interruptHandler+2)& (0+255),b
  9315   0042FE  EC9B  F023         	call	_EUSART2_SetErrorHandler	;wreg free
  9316   004302                     
  9317                           ;mcc_generated_files/eusart2.c: 90:     eusart2RxLastError.status = 0;
  9318   004302  0E00               	movlw	0
  9319   004304  0100               	movlb	0	; () banked
  9320   004306  6FF5               	movwf	_eusart2RxLastError& (0+255),b	;volatile
  9321   004308                     
  9322                           ; BSR set to: 0
  9323   004308  0012               	return		;funcret
  9324   00430A                     __end_of_EUSART2_Initialize:
  9325                           	callstack 0
  9326                           
  9327 ;; *************** function _EUSART2_SetOverrunErrorHandler *****************
  9328 ;; Defined at:
  9329 ;;		line 170 in file "mcc_generated_files/eusart2.c"
  9330 ;; Parameters:    Size  Location     Type
  9331 ;;  interruptHan    3    0[BANK0 ] PTR FTN()void 
  9332 ;;		 -> EUSART2_DefaultOverrunErrorHandler(1), 
  9333 ;; Auto vars:     Size  Location     Type
  9334 ;;		None
  9335 ;; Return value:  Size  Location     Type
  9336 ;;                  1    wreg      void 
  9337 ;; Registers used:
  9338 ;;		wreg, status,2, status,0
  9339 ;; Tracked objects:
  9340 ;;		On entry : 0/0
  9341 ;;		On exit  : 0/0
  9342 ;;		Unchanged: 0/0
  9343 ;; Data sizes:     COMRAM   BANK0   BANK1   BANK2   BANK3   BANK4   BANK5   BANK6   BANK7   BANK8   BANK9  BANK10  BANK1
      +1  BANK12  BANK14
  9344 ;;      Params:         0       3       0       0       0       0       0       0       0       0       0       0       
      +0       0       0
  9345 ;;      Locals:         0       0       0       0       0       0       0       0       0       0       0       0       
      +0       0       0
  9346 ;;      Temps:          0       0       0       0       0       0       0       0       0       0       0       0       
      +0       0       0
  9347 ;;      Totals:         0       3       0       0       0       0       0       0       0       0       0       0       
      +0       0       0
  9348 ;;Total ram usage:        3 bytes
  9349 ;; Hardware stack levels used: 1
  9350 ;; Hardware stack levels required when called: 5
  9351 ;; This function calls:
  9352 ;;		Nothing
  9353 ;; This function is called by:
  9354 ;;		_EUSART2_Initialize
  9355 ;; This function uses a non-reentrant model
  9356 ;;
  9357                           
  9358                           	psect	text40
  9359   00471A                     __ptext40:
  9360                           	callstack 0
  9361   00471A                     _EUSART2_SetOverrunErrorHandler:
  9362                           	callstack 23
  9363   00471A                     
  9364                           ;mcc_generated_files/eusart2.c: 171:     EUSART2_OverrunErrorHandler = interruptHandler;
  9365   00471A  C060  F15B         	movff	EUSART2_SetOverrunErrorHandler@interruptHandler,_EUSART2_OverrunErrorHandler
  9366   00471E  C061  F15C         	movff	EUSART2_SetOverrunErrorHandler@interruptHandler+1,_EUSART2_OverrunErrorHandler+1
  9367   004722  C062  F15D         	movff	EUSART2_SetOverrunErrorHandler@interruptHandler+2,_EUSART2_OverrunErrorHandler+2
  9368   004726  0012               	return		;funcret
  9369   004728                     __end_of_EUSART2_SetOverrunErrorHandler:
  9370                           	callstack 0
  9371                           
  9372 ;; *************** function _EUSART2_SetFramingErrorHandler *****************
  9373 ;; Defined at:
  9374 ;;		line 166 in file "mcc_generated_files/eusart2.c"
  9375 ;; Parameters:    Size  Location     Type
  9376 ;;  interruptHan    3    0[BANK0 ] PTR FTN()void 
  9377 ;;		 -> EUSART2_DefaultFramingErrorHandler(1), 
  9378 ;; Auto vars:     Size  Location     Type
  9379 ;;		None
  9380 ;; Return value:  Size  Location     Type
  9381 ;;                  1    wreg      void 
  9382 ;; Registers used:
  9383 ;;		wreg, status,2, status,0
  9384 ;; Tracked objects:
  9385 ;;		On entry : 0/0
  9386 ;;		On exit  : 0/0
  9387 ;;		Unchanged: 0/0
  9388 ;; Data sizes:     COMRAM   BANK0   BANK1   BANK2   BANK3   BANK4   BANK5   BANK6   BANK7   BANK8   BANK9  BANK10  BANK1
      +1  BANK12  BANK14
  9389 ;;      Params:         0       3       0       0       0       0       0       0       0       0       0       0       
      +0       0       0
  9390 ;;      Locals:         0       0       0       0       0       0       0       0       0       0       0       0       
      +0       0       0
  9391 ;;      Temps:          0       0       0       0       0       0       0       0       0       0       0       0       
      +0       0       0
  9392 ;;      Totals:         0       3       0       0       0       0       0       0       0       0       0       0       
      +0       0       0
  9393 ;;Total ram usage:        3 bytes
  9394 ;; Hardware stack levels used: 1
  9395 ;; Hardware stack levels required when called: 5
  9396 ;; This function calls:
  9397 ;;		Nothing
  9398 ;; This function is called by:
  9399 ;;		_EUSART2_Initialize
  9400 ;; This function uses a non-reentrant model
  9401 ;;
  9402                           
  9403                           	psect	text41
  9404   004728                     __ptext41:
  9405                           	callstack 0
  9406   004728                     _EUSART2_SetFramingErrorHandler:
  9407                           	callstack 23
  9408   004728                     
  9409                           ;mcc_generated_files/eusart2.c: 167:     EUSART2_FramingErrorHandler = interruptHandler;
  9410   004728  C060  F054         	movff	EUSART2_SetFramingErrorHandler@interruptHandler,_EUSART2_FramingErrorHandler
  9411   00472C  C061  F055         	movff	EUSART2_SetFramingErrorHandler@interruptHandler+1,_EUSART2_FramingErrorHandler+1
  9412   004730  C062  F056         	movff	EUSART2_SetFramingErrorHandler@interruptHandler+2,_EUSART2_FramingErrorHandler+2
  9413   004734  0012               	return		;funcret
  9414   004736                     __end_of_EUSART2_SetFramingErrorHandler:
  9415                           	callstack 0
  9416                           
  9417 ;; *************** function _EUSART2_SetErrorHandler *****************
  9418 ;; Defined at:
  9419 ;;		line 174 in file "mcc_generated_files/eusart2.c"
  9420 ;; Parameters:    Size  Location     Type
  9421 ;;  interruptHan    3    0[BANK0 ] PTR FTN()void 
  9422 ;;		 -> EUSART2_DefaultErrorHandler(1), 
  9423 ;; Auto vars:     Size  Location     Type
  9424 ;;		None
  9425 ;; Return value:  Size  Location     Type
  9426 ;;                  1    wreg      void 
  9427 ;; Registers used:
  9428 ;;		wreg, status,2, status,0
  9429 ;; Tracked objects:
  9430 ;;		On entry : 0/0
  9431 ;;		On exit  : 0/0
  9432 ;;		Unchanged: 0/0
  9433 ;; Data sizes:     COMRAM   BANK0   BANK1   BANK2   BANK3   BANK4   BANK5   BANK6   BANK7   BANK8   BANK9  BANK10  BANK1
      +1  BANK12  BANK14
  9434 ;;      Params:         0       3       0       0       0       0       0       0       0       0       0       0       
      +0       0       0
  9435 ;;      Locals:         0       0       0       0       0       0       0       0       0       0       0       0       
      +0       0       0
  9436 ;;      Temps:          0       0       0       0       0       0       0       0       0       0       0       0       
      +0       0       0
  9437 ;;      Totals:         0       3       0       0       0       0       0       0       0       0       0       0       
      +0       0       0
  9438 ;;Total ram usage:        3 bytes
  9439 ;; Hardware stack levels used: 1
  9440 ;; Hardware stack levels required when called: 5
  9441 ;; This function calls:
  9442 ;;		Nothing
  9443 ;; This function is called by:
  9444 ;;		_EUSART2_Initialize
  9445 ;; This function uses a non-reentrant model
  9446 ;;
  9447                           
  9448                           	psect	text42
  9449   004736                     __ptext42:
  9450                           	callstack 0
  9451   004736                     _EUSART2_SetErrorHandler:
  9452                           	callstack 23
  9453   004736                     
  9454                           ;mcc_generated_files/eusart2.c: 175:     EUSART2_ErrorHandler = interruptHandler;
  9455   004736  C060  F158         	movff	EUSART2_SetErrorHandler@interruptHandler,_EUSART2_ErrorHandler
  9456   00473A  C061  F159         	movff	EUSART2_SetErrorHandler@interruptHandler+1,_EUSART2_ErrorHandler+1
  9457   00473E  C062  F15A         	movff	EUSART2_SetErrorHandler@interruptHandler+2,_EUSART2_ErrorHandler+2
  9458   004742  0012               	return		;funcret
  9459   004744                     __end_of_EUSART2_SetErrorHandler:
  9460                           	callstack 0
  9461                           
  9462 ;; *************** function _INTERRUPT_InterruptManager *****************
  9463 ;; Defined at:
  9464 ;;		line 58 in file "mcc_generated_files/interrupt_manager.c"
  9465 ;; Parameters:    Size  Location     Type
  9466 ;;		None
  9467 ;; Auto vars:     Size  Location     Type
  9468 ;;		None
  9469 ;; Return value:  Size  Location     Type
  9470 ;;                  1    wreg      void 
  9471 ;; Registers used:
  9472 ;;		wreg, status,2, status,0, pcl, pclath, pclatu, tosl, cstack
  9473 ;; Tracked objects:
  9474 ;;		On entry : 0/0
  9475 ;;		On exit  : 0/0
  9476 ;;		Unchanged: 0/0
  9477 ;; Data sizes:     COMRAM   BANK0   BANK1   BANK2   BANK3   BANK4   BANK5   BANK6   BANK7   BANK8   BANK9  BANK10  BANK1
      +1  BANK12  BANK14
  9478 ;;      Params:         0       0       0       0       0       0       0       0       0       0       0       0       
      +0       0       0
  9479 ;;      Locals:         0       0       0       0       0       0       0       0       0       0       0       0       
      +0       0       0
  9480 ;;      Temps:          2       0       0       0       0       0       0       0       0       0       0       0       
      +0       0       0
  9481 ;;      Totals:         2       0       0       0       0       0       0       0       0       0       0       0       
      +0       0       0
  9482 ;;Total ram usage:        2 bytes
  9483 ;; Hardware stack levels used: 1
  9484 ;; Hardware stack levels required when called: 4
  9485 ;; This function calls:
  9486 ;;		_PIN_MANAGER_IOC
  9487 ;;		_TMR2_ISR
  9488 ;; This function is called by:
  9489 ;;		Interrupt level 2
  9490 ;; This function uses a non-reentrant model
  9491 ;;
  9492                           
  9493                           	psect	intcode
  9494   000008                     __pintcode:
  9495                           	callstack 0
  9496   000008                     _INTERRUPT_InterruptManager:
  9497                           	callstack 17
  9498                           
  9499                           ;incstack = 0
  9500   000008  825F               	bsf	int$flags,1,c	;set compiler interrupt flag (level 2)
  9501   00000A  CFFA F038          	movff	pclath,??_INTERRUPT_InterruptManager
  9502   00000E  CFFB F039          	movff	pclatu,??_INTERRUPT_InterruptManager+1
  9503   000012                     
  9504                           ;mcc_generated_files/interrupt_manager.c: 61:     if(PIE0bits.IOCIE == 1 && PIR0bits.IOC
      +                          IF == 1)
  9505   000012  010E               	movlb	14	; () banked
  9506   000014  A9BD               	btfss	189,4,b	;volatile
  9507   000016  EF0F  F000         	goto	i2u567_41
  9508   00001A  EF11  F000         	goto	i2u567_40
  9509   00001E                     i2u567_41:
  9510   00001E  EF1C  F000         	goto	i2l240
  9511   000022                     i2u567_40:
  9512   000022                     
  9513                           ; BSR set to: 14
  9514   000022  A9C5               	btfss	197,4,b	;volatile
  9515   000024  EF16  F000         	goto	i2u568_41
  9516   000028  EF18  F000         	goto	i2u568_40
  9517   00002C                     i2u568_41:
  9518   00002C  EF1C  F000         	goto	i2l240
  9519   000030                     i2u568_40:
  9520   000030                     
  9521                           ; BSR set to: 14
  9522                           ;mcc_generated_files/interrupt_manager.c: 62:     {;mcc_generated_files/interrupt_manage
      +                          r.c: 63:         PIN_MANAGER_IOC();
  9523   000030  EC1A  F023         	call	_PIN_MANAGER_IOC	;wreg free
  9524                           
  9525                           ;mcc_generated_files/interrupt_manager.c: 64:     }
  9526   000034  EF35  F000         	goto	i2l246
  9527   000038                     i2l240:
  9528                           
  9529                           ; BSR set to: 14
  9530   000038  ACF2               	btfss	242,6,c	;volatile
  9531   00003A  EF21  F000         	goto	i2u569_41
  9532   00003E  EF23  F000         	goto	i2u569_40
  9533   000042                     i2u569_41:
  9534   000042  EF35  F000         	goto	i2l246
  9535   000046                     i2u569_40:
  9536   000046                     
  9537                           ; BSR set to: 14
  9538                           ;mcc_generated_files/interrupt_manager.c: 66:     {;mcc_generated_files/interrupt_manage
      +                          r.c: 67:         if(PIE4bits.TMR2IE == 1 && PIR4bits.TMR2IF == 1)
  9539   000046  A3C1               	btfss	193,1,b	;volatile
  9540   000048  EF28  F000         	goto	i2u570_41
  9541   00004C  EF2A  F000         	goto	i2u570_40
  9542   000050                     i2u570_41:
  9543   000050  EF35  F000         	goto	i2l245
  9544   000054                     i2u570_40:
  9545   000054                     
  9546                           ; BSR set to: 14
  9547   000054  A3C9               	btfss	201,1,b	;volatile
  9548   000056  EF2F  F000         	goto	i2u571_41
  9549   00005A  EF31  F000         	goto	i2u571_40
  9550   00005E                     i2u571_41:
  9551   00005E  EF35  F000         	goto	i2l245
  9552   000062                     i2u571_40:
  9553   000062                     
  9554                           ; BSR set to: 14
  9555                           ;mcc_generated_files/interrupt_manager.c: 68:         {;mcc_generated_files/interrupt_ma
      +                          nager.c: 69:             TMR2_ISR();
  9556   000062  EC9A  F022         	call	_TMR2_ISR	;wreg free
  9557                           
  9558                           ;mcc_generated_files/interrupt_manager.c: 70:         }
  9559   000066  EF35  F000         	goto	i2l246
  9560   00006A                     i2l245:
  9561   00006A                     i2l246:
  9562   00006A  C039  FFFB         	movff	??_INTERRUPT_InterruptManager+1,pclatu
  9563   00006E  C038  FFFA         	movff	??_INTERRUPT_InterruptManager,pclath
  9564   000072  925F               	bcf	int$flags,1,c	;clear compiler interrupt flag (level 2)
  9565   000074  0011               	retfie		f
  9566   000076                     __end_of_INTERRUPT_InterruptManager:
  9567                           	callstack 0
  9568                           
  9569 ;; *************** function _TMR2_ISR *****************
  9570 ;; Defined at:
  9571 ;;		line 165 in file "mcc_generated_files/tmr2.c"
  9572 ;; Parameters:    Size  Location     Type
  9573 ;;		None
  9574 ;; Auto vars:     Size  Location     Type
  9575 ;;		None
  9576 ;; Return value:  Size  Location     Type
  9577 ;;                  1    wreg      void 
  9578 ;; Registers used:
  9579 ;;		wreg, status,2, status,0, pcl, pclath, pclatu, tosl, cstack
  9580 ;; Tracked objects:
  9581 ;;		On entry : 0/0
  9582 ;;		On exit  : 0/0
  9583 ;;		Unchanged: 0/0
  9584 ;; Data sizes:     COMRAM   BANK0   BANK1   BANK2   BANK3   BANK4   BANK5   BANK6   BANK7   BANK8   BANK9  BANK10  BANK1
      +1  BANK12  BANK14
  9585 ;;      Params:         0       0       0       0       0       0       0       0       0       0       0       0       
      +0       0       0
  9586 ;;      Locals:         0       0       0       0       0       0       0       0       0       0       0       0       
      +0       0       0
  9587 ;;      Temps:          0       0       0       0       0       0       0       0       0       0       0       0       
      +0       0       0
  9588 ;;      Totals:         0       0       0       0       0       0       0       0       0       0       0       0       
      +0       0       0
  9589 ;;Total ram usage:        0 bytes
  9590 ;; Hardware stack levels used: 1
  9591 ;; Hardware stack levels required when called: 1
  9592 ;; This function calls:
  9593 ;;		NULL
  9594 ;;		_TMR2_DefaultInterruptHandler
  9595 ;;		_timer_callback
  9596 ;; This function is called by:
  9597 ;;		_INTERRUPT_InterruptManager
  9598 ;; This function uses a non-reentrant model
  9599 ;;
  9600                           
  9601                           	psect	text44
  9602   004534                     __ptext44:
  9603                           	callstack 0
  9604   004534                     _TMR2_ISR:
  9605                           	callstack 19
  9606   004534                     
  9607                           ;mcc_generated_files/tmr2.c: 169:     PIR4bits.TMR2IF = 0;
  9608   004534  010E               	movlb	14	; () banked
  9609   004536  93C9               	bcf	201,1,b	;volatile
  9610   004538                     
  9611                           ; BSR set to: 14
  9612                           ;mcc_generated_files/tmr2.c: 171:     if(TMR2_InterruptHandler)
  9613   004538  0100               	movlb	0	; () banked
  9614   00453A  51F6               	movf	_TMR2_InterruptHandler& (0+255),w,b
  9615   00453C  11F7               	iorwf	(_TMR2_InterruptHandler+1)& (0+255),w,b
  9616   00453E  11F8               	iorwf	(_TMR2_InterruptHandler+2)& (0+255),w,b
  9617   004540  B4D8               	btfsc	status,2,c
  9618   004542  EFA5  F022         	goto	i2u551_41
  9619   004546  EFA7  F022         	goto	i2u551_40
  9620   00454A                     i2u551_41:
  9621   00454A  EFB4  F022         	goto	i2l118
  9622   00454E                     i2u551_40:
  9623   00454E                     
  9624                           ; BSR set to: 0
  9625                           ;mcc_generated_files/tmr2.c: 172:     {;mcc_generated_files/tmr2.c: 173:         TMR2_In
      +                          terruptHandler();
  9626   00454E  D802               	call	i2u552_48
  9627   004550  EFB4  F022         	goto	i2u552_49
  9628   004554                     i2u552_48:
  9629   004554  0005               	push	
  9630   004556  6EFA               	movwf	pclath,c
  9631   004558  51F6               	movf	_TMR2_InterruptHandler& (0+255),w,b
  9632   00455A  6EFD               	movwf	tosl,c
  9633   00455C  51F7               	movf	(_TMR2_InterruptHandler+1)& (0+255),w,b
  9634   00455E  6EFE               	movwf	tosh,c
  9635   004560  51F8               	movf	(_TMR2_InterruptHandler+2)& (0+255),w,b
  9636   004562  6EFF               	movwf	tosu,c
  9637   004564  50FA               	movf	pclath,w,c
  9638   004566  0012               	return		;indir
  9639   004568                     i2u552_49:
  9640   004568                     i2l118:
  9641   004568  0012               	return		;funcret
  9642   00456A                     __end_of_TMR2_ISR:
  9643                           	callstack 0
  9644                           
  9645 ;; *************** function _TMR2_DefaultInterruptHandler *****************
  9646 ;; Defined at:
  9647 ;;		line 182 in file "mcc_generated_files/tmr2.c"
  9648 ;; Parameters:    Size  Location     Type
  9649 ;;		None
  9650 ;; Auto vars:     Size  Location     Type
  9651 ;;		None
  9652 ;; Return value:  Size  Location     Type
  9653 ;;                  1    wreg      void 
  9654 ;; Registers used:
  9655 ;;		None
  9656 ;; Tracked objects:
  9657 ;;		On entry : 0/0
  9658 ;;		On exit  : 0/0
  9659 ;;		Unchanged: 0/0
  9660 ;; Data sizes:     COMRAM   BANK0   BANK1   BANK2   BANK3   BANK4   BANK5   BANK6   BANK7   BANK8   BANK9  BANK10  BANK1
      +1  BANK12  BANK14
  9661 ;;      Params:         0       0       0       0       0       0       0       0       0       0       0       0       
      +0       0       0
  9662 ;;      Locals:         0       0       0       0       0       0       0       0       0       0       0       0       
      +0       0       0
  9663 ;;      Temps:          0       0       0       0       0       0       0       0       0       0       0       0       
      +0       0       0
  9664 ;;      Totals:         0       0       0       0       0       0       0       0       0       0       0       0       
      +0       0       0
  9665 ;;Total ram usage:        0 bytes
  9666 ;; Hardware stack levels used: 1
  9667 ;; This function calls:
  9668 ;;		Nothing
  9669 ;; This function is called by:
  9670 ;;		_TMR2_Initialize
  9671 ;;		_TMR2_ISR
  9672 ;; This function uses a non-reentrant model
  9673 ;;
  9674                           
  9675                           	psect	text45
  9676   00475A                     __ptext45:
  9677                           	callstack 0
  9678   00475A                     _TMR2_DefaultInterruptHandler:
  9679                           	callstack 19
  9680   00475A  0012               	return		;funcret
  9681   00475C                     __end_of_TMR2_DefaultInterruptHandler:
  9682                           	callstack 0
  9683                           
  9684 ;; *************** function _timer_callback *****************
  9685 ;; Defined at:
  9686 ;;		line 55 in file "main.c"
  9687 ;; Parameters:    Size  Location     Type
  9688 ;;		None
  9689 ;; Auto vars:     Size  Location     Type
  9690 ;;		None
  9691 ;; Return value:  Size  Location     Type
  9692 ;;                  1    wreg      void 
  9693 ;; Registers used:
  9694 ;;		wreg, status,2, status,0
  9695 ;; Tracked objects:
  9696 ;;		On entry : 0/0
  9697 ;;		On exit  : 0/0
  9698 ;;		Unchanged: 0/0
  9699 ;; Data sizes:     COMRAM   BANK0   BANK1   BANK2   BANK3   BANK4   BANK5   BANK6   BANK7   BANK8   BANK9  BANK10  BANK1
      +1  BANK12  BANK14
  9700 ;;      Params:         0       0       0       0       0       0       0       0       0       0       0       0       
      +0       0       0
  9701 ;;      Locals:         0       0       0       0       0       0       0       0       0       0       0       0       
      +0       0       0
  9702 ;;      Temps:          0       0       0       0       0       0       0       0       0       0       0       0       
      +0       0       0
  9703 ;;      Totals:         0       0       0       0       0       0       0       0       0       0       0       0       
      +0       0       0
  9704 ;;Total ram usage:        0 bytes
  9705 ;; Hardware stack levels used: 1
  9706 ;; This function calls:
  9707 ;;		Nothing
  9708 ;; This function is called by:
  9709 ;;		_main
  9710 ;;		_TMR2_ISR
  9711 ;; This function uses a non-reentrant model
  9712 ;;
  9713                           
  9714                           	psect	text46
  9715   004604                     __ptext46:
  9716                           	callstack 0
  9717   004604                     _timer_callback:
  9718                           	callstack 19
  9719   004604  8086               	bsf	134,0,c	;volatile
  9720   004606                     
  9721                           ;main.c: 58:     t_ms++;
  9722   004606  4A48               	infsnz	_t_ms^0,f,c
  9723   004608  2A49               	incf	(_t_ms+1)^0,f,c
  9724   00460A                     
  9725                           ;main.c: 60:     if (t_ms >= 1000){
  9726   00460A  0EE8               	movlw	232
  9727   00460C  5C48               	subwf	_t_ms^0,w,c
  9728   00460E  0E03               	movlw	3
  9729   004610  5849               	subwfb	(_t_ms+1)^0,w,c
  9730   004612  A0D8               	btfss	status,0,c
  9731   004614  EF0E  F023         	goto	i2u549_41
  9732   004618  EF10  F023         	goto	i2u549_40
  9733   00461C                     i2u549_41:
  9734   00461C  EF19  F023         	goto	i2l412
  9735   004620                     i2u549_40:
  9736   004620                     
  9737                           ;main.c: 62:         t_ms = t_ms - 1000;
  9738   004620  0E18               	movlw	24
  9739   004622  2448               	addwf	_t_ms^0,w,c
  9740   004624  6E48               	movwf	_t_ms^0,c
  9741   004626  0EFC               	movlw	252
  9742   004628  2049               	addwfc	(_t_ms+1)^0,w,c
  9743   00462A  6E49               	movwf	(_t_ms+1)^0,c
  9744   00462C                     
  9745                           ;main.c: 63:         t_s++;
  9746   00462C  4A46               	infsnz	_t_s^0,f,c
  9747   00462E  2A47               	incf	(_t_s+1)^0,f,c
  9748   004630  9086               	bcf	134,0,c	;volatile
  9749   004632                     i2l412:
  9750   004632  0012               	return		;funcret
  9751   004634                     __end_of_timer_callback:
  9752                           	callstack 0
  9753                           
  9754 ;; *************** function _PIN_MANAGER_IOC *****************
  9755 ;; Defined at:
  9756 ;;		line 155 in file "mcc_generated_files/pin_manager.c"
  9757 ;; Parameters:    Size  Location     Type
  9758 ;;		None
  9759 ;; Auto vars:     Size  Location     Type
  9760 ;;		None
  9761 ;; Return value:  Size  Location     Type
  9762 ;;                  1    wreg      void 
  9763 ;; Registers used:
  9764 ;;		wreg, status,2, status,0, pcl, pclath, pclatu, tosl, cstack
  9765 ;; Tracked objects:
  9766 ;;		On entry : 0/0
  9767 ;;		On exit  : 0/0
  9768 ;;		Unchanged: 0/0
  9769 ;; Data sizes:     COMRAM   BANK0   BANK1   BANK2   BANK3   BANK4   BANK5   BANK6   BANK7   BANK8   BANK9  BANK10  BANK1
      +1  BANK12  BANK14
  9770 ;;      Params:         0       0       0       0       0       0       0       0       0       0       0       0       
      +0       0       0
  9771 ;;      Locals:         0       0       0       0       0       0       0       0       0       0       0       0       
      +0       0       0
  9772 ;;      Temps:          0       0       0       0       0       0       0       0       0       0       0       0       
      +0       0       0
  9773 ;;      Totals:         0       0       0       0       0       0       0       0       0       0       0       0       
      +0       0       0
  9774 ;;Total ram usage:        0 bytes
  9775 ;; Hardware stack levels used: 1
  9776 ;; Hardware stack levels required when called: 3
  9777 ;; This function calls:
  9778 ;;		_IOCAF0_ISR
  9779 ;;		_IOCAF1_ISR
  9780 ;; This function is called by:
  9781 ;;		_INTERRUPT_InterruptManager
  9782 ;; This function uses a non-reentrant model
  9783 ;;
  9784                           
  9785                           	psect	text47
  9786   004634                     __ptext47:
  9787                           	callstack 0
  9788   004634                     _PIN_MANAGER_IOC:
  9789                           	callstack 17
  9790   004634                     
  9791                           ;mcc_generated_files/pin_manager.c: 158:     if(IOCAFbits.IOCAF0 == 1)
  9792   004634  010F               	movlb	15	; () banked
  9793   004636  A105               	btfss	5,0,b	;volatile
  9794   004638  EF20  F023         	goto	i2u555_41
  9795   00463C  EF22  F023         	goto	i2u555_40
  9796   004640                     i2u555_41:
  9797   004640  EF24  F023         	goto	i2l5063
  9798   004644                     i2u555_40:
  9799   004644                     
  9800                           ; BSR set to: 15
  9801                           ;mcc_generated_files/pin_manager.c: 159:     {;mcc_generated_files/pin_manager.c: 160:  
      +                                 IOCAF0_ISR();
  9802   004644  ECCF  F022         	call	_IOCAF0_ISR	;wreg free
  9803   004648                     i2l5063:
  9804                           
  9805                           ;mcc_generated_files/pin_manager.c: 163:     if(IOCAFbits.IOCAF1 == 1)
  9806   004648  010F               	movlb	15	; () banked
  9807   00464A  A305               	btfss	5,1,b	;volatile
  9808   00464C  EF2A  F023         	goto	i2u556_41
  9809   004650  EF2C  F023         	goto	i2u556_40
  9810   004654                     i2u556_41:
  9811   004654  EF2E  F023         	goto	i2l354
  9812   004658                     i2u556_40:
  9813   004658                     
  9814                           ; BSR set to: 15
  9815                           ;mcc_generated_files/pin_manager.c: 164:     {;mcc_generated_files/pin_manager.c: 165:  
      +                                 IOCAF1_ISR();
  9816   004658  ECB5  F022         	call	_IOCAF1_ISR	;wreg free
  9817   00465C                     i2l354:
  9818   00465C  0012               	return		;funcret
  9819   00465E                     __end_of_PIN_MANAGER_IOC:
  9820                           	callstack 0
  9821                           
  9822 ;; *************** function _IOCAF1_ISR *****************
  9823 ;; Defined at:
  9824 ;;		line 202 in file "mcc_generated_files/pin_manager.c"
  9825 ;; Parameters:    Size  Location     Type
  9826 ;;		None
  9827 ;; Auto vars:     Size  Location     Type
  9828 ;;		None
  9829 ;; Return value:  Size  Location     Type
  9830 ;;                  1    wreg      void 
  9831 ;; Registers used:
  9832 ;;		wreg, status,2, status,0, pcl, pclath, pclatu, tosl, cstack
  9833 ;; Tracked objects:
  9834 ;;		On entry : 0/0
  9835 ;;		On exit  : 0/0
  9836 ;;		Unchanged: 0/0
  9837 ;; Data sizes:     COMRAM   BANK0   BANK1   BANK2   BANK3   BANK4   BANK5   BANK6   BANK7   BANK8   BANK9  BANK10  BANK1
      +1  BANK12  BANK14
  9838 ;;      Params:         0       0       0       0       0       0       0       0       0       0       0       0       
      +0       0       0
  9839 ;;      Locals:         0       0       0       0       0       0       0       0       0       0       0       0       
      +0       0       0
  9840 ;;      Temps:          0       0       0       0       0       0       0       0       0       0       0       0       
      +0       0       0
  9841 ;;      Totals:         0       0       0       0       0       0       0       0       0       0       0       0       
      +0       0       0
  9842 ;;Total ram usage:        0 bytes
  9843 ;; Hardware stack levels used: 1
  9844 ;; Hardware stack levels required when called: 1
  9845 ;; This function calls:
  9846 ;;		NULL
  9847 ;;		_IOCAF1_DefaultInterruptHandler
  9848 ;; This function is called by:
  9849 ;;		_PIN_MANAGER_IOC
  9850 ;; This function uses a non-reentrant model
  9851 ;;
  9852                           
  9853                           	psect	text48
  9854   00456A                     __ptext48:
  9855                           	callstack 0
  9856   00456A                     _IOCAF1_ISR:
  9857                           	callstack 18
  9858   00456A                     
  9859                           ;mcc_generated_files/pin_manager.c: 207:     if(IOCAF1_InterruptHandler)
  9860   00456A  504E               	movf	_IOCAF1_InterruptHandler^0,w,c
  9861   00456C  104F               	iorwf	(_IOCAF1_InterruptHandler+1)^0,w,c
  9862   00456E  1050               	iorwf	(_IOCAF1_InterruptHandler+2)^0,w,c
  9863   004570  B4D8               	btfsc	status,2,c
  9864   004572  EFBD  F022         	goto	i2u260_41
  9865   004576  EFBF  F022         	goto	i2u260_40
  9866   00457A                     i2u260_41:
  9867   00457A  EFCC  F022         	goto	i2l2991
  9868   00457E                     i2u260_40:
  9869   00457E                     
  9870                           ;mcc_generated_files/pin_manager.c: 208:     {;mcc_generated_files/pin_manager.c: 209:  
      +                                 IOCAF1_InterruptHandler();
  9871   00457E  D802               	call	i2u261_48
  9872   004580  EFCC  F022         	goto	i2u261_49
  9873   004584                     i2u261_48:
  9874   004584  0005               	push	
  9875   004586  6EFA               	movwf	pclath,c
  9876   004588  504E               	movf	_IOCAF1_InterruptHandler^0,w,c
  9877   00458A  6EFD               	movwf	tosl,c
  9878   00458C  504F               	movf	(_IOCAF1_InterruptHandler+1)^0,w,c
  9879   00458E  6EFE               	movwf	tosh,c
  9880   004590  5050               	movf	(_IOCAF1_InterruptHandler+2)^0,w,c
  9881   004592  6EFF               	movwf	tosu,c
  9882   004594  50FA               	movf	pclath,w,c
  9883   004596  0012               	return		;indir
  9884   004598                     i2u261_49:
  9885   004598                     i2l2991:
  9886                           
  9887                           ;mcc_generated_files/pin_manager.c: 211:     IOCAFbits.IOCAF1 = 0;
  9888   004598  010F               	movlb	15	; () banked
  9889   00459A  9305               	bcf	5,1,b	;volatile
  9890   00459C                     
  9891                           ; BSR set to: 15
  9892   00459C  0012               	return		;funcret
  9893   00459E                     __end_of_IOCAF1_ISR:
  9894                           	callstack 0
  9895                           
  9896 ;; *************** function _IOCAF1_DefaultInterruptHandler *****************
  9897 ;; Defined at:
  9898 ;;		line 224 in file "mcc_generated_files/pin_manager.c"
  9899 ;; Parameters:    Size  Location     Type
  9900 ;;		None
  9901 ;; Auto vars:     Size  Location     Type
  9902 ;;		None
  9903 ;; Return value:  Size  Location     Type
  9904 ;;                  1    wreg      void 
  9905 ;; Registers used:
  9906 ;;		None
  9907 ;; Tracked objects:
  9908 ;;		On entry : 0/0
  9909 ;;		On exit  : 0/0
  9910 ;;		Unchanged: 0/0
  9911 ;; Data sizes:     COMRAM   BANK0   BANK1   BANK2   BANK3   BANK4   BANK5   BANK6   BANK7   BANK8   BANK9  BANK10  BANK1
      +1  BANK12  BANK14
  9912 ;;      Params:         0       0       0       0       0       0       0       0       0       0       0       0       
      +0       0       0
  9913 ;;      Locals:         0       0       0       0       0       0       0       0       0       0       0       0       
      +0       0       0
  9914 ;;      Temps:          0       0       0       0       0       0       0       0       0       0       0       0       
      +0       0       0
  9915 ;;      Totals:         0       0       0       0       0       0       0       0       0       0       0       0       
      +0       0       0
  9916 ;;Total ram usage:        0 bytes
  9917 ;; Hardware stack levels used: 1
  9918 ;; This function calls:
  9919 ;;		Nothing
  9920 ;; This function is called by:
  9921 ;;		_PIN_MANAGER_Initialize
  9922 ;;		_IOCAF1_ISR
  9923 ;; This function uses a non-reentrant model
  9924 ;;
  9925                           
  9926                           	psect	text49
  9927   00475C                     __ptext49:
  9928                           	callstack 0
  9929   00475C                     _IOCAF1_DefaultInterruptHandler:
  9930                           	callstack 18
  9931   00475C  0012               	return		;funcret
  9932   00475E                     __end_of_IOCAF1_DefaultInterruptHandler:
  9933                           	callstack 0
  9934                           
  9935 ;; *************** function _IOCAF0_ISR *****************
  9936 ;; Defined at:
  9937 ;;		line 172 in file "mcc_generated_files/pin_manager.c"
  9938 ;; Parameters:    Size  Location     Type
  9939 ;;		None
  9940 ;; Auto vars:     Size  Location     Type
  9941 ;;		None
  9942 ;; Return value:  Size  Location     Type
  9943 ;;                  1    wreg      void 
  9944 ;; Registers used:
  9945 ;;		wreg, status,2, status,0, pcl, pclath, pclatu, tosl, cstack
  9946 ;; Tracked objects:
  9947 ;;		On entry : 0/0
  9948 ;;		On exit  : 0/0
  9949 ;;		Unchanged: 0/0
  9950 ;; Data sizes:     COMRAM   BANK0   BANK1   BANK2   BANK3   BANK4   BANK5   BANK6   BANK7   BANK8   BANK9  BANK10  BANK1
      +1  BANK12  BANK14
  9951 ;;      Params:         0       0       0       0       0       0       0       0       0       0       0       0       
      +0       0       0
  9952 ;;      Locals:         0       0       0       0       0       0       0       0       0       0       0       0       
      +0       0       0
  9953 ;;      Temps:          0       0       0       0       0       0       0       0       0       0       0       0       
      +0       0       0
  9954 ;;      Totals:         0       0       0       0       0       0       0       0       0       0       0       0       
      +0       0       0
  9955 ;;Total ram usage:        0 bytes
  9956 ;; Hardware stack levels used: 1
  9957 ;; Hardware stack levels required when called: 2
  9958 ;; This function calls:
  9959 ;;		NULL
  9960 ;;		_IOCAF0_DefaultInterruptHandler
  9961 ;;		_pin_down
  9962 ;;		_pin_up
  9963 ;; This function is called by:
  9964 ;;		_PIN_MANAGER_IOC
  9965 ;; This function uses a non-reentrant model
  9966 ;;
  9967                           
  9968                           	psect	text50
  9969   00459E                     __ptext50:
  9970                           	callstack 0
  9971   00459E                     _IOCAF0_ISR:
  9972                           	callstack 17
  9973   00459E                     
  9974                           ;mcc_generated_files/pin_manager.c: 177:     if(IOCAF0_InterruptHandler)
  9975   00459E  5051               	movf	_IOCAF0_InterruptHandler^0,w,c
  9976   0045A0  1052               	iorwf	(_IOCAF0_InterruptHandler+1)^0,w,c
  9977   0045A2  1053               	iorwf	(_IOCAF0_InterruptHandler+2)^0,w,c
  9978   0045A4  B4D8               	btfsc	status,2,c
  9979   0045A6  EFD7  F022         	goto	i2u547_41
  9980   0045AA  EFD9  F022         	goto	i2u547_40
  9981   0045AE                     i2u547_41:
  9982   0045AE  EFE6  F022         	goto	i2l5005
  9983   0045B2                     i2u547_40:
  9984   0045B2                     
  9985                           ;mcc_generated_files/pin_manager.c: 178:     {;mcc_generated_files/pin_manager.c: 179:  
      +                                 IOCAF0_InterruptHandler();
  9986   0045B2  D802               	call	i2u548_48
  9987   0045B4  EFE6  F022         	goto	i2u548_49
  9988   0045B8                     i2u548_48:
  9989   0045B8  0005               	push	
  9990   0045BA  6EFA               	movwf	pclath,c
  9991   0045BC  5051               	movf	_IOCAF0_InterruptHandler^0,w,c
  9992   0045BE  6EFD               	movwf	tosl,c
  9993   0045C0  5052               	movf	(_IOCAF0_InterruptHandler+1)^0,w,c
  9994   0045C2  6EFE               	movwf	tosh,c
  9995   0045C4  5053               	movf	(_IOCAF0_InterruptHandler+2)^0,w,c
  9996   0045C6  6EFF               	movwf	tosu,c
  9997   0045C8  50FA               	movf	pclath,w,c
  9998   0045CA  0012               	return		;indir
  9999   0045CC                     i2u548_49:
 10000   0045CC                     i2l5005:
 10001                           
 10002                           ;mcc_generated_files/pin_manager.c: 181:     IOCAFbits.IOCAF0 = 0;
 10003   0045CC  010F               	movlb	15	; () banked
 10004   0045CE  9105               	bcf	5,0,b	;volatile
 10005   0045D0                     
 10006                           ; BSR set to: 15
 10007   0045D0  0012               	return		;funcret
 10008   0045D2                     __end_of_IOCAF0_ISR:
 10009                           	callstack 0
 10010                           
 10011 ;; *************** function _pin_down *****************
 10012 ;; Defined at:
 10013 ;;		line 79 in file "main.c"
 10014 ;; Parameters:    Size  Location     Type
 10015 ;;		None
 10016 ;; Auto vars:     Size  Location     Type
 10017 ;;		None
 10018 ;; Return value:  Size  Location     Type
 10019 ;;                  1    wreg      void 
 10020 ;; Registers used:
 10021 ;;		wreg, status,2, status,0, cstack
 10022 ;; Tracked objects:
 10023 ;;		On entry : 0/0
 10024 ;;		On exit  : 0/0
 10025 ;;		Unchanged: 0/0
 10026 ;; Data sizes:     COMRAM   BANK0   BANK1   BANK2   BANK3   BANK4   BANK5   BANK6   BANK7   BANK8   BANK9  BANK10  BANK1
      +1  BANK12  BANK14
 10027 ;;      Params:         0       0       0       0       0       0       0       0       0       0       0       0       
      +0       0       0
 10028 ;;      Locals:         0       0       0       0       0       0       0       0       0       0       0       0       
      +0       0       0
 10029 ;;      Temps:          0       0       0       0       0       0       0       0       0       0       0       0       
      +0       0       0
 10030 ;;      Totals:         0       0       0       0       0       0       0       0       0       0       0       0       
      +0       0       0
 10031 ;;Total ram usage:        0 bytes
 10032 ;; Hardware stack levels used: 1
 10033 ;; Hardware stack levels required when called: 1
 10034 ;; This function calls:
 10035 ;;		i2___fladd
 10036 ;;		i2___fldiv
 10037 ;;		i2___xxtofl
 10038 ;; This function is called by:
 10039 ;;		_main
 10040 ;;		_IOCAF0_ISR
 10041 ;; This function uses a non-reentrant model
 10042 ;;
 10043                           
 10044                           	psect	text51
 10045   0040EC                     __ptext51:
 10046                           	callstack 0
 10047   0040EC                     _pin_down:
 10048                           	callstack 17
 10049   0040EC  9E84               	bcf	132,7,c	;volatile
 10050   0040EE                     
 10051                           ;main.c: 82:     t_b = (float)t_s + ((float)t_ms/1000);
 10052   0040EE  C046  F001         	movff	_t_s,i2___xxtofl@val
 10053   0040F2  C047  F002         	movff	_t_s+1,i2___xxtofl@val+1
 10054   0040F6  6A03               	clrf	(i2___xxtofl@val+2)^0,c
 10055   0040F8  6A04               	clrf	(i2___xxtofl@val+3)^0,c
 10056   0040FA  0E00               	movlw	0
 10057   0040FC  ECC1  F01A         	call	i2___xxtofl
 10058   004100  C001  F028         	movff	?i2___xxtofl,i2___fladd@b
 10059   004104  C002  F029         	movff	?i2___xxtofl+1,i2___fladd@b+1
 10060   004108  C003  F02A         	movff	?i2___xxtofl+2,i2___fladd@b+2
 10061   00410C  C004  F02B         	movff	?i2___xxtofl+3,i2___fladd@b+3
 10062   004110  0E00               	movlw	0
 10063   004112  6E13               	movwf	i2___fldiv@a^0,c
 10064   004114  0E00               	movlw	0
 10065   004116  6E14               	movwf	(i2___fldiv@a+1)^0,c
 10066   004118  0E7A               	movlw	122
 10067   00411A  6E15               	movwf	(i2___fldiv@a+2)^0,c
 10068   00411C  0E44               	movlw	68
 10069   00411E  6E16               	movwf	(i2___fldiv@a+3)^0,c
 10070   004120  C048  F001         	movff	_t_ms,i2___xxtofl@val
 10071   004124  C049  F002         	movff	_t_ms+1,i2___xxtofl@val+1
 10072   004128  6A03               	clrf	(i2___xxtofl@val+2)^0,c
 10073   00412A  6A04               	clrf	(i2___xxtofl@val+3)^0,c
 10074   00412C  0E00               	movlw	0
 10075   00412E  ECC1  F01A         	call	i2___xxtofl
 10076   004132  C001  F00F         	movff	?i2___xxtofl,i2___fldiv@b
 10077   004136  C002  F010         	movff	?i2___xxtofl+1,i2___fldiv@b+1
 10078   00413A  C003  F011         	movff	?i2___xxtofl+2,i2___fldiv@b+2
 10079   00413E  C004  F012         	movff	?i2___xxtofl+3,i2___fldiv@b+3
 10080   004142  EC4B  F015         	call	i2___fldiv	;wreg free
 10081   004146  C00F  F02C         	movff	?i2___fldiv,i2___fladd@a
 10082   00414A  C010  F02D         	movff	?i2___fldiv+1,i2___fladd@a+1
 10083   00414E  C011  F02E         	movff	?i2___fldiv+2,i2___fladd@a+2
 10084   004152  C012  F02F         	movff	?i2___fldiv+3,i2___fladd@a+3
 10085   004156  EC07  F00F         	call	i2___fladd	;wreg free
 10086   00415A  C028  F042         	movff	?i2___fladd,_t_b
 10087   00415E  C029  F043         	movff	?i2___fladd+1,_t_b+1
 10088   004162  C02A  F044         	movff	?i2___fladd+2,_t_b+2
 10089   004166  C02B  F045         	movff	?i2___fladd+3,_t_b+3
 10090   00416A  0012               	return		;funcret
 10091   00416C                     __end_of_pin_down:
 10092                           	callstack 0
 10093                           
 10094 ;; *************** function _IOCAF0_DefaultInterruptHandler *****************
 10095 ;; Defined at:
 10096 ;;		line 194 in file "mcc_generated_files/pin_manager.c"
 10097 ;; Parameters:    Size  Location     Type
 10098 ;;		None
 10099 ;; Auto vars:     Size  Location     Type
 10100 ;;		None
 10101 ;; Return value:  Size  Location     Type
 10102 ;;                  1    wreg      void 
 10103 ;; Registers used:
 10104 ;;		None
 10105 ;; Tracked objects:
 10106 ;;		On entry : 0/0
 10107 ;;		On exit  : 0/0
 10108 ;;		Unchanged: 0/0
 10109 ;; Data sizes:     COMRAM   BANK0   BANK1   BANK2   BANK3   BANK4   BANK5   BANK6   BANK7   BANK8   BANK9  BANK10  BANK1
      +1  BANK12  BANK14
 10110 ;;      Params:         0       0       0       0       0       0       0       0       0       0       0       0       
      +0       0       0
 10111 ;;      Locals:         0       0       0       0       0       0       0       0       0       0       0       0       
      +0       0       0
 10112 ;;      Temps:          0       0       0       0       0       0       0       0       0       0       0       0       
      +0       0       0
 10113 ;;      Totals:         0       0       0       0       0       0       0       0       0       0       0       0       
      +0       0       0
 10114 ;;Total ram usage:        0 bytes
 10115 ;; Hardware stack levels used: 1
 10116 ;; This function calls:
 10117 ;;		Nothing
 10118 ;; This function is called by:
 10119 ;;		_PIN_MANAGER_Initialize
 10120 ;;		_IOCAF0_ISR
 10121 ;; This function uses a non-reentrant model
 10122 ;;
 10123                           
 10124                           	psect	text52
 10125   00475E                     __ptext52:
 10126                           	callstack 0
 10127   00475E                     _IOCAF0_DefaultInterruptHandler:
 10128                           	callstack 18
 10129   00475E  0012               	return		;funcret
 10130   004760                     __end_of_IOCAF0_DefaultInterruptHandler:
 10131                           	callstack 0
 10132                           
 10133 ;; *************** function _pin_up *****************
 10134 ;; Defined at:
 10135 ;;		line 71 in file "main.c"
 10136 ;; Parameters:    Size  Location     Type
 10137 ;;		None
 10138 ;; Auto vars:     Size  Location     Type
 10139 ;;		None
 10140 ;; Return value:  Size  Location     Type
 10141 ;;                  1    wreg      void 
 10142 ;; Registers used:
 10143 ;;		wreg, status,2, status,0, cstack
 10144 ;; Tracked objects:
 10145 ;;		On entry : 0/0
 10146 ;;		On exit  : 0/0
 10147 ;;		Unchanged: 0/0
 10148 ;; Data sizes:     COMRAM   BANK0   BANK1   BANK2   BANK3   BANK4   BANK5   BANK6   BANK7   BANK8   BANK9  BANK10  BANK1
      +1  BANK12  BANK14
 10149 ;;      Params:         0       0       0       0       0       0       0       0       0       0       0       0       
      +0       0       0
 10150 ;;      Locals:         0       0       0       0       0       0       0       0       0       0       0       0       
      +0       0       0
 10151 ;;      Temps:          0       0       0       0       0       0       0       0       0       0       0       0       
      +0       0       0
 10152 ;;      Totals:         0       0       0       0       0       0       0       0       0       0       0       0       
      +0       0       0
 10153 ;;Total ram usage:        0 bytes
 10154 ;; Hardware stack levels used: 1
 10155 ;; Hardware stack levels required when called: 1
 10156 ;; This function calls:
 10157 ;;		i2___fladd
 10158 ;;		i2___fldiv
 10159 ;;		i2___xxtofl
 10160 ;; This function is called by:
 10161 ;;		_main
 10162 ;;		_IOCAF0_ISR
 10163 ;; This function uses a non-reentrant model
 10164 ;;
 10165                           
 10166                           	psect	text53
 10167   00416C                     __ptext53:
 10168                           	callstack 0
 10169   00416C                     _pin_up:
 10170                           	callstack 17
 10171   00416C  8E84               	bsf	132,7,c	;volatile
 10172   00416E                     
 10173                           ;main.c: 74:     t_b = (float)t_s + ((float)t_ms/1000);
 10174   00416E  C046  F001         	movff	_t_s,i2___xxtofl@val
 10175   004172  C047  F002         	movff	_t_s+1,i2___xxtofl@val+1
 10176   004176  6A03               	clrf	(i2___xxtofl@val+2)^0,c
 10177   004178  6A04               	clrf	(i2___xxtofl@val+3)^0,c
 10178   00417A  0E00               	movlw	0
 10179   00417C  ECC1  F01A         	call	i2___xxtofl
 10180   004180  C001  F028         	movff	?i2___xxtofl,i2___fladd@b
 10181   004184  C002  F029         	movff	?i2___xxtofl+1,i2___fladd@b+1
 10182   004188  C003  F02A         	movff	?i2___xxtofl+2,i2___fladd@b+2
 10183   00418C  C004  F02B         	movff	?i2___xxtofl+3,i2___fladd@b+3
 10184   004190  0E00               	movlw	0
 10185   004192  6E13               	movwf	i2___fldiv@a^0,c
 10186   004194  0E00               	movlw	0
 10187   004196  6E14               	movwf	(i2___fldiv@a+1)^0,c
 10188   004198  0E7A               	movlw	122
 10189   00419A  6E15               	movwf	(i2___fldiv@a+2)^0,c
 10190   00419C  0E44               	movlw	68
 10191   00419E  6E16               	movwf	(i2___fldiv@a+3)^0,c
 10192   0041A0  C048  F001         	movff	_t_ms,i2___xxtofl@val
 10193   0041A4  C049  F002         	movff	_t_ms+1,i2___xxtofl@val+1
 10194   0041A8  6A03               	clrf	(i2___xxtofl@val+2)^0,c
 10195   0041AA  6A04               	clrf	(i2___xxtofl@val+3)^0,c
 10196   0041AC  0E00               	movlw	0
 10197   0041AE  ECC1  F01A         	call	i2___xxtofl
 10198   0041B2  C001  F00F         	movff	?i2___xxtofl,i2___fldiv@b
 10199   0041B6  C002  F010         	movff	?i2___xxtofl+1,i2___fldiv@b+1
 10200   0041BA  C003  F011         	movff	?i2___xxtofl+2,i2___fldiv@b+2
 10201   0041BE  C004  F012         	movff	?i2___xxtofl+3,i2___fldiv@b+3
 10202   0041C2  EC4B  F015         	call	i2___fldiv	;wreg free
 10203   0041C6  C00F  F02C         	movff	?i2___fldiv,i2___fladd@a
 10204   0041CA  C010  F02D         	movff	?i2___fldiv+1,i2___fladd@a+1
 10205   0041CE  C011  F02E         	movff	?i2___fldiv+2,i2___fladd@a+2
 10206   0041D2  C012  F02F         	movff	?i2___fldiv+3,i2___fladd@a+3
 10207   0041D6  EC07  F00F         	call	i2___fladd	;wreg free
 10208   0041DA  C028  F042         	movff	?i2___fladd,_t_b
 10209   0041DE  C029  F043         	movff	?i2___fladd+1,_t_b+1
 10210   0041E2  C02A  F044         	movff	?i2___fladd+2,_t_b+2
 10211   0041E6  C02B  F045         	movff	?i2___fladd+3,_t_b+3
 10212   0041EA  0012               	return		;funcret
 10213   0041EC                     __end_of_pin_up:
 10214                           	callstack 0
 10215                           
 10216 ;; *************** function i2___xxtofl *****************
 10217 ;; Defined at:
 10218 ;;		line 10 in file "/opt/microchip/xc8/v2.45/pic/sources/c99/common/xxtofl.c"
 10219 ;; Parameters:    Size  Location     Type
 10220 ;;  sign            1    wreg     unsigned char 
 10221 ;;  val             4    0[COMRAM] long 
 10222 ;; Auto vars:     Size  Location     Type
 10223 ;;  sign            1    8[COMRAM] unsigned char 
 10224 ;;  arg             4   10[COMRAM] unsigned long 
 10225 ;;  exp             1    9[COMRAM] unsigned char 
 10226 ;; Return value:  Size  Location     Type
 10227 ;;                  4    0[COMRAM] unsigned char 
 10228 ;; Registers used:
 10229 ;;		wreg, status,2, status,0
 10230 ;; Tracked objects:
 10231 ;;		On entry : 0/0
 10232 ;;		On exit  : 0/0
 10233 ;;		Unchanged: 0/0
 10234 ;; Data sizes:     COMRAM   BANK0   BANK1   BANK2   BANK3   BANK4   BANK5   BANK6   BANK7   BANK8   BANK9  BANK10  BANK1
      +1  BANK12  BANK14
 10235 ;;      Params:         4       0       0       0       0       0       0       0       0       0       0       0       
      +0       0       0
 10236 ;;      Locals:         6       0       0       0       0       0       0       0       0       0       0       0       
      +0       0       0
 10237 ;;      Temps:          4       0       0       0       0       0       0       0       0       0       0       0       
      +0       0       0
 10238 ;;      Totals:        14       0       0       0       0       0       0       0       0       0       0       0       
      +0       0       0
 10239 ;;Total ram usage:       14 bytes
 10240 ;; Hardware stack levels used: 1
 10241 ;; This function calls:
 10242 ;;		Nothing
 10243 ;; This function is called by:
 10244 ;;		_pin_up
 10245 ;;		_pin_down
 10246 ;; This function uses a non-reentrant model
 10247 ;;
 10248                           
 10249                           	psect	text54
 10250   003582                     __ptext54:
 10251                           	callstack 0
 10252   003582                     i2___xxtofl:
 10253                           	callstack 17
 10254                           
 10255                           ;incstack = 0
 10256                           ;i2___xxtofl@sign stored from wreg
 10257   003582  6E09               	movwf	i2___xxtofl@sign^0,c
 10258   003584  5009               	movf	i2___xxtofl@sign^0,w,c
 10259   003586  B4D8               	btfsc	status,2,c
 10260   003588  EFC8  F01A         	goto	i2u532_41
 10261   00358C  EFCA  F01A         	goto	i2u532_40
 10262   003590                     i2u532_41:
 10263   003590  EFEC  F01A         	goto	i2l1097
 10264   003594                     i2u532_40:
 10265   003594  BE04               	btfsc	(i2___xxtofl@val+3)^0,7,c
 10266   003596  EFD1  F01A         	goto	i2u533_40
 10267   00359A  EFCF  F01A         	goto	i2u533_41
 10268   00359E                     i2u533_41:
 10269   00359E  EFEC  F01A         	goto	i2l1097
 10270   0035A2                     i2u533_40:
 10271   0035A2  C001  F005         	movff	i2___xxtofl@val,??i2___xxtofl
 10272   0035A6  C002  F006         	movff	i2___xxtofl@val+1,??i2___xxtofl+1
 10273   0035AA  C003  F007         	movff	i2___xxtofl@val+2,??i2___xxtofl+2
 10274   0035AE  C004  F008         	movff	i2___xxtofl@val+3,??i2___xxtofl+3
 10275   0035B2  1E05               	comf	??i2___xxtofl^0,f,c
 10276   0035B4  1E06               	comf	(??i2___xxtofl+1)^0,f,c
 10277   0035B6  1E07               	comf	(??i2___xxtofl+2)^0,f,c
 10278   0035B8  1E08               	comf	(??i2___xxtofl+3)^0,f,c
 10279   0035BA  2A05               	incf	??i2___xxtofl^0,f,c
 10280   0035BC  0E00               	movlw	0
 10281   0035BE  2206               	addwfc	(??i2___xxtofl+1)^0,f,c
 10282   0035C0  2207               	addwfc	(??i2___xxtofl+2)^0,f,c
 10283   0035C2  2208               	addwfc	(??i2___xxtofl+3)^0,f,c
 10284   0035C4  C005  F00B         	movff	??i2___xxtofl,i2___xxtofl@arg
 10285   0035C8  C006  F00C         	movff	??i2___xxtofl+1,i2___xxtofl@arg+1
 10286   0035CC  C007  F00D         	movff	??i2___xxtofl+2,i2___xxtofl@arg+2
 10287   0035D0  C008  F00E         	movff	??i2___xxtofl+3,i2___xxtofl@arg+3
 10288   0035D4  EFF4  F01A         	goto	i2l4757
 10289   0035D8                     i2l1097:
 10290   0035D8  C001  F00B         	movff	i2___xxtofl@val,i2___xxtofl@arg
 10291   0035DC  C002  F00C         	movff	i2___xxtofl@val+1,i2___xxtofl@arg+1
 10292   0035E0  C003  F00D         	movff	i2___xxtofl@val+2,i2___xxtofl@arg+2
 10293   0035E4  C004  F00E         	movff	i2___xxtofl@val+3,i2___xxtofl@arg+3
 10294   0035E8                     i2l4757:
 10295   0035E8  5001               	movf	i2___xxtofl@val^0,w,c
 10296   0035EA  1002               	iorwf	(i2___xxtofl@val+1)^0,w,c
 10297   0035EC  1003               	iorwf	(i2___xxtofl@val+2)^0,w,c
 10298   0035EE  1004               	iorwf	(i2___xxtofl@val+3)^0,w,c
 10299   0035F0  A4D8               	btfss	status,2,c
 10300   0035F2  EFFD  F01A         	goto	i2u534_41
 10301   0035F6  EFFF  F01A         	goto	i2u534_40
 10302   0035FA                     i2u534_41:
 10303   0035FA  EF09  F01B         	goto	i2l4763
 10304   0035FE                     i2u534_40:
 10305   0035FE  0E00               	movlw	0
 10306   003600  6E01               	movwf	?i2___xxtofl^0,c
 10307   003602  0E00               	movlw	0
 10308   003604  6E02               	movwf	(?i2___xxtofl+1)^0,c
 10309   003606  0E00               	movlw	0
 10310   003608  6E03               	movwf	(?i2___xxtofl+2)^0,c
 10311   00360A  0E00               	movlw	0
 10312   00360C  6E04               	movwf	(?i2___xxtofl+3)^0,c
 10313   00360E  EF9A  F01B         	goto	i2l1100
 10314   003612                     i2l4763:
 10315   003612  0E96               	movlw	150
 10316   003614  6E0A               	movwf	i2___xxtofl@exp^0,c
 10317   003616  EF13  F01B         	goto	i2l4767
 10318   00361A                     i2l4765:
 10319   00361A  2A0A               	incf	i2___xxtofl@exp^0,f,c
 10320   00361C  90D8               	bcf	status,0,c
 10321   00361E  320E               	rrcf	(i2___xxtofl@arg+3)^0,f,c
 10322   003620  320D               	rrcf	(i2___xxtofl@arg+2)^0,f,c
 10323   003622  320C               	rrcf	(i2___xxtofl@arg+1)^0,f,c
 10324   003624  320B               	rrcf	i2___xxtofl@arg^0,f,c
 10325   003626                     i2l4767:
 10326   003626  0E00               	movlw	0
 10327   003628  140B               	andwf	i2___xxtofl@arg^0,w,c
 10328   00362A  6E05               	movwf	??i2___xxtofl^0,c
 10329   00362C  0E00               	movlw	0
 10330   00362E  140C               	andwf	(i2___xxtofl@arg+1)^0,w,c
 10331   003630  6E06               	movwf	(??i2___xxtofl+1)^0,c
 10332   003632  0E00               	movlw	0
 10333   003634  140D               	andwf	(i2___xxtofl@arg+2)^0,w,c
 10334   003636  6E07               	movwf	(??i2___xxtofl+2)^0,c
 10335   003638  0EFE               	movlw	254
 10336   00363A  140E               	andwf	(i2___xxtofl@arg+3)^0,w,c
 10337   00363C  6E08               	movwf	(??i2___xxtofl+3)^0,c
 10338   00363E  5005               	movf	??i2___xxtofl^0,w,c
 10339   003640  1006               	iorwf	(??i2___xxtofl+1)^0,w,c
 10340   003642  1007               	iorwf	(??i2___xxtofl+2)^0,w,c
 10341   003644  1008               	iorwf	(??i2___xxtofl+3)^0,w,c
 10342   003646  A4D8               	btfss	status,2,c
 10343   003648  EF28  F01B         	goto	i2u535_41
 10344   00364C  EF2A  F01B         	goto	i2u535_40
 10345   003650                     i2u535_41:
 10346   003650  EF0D  F01B         	goto	i2l4765
 10347   003654                     i2u535_40:
 10348   003654  EF38  F01B         	goto	i2l1104
 10349   003658                     i2l4769:
 10350   003658  2A0A               	incf	i2___xxtofl@exp^0,f,c
 10351   00365A  0E01               	movlw	1
 10352   00365C  260B               	addwf	i2___xxtofl@arg^0,f,c
 10353   00365E  0E00               	movlw	0
 10354   003660  220C               	addwfc	(i2___xxtofl@arg+1)^0,f,c
 10355   003662  220D               	addwfc	(i2___xxtofl@arg+2)^0,f,c
 10356   003664  220E               	addwfc	(i2___xxtofl@arg+3)^0,f,c
 10357   003666  90D8               	bcf	status,0,c
 10358   003668  320E               	rrcf	(i2___xxtofl@arg+3)^0,f,c
 10359   00366A  320D               	rrcf	(i2___xxtofl@arg+2)^0,f,c
 10360   00366C  320C               	rrcf	(i2___xxtofl@arg+1)^0,f,c
 10361   00366E  320B               	rrcf	i2___xxtofl@arg^0,f,c
 10362   003670                     i2l1104:
 10363   003670  0E00               	movlw	0
 10364   003672  140B               	andwf	i2___xxtofl@arg^0,w,c
 10365   003674  6E05               	movwf	??i2___xxtofl^0,c
 10366   003676  0E00               	movlw	0
 10367   003678  140C               	andwf	(i2___xxtofl@arg+1)^0,w,c
 10368   00367A  6E06               	movwf	(??i2___xxtofl+1)^0,c
 10369   00367C  0E00               	movlw	0
 10370   00367E  140D               	andwf	(i2___xxtofl@arg+2)^0,w,c
 10371   003680  6E07               	movwf	(??i2___xxtofl+2)^0,c
 10372   003682  0EFF               	movlw	255
 10373   003684  140E               	andwf	(i2___xxtofl@arg+3)^0,w,c
 10374   003686  6E08               	movwf	(??i2___xxtofl+3)^0,c
 10375   003688  5005               	movf	??i2___xxtofl^0,w,c
 10376   00368A  1006               	iorwf	(??i2___xxtofl+1)^0,w,c
 10377   00368C  1007               	iorwf	(??i2___xxtofl+2)^0,w,c
 10378   00368E  1008               	iorwf	(??i2___xxtofl+3)^0,w,c
 10379   003690  A4D8               	btfss	status,2,c
 10380   003692  EF4D  F01B         	goto	i2u536_41
 10381   003696  EF4F  F01B         	goto	i2u536_40
 10382   00369A                     i2u536_41:
 10383   00369A  EF2C  F01B         	goto	i2l4769
 10384   00369E                     i2u536_40:
 10385   00369E  EF57  F01B         	goto	i2l4777
 10386   0036A2                     i2l4775:
 10387   0036A2  060A               	decf	i2___xxtofl@exp^0,f,c
 10388   0036A4  90D8               	bcf	status,0,c
 10389   0036A6  360B               	rlcf	i2___xxtofl@arg^0,f,c
 10390   0036A8  360C               	rlcf	(i2___xxtofl@arg+1)^0,f,c
 10391   0036AA  360D               	rlcf	(i2___xxtofl@arg+2)^0,f,c
 10392   0036AC  360E               	rlcf	(i2___xxtofl@arg+3)^0,f,c
 10393   0036AE                     i2l4777:
 10394   0036AE  BE0D               	btfsc	(i2___xxtofl@arg+2)^0,7,c
 10395   0036B0  EF5C  F01B         	goto	i2u537_41
 10396   0036B4  EF5E  F01B         	goto	i2u537_40
 10397   0036B8                     i2u537_41:
 10398   0036B8  EF66  F01B         	goto	i2l1111
 10399   0036BC                     i2u537_40:
 10400   0036BC  0E02               	movlw	2
 10401   0036BE  600A               	cpfslt	i2___xxtofl@exp^0,c
 10402   0036C0  EF64  F01B         	goto	i2u538_41
 10403   0036C4  EF66  F01B         	goto	i2u538_40
 10404   0036C8                     i2u538_41:
 10405   0036C8  EF51  F01B         	goto	i2l4775
 10406   0036CC                     i2u538_40:
 10407   0036CC                     i2l1111:
 10408   0036CC  B00A               	btfsc	i2___xxtofl@exp^0,0,c
 10409   0036CE  EF6B  F01B         	goto	i2u539_41
 10410   0036D2  EF6D  F01B         	goto	i2u539_40
 10411   0036D6                     i2u539_41:
 10412   0036D6  EF6E  F01B         	goto	i2l4783
 10413   0036DA                     i2u539_40:
 10414   0036DA  9E0D               	bcf	(i2___xxtofl@arg+2)^0,7,c
 10415   0036DC                     i2l4783:
 10416   0036DC  90D8               	bcf	status,0,c
 10417   0036DE  320A               	rrcf	i2___xxtofl@exp^0,f,c
 10418   0036E0  C00A  F005         	movff	i2___xxtofl@exp,??i2___xxtofl
 10419   0036E4  6A06               	clrf	(??i2___xxtofl+1)^0,c
 10420   0036E6  6A07               	clrf	(??i2___xxtofl+2)^0,c
 10421   0036E8  6A08               	clrf	(??i2___xxtofl+3)^0,c
 10422   0036EA  C005  F008         	movff	??i2___xxtofl,??i2___xxtofl+3
 10423   0036EE  6A07               	clrf	(??i2___xxtofl+2)^0,c
 10424   0036F0  6A06               	clrf	(??i2___xxtofl+1)^0,c
 10425   0036F2  6A05               	clrf	??i2___xxtofl^0,c
 10426   0036F4  5005               	movf	??i2___xxtofl^0,w,c
 10427   0036F6  120B               	iorwf	i2___xxtofl@arg^0,f,c
 10428   0036F8  5006               	movf	(??i2___xxtofl+1)^0,w,c
 10429   0036FA  120C               	iorwf	(i2___xxtofl@arg+1)^0,f,c
 10430   0036FC  5007               	movf	(??i2___xxtofl+2)^0,w,c
 10431   0036FE  120D               	iorwf	(i2___xxtofl@arg+2)^0,f,c
 10432   003700  5008               	movf	(??i2___xxtofl+3)^0,w,c
 10433   003702  120E               	iorwf	(i2___xxtofl@arg+3)^0,f,c
 10434   003704  5009               	movf	i2___xxtofl@sign^0,w,c
 10435   003706  B4D8               	btfsc	status,2,c
 10436   003708  EF88  F01B         	goto	i2u540_41
 10437   00370C  EF8A  F01B         	goto	i2u540_40
 10438   003710                     i2u540_41:
 10439   003710  EF92  F01B         	goto	i2l4793
 10440   003714                     i2u540_40:
 10441   003714  BE04               	btfsc	(i2___xxtofl@val+3)^0,7,c
 10442   003716  EF91  F01B         	goto	i2u541_40
 10443   00371A  EF8F  F01B         	goto	i2u541_41
 10444   00371E                     i2u541_41:
 10445   00371E  EF92  F01B         	goto	i2l4793
 10446   003722                     i2u541_40:
 10447   003722  8E0E               	bsf	(i2___xxtofl@arg+3)^0,7,c
 10448   003724                     i2l4793:
 10449   003724  C00B  F001         	movff	i2___xxtofl@arg,?i2___xxtofl
 10450   003728  C00C  F002         	movff	i2___xxtofl@arg+1,?i2___xxtofl+1
 10451   00372C  C00D  F003         	movff	i2___xxtofl@arg+2,?i2___xxtofl+2
 10452   003730  C00E  F004         	movff	i2___xxtofl@arg+3,?i2___xxtofl+3
 10453   003734                     i2l1100:
 10454   003734  0012               	return		;funcret
 10455   003736                     __end_ofi2___xxtofl:
 10456                           	callstack 0
 10457                           
 10458 ;; *************** function i2___fldiv *****************
 10459 ;; Defined at:
 10460 ;;		line 11 in file "/opt/microchip/xc8/v2.45/pic/sources/c99/common/sprcdiv.c"
 10461 ;; Parameters:    Size  Location     Type
 10462 ;;  b               4   14[COMRAM] unsigned char 
 10463 ;;  a               4   18[COMRAM] unsigned char 
 10464 ;; Auto vars:     Size  Location     Type
 10465 ;;  grs             4   33[COMRAM] unsigned long 
 10466 ;;  rem             4   26[COMRAM] unsigned long 
 10467 ;;  new_exp         2   31[COMRAM] short 
 10468 ;;  aexp            1   38[COMRAM] unsigned char 
 10469 ;;  bexp            1   37[COMRAM] unsigned char 
 10470 ;;  sign            1   30[COMRAM] unsigned char 
 10471 ;; Return value:  Size  Location     Type
 10472 ;;                  4   14[COMRAM] unsigned char 
 10473 ;; Registers used:
 10474 ;;		wreg, status,2, status,0
 10475 ;; Tracked objects:
 10476 ;;		On entry : 0/0
 10477 ;;		On exit  : 0/0
 10478 ;;		Unchanged: 0/0
 10479 ;; Data sizes:     COMRAM   BANK0   BANK1   BANK2   BANK3   BANK4   BANK5   BANK6   BANK7   BANK8   BANK9  BANK10  BANK1
      +1  BANK12  BANK14
 10480 ;;      Params:         8       0       0       0       0       0       0       0       0       0       0       0       
      +0       0       0
 10481 ;;      Locals:        13       0       0       0       0       0       0       0       0       0       0       0       
      +0       0       0
 10482 ;;      Temps:          4       0       0       0       0       0       0       0       0       0       0       0       
      +0       0       0
 10483 ;;      Totals:        25       0       0       0       0       0       0       0       0       0       0       0       
      +0       0       0
 10484 ;;Total ram usage:       25 bytes
 10485 ;; Hardware stack levels used: 1
 10486 ;; This function calls:
 10487 ;;		Nothing
 10488 ;; This function is called by:
 10489 ;;		_pin_up
 10490 ;;		_pin_down
 10491 ;; This function uses a non-reentrant model
 10492 ;;
 10493                           
 10494                           	psect	text55
 10495   002A96                     __ptext55:
 10496                           	callstack 0
 10497   002A96                     i2___fldiv:
 10498                           	callstack 17
 10499   002A96  5012               	movf	(i2___fldiv@b+3)^0,w,c
 10500   002A98  0B80               	andlw	128
 10501   002A9A  6E1F               	movwf	i2___fldiv@sign^0,c
 10502   002A9C  5012               	movf	(i2___fldiv@b+3)^0,w,c
 10503   002A9E  2412               	addwf	(i2___fldiv@b+3)^0,w,c
 10504   002AA0  6E26               	movwf	i2___fldiv@bexp^0,c
 10505   002AA2  AE11               	btfss	(i2___fldiv@b+2)^0,7,c
 10506   002AA4  EF56  F015         	goto	i2u509_41
 10507   002AA8  EF58  F015         	goto	i2u509_40
 10508   002AAC                     i2u509_41:
 10509   002AAC  EF59  F015         	goto	i2l4619
 10510   002AB0                     i2u509_40:
 10511   002AB0  8026               	bsf	i2___fldiv@bexp^0,0,c
 10512   002AB2                     i2l4619:
 10513   002AB2  5026               	movf	i2___fldiv@bexp^0,w,c
 10514   002AB4  B4D8               	btfsc	status,2,c
 10515   002AB6  EF5F  F015         	goto	i2u510_41
 10516   002ABA  EF61  F015         	goto	i2u510_40
 10517   002ABE                     i2u510_41:
 10518   002ABE  EF76  F015         	goto	i2l4629
 10519   002AC2                     i2u510_40:
 10520   002AC2  2826               	incf	i2___fldiv@bexp^0,w,c
 10521   002AC4  A4D8               	btfss	status,2,c
 10522   002AC6  EF67  F015         	goto	i2u511_41
 10523   002ACA  EF69  F015         	goto	i2u511_40
 10524   002ACE                     i2u511_41:
 10525   002ACE  EF71  F015         	goto	i2l4625
 10526   002AD2                     i2u511_40:
 10527   002AD2  0E00               	movlw	0
 10528   002AD4  6E0F               	movwf	i2___fldiv@b^0,c
 10529   002AD6  0E00               	movlw	0
 10530   002AD8  6E10               	movwf	(i2___fldiv@b+1)^0,c
 10531   002ADA  0E00               	movlw	0
 10532   002ADC  6E11               	movwf	(i2___fldiv@b+2)^0,c
 10533   002ADE  0E00               	movlw	0
 10534   002AE0  6E12               	movwf	(i2___fldiv@b+3)^0,c
 10535   002AE2                     i2l4625:
 10536   002AE2  8E11               	bsf	(i2___fldiv@b+2)^0,7,c
 10537   002AE4  0E00               	movlw	0
 10538   002AE6  6E12               	movwf	(i2___fldiv@b+3)^0,c
 10539   002AE8  EF7E  F015         	goto	i2l4631
 10540   002AEC                     i2l4629:
 10541   002AEC  0E00               	movlw	0
 10542   002AEE  6E0F               	movwf	i2___fldiv@b^0,c
 10543   002AF0  0E00               	movlw	0
 10544   002AF2  6E10               	movwf	(i2___fldiv@b+1)^0,c
 10545   002AF4  0E00               	movlw	0
 10546   002AF6  6E11               	movwf	(i2___fldiv@b+2)^0,c
 10547   002AF8  0E00               	movlw	0
 10548   002AFA  6E12               	movwf	(i2___fldiv@b+3)^0,c
 10549   002AFC                     i2l4631:
 10550   002AFC  5016               	movf	(i2___fldiv@a+3)^0,w,c
 10551   002AFE  0B80               	andlw	128
 10552   002B00  1A1F               	xorwf	i2___fldiv@sign^0,f,c
 10553   002B02  5016               	movf	(i2___fldiv@a+3)^0,w,c
 10554   002B04  2416               	addwf	(i2___fldiv@a+3)^0,w,c
 10555   002B06  6E27               	movwf	i2___fldiv@aexp^0,c
 10556   002B08  AE15               	btfss	(i2___fldiv@a+2)^0,7,c
 10557   002B0A  EF89  F015         	goto	i2u512_41
 10558   002B0E  EF8B  F015         	goto	i2u512_40
 10559   002B12                     i2u512_41:
 10560   002B12  EF8C  F015         	goto	i2l4639
 10561   002B16                     i2u512_40:
 10562   002B16  8027               	bsf	i2___fldiv@aexp^0,0,c
 10563   002B18                     i2l4639:
 10564   002B18  5027               	movf	i2___fldiv@aexp^0,w,c
 10565   002B1A  B4D8               	btfsc	status,2,c
 10566   002B1C  EF92  F015         	goto	i2u513_41
 10567   002B20  EF94  F015         	goto	i2u513_40
 10568   002B24                     i2u513_41:
 10569   002B24  EFA9  F015         	goto	i2l4649
 10570   002B28                     i2u513_40:
 10571   002B28  2827               	incf	i2___fldiv@aexp^0,w,c
 10572   002B2A  A4D8               	btfss	status,2,c
 10573   002B2C  EF9A  F015         	goto	i2u514_41
 10574   002B30  EF9C  F015         	goto	i2u514_40
 10575   002B34                     i2u514_41:
 10576   002B34  EFA4  F015         	goto	i2l4645
 10577   002B38                     i2u514_40:
 10578   002B38  0E00               	movlw	0
 10579   002B3A  6E13               	movwf	i2___fldiv@a^0,c
 10580   002B3C  0E00               	movlw	0
 10581   002B3E  6E14               	movwf	(i2___fldiv@a+1)^0,c
 10582   002B40  0E00               	movlw	0
 10583   002B42  6E15               	movwf	(i2___fldiv@a+2)^0,c
 10584   002B44  0E00               	movlw	0
 10585   002B46  6E16               	movwf	(i2___fldiv@a+3)^0,c
 10586   002B48                     i2l4645:
 10587   002B48  8E15               	bsf	(i2___fldiv@a+2)^0,7,c
 10588   002B4A  0E00               	movlw	0
 10589   002B4C  6E16               	movwf	(i2___fldiv@a+3)^0,c
 10590   002B4E  EFB1  F015         	goto	i2l4651
 10591   002B52                     i2l4649:
 10592   002B52  0E00               	movlw	0
 10593   002B54  6E13               	movwf	i2___fldiv@a^0,c
 10594   002B56  0E00               	movlw	0
 10595   002B58  6E14               	movwf	(i2___fldiv@a+1)^0,c
 10596   002B5A  0E00               	movlw	0
 10597   002B5C  6E15               	movwf	(i2___fldiv@a+2)^0,c
 10598   002B5E  0E00               	movlw	0
 10599   002B60  6E16               	movwf	(i2___fldiv@a+3)^0,c
 10600   002B62                     i2l4651:
 10601   002B62  5013               	movf	i2___fldiv@a^0,w,c
 10602   002B64  1014               	iorwf	(i2___fldiv@a+1)^0,w,c
 10603   002B66  1015               	iorwf	(i2___fldiv@a+2)^0,w,c
 10604   002B68  1016               	iorwf	(i2___fldiv@a+3)^0,w,c
 10605   002B6A  A4D8               	btfss	status,2,c
 10606   002B6C  EFBA  F015         	goto	i2u515_41
 10607   002B70  EFBC  F015         	goto	i2u515_40
 10608   002B74                     i2u515_41:
 10609   002B74  EFD4  F015         	goto	i2l4663
 10610   002B78                     i2u515_40:
 10611   002B78  0E00               	movlw	0
 10612   002B7A  6E0F               	movwf	i2___fldiv@b^0,c
 10613   002B7C  0E00               	movlw	0
 10614   002B7E  6E10               	movwf	(i2___fldiv@b+1)^0,c
 10615   002B80  0E00               	movlw	0
 10616   002B82  6E11               	movwf	(i2___fldiv@b+2)^0,c
 10617   002B84  0E00               	movlw	0
 10618   002B86  6E12               	movwf	(i2___fldiv@b+3)^0,c
 10619   002B88  0E80               	movlw	128
 10620   002B8A  1211               	iorwf	(i2___fldiv@b+2)^0,f,c
 10621   002B8C  0E7F               	movlw	127
 10622   002B8E  1212               	iorwf	(i2___fldiv@b+3)^0,f,c
 10623   002B90                     i2l4657:
 10624   002B90  501F               	movf	i2___fldiv@sign^0,w,c
 10625   002B92  1212               	iorwf	(i2___fldiv@b+3)^0,f,c
 10626   002B94  C00F  F00F         	movff	i2___fldiv@b,?i2___fldiv
 10627   002B98  C010  F010         	movff	i2___fldiv@b+1,?i2___fldiv+1
 10628   002B9C  C011  F011         	movff	i2___fldiv@b+2,?i2___fldiv+2
 10629   002BA0  C012  F012         	movff	i2___fldiv@b+3,?i2___fldiv+3
 10630   002BA4  EF17  F017         	goto	i2l1024
 10631   002BA8                     i2l4663:
 10632   002BA8  5026               	movf	i2___fldiv@bexp^0,w,c
 10633   002BAA  A4D8               	btfss	status,2,c
 10634   002BAC  EFDA  F015         	goto	i2u516_41
 10635   002BB0  EFDC  F015         	goto	i2u516_40
 10636   002BB4                     i2u516_41:
 10637   002BB4  EFE6  F015         	goto	i2l4671
 10638   002BB8                     i2u516_40:
 10639   002BB8  0E00               	movlw	0
 10640   002BBA  6E0F               	movwf	?i2___fldiv^0,c
 10641   002BBC  0E00               	movlw	0
 10642   002BBE  6E10               	movwf	(?i2___fldiv+1)^0,c
 10643   002BC0  0E00               	movlw	0
 10644   002BC2  6E11               	movwf	(?i2___fldiv+2)^0,c
 10645   002BC4  0E00               	movlw	0
 10646   002BC6  6E12               	movwf	(?i2___fldiv+3)^0,c
 10647   002BC8  EF17  F017         	goto	i2l1024
 10648   002BCC                     i2l4671:
 10649   002BCC  5027               	movf	i2___fldiv@aexp^0,w,c
 10650   002BCE  C026  F017         	movff	i2___fldiv@bexp,??i2___fldiv
 10651   002BD2  6A18               	clrf	(??i2___fldiv+1)^0,c
 10652   002BD4  5E17               	subwf	??i2___fldiv^0,f,c
 10653   002BD6  0E00               	movlw	0
 10654   002BD8  5A18               	subwfb	(??i2___fldiv+1)^0,f,c
 10655   002BDA  0E7F               	movlw	127
 10656   002BDC  2417               	addwf	??i2___fldiv^0,w,c
 10657   002BDE  6E20               	movwf	i2___fldiv@new_exp^0,c
 10658   002BE0  0E00               	movlw	0
 10659   002BE2  2018               	addwfc	(??i2___fldiv+1)^0,w,c
 10660   002BE4  6E21               	movwf	(i2___fldiv@new_exp+1)^0,c
 10661   002BE6  C00F  F01B         	movff	i2___fldiv@b,i2___fldiv@rem
 10662   002BEA  C010  F01C         	movff	i2___fldiv@b+1,i2___fldiv@rem+1
 10663   002BEE  C011  F01D         	movff	i2___fldiv@b+2,i2___fldiv@rem+2
 10664   002BF2  C012  F01E         	movff	i2___fldiv@b+3,i2___fldiv@rem+3
 10665   002BF6  0E00               	movlw	0
 10666   002BF8  6E0F               	movwf	i2___fldiv@b^0,c
 10667   002BFA  0E00               	movlw	0
 10668   002BFC  6E10               	movwf	(i2___fldiv@b+1)^0,c
 10669   002BFE  0E00               	movlw	0
 10670   002C00  6E11               	movwf	(i2___fldiv@b+2)^0,c
 10671   002C02  0E00               	movlw	0
 10672   002C04  6E12               	movwf	(i2___fldiv@b+3)^0,c
 10673   002C06  0E00               	movlw	0
 10674   002C08  6E22               	movwf	i2___fldiv@grs^0,c
 10675   002C0A  0E00               	movlw	0
 10676   002C0C  6E23               	movwf	(i2___fldiv@grs+1)^0,c
 10677   002C0E  0E00               	movlw	0
 10678   002C10  6E24               	movwf	(i2___fldiv@grs+2)^0,c
 10679   002C12  0E00               	movlw	0
 10680   002C14  6E25               	movwf	(i2___fldiv@grs+3)^0,c
 10681   002C16  0E00               	movlw	0
 10682   002C18  6E27               	movwf	i2___fldiv@aexp^0,c
 10683   002C1A  EF47  F016         	goto	i2l1026
 10684   002C1E                     i2l4681:
 10685   002C1E  5027               	movf	i2___fldiv@aexp^0,w,c
 10686   002C20  B4D8               	btfsc	status,2,c
 10687   002C22  EF15  F016         	goto	i2u517_41
 10688   002C26  EF17  F016         	goto	i2u517_40
 10689   002C2A                     i2u517_41:
 10690   002C2A  EF2E  F016         	goto	i2l4689
 10691   002C2E                     i2u517_40:
 10692   002C2E  90D8               	bcf	status,0,c
 10693   002C30  361B               	rlcf	i2___fldiv@rem^0,f,c
 10694   002C32  361C               	rlcf	(i2___fldiv@rem+1)^0,f,c
 10695   002C34  361D               	rlcf	(i2___fldiv@rem+2)^0,f,c
 10696   002C36  361E               	rlcf	(i2___fldiv@rem+3)^0,f,c
 10697   002C38  90D8               	bcf	status,0,c
 10698   002C3A  360F               	rlcf	i2___fldiv@b^0,f,c
 10699   002C3C  3610               	rlcf	(i2___fldiv@b+1)^0,f,c
 10700   002C3E  3611               	rlcf	(i2___fldiv@b+2)^0,f,c
 10701   002C40  3612               	rlcf	(i2___fldiv@b+3)^0,f,c
 10702   002C42  AE25               	btfss	(i2___fldiv@grs+3)^0,7,c
 10703   002C44  EF26  F016         	goto	i2u518_41
 10704   002C48  EF28  F016         	goto	i2u518_40
 10705   002C4C                     i2u518_41:
 10706   002C4C  EF29  F016         	goto	i2l1029
 10707   002C50                     i2u518_40:
 10708   002C50  800F               	bsf	i2___fldiv@b^0,0,c
 10709   002C52                     i2l1029:
 10710   002C52  90D8               	bcf	status,0,c
 10711   002C54  3622               	rlcf	i2___fldiv@grs^0,f,c
 10712   002C56  3623               	rlcf	(i2___fldiv@grs+1)^0,f,c
 10713   002C58  3624               	rlcf	(i2___fldiv@grs+2)^0,f,c
 10714   002C5A  3625               	rlcf	(i2___fldiv@grs+3)^0,f,c
 10715   002C5C                     i2l4689:
 10716   002C5C  5013               	movf	i2___fldiv@a^0,w,c
 10717   002C5E  5C1B               	subwf	i2___fldiv@rem^0,w,c
 10718   002C60  5014               	movf	(i2___fldiv@a+1)^0,w,c
 10719   002C62  581C               	subwfb	(i2___fldiv@rem+1)^0,w,c
 10720   002C64  5015               	movf	(i2___fldiv@a+2)^0,w,c
 10721   002C66  581D               	subwfb	(i2___fldiv@rem+2)^0,w,c
 10722   002C68  5016               	movf	(i2___fldiv@a+3)^0,w,c
 10723   002C6A  581E               	subwfb	(i2___fldiv@rem+3)^0,w,c
 10724   002C6C  A0D8               	btfss	status,0,c
 10725   002C6E  EF3B  F016         	goto	i2u519_41
 10726   002C72  EF3D  F016         	goto	i2u519_40
 10727   002C76                     i2u519_41:
 10728   002C76  EF46  F016         	goto	i2l4695
 10729   002C7A                     i2u519_40:
 10730   002C7A  8C25               	bsf	(i2___fldiv@grs+3)^0,6,c
 10731   002C7C  5013               	movf	i2___fldiv@a^0,w,c
 10732   002C7E  5E1B               	subwf	i2___fldiv@rem^0,f,c
 10733   002C80  5014               	movf	(i2___fldiv@a+1)^0,w,c
 10734   002C82  5A1C               	subwfb	(i2___fldiv@rem+1)^0,f,c
 10735   002C84  5015               	movf	(i2___fldiv@a+2)^0,w,c
 10736   002C86  5A1D               	subwfb	(i2___fldiv@rem+2)^0,f,c
 10737   002C88  5016               	movf	(i2___fldiv@a+3)^0,w,c
 10738   002C8A  5A1E               	subwfb	(i2___fldiv@rem+3)^0,f,c
 10739   002C8C                     i2l4695:
 10740   002C8C  2A27               	incf	i2___fldiv@aexp^0,f,c
 10741   002C8E                     i2l1026:
 10742   002C8E  0E19               	movlw	25
 10743   002C90  6427               	cpfsgt	i2___fldiv@aexp^0,c
 10744   002C92  EF4D  F016         	goto	i2u520_41
 10745   002C96  EF4F  F016         	goto	i2u520_40
 10746   002C9A                     i2u520_41:
 10747   002C9A  EF0F  F016         	goto	i2l4681
 10748   002C9E                     i2u520_40:
 10749   002C9E  501B               	movf	i2___fldiv@rem^0,w,c
 10750   002CA0  101C               	iorwf	(i2___fldiv@rem+1)^0,w,c
 10751   002CA2  101D               	iorwf	(i2___fldiv@rem+2)^0,w,c
 10752   002CA4  101E               	iorwf	(i2___fldiv@rem+3)^0,w,c
 10753   002CA6  B4D8               	btfsc	status,2,c
 10754   002CA8  EF58  F016         	goto	i2u521_41
 10755   002CAC  EF5A  F016         	goto	i2u521_40
 10756   002CB0                     i2u521_41:
 10757   002CB0  EF72  F016         	goto	i2l4707
 10758   002CB4                     i2u521_40:
 10759   002CB4  8022               	bsf	i2___fldiv@grs^0,0,c
 10760   002CB6  EF72  F016         	goto	i2l4707
 10761   002CBA                     i2l4701:
 10762   002CBA  90D8               	bcf	status,0,c
 10763   002CBC  360F               	rlcf	i2___fldiv@b^0,f,c
 10764   002CBE  3610               	rlcf	(i2___fldiv@b+1)^0,f,c
 10765   002CC0  3611               	rlcf	(i2___fldiv@b+2)^0,f,c
 10766   002CC2  3612               	rlcf	(i2___fldiv@b+3)^0,f,c
 10767   002CC4  AE25               	btfss	(i2___fldiv@grs+3)^0,7,c
 10768   002CC6  EF67  F016         	goto	i2u522_41
 10769   002CCA  EF69  F016         	goto	i2u522_40
 10770   002CCE                     i2u522_41:
 10771   002CCE  EF6A  F016         	goto	i2l1035
 10772   002CD2                     i2u522_40:
 10773   002CD2  800F               	bsf	i2___fldiv@b^0,0,c
 10774   002CD4                     i2l1035:
 10775   002CD4  90D8               	bcf	status,0,c
 10776   002CD6  3622               	rlcf	i2___fldiv@grs^0,f,c
 10777   002CD8  3623               	rlcf	(i2___fldiv@grs+1)^0,f,c
 10778   002CDA  3624               	rlcf	(i2___fldiv@grs+2)^0,f,c
 10779   002CDC  3625               	rlcf	(i2___fldiv@grs+3)^0,f,c
 10780   002CDE  0620               	decf	i2___fldiv@new_exp^0,f,c
 10781   002CE0  A0D8               	btfss	status,0,c
 10782   002CE2  0621               	decf	(i2___fldiv@new_exp+1)^0,f,c
 10783   002CE4                     i2l4707:
 10784   002CE4  AE11               	btfss	(i2___fldiv@b+2)^0,7,c
 10785   002CE6  EF77  F016         	goto	i2u523_41
 10786   002CEA  EF79  F016         	goto	i2u523_40
 10787   002CEE                     i2u523_41:
 10788   002CEE  EF5D  F016         	goto	i2l4701
 10789   002CF2                     i2u523_40:
 10790   002CF2  0E00               	movlw	0
 10791   002CF4  6E27               	movwf	i2___fldiv@aexp^0,c
 10792   002CF6  AE25               	btfss	(i2___fldiv@grs+3)^0,7,c
 10793   002CF8  EF80  F016         	goto	i2u524_41
 10794   002CFC  EF82  F016         	goto	i2u524_40
 10795   002D00                     i2u524_41:
 10796   002D00  EFA6  F016         	goto	i2l1037
 10797   002D04                     i2u524_40:
 10798   002D04  0EFF               	movlw	255
 10799   002D06  1422               	andwf	i2___fldiv@grs^0,w,c
 10800   002D08  6E17               	movwf	??i2___fldiv^0,c
 10801   002D0A  0EFF               	movlw	255
 10802   002D0C  1423               	andwf	(i2___fldiv@grs+1)^0,w,c
 10803   002D0E  6E18               	movwf	(??i2___fldiv+1)^0,c
 10804   002D10  0EFF               	movlw	255
 10805   002D12  1424               	andwf	(i2___fldiv@grs+2)^0,w,c
 10806   002D14  6E19               	movwf	(??i2___fldiv+2)^0,c
 10807   002D16  0E7F               	movlw	127
 10808   002D18  1425               	andwf	(i2___fldiv@grs+3)^0,w,c
 10809   002D1A  6E1A               	movwf	(??i2___fldiv+3)^0,c
 10810   002D1C  5017               	movf	??i2___fldiv^0,w,c
 10811   002D1E  1018               	iorwf	(??i2___fldiv+1)^0,w,c
 10812   002D20  1019               	iorwf	(??i2___fldiv+2)^0,w,c
 10813   002D22  101A               	iorwf	(??i2___fldiv+3)^0,w,c
 10814   002D24  B4D8               	btfsc	status,2,c
 10815   002D26  EF97  F016         	goto	i2u525_41
 10816   002D2A  EF99  F016         	goto	i2u525_40
 10817   002D2E                     i2u525_41:
 10818   002D2E  EF9D  F016         	goto	i2l1038
 10819   002D32                     i2u525_40:
 10820   002D32                     i2l4715:
 10821   002D32  0E01               	movlw	1
 10822   002D34  6E27               	movwf	i2___fldiv@aexp^0,c
 10823   002D36  EFA6  F016         	goto	i2l1037
 10824   002D3A                     i2l1038:
 10825   002D3A  A00F               	btfss	i2___fldiv@b^0,0,c
 10826   002D3C  EFA2  F016         	goto	i2u526_41
 10827   002D40  EFA4  F016         	goto	i2u526_40
 10828   002D44                     i2u526_41:
 10829   002D44  EFA6  F016         	goto	i2l1037
 10830   002D48                     i2u526_40:
 10831   002D48  EF99  F016         	goto	i2l4715
 10832   002D4C                     i2l1037:
 10833   002D4C  5027               	movf	i2___fldiv@aexp^0,w,c
 10834   002D4E  B4D8               	btfsc	status,2,c
 10835   002D50  EFAC  F016         	goto	i2u527_41
 10836   002D54  EFAE  F016         	goto	i2u527_40
 10837   002D58                     i2u527_41:
 10838   002D58  EFD2  F016         	goto	i2l4727
 10839   002D5C                     i2u527_40:
 10840   002D5C  0E01               	movlw	1
 10841   002D5E  260F               	addwf	i2___fldiv@b^0,f,c
 10842   002D60  0E00               	movlw	0
 10843   002D62  2210               	addwfc	(i2___fldiv@b+1)^0,f,c
 10844   002D64  2211               	addwfc	(i2___fldiv@b+2)^0,f,c
 10845   002D66  2212               	addwfc	(i2___fldiv@b+3)^0,f,c
 10846   002D68  A012               	btfss	(i2___fldiv@b+3)^0,0,c
 10847   002D6A  EFB9  F016         	goto	i2u528_41
 10848   002D6E  EFBB  F016         	goto	i2u528_40
 10849   002D72                     i2u528_41:
 10850   002D72  EFD2  F016         	goto	i2l4727
 10851   002D76                     i2u528_40:
 10852   002D76  C00F  F017         	movff	i2___fldiv@b,??i2___fldiv
 10853   002D7A  C010  F018         	movff	i2___fldiv@b+1,??i2___fldiv+1
 10854   002D7E  C011  F019         	movff	i2___fldiv@b+2,??i2___fldiv+2
 10855   002D82  C012  F01A         	movff	i2___fldiv@b+3,??i2___fldiv+3
 10856   002D86  341A               	rlcf	(??i2___fldiv+3)^0,w,c
 10857   002D88  321A               	rrcf	(??i2___fldiv+3)^0,f,c
 10858   002D8A  3219               	rrcf	(??i2___fldiv+2)^0,f,c
 10859   002D8C  3218               	rrcf	(??i2___fldiv+1)^0,f,c
 10860   002D8E  3217               	rrcf	??i2___fldiv^0,f,c
 10861   002D90  C017  F00F         	movff	??i2___fldiv,i2___fldiv@b
 10862   002D94  C018  F010         	movff	??i2___fldiv+1,i2___fldiv@b+1
 10863   002D98  C019  F011         	movff	??i2___fldiv+2,i2___fldiv@b+2
 10864   002D9C  C01A  F012         	movff	??i2___fldiv+3,i2___fldiv@b+3
 10865   002DA0  4A20               	infsnz	i2___fldiv@new_exp^0,f,c
 10866   002DA2  2A21               	incf	(i2___fldiv@new_exp+1)^0,f,c
 10867   002DA4                     i2l4727:
 10868   002DA4  BE21               	btfsc	(i2___fldiv@new_exp+1)^0,7,c
 10869   002DA6  EFDD  F016         	goto	i2u529_41
 10870   002DAA  5021               	movf	(i2___fldiv@new_exp+1)^0,w,c
 10871   002DAC  E108               	bnz	i2u529_40
 10872   002DAE  2820               	incf	i2___fldiv@new_exp^0,w,c
 10873   002DB0  A0D8               	btfss	status,0,c
 10874   002DB2  EFDD  F016         	goto	i2u529_41
 10875   002DB6  EFDF  F016         	goto	i2u529_40
 10876   002DBA                     i2u529_41:
 10877   002DBA  EFEA  F016         	goto	i2l4731
 10878   002DBE                     i2u529_40:
 10879   002DBE  0E00               	movlw	0
 10880   002DC0  6E21               	movwf	(i2___fldiv@new_exp+1)^0,c
 10881   002DC2  6820               	setf	i2___fldiv@new_exp^0,c
 10882   002DC4  0E00               	movlw	0
 10883   002DC6  6E0F               	movwf	i2___fldiv@b^0,c
 10884   002DC8  0E00               	movlw	0
 10885   002DCA  6E10               	movwf	(i2___fldiv@b+1)^0,c
 10886   002DCC  0E00               	movlw	0
 10887   002DCE  6E11               	movwf	(i2___fldiv@b+2)^0,c
 10888   002DD0  0E00               	movlw	0
 10889   002DD2  6E12               	movwf	(i2___fldiv@b+3)^0,c
 10890   002DD4                     i2l4731:
 10891   002DD4  BE21               	btfsc	(i2___fldiv@new_exp+1)^0,7,c
 10892   002DD6  EFF7  F016         	goto	i2u530_40
 10893   002DDA  5021               	movf	(i2___fldiv@new_exp+1)^0,w,c
 10894   002DDC  E106               	bnz	i2u530_41
 10895   002DDE  0420               	decf	i2___fldiv@new_exp^0,w,c
 10896   002DE0  B0D8               	btfsc	status,0,c
 10897   002DE2  EFF5  F016         	goto	i2u530_41
 10898   002DE6  EFF7  F016         	goto	i2u530_40
 10899   002DEA                     i2u530_41:
 10900   002DEA  EF05  F017         	goto	i2l4735
 10901   002DEE                     i2u530_40:
 10902   002DEE  0E00               	movlw	0
 10903   002DF0  6E21               	movwf	(i2___fldiv@new_exp+1)^0,c
 10904   002DF2  0E00               	movlw	0
 10905   002DF4  6E20               	movwf	i2___fldiv@new_exp^0,c
 10906   002DF6  0E00               	movlw	0
 10907   002DF8  6E0F               	movwf	i2___fldiv@b^0,c
 10908   002DFA  0E00               	movlw	0
 10909   002DFC  6E10               	movwf	(i2___fldiv@b+1)^0,c
 10910   002DFE  0E00               	movlw	0
 10911   002E00  6E11               	movwf	(i2___fldiv@b+2)^0,c
 10912   002E02  0E00               	movlw	0
 10913   002E04  6E12               	movwf	(i2___fldiv@b+3)^0,c
 10914   002E06  0E00               	movlw	0
 10915   002E08  6E1F               	movwf	i2___fldiv@sign^0,c
 10916   002E0A                     i2l4735:
 10917   002E0A  C020  F026         	movff	i2___fldiv@new_exp,i2___fldiv@bexp
 10918   002E0E  A026               	btfss	i2___fldiv@bexp^0,0,c
 10919   002E10  EF0C  F017         	goto	i2u531_41
 10920   002E14  EF0E  F017         	goto	i2u531_40
 10921   002E18                     i2u531_41:
 10922   002E18  EF11  F017         	goto	i2l4741
 10923   002E1C                     i2u531_40:
 10924   002E1C  8E11               	bsf	(i2___fldiv@b+2)^0,7,c
 10925   002E1E  EF12  F017         	goto	i2l4743
 10926   002E22                     i2l4741:
 10927   002E22  9E11               	bcf	(i2___fldiv@b+2)^0,7,c
 10928   002E24                     i2l4743:
 10929   002E24  90D8               	bcf	status,0,c
 10930   002E26  3026               	rrcf	i2___fldiv@bexp^0,w,c
 10931   002E28  6E12               	movwf	(i2___fldiv@b+3)^0,c
 10932   002E2A  EFC8  F015         	goto	i2l4657
 10933   002E2E                     i2l1024:
 10934   002E2E  0012               	return		;funcret
 10935   002E30                     __end_ofi2___fldiv:
 10936                           	callstack 0
 10937                           
 10938 ;; *************** function i2___fladd *****************
 10939 ;; Defined at:
 10940 ;;		line 10 in file "/opt/microchip/xc8/v2.45/pic/sources/c99/common/sprcadd.c"
 10941 ;; Parameters:    Size  Location     Type
 10942 ;;  b               4   39[COMRAM] unsigned char 
 10943 ;;  a               4   43[COMRAM] unsigned char 
 10944 ;; Auto vars:     Size  Location     Type
 10945 ;;  grs             1   54[COMRAM] unsigned char 
 10946 ;;  bexp            1   53[COMRAM] unsigned char 
 10947 ;;  aexp            1   52[COMRAM] unsigned char 
 10948 ;;  signs           1   51[COMRAM] unsigned char 
 10949 ;; Return value:  Size  Location     Type
 10950 ;;                  4   39[COMRAM] unsigned char 
 10951 ;; Registers used:
 10952 ;;		wreg, status,2, status,0
 10953 ;; Tracked objects:
 10954 ;;		On entry : 0/0
 10955 ;;		On exit  : 0/0
 10956 ;;		Unchanged: 0/0
 10957 ;; Data sizes:     COMRAM   BANK0   BANK1   BANK2   BANK3   BANK4   BANK5   BANK6   BANK7   BANK8   BANK9  BANK10  BANK1
      +1  BANK12  BANK14
 10958 ;;      Params:         8       0       0       0       0       0       0       0       0       0       0       0       
      +0       0       0
 10959 ;;      Locals:         4       0       0       0       0       0       0       0       0       0       0       0       
      +0       0       0
 10960 ;;      Temps:          4       0       0       0       0       0       0       0       0       0       0       0       
      +0       0       0
 10961 ;;      Totals:        16       0       0       0       0       0       0       0       0       0       0       0       
      +0       0       0
 10962 ;;Total ram usage:       16 bytes
 10963 ;; Hardware stack levels used: 1
 10964 ;; This function calls:
 10965 ;;		Nothing
 10966 ;; This function is called by:
 10967 ;;		_pin_up
 10968 ;;		_pin_down
 10969 ;; This function uses a non-reentrant model
 10970 ;;
 10971                           
 10972                           	psect	text56
 10973   001E0E                     __ptext56:
 10974                           	callstack 0
 10975   001E0E                     i2___fladd:
 10976                           	callstack 17
 10977   001E0E  502B               	movf	(i2___fladd@b+3)^0,w,c
 10978   001E10  0B80               	andlw	128
 10979   001E12  6E34               	movwf	i2___fladd@signs^0,c
 10980   001E14  502B               	movf	(i2___fladd@b+3)^0,w,c
 10981   001E16  242B               	addwf	(i2___fladd@b+3)^0,w,c
 10982   001E18  6E36               	movwf	i2___fladd@bexp^0,c
 10983   001E1A  AE2A               	btfss	(i2___fladd@b+2)^0,7,c
 10984   001E1C  EF12  F00F         	goto	i2u470_41
 10985   001E20  EF14  F00F         	goto	i2u470_40
 10986   001E24                     i2u470_41:
 10987   001E24  EF15  F00F         	goto	i2l4417
 10988   001E28                     i2u470_40:
 10989   001E28  8036               	bsf	i2___fladd@bexp^0,0,c
 10990   001E2A                     i2l4417:
 10991   001E2A  5036               	movf	i2___fladd@bexp^0,w,c
 10992   001E2C  B4D8               	btfsc	status,2,c
 10993   001E2E  EF1B  F00F         	goto	i2u471_41
 10994   001E32  EF1D  F00F         	goto	i2u471_40
 10995   001E36                     i2u471_41:
 10996   001E36  EF32  F00F         	goto	i2l4427
 10997   001E3A                     i2u471_40:
 10998   001E3A  2836               	incf	i2___fladd@bexp^0,w,c
 10999   001E3C  A4D8               	btfss	status,2,c
 11000   001E3E  EF23  F00F         	goto	i2u472_41
 11001   001E42  EF25  F00F         	goto	i2u472_40
 11002   001E46                     i2u472_41:
 11003   001E46  EF2D  F00F         	goto	i2l4423
 11004   001E4A                     i2u472_40:
 11005   001E4A  0E00               	movlw	0
 11006   001E4C  6E28               	movwf	i2___fladd@b^0,c
 11007   001E4E  0E00               	movlw	0
 11008   001E50  6E29               	movwf	(i2___fladd@b+1)^0,c
 11009   001E52  0E00               	movlw	0
 11010   001E54  6E2A               	movwf	(i2___fladd@b+2)^0,c
 11011   001E56  0E00               	movlw	0
 11012   001E58  6E2B               	movwf	(i2___fladd@b+3)^0,c
 11013   001E5A                     i2l4423:
 11014   001E5A  8E2A               	bsf	(i2___fladd@b+2)^0,7,c
 11015   001E5C  0E00               	movlw	0
 11016   001E5E  6E2B               	movwf	(i2___fladd@b+3)^0,c
 11017   001E60  EF3A  F00F         	goto	i2l4429
 11018   001E64                     i2l4427:
 11019   001E64  0E00               	movlw	0
 11020   001E66  6E28               	movwf	i2___fladd@b^0,c
 11021   001E68  0E00               	movlw	0
 11022   001E6A  6E29               	movwf	(i2___fladd@b+1)^0,c
 11023   001E6C  0E00               	movlw	0
 11024   001E6E  6E2A               	movwf	(i2___fladd@b+2)^0,c
 11025   001E70  0E00               	movlw	0
 11026   001E72  6E2B               	movwf	(i2___fladd@b+3)^0,c
 11027   001E74                     i2l4429:
 11028   001E74  502F               	movf	(i2___fladd@a+3)^0,w,c
 11029   001E76  0B80               	andlw	128
 11030   001E78  6E35               	movwf	i2___fladd@aexp^0,c
 11031   001E7A  5034               	movf	i2___fladd@signs^0,w,c
 11032   001E7C  1835               	xorwf	i2___fladd@aexp^0,w,c
 11033   001E7E  B4D8               	btfsc	status,2,c
 11034   001E80  EF44  F00F         	goto	i2u473_41
 11035   001E84  EF46  F00F         	goto	i2u473_40
 11036   001E88                     i2u473_41:
 11037   001E88  EF47  F00F         	goto	i2l4435
 11038   001E8C                     i2u473_40:
 11039   001E8C  8C34               	bsf	i2___fladd@signs^0,6,c
 11040   001E8E                     i2l4435:
 11041   001E8E  502F               	movf	(i2___fladd@a+3)^0,w,c
 11042   001E90  242F               	addwf	(i2___fladd@a+3)^0,w,c
 11043   001E92  6E35               	movwf	i2___fladd@aexp^0,c
 11044   001E94  AE2E               	btfss	(i2___fladd@a+2)^0,7,c
 11045   001E96  EF4F  F00F         	goto	i2u474_41
 11046   001E9A  EF51  F00F         	goto	i2u474_40
 11047   001E9E                     i2u474_41:
 11048   001E9E  EF52  F00F         	goto	i2l4441
 11049   001EA2                     i2u474_40:
 11050   001EA2  8035               	bsf	i2___fladd@aexp^0,0,c
 11051   001EA4                     i2l4441:
 11052   001EA4  5035               	movf	i2___fladd@aexp^0,w,c
 11053   001EA6  B4D8               	btfsc	status,2,c
 11054   001EA8  EF58  F00F         	goto	i2u475_41
 11055   001EAC  EF5A  F00F         	goto	i2u475_40
 11056   001EB0                     i2u475_41:
 11057   001EB0  EF6F  F00F         	goto	i2l4451
 11058   001EB4                     i2u475_40:
 11059   001EB4  2835               	incf	i2___fladd@aexp^0,w,c
 11060   001EB6  A4D8               	btfss	status,2,c
 11061   001EB8  EF60  F00F         	goto	i2u476_41
 11062   001EBC  EF62  F00F         	goto	i2u476_40
 11063   001EC0                     i2u476_41:
 11064   001EC0  EF6A  F00F         	goto	i2l4447
 11065   001EC4                     i2u476_40:
 11066   001EC4  0E00               	movlw	0
 11067   001EC6  6E2C               	movwf	i2___fladd@a^0,c
 11068   001EC8  0E00               	movlw	0
 11069   001ECA  6E2D               	movwf	(i2___fladd@a+1)^0,c
 11070   001ECC  0E00               	movlw	0
 11071   001ECE  6E2E               	movwf	(i2___fladd@a+2)^0,c
 11072   001ED0  0E00               	movlw	0
 11073   001ED2  6E2F               	movwf	(i2___fladd@a+3)^0,c
 11074   001ED4                     i2l4447:
 11075   001ED4  8E2E               	bsf	(i2___fladd@a+2)^0,7,c
 11076   001ED6  0E00               	movlw	0
 11077   001ED8  6E2F               	movwf	(i2___fladd@a+3)^0,c
 11078   001EDA  EF77  F00F         	goto	i2l4453
 11079   001EDE                     i2l4451:
 11080   001EDE  0E00               	movlw	0
 11081   001EE0  6E2C               	movwf	i2___fladd@a^0,c
 11082   001EE2  0E00               	movlw	0
 11083   001EE4  6E2D               	movwf	(i2___fladd@a+1)^0,c
 11084   001EE6  0E00               	movlw	0
 11085   001EE8  6E2E               	movwf	(i2___fladd@a+2)^0,c
 11086   001EEA  0E00               	movlw	0
 11087   001EEC  6E2F               	movwf	(i2___fladd@a+3)^0,c
 11088   001EEE                     i2l4453:
 11089   001EEE  5036               	movf	i2___fladd@bexp^0,w,c
 11090   001EF0  5C35               	subwf	i2___fladd@aexp^0,w,c
 11091   001EF2  B0D8               	btfsc	status,0,c
 11092   001EF4  EF7E  F00F         	goto	i2u477_41
 11093   001EF8  EF80  F00F         	goto	i2u477_40
 11094   001EFC                     i2u477_41:
 11095   001EFC  EFA7  F00F         	goto	i2l4489
 11096   001F00                     i2u477_40:
 11097   001F00  AC34               	btfss	i2___fladd@signs^0,6,c
 11098   001F02  EF85  F00F         	goto	i2u478_41
 11099   001F06  EF87  F00F         	goto	i2u478_40
 11100   001F0A                     i2u478_41:
 11101   001F0A  EF89  F00F         	goto	i2l4459
 11102   001F0E                     i2u478_40:
 11103   001F0E  0E80               	movlw	128
 11104   001F10  1A34               	xorwf	i2___fladd@signs^0,f,c
 11105   001F12                     i2l4459:
 11106   001F12  C036  F037         	movff	i2___fladd@bexp,i2___fladd@grs
 11107   001F16  C035  F036         	movff	i2___fladd@aexp,i2___fladd@bexp
 11108   001F1A  C037  F035         	movff	i2___fladd@grs,i2___fladd@aexp
 11109   001F1E  C028  F037         	movff	i2___fladd@b,i2___fladd@grs
 11110   001F22  C02C  F028         	movff	i2___fladd@a,i2___fladd@b
 11111   001F26  C037  F02C         	movff	i2___fladd@grs,i2___fladd@a
 11112   001F2A  C029  F037         	movff	i2___fladd@b+1,i2___fladd@grs
 11113   001F2E  C02D  F029         	movff	i2___fladd@a+1,i2___fladd@b+1
 11114   001F32  C037  F02D         	movff	i2___fladd@grs,i2___fladd@a+1
 11115   001F36  C02A  F037         	movff	i2___fladd@b+2,i2___fladd@grs
 11116   001F3A  C02E  F02A         	movff	i2___fladd@a+2,i2___fladd@b+2
 11117   001F3E  C037  F02E         	movff	i2___fladd@grs,i2___fladd@a+2
 11118   001F42  C02B  F037         	movff	i2___fladd@b+3,i2___fladd@grs
 11119   001F46  C02F  F02B         	movff	i2___fladd@a+3,i2___fladd@b+3
 11120   001F4A  C037  F02F         	movff	i2___fladd@grs,i2___fladd@a+3
 11121   001F4E                     i2l4489:
 11122   001F4E  0E00               	movlw	0
 11123   001F50  6E37               	movwf	i2___fladd@grs^0,c
 11124   001F52  5036               	movf	i2___fladd@bexp^0,w,c
 11125   001F54  C035  F030         	movff	i2___fladd@aexp,??i2___fladd
 11126   001F58  6A31               	clrf	(??i2___fladd+1)^0,c
 11127   001F5A  5E30               	subwf	??i2___fladd^0,f,c
 11128   001F5C  0E00               	movlw	0
 11129   001F5E  5A31               	subwfb	(??i2___fladd+1)^0,f,c
 11130   001F60  BE31               	btfsc	(??i2___fladd+1)^0,7,c
 11131   001F62  EFBC  F00F         	goto	i2u479_41
 11132   001F66  5031               	movf	(??i2___fladd+1)^0,w,c
 11133   001F68  E109               	bnz	i2u479_40
 11134   001F6A  0E1A               	movlw	26
 11135   001F6C  5C30               	subwf	??i2___fladd^0,w,c
 11136   001F6E  A0D8               	btfss	status,0,c
 11137   001F70  EFBC  F00F         	goto	i2u479_41
 11138   001F74  EFBE  F00F         	goto	i2u479_40
 11139   001F78                     i2u479_41:
 11140   001F78  EFF5  F00F         	goto	i2l971
 11141   001F7C                     i2u479_40:
 11142   001F7C  5028               	movf	i2___fladd@b^0,w,c
 11143   001F7E  1029               	iorwf	(i2___fladd@b+1)^0,w,c
 11144   001F80  102A               	iorwf	(i2___fladd@b+2)^0,w,c
 11145   001F82  102B               	iorwf	(i2___fladd@b+3)^0,w,c
 11146   001F84  A4D8               	btfss	status,2,c
 11147   001F86  EFC7  F00F         	goto	i2u480_41
 11148   001F8A  EFCA  F00F         	goto	i2u480_40
 11149   001F8E                     i2u480_41:
 11150   001F8E  0E01               	movlw	1
 11151   001F90  EFCB  F00F         	goto	i2u481_40
 11152   001F94                     i2u480_40:
 11153   001F94  0E00               	movlw	0
 11154   001F96                     i2u481_40:
 11155   001F96  6E37               	movwf	i2___fladd@grs^0,c
 11156   001F98  0E00               	movlw	0
 11157   001F9A  6E28               	movwf	i2___fladd@b^0,c
 11158   001F9C  0E00               	movlw	0
 11159   001F9E  6E29               	movwf	(i2___fladd@b+1)^0,c
 11160   001FA0  0E00               	movlw	0
 11161   001FA2  6E2A               	movwf	(i2___fladd@b+2)^0,c
 11162   001FA4  0E00               	movlw	0
 11163   001FA6  6E2B               	movwf	(i2___fladd@b+3)^0,c
 11164   001FA8  C035  F036         	movff	i2___fladd@aexp,i2___fladd@bexp
 11165   001FAC  EFFE  F00F         	goto	i2l970
 11166   001FB0                     i2l972:
 11167   001FB0  A037               	btfss	i2___fladd@grs^0,0,c
 11168   001FB2  EFDD  F00F         	goto	i2u482_41
 11169   001FB6  EFDF  F00F         	goto	i2u482_40
 11170   001FBA                     i2u482_41:
 11171   001FBA  EFE5  F00F         	goto	i2l4501
 11172   001FBE                     i2u482_40:
 11173   001FBE  90D8               	bcf	status,0,c
 11174   001FC0  3037               	rrcf	i2___fladd@grs^0,w,c
 11175   001FC2  0901               	iorlw	1
 11176   001FC4  6E37               	movwf	i2___fladd@grs^0,c
 11177   001FC6  EFE7  F00F         	goto	i2l4503
 11178   001FCA                     i2l4501:
 11179   001FCA  90D8               	bcf	status,0,c
 11180   001FCC  3237               	rrcf	i2___fladd@grs^0,f,c
 11181   001FCE                     i2l4503:
 11182   001FCE  A028               	btfss	i2___fladd@b^0,0,c
 11183   001FD0  EFEC  F00F         	goto	i2u483_41
 11184   001FD4  EFEE  F00F         	goto	i2u483_40
 11185   001FD8                     i2u483_41:
 11186   001FD8  EFEF  F00F         	goto	i2l4507
 11187   001FDC                     i2u483_40:
 11188   001FDC  8E37               	bsf	i2___fladd@grs^0,7,c
 11189   001FDE                     i2l4507:
 11190   001FDE  342B               	rlcf	(i2___fladd@b+3)^0,w,c
 11191   001FE0  322B               	rrcf	(i2___fladd@b+3)^0,f,c
 11192   001FE2  322A               	rrcf	(i2___fladd@b+2)^0,f,c
 11193   001FE4  3229               	rrcf	(i2___fladd@b+1)^0,f,c
 11194   001FE6  3228               	rrcf	i2___fladd@b^0,f,c
 11195   001FE8  2A36               	incf	i2___fladd@bexp^0,f,c
 11196   001FEA                     i2l971:
 11197   001FEA  5035               	movf	i2___fladd@aexp^0,w,c
 11198   001FEC  5C36               	subwf	i2___fladd@bexp^0,w,c
 11199   001FEE  A0D8               	btfss	status,0,c
 11200   001FF0  EFFC  F00F         	goto	i2u484_41
 11201   001FF4  EFFE  F00F         	goto	i2u484_40
 11202   001FF8                     i2u484_41:
 11203   001FF8  EFD8  F00F         	goto	i2l972
 11204   001FFC                     i2u484_40:
 11205   001FFC                     i2l970:
 11206   001FFC  BC34               	btfsc	i2___fladd@signs^0,6,c
 11207   001FFE  EF03  F010         	goto	i2u485_41
 11208   002002  EF05  F010         	goto	i2u485_40
 11209   002006                     i2u485_41:
 11210   002006  EF45  F010         	goto	i2l4535
 11211   00200A                     i2u485_40:
 11212   00200A  5036               	movf	i2___fladd@bexp^0,w,c
 11213   00200C  A4D8               	btfss	status,2,c
 11214   00200E  EF0B  F010         	goto	i2u486_41
 11215   002012  EF0D  F010         	goto	i2u486_40
 11216   002016                     i2u486_41:
 11217   002016  EF17  F010         	goto	i2l4517
 11218   00201A                     i2u486_40:
 11219   00201A  0E00               	movlw	0
 11220   00201C  6E28               	movwf	?i2___fladd^0,c
 11221   00201E  0E00               	movlw	0
 11222   002020  6E29               	movwf	(?i2___fladd+1)^0,c
 11223   002022  0E00               	movlw	0
 11224   002024  6E2A               	movwf	(?i2___fladd+2)^0,c
 11225   002026  0E00               	movlw	0
 11226   002028  6E2B               	movwf	(?i2___fladd+3)^0,c
 11227   00202A  EF66  F011         	goto	i2l979
 11228   00202E                     i2l4517:
 11229   00202E  502C               	movf	i2___fladd@a^0,w,c
 11230   002030  2628               	addwf	i2___fladd@b^0,f,c
 11231   002032  502D               	movf	(i2___fladd@a+1)^0,w,c
 11232   002034  2229               	addwfc	(i2___fladd@b+1)^0,f,c
 11233   002036  502E               	movf	(i2___fladd@a+2)^0,w,c
 11234   002038  222A               	addwfc	(i2___fladd@b+2)^0,f,c
 11235   00203A  502F               	movf	(i2___fladd@a+3)^0,w,c
 11236   00203C  222B               	addwfc	(i2___fladd@b+3)^0,f,c
 11237   00203E  A02B               	btfss	(i2___fladd@b+3)^0,0,c
 11238   002040  EF24  F010         	goto	i2u487_41
 11239   002044  EF26  F010         	goto	i2u487_40
 11240   002048                     i2u487_41:
 11241   002048  EFD2  F010         	goto	i2l4571
 11242   00204C                     i2u487_40:
 11243   00204C  A037               	btfss	i2___fladd@grs^0,0,c
 11244   00204E  EF2B  F010         	goto	i2u488_41
 11245   002052  EF2D  F010         	goto	i2u488_40
 11246   002056                     i2u488_41:
 11247   002056  EF33  F010         	goto	i2l4525
 11248   00205A                     i2u488_40:
 11249   00205A  90D8               	bcf	status,0,c
 11250   00205C  3037               	rrcf	i2___fladd@grs^0,w,c
 11251   00205E  0901               	iorlw	1
 11252   002060  6E37               	movwf	i2___fladd@grs^0,c
 11253   002062  EF35  F010         	goto	i2l4527
 11254   002066                     i2l4525:
 11255   002066  90D8               	bcf	status,0,c
 11256   002068  3237               	rrcf	i2___fladd@grs^0,f,c
 11257   00206A                     i2l4527:
 11258   00206A  A028               	btfss	i2___fladd@b^0,0,c
 11259   00206C  EF3A  F010         	goto	i2u489_41
 11260   002070  EF3C  F010         	goto	i2u489_40
 11261   002074                     i2u489_41:
 11262   002074  EF3D  F010         	goto	i2l4531
 11263   002078                     i2u489_40:
 11264   002078  8E37               	bsf	i2___fladd@grs^0,7,c
 11265   00207A                     i2l4531:
 11266   00207A  342B               	rlcf	(i2___fladd@b+3)^0,w,c
 11267   00207C  322B               	rrcf	(i2___fladd@b+3)^0,f,c
 11268   00207E  322A               	rrcf	(i2___fladd@b+2)^0,f,c
 11269   002080  3229               	rrcf	(i2___fladd@b+1)^0,f,c
 11270   002082  3228               	rrcf	i2___fladd@b^0,f,c
 11271   002084  2A36               	incf	i2___fladd@bexp^0,f,c
 11272   002086  EFD2  F010         	goto	i2l4571
 11273   00208A                     i2l4535:
 11274   00208A  502C               	movf	i2___fladd@a^0,w,c
 11275   00208C  5C28               	subwf	i2___fladd@b^0,w,c
 11276   00208E  502D               	movf	(i2___fladd@a+1)^0,w,c
 11277   002090  5829               	subwfb	(i2___fladd@b+1)^0,w,c
 11278   002092  502E               	movf	(i2___fladd@a+2)^0,w,c
 11279   002094  582A               	subwfb	(i2___fladd@b+2)^0,w,c
 11280   002096  502B               	movf	(i2___fladd@b+3)^0,w,c
 11281   002098  0A80               	xorlw	128
 11282   00209A  6E30               	movwf	??i2___fladd^0,c
 11283   00209C  502F               	movf	(i2___fladd@a+3)^0,w,c
 11284   00209E  0A80               	xorlw	128
 11285   0020A0  5830               	subwfb	??i2___fladd^0,w,c
 11286   0020A2  B0D8               	btfsc	status,0,c
 11287   0020A4  EF56  F010         	goto	i2u490_41
 11288   0020A8  EF58  F010         	goto	i2u490_40
 11289   0020AC                     i2u490_41:
 11290   0020AC  EF83  F010         	goto	i2l4545
 11291   0020B0                     i2u490_40:
 11292   0020B0  5028               	movf	i2___fladd@b^0,w,c
 11293   0020B2  5C2C               	subwf	i2___fladd@a^0,w,c
 11294   0020B4  6E30               	movwf	??i2___fladd^0,c
 11295   0020B6  5029               	movf	(i2___fladd@b+1)^0,w,c
 11296   0020B8  582D               	subwfb	(i2___fladd@a+1)^0,w,c
 11297   0020BA  6E31               	movwf	(??i2___fladd+1)^0,c
 11298   0020BC  502A               	movf	(i2___fladd@b+2)^0,w,c
 11299   0020BE  582E               	subwfb	(i2___fladd@a+2)^0,w,c
 11300   0020C0  6E32               	movwf	(??i2___fladd+2)^0,c
 11301   0020C2  502B               	movf	(i2___fladd@b+3)^0,w,c
 11302   0020C4  582F               	subwfb	(i2___fladd@a+3)^0,w,c
 11303   0020C6  6E33               	movwf	(??i2___fladd+3)^0,c
 11304   0020C8  0EFF               	movlw	255
 11305   0020CA  2430               	addwf	??i2___fladd^0,w,c
 11306   0020CC  6E28               	movwf	i2___fladd@b^0,c
 11307   0020CE  0EFF               	movlw	255
 11308   0020D0  2031               	addwfc	(??i2___fladd+1)^0,w,c
 11309   0020D2  6E29               	movwf	(i2___fladd@b+1)^0,c
 11310   0020D4  0EFF               	movlw	255
 11311   0020D6  2032               	addwfc	(??i2___fladd+2)^0,w,c
 11312   0020D8  6E2A               	movwf	(i2___fladd@b+2)^0,c
 11313   0020DA  0EFF               	movlw	255
 11314   0020DC  2033               	addwfc	(??i2___fladd+3)^0,w,c
 11315   0020DE  6E2B               	movwf	(i2___fladd@b+3)^0,c
 11316   0020E0  0E80               	movlw	128
 11317   0020E2  1A34               	xorwf	i2___fladd@signs^0,f,c
 11318   0020E4  6C37               	negf	i2___fladd@grs^0,c
 11319   0020E6  5037               	movf	i2___fladd@grs^0,w,c
 11320   0020E8  A4D8               	btfss	status,2,c
 11321   0020EA  EF79  F010         	goto	i2u491_41
 11322   0020EE  EF7B  F010         	goto	i2u491_40
 11323   0020F2                     i2u491_41:
 11324   0020F2  EF8B  F010         	goto	i2l987
 11325   0020F6                     i2u491_40:
 11326   0020F6  0E01               	movlw	1
 11327   0020F8  2628               	addwf	i2___fladd@b^0,f,c
 11328   0020FA  0E00               	movlw	0
 11329   0020FC  2229               	addwfc	(i2___fladd@b+1)^0,f,c
 11330   0020FE  222A               	addwfc	(i2___fladd@b+2)^0,f,c
 11331   002100  222B               	addwfc	(i2___fladd@b+3)^0,f,c
 11332   002102  EF8B  F010         	goto	i2l987
 11333   002106                     i2l4545:
 11334   002106  502C               	movf	i2___fladd@a^0,w,c
 11335   002108  5E28               	subwf	i2___fladd@b^0,f,c
 11336   00210A  502D               	movf	(i2___fladd@a+1)^0,w,c
 11337   00210C  5A29               	subwfb	(i2___fladd@b+1)^0,f,c
 11338   00210E  502E               	movf	(i2___fladd@a+2)^0,w,c
 11339   002110  5A2A               	subwfb	(i2___fladd@b+2)^0,f,c
 11340   002112  502F               	movf	(i2___fladd@a+3)^0,w,c
 11341   002114  5A2B               	subwfb	(i2___fladd@b+3)^0,f,c
 11342   002116                     i2l987:
 11343   002116  5028               	movf	i2___fladd@b^0,w,c
 11344   002118  1029               	iorwf	(i2___fladd@b+1)^0,w,c
 11345   00211A  102A               	iorwf	(i2___fladd@b+2)^0,w,c
 11346   00211C  102B               	iorwf	(i2___fladd@b+3)^0,w,c
 11347   00211E  A4D8               	btfss	status,2,c
 11348   002120  EF94  F010         	goto	i2u492_41
 11349   002124  EF96  F010         	goto	i2u492_40
 11350   002128                     i2u492_41:
 11351   002128  EFCB  F010         	goto	i2l4569
 11352   00212C                     i2u492_40:
 11353   00212C  5037               	movf	i2___fladd@grs^0,w,c
 11354   00212E  A4D8               	btfss	status,2,c
 11355   002130  EF9C  F010         	goto	i2u493_41
 11356   002134  EF9E  F010         	goto	i2u493_40
 11357   002138                     i2u493_41:
 11358   002138  EFCB  F010         	goto	i2l4569
 11359   00213C                     i2u493_40:
 11360   00213C  0E00               	movlw	0
 11361   00213E  6E28               	movwf	?i2___fladd^0,c
 11362   002140  0E00               	movlw	0
 11363   002142  6E29               	movwf	(?i2___fladd+1)^0,c
 11364   002144  0E00               	movlw	0
 11365   002146  6E2A               	movwf	(?i2___fladd+2)^0,c
 11366   002148  0E00               	movlw	0
 11367   00214A  6E2B               	movwf	(?i2___fladd+3)^0,c
 11368   00214C  EF66  F011         	goto	i2l979
 11369   002150                     i2l4553:
 11370   002150  90D8               	bcf	status,0,c
 11371   002152  3628               	rlcf	i2___fladd@b^0,f,c
 11372   002154  3629               	rlcf	(i2___fladd@b+1)^0,f,c
 11373   002156  362A               	rlcf	(i2___fladd@b+2)^0,f,c
 11374   002158  362B               	rlcf	(i2___fladd@b+3)^0,f,c
 11375   00215A  AE37               	btfss	i2___fladd@grs^0,7,c
 11376   00215C  EFB2  F010         	goto	i2u494_41
 11377   002160  EFB4  F010         	goto	i2u494_40
 11378   002164                     i2u494_41:
 11379   002164  EFB5  F010         	goto	i2l4559
 11380   002168                     i2u494_40:
 11381   002168  8028               	bsf	i2___fladd@b^0,0,c
 11382   00216A                     i2l4559:
 11383   00216A  A037               	btfss	i2___fladd@grs^0,0,c
 11384   00216C  EFBA  F010         	goto	i2u495_41
 11385   002170  EFBC  F010         	goto	i2u495_40
 11386   002174                     i2u495_41:
 11387   002174  EFC0  F010         	goto	i2l4563
 11388   002178                     i2u495_40:
 11389   002178  80D8               	bsf	status,0,c
 11390   00217A  3637               	rlcf	i2___fladd@grs^0,f,c
 11391   00217C  EFC2  F010         	goto	i2l4565
 11392   002180                     i2l4563:
 11393   002180  90D8               	bcf	status,0,c
 11394   002182  3637               	rlcf	i2___fladd@grs^0,f,c
 11395   002184                     i2l4565:
 11396   002184  5036               	movf	i2___fladd@bexp^0,w,c
 11397   002186  B4D8               	btfsc	status,2,c
 11398   002188  EFC8  F010         	goto	i2u496_41
 11399   00218C  EFCA  F010         	goto	i2u496_40
 11400   002190                     i2u496_41:
 11401   002190  EFCB  F010         	goto	i2l4569
 11402   002194                     i2u496_40:
 11403   002194  0636               	decf	i2___fladd@bexp^0,f,c
 11404   002196                     i2l4569:
 11405   002196  AE2A               	btfss	(i2___fladd@b+2)^0,7,c
 11406   002198  EFD0  F010         	goto	i2u497_41
 11407   00219C  EFD2  F010         	goto	i2u497_40
 11408   0021A0                     i2u497_41:
 11409   0021A0  EFA8  F010         	goto	i2l4553
 11410   0021A4                     i2u497_40:
 11411   0021A4                     i2l4571:
 11412   0021A4  0E00               	movlw	0
 11413   0021A6  6E35               	movwf	i2___fladd@aexp^0,c
 11414   0021A8  AE37               	btfss	i2___fladd@grs^0,7,c
 11415   0021AA  EFD9  F010         	goto	i2u498_41
 11416   0021AE  EFDB  F010         	goto	i2u498_40
 11417   0021B2                     i2u498_41:
 11418   0021B2  EFF3  F010         	goto	i2l996
 11419   0021B6                     i2u498_40:
 11420   0021B6  C037  F030         	movff	i2___fladd@grs,??i2___fladd
 11421   0021BA  0E7F               	movlw	127
 11422   0021BC  1630               	andwf	??i2___fladd^0,f,c
 11423   0021BE  B4D8               	btfsc	status,2,c
 11424   0021C0  EFE4  F010         	goto	i2u499_41
 11425   0021C4  EFE6  F010         	goto	i2u499_40
 11426   0021C8                     i2u499_41:
 11427   0021C8  EFEA  F010         	goto	i2l997
 11428   0021CC                     i2u499_40:
 11429   0021CC                     i2l4577:
 11430   0021CC  0E01               	movlw	1
 11431   0021CE  6E35               	movwf	i2___fladd@aexp^0,c
 11432   0021D0  EFF3  F010         	goto	i2l996
 11433   0021D4                     i2l997:
 11434   0021D4  A028               	btfss	i2___fladd@b^0,0,c
 11435   0021D6  EFEF  F010         	goto	i2u500_41
 11436   0021DA  EFF1  F010         	goto	i2u500_40
 11437   0021DE                     i2u500_41:
 11438   0021DE  EFF3  F010         	goto	i2l996
 11439   0021E2                     i2u500_40:
 11440   0021E2  EFE6  F010         	goto	i2l4577
 11441   0021E6                     i2l996:
 11442   0021E6  5035               	movf	i2___fladd@aexp^0,w,c
 11443   0021E8  B4D8               	btfsc	status,2,c
 11444   0021EA  EFF9  F010         	goto	i2u501_41
 11445   0021EE  EFFB  F010         	goto	i2u501_40
 11446   0021F2                     i2u501_41:
 11447   0021F2  EF26  F011         	goto	i2l4589
 11448   0021F6                     i2u501_40:
 11449   0021F6  0E01               	movlw	1
 11450   0021F8  2628               	addwf	i2___fladd@b^0,f,c
 11451   0021FA  0E00               	movlw	0
 11452   0021FC  2229               	addwfc	(i2___fladd@b+1)^0,f,c
 11453   0021FE  222A               	addwfc	(i2___fladd@b+2)^0,f,c
 11454   002200  222B               	addwfc	(i2___fladd@b+3)^0,f,c
 11455   002202  A02B               	btfss	(i2___fladd@b+3)^0,0,c
 11456   002204  EF06  F011         	goto	i2u502_41
 11457   002208  EF08  F011         	goto	i2u502_40
 11458   00220C                     i2u502_41:
 11459   00220C  EF26  F011         	goto	i2l4589
 11460   002210                     i2u502_40:
 11461   002210  C028  F030         	movff	i2___fladd@b,??i2___fladd
 11462   002214  C029  F031         	movff	i2___fladd@b+1,??i2___fladd+1
 11463   002218  C02A  F032         	movff	i2___fladd@b+2,??i2___fladd+2
 11464   00221C  C02B  F033         	movff	i2___fladd@b+3,??i2___fladd+3
 11465   002220  3433               	rlcf	(??i2___fladd+3)^0,w,c
 11466   002222  3233               	rrcf	(??i2___fladd+3)^0,f,c
 11467   002224  3232               	rrcf	(??i2___fladd+2)^0,f,c
 11468   002226  3231               	rrcf	(??i2___fladd+1)^0,f,c
 11469   002228  3230               	rrcf	??i2___fladd^0,f,c
 11470   00222A  C030  F028         	movff	??i2___fladd,i2___fladd@b
 11471   00222E  C031  F029         	movff	??i2___fladd+1,i2___fladd@b+1
 11472   002232  C032  F02A         	movff	??i2___fladd+2,i2___fladd@b+2
 11473   002236  C033  F02B         	movff	??i2___fladd+3,i2___fladd@b+3
 11474   00223A  2836               	incf	i2___fladd@bexp^0,w,c
 11475   00223C  B4D8               	btfsc	status,2,c
 11476   00223E  EF23  F011         	goto	i2u503_41
 11477   002242  EF25  F011         	goto	i2u503_40
 11478   002246                     i2u503_41:
 11479   002246  EF26  F011         	goto	i2l4589
 11480   00224A                     i2u503_40:
 11481   00224A  2A36               	incf	i2___fladd@bexp^0,f,c
 11482   00224C                     i2l4589:
 11483   00224C  2836               	incf	i2___fladd@bexp^0,w,c
 11484   00224E  B4D8               	btfsc	status,2,c
 11485   002250  EF2C  F011         	goto	i2u504_41
 11486   002254  EF2E  F011         	goto	i2u504_40
 11487   002258                     i2u504_41:
 11488   002258  EF36  F011         	goto	i2l4593
 11489   00225C                     i2u504_40:
 11490   00225C  5036               	movf	i2___fladd@bexp^0,w,c
 11491   00225E  A4D8               	btfss	status,2,c
 11492   002260  EF34  F011         	goto	i2u505_41
 11493   002264  EF36  F011         	goto	i2u505_40
 11494   002268                     i2u505_41:
 11495   002268  EF48  F011         	goto	i2l4597
 11496   00226C                     i2u505_40:
 11497   00226C                     i2l4593:
 11498   00226C  0E00               	movlw	0
 11499   00226E  6E28               	movwf	i2___fladd@b^0,c
 11500   002270  0E00               	movlw	0
 11501   002272  6E29               	movwf	(i2___fladd@b+1)^0,c
 11502   002274  0E00               	movlw	0
 11503   002276  6E2A               	movwf	(i2___fladd@b+2)^0,c
 11504   002278  0E00               	movlw	0
 11505   00227A  6E2B               	movwf	(i2___fladd@b+3)^0,c
 11506   00227C  5036               	movf	i2___fladd@bexp^0,w,c
 11507   00227E  A4D8               	btfss	status,2,c
 11508   002280  EF44  F011         	goto	i2u506_41
 11509   002284  EF46  F011         	goto	i2u506_40
 11510   002288                     i2u506_41:
 11511   002288  EF48  F011         	goto	i2l4597
 11512   00228C                     i2u506_40:
 11513   00228C  0E00               	movlw	0
 11514   00228E  6E34               	movwf	i2___fladd@signs^0,c
 11515   002290                     i2l4597:
 11516   002290  A036               	btfss	i2___fladd@bexp^0,0,c
 11517   002292  EF4D  F011         	goto	i2u507_41
 11518   002296  EF4F  F011         	goto	i2u507_40
 11519   00229A                     i2u507_41:
 11520   00229A  EF52  F011         	goto	i2l4601
 11521   00229E                     i2u507_40:
 11522   00229E  8E2A               	bsf	(i2___fladd@b+2)^0,7,c
 11523   0022A0  EF53  F011         	goto	i2l4603
 11524   0022A4                     i2l4601:
 11525   0022A4  9E2A               	bcf	(i2___fladd@b+2)^0,7,c
 11526   0022A6                     i2l4603:
 11527   0022A6  90D8               	bcf	status,0,c
 11528   0022A8  3036               	rrcf	i2___fladd@bexp^0,w,c
 11529   0022AA  6E2B               	movwf	(i2___fladd@b+3)^0,c
 11530   0022AC  AE34               	btfss	i2___fladd@signs^0,7,c
 11531   0022AE  EF5B  F011         	goto	i2u508_41
 11532   0022B2  EF5D  F011         	goto	i2u508_40
 11533   0022B6                     i2u508_41:
 11534   0022B6  EF5E  F011         	goto	i2l4609
 11535   0022BA                     i2u508_40:
 11536   0022BA  8E2B               	bsf	(i2___fladd@b+3)^0,7,c
 11537   0022BC                     i2l4609:
 11538   0022BC  C028  F028         	movff	i2___fladd@b,?i2___fladd
 11539   0022C0  C029  F029         	movff	i2___fladd@b+1,?i2___fladd+1
 11540   0022C4  C02A  F02A         	movff	i2___fladd@b+2,?i2___fladd+2
 11541   0022C8  C02B  F02B         	movff	i2___fladd@b+3,?i2___fladd+3
 11542   0022CC                     i2l979:
 11543   0022CC  0012               	return		;funcret
 11544   0022CE                     __end_ofi2___fladd:
 11545                           	callstack 0
 11546                           
 11547                           	psect	text57
 11548   000000                     __ptext57:
 11549                           	callstack 0
 11550   000000                     
 11551                           	psect	rparam
 11552   000000                     
 11553                           	psect	temp
 11554   00005F                     btemp:
 11555                           	callstack 0
 11556   00005F                     	ds	1
 11557   000000                     int$flags	set	btemp
 11558   000000                     wtemp8	set	btemp+1
 11559   000000                     ttemp5	set	btemp+1
 11560   000000                     ttemp6	set	btemp+4
 11561   000000                     ttemp7	set	btemp+8
 11562                           
 11563                           	psect	config
 11564                           
 11565                           ;Config register CONFIG1L @ 0x300000
 11566                           ;	External Oscillator mode Selection bits
 11567                           ;	FEXTOSC = OFF, Oscillator not enabled
 11568                           ;	Power-up default value for COSC bits
 11569                           ;	RSTOSC = HFINTOSC_1MHZ, HFINTOSC with HFFRQ = 4 MHz and CDIV = 4:1
 11570   300000                     	org	3145728
 11571   300000  EC                 	db	236
 11572                           
 11573                           ;Config register CONFIG1H @ 0x300001
 11574                           ;	Clock Out Enable bit
 11575                           ;	CLKOUTEN = OFF, CLKOUT function is disabled
 11576                           ;	Clock Switch Enable bit
 11577                           ;	CSWEN = ON, Writing to NOSC and NDIV is allowed
 11578                           ;	Fail-Safe Clock Monitor Enable bit
 11579                           ;	FCMEN = ON, Fail-Safe Clock Monitor enabled
 11580   300001                     	org	3145729
 11581   300001  FF                 	db	255
 11582                           
 11583                           ;Config register CONFIG2L @ 0x300002
 11584                           ;	Master Clear Enable bit
 11585                           ;	MCLRE = EXTMCLR, MCLR pin (RE3) is MCLR
 11586                           ;	Power-up Timer Enable bit
 11587                           ;	PWRTE = OFF, Power up timer disabled
 11588                           ;	Low-power BOR enable bit
 11589                           ;	LPBOREN = OFF, Low power BOR is disabled
 11590                           ;	Brown-out Reset Enable bits
 11591                           ;	BOREN = SBORDIS, Brown-out Reset enabled , SBOREN bit is ignored
 11592   300002                     	org	3145730
 11593   300002  FF                 	db	255
 11594                           
 11595                           ;Config register CONFIG2H @ 0x300003
 11596                           ;	Brown Out Reset Voltage selection bits
 11597                           ;	BORV = VBOR_190, Brown-out Reset Voltage (VBOR) set to 1.90V
 11598                           ;	ZCD Disable bit
 11599                           ;	ZCD = OFF, ZCD disabled. ZCD can be enabled by setting the ZCDSEN bit of ZCDCON
 11600                           ;	PPSLOCK bit One-Way Set Enable bit
 11601                           ;	PPS1WAY = ON, PPSLOCK bit can be cleared and set only once; PPS registers remain locke
      +                          d after one clear/set cycle
 11602                           ;	Stack Full/Underflow Reset Enable bit
 11603                           ;	STVREN = ON, Stack full/underflow will cause Reset
 11604                           ;	Extended Instruction Set Enable bit
 11605                           ;	XINST = OFF, Extended Instruction Set and Indexed Addressing Mode disabled
 11606   300003                     	org	3145731
 11607   300003  FF                 	db	255
 11608                           
 11609                           ;Config register CONFIG3L @ 0x300004
 11610                           ;	WDT Period Select bits
 11611                           ;	WDTCPS = WDTCPS_31, Divider ratio 1:65536; software control of WDTPS
 11612                           ;	WDT operating mode
 11613                           ;	WDTE = OFF, WDT Disabled
 11614   300004                     	org	3145732
 11615   300004  9F                 	db	159
 11616                           
 11617                           ;Config register CONFIG3H @ 0x300005
 11618                           ;	WDT Window Select bits
 11619                           ;	WDTCWS = WDTCWS_7, window always open (100%); software control; keyed access not requi
      +                          red
 11620                           ;	WDT input clock selector
 11621                           ;	WDTCCS = SC, Software Control
 11622   300005                     	org	3145733
 11623   300005  FF                 	db	255
 11624                           
 11625                           ;Config register CONFIG4L @ 0x300006
 11626                           ;	Write Protection Block 0
 11627                           ;	WRT0 = OFF, Block 0 (000800-003FFFh) not write-protected
 11628                           ;	Write Protection Block 1
 11629                           ;	WRT1 = OFF, Block 1 (004000-007FFFh) not write-protected
 11630                           ;	Write Protection Block 2
 11631                           ;	WRT2 = OFF, Block 2 (008000-00BFFFh) not write-protected
 11632                           ;	Write Protection Block 3
 11633                           ;	WRT3 = OFF, Block 3 (00C000-00FFFFh) not write-protected
 11634                           ;	Write Protection Block 4
 11635                           ;	WRT4 = 0x1, unprogrammed default
 11636                           ;	Write Protection Block 5
 11637                           ;	WRT5 = 0x1, unprogrammed default
 11638                           ;	Write Protection Block 6
 11639                           ;	WRT6 = 0x1, unprogrammed default
 11640                           ;	Write Protection Block 7
 11641                           ;	WRT7 = 0x1, unprogrammed default
 11642   300006                     	org	3145734
 11643   300006  FF                 	db	255
 11644                           
 11645                           ;Config register CONFIG4H @ 0x300007
 11646                           ;	Configuration Register Write Protection bit
 11647                           ;	WRTC = OFF, Configuration registers (300000-30000Bh) not write-protected
 11648                           ;	Boot Block Write Protection bit
 11649                           ;	WRTB = OFF, Boot Block (000000-0007FFh) not write-protected
 11650                           ;	Data EEPROM Write Protection bit
 11651                           ;	WRTD = OFF, Data EEPROM not write-protected
 11652                           ;	Scanner Enable bit
 11653                           ;	SCANE = ON, Scanner module is available for use, SCANMD bit can control the module
 11654                           ;	Low Voltage Programming Enable bit
 11655                           ;	LVP = OFF, HV on MCLR/VPP must be used for programming
 11656   300007                     	org	3145735
 11657   300007  DF                 	db	223
 11658                           
 11659                           ;Config register CONFIG5L @ 0x300008
 11660                           ;	UserNVM Program Memory Code Protection bit
 11661                           ;	CP = OFF, UserNVM code protection disabled
 11662                           ;	DataNVM Memory Code Protection bit
 11663                           ;	CPD = OFF, DataNVM code protection disabled
 11664   300008                     	org	3145736
 11665   300008  FF                 	db	255
 11666                           
 11667                           ;Config register CONFIG5H @ 0x300009
 11668                           ;	unspecified, using default values
 11669   300009                     	org	3145737
 11670   300009  FF                 	db	255
 11671                           
 11672                           ;Config register CONFIG6L @ 0x30000A
 11673                           ;	Table Read Protection Block 0
 11674                           ;	EBTR0 = OFF, Block 0 (000800-003FFFh) not protected from table reads executed in other
      +                           blocks
 11675                           ;	Table Read Protection Block 1
 11676                           ;	EBTR1 = OFF, Block 1 (004000-007FFFh) not protected from table reads executed in other
      +                           blocks
 11677                           ;	Table Read Protection Block 2
 11678                           ;	EBTR2 = OFF, Block 2 (008000-00BFFFh) not protected from table reads executed in other
      +                           blocks
 11679                           ;	Table Read Protection Block 3
 11680                           ;	EBTR3 = OFF, Block 3 (00C000-00FFFFh) not protected from table reads executed in other
      +                           blocks
 11681                           ;	Table Read Protection Block 4
 11682                           ;	EBTR4 = 0x1, unprogrammed default
 11683                           ;	Table Read Protection Block 5
 11684                           ;	EBTR5 = 0x1, unprogrammed default
 11685                           ;	Table Read Protection Block 6
 11686                           ;	EBTR6 = 0x1, unprogrammed default
 11687                           ;	Table Read Protection Block 7
 11688                           ;	EBTR7 = 0x1, unprogrammed default
 11689   30000A                     	org	3145738
 11690   30000A  FF                 	db	255
 11691                           
 11692                           ;Config register CONFIG6H @ 0x30000B
 11693                           ;	Boot Block Table Read Protection bit
 11694                           ;	EBTRB = OFF, Boot Block (000000-0007FFh) not protected from table reads executed in ot
      +                          her blocks
 11695   30000B                     	org	3145739
 11696   30000B  FF                 	db	255
 11697                           tosu	equ	0xFFF
 11698                           tosh	equ	0xFFE
 11699                           tosl	equ	0xFFD
 11700                           stkptr	equ	0xFFC
 11701                           pclatu	equ	0xFFB
 11702                           pclath	equ	0xFFA
 11703                           pcl	equ	0xFF9
 11704                           tblptru	equ	0xFF8
 11705                           tblptrh	equ	0xFF7
 11706                           tblptrl	equ	0xFF6
 11707                           tablat	equ	0xFF5
 11708                           prodh	equ	0xFF4
 11709                           prodl	equ	0xFF3
 11710                           indf0	equ	0xFEF
 11711                           postinc0	equ	0xFEE
 11712                           postdec0	equ	0xFED
 11713                           preinc0	equ	0xFEC
 11714                           plusw0	equ	0xFEB
 11715                           fsr0h	equ	0xFEA
 11716                           fsr0l	equ	0xFE9
 11717                           wreg	equ	0xFE8
 11718                           indf1	equ	0xFE7
 11719                           postinc1	equ	0xFE6
 11720                           postdec1	equ	0xFE5
 11721                           preinc1	equ	0xFE4
 11722                           plusw1	equ	0xFE3
 11723                           fsr1h	equ	0xFE2
 11724                           fsr1l	equ	0xFE1
 11725                           bsr	equ	0xFE0
 11726                           indf2	equ	0xFDF
 11727                           postinc2	equ	0xFDE
 11728                           postdec2	equ	0xFDD
 11729                           preinc2	equ	0xFDC
 11730                           plusw2	equ	0xFDB
 11731                           fsr2h	equ	0xFDA
 11732                           fsr2l	equ	0xFD9
 11733                           status	equ	0xFD8

Data Sizes:
    Strings     59
    Constant    0
    Data        8
    BSS         104
    Persistent  22
    Stack       0

Auto Spaces:
    Space          Size  Autos    Used
    COMRAM           94     57      94
    BANK0           160    142     153
    BANK1           256      8      94
    BANK2           256      0       0
    BANK3           256      0       0
    BANK4           256      0       0
    BANK5           256      0       0
    BANK6           256      0       0
    BANK7           256      0       0
    BANK8           256      0       0
    BANK9           256      0       0
    BANK10          256      0       0
    BANK11          256      0       0
    BANK12          256      0       0
    BANK14           31      0       0

Pointer List with Targets:

    dtoa@fp	PTR struct _IO_FILE size(2) Largest target is 0
		 -> NULL(NULL[0]), 

    efgtoa@fp	PTR struct _IO_FILE size(2) Largest target is 0
		 -> NULL(NULL[0]), 

    EUSART2_ErrorHandler	PTR FTN()void  size(3) Largest target is 1
		 -> EUSART2_DefaultErrorHandler(), NULL(), 

    EUSART2_FramingErrorHandler	PTR FTN()void  size(3) Largest target is 1
		 -> EUSART2_DefaultFramingErrorHandler(), NULL(), 

    EUSART2_OverrunErrorHandler	PTR FTN()void  size(3) Largest target is 1
		 -> EUSART2_DefaultOverrunErrorHandler(), NULL(), 

    EUSART2_SetErrorHandler@interruptHandler	PTR FTN()void  size(3) Largest target is 1
		 -> EUSART2_DefaultErrorHandler(), 

    EUSART2_SetFramingErrorHandler@interruptHandler	PTR FTN()void  size(3) Largest target is 1
		 -> EUSART2_DefaultFramingErrorHandler(), 

    EUSART2_SetOverrunErrorHandler@interruptHandler	PTR FTN()void  size(3) Largest target is 1
		 -> EUSART2_DefaultOverrunErrorHandler(), 

    fputc@fp	PTR struct _IO_FILE size(2) Largest target is 0
		 -> NULL(NULL[0]), 

    fputc@fp$.$buffer	PTR unsigned char  size(2) Largest target is 0

    fputc@fp$.$source	PTR const unsigned char  size(2) Largest target is 0

    fputs@fp	PTR struct _IO_FILE size(2) Largest target is 0
		 -> NULL(NULL[0]), 

    fputs@s	PTR const unsigned char  size(2) Largest target is 80
		 -> dbuf(BANK1[80]), 

    IOCAF0_InterruptHandler	PTR FTN()void  size(3) Largest target is 1
		 -> IOCAF0_DefaultInterruptHandler(), pin_down(), pin_up(), NULL(), 

    IOCAF0_SetInterruptHandler@InterruptHandler	PTR FTN()void  size(3) Largest target is 1
		 -> IOCAF0_DefaultInterruptHandler(), pin_down(), pin_up(), 

    IOCAF1_InterruptHandler	PTR FTN()void  size(3) Largest target is 1
		 -> IOCAF1_DefaultInterruptHandler(), NULL(), 

    IOCAF1_SetInterruptHandler@InterruptHandler	PTR FTN()void  size(3) Largest target is 1
		 -> IOCAF1_DefaultInterruptHandler(), 

    memcpy@d	PTR unsigned char  size(2) Largest target is 80
		 -> dbuf(BANK1[80]), 

    memcpy@d1	PTR void  size(2) Largest target is 80
		 -> dbuf(BANK1[80]), 

    memcpy@s	PTR const unsigned char  size(2) Largest target is 80
		 -> dbuf(BANK1[80]), 

    memcpy@s1	PTR const void  size(2) Largest target is 80
		 -> dbuf(BANK1[80]), 

    pad@buf	PTR unsigned char  size(2) Largest target is 80
		 -> dbuf(BANK1[80]), 

    pad@fp	PTR struct _IO_FILE size(2) Largest target is 0
		 -> NULL(NULL[0]), 

    printf@ap	PTR void [1] size(1) Largest target is 2
		 -> ?_printf(BANK0[2]), 

    printf@fmt	PTR const unsigned char  size(1) Largest target is 31
		 -> STR_1(CODE[10]), STR_2(CODE[31]), STR_3(CODE[10]), 

    S1411$buffer	PTR unsigned char  size(2) Largest target is 0

    S1411$source	PTR const unsigned char  size(2) Largest target is 0

    sp__memcpy	PTR void  size(2) Largest target is 80
		 -> dbuf(BANK1[80]), 

    sp__strcpy	PTR unsigned char  size(2) Largest target is 80
		 -> dbuf(BANK1[80]), 

    strcpy@d	PTR unsigned char  size(2) Largest target is 80
		 -> dbuf(BANK1[80]), 

    strcpy@dest	PTR unsigned char  size(2) Largest target is 80
		 -> dbuf(BANK1[80]), 

    strcpy@src	PTR const unsigned char  size(1) Largest target is 4
		 -> STR_4(CODE[4]), STR_7(CODE[4]), 

    TMR2_InterruptHandler	PTR FTN()void  size(3) Largest target is 1
		 -> timer_callback(), TMR2_DefaultInterruptHandler(), NULL(), 

    TMR2_SetInterruptHandler@InterruptHandler	PTR FTN()void  size(3) Largest target is 1
		 -> timer_callback(), TMR2_DefaultInterruptHandler(), 

    vfpfcnvrt@ap	PTR PTR void  size(1) Largest target is 1
		 -> printf@ap(BANK0[1]), 

    vfpfcnvrt@cp	PTR unsigned char  size(1) Largest target is 31
		 -> STR_1(CODE[10]), STR_2(CODE[31]), STR_3(CODE[10]), 

    vfpfcnvrt@fmt	PTR PTR unsigned char  size(1) Largest target is 1
		 -> vfprintf@cfmt(BANK0[1]), 

    vfpfcnvrt@fp	PTR struct _IO_FILE size(2) Largest target is 0
		 -> NULL(NULL[0]), 

    vfprintf@ap	PTR PTR void  size(1) Largest target is 1
		 -> printf@ap(BANK0[1]), 

    vfprintf@cfmt	PTR unsigned char  size(1) Largest target is 31
		 -> STR_1(CODE[10]), STR_2(CODE[31]), STR_3(CODE[10]), 

    vfprintf@fmt	PTR const unsigned char  size(1) Largest target is 31
		 -> STR_1(CODE[10]), STR_2(CODE[31]), STR_3(CODE[10]), 

    vfprintf@fp	PTR struct _IO_FILE size(2) Largest target is 0
		 -> NULL(NULL[0]), 


Critical Paths under _main in COMRAM

    None.

Critical Paths under _INTERRUPT_InterruptManager in COMRAM

    _pin_up->i2___fladd
    _pin_down->i2___fladd
    i2___fldiv->i2___xxtofl
    i2___fladd->i2___fldiv

Critical Paths under _main in BANK0

    _main->_printf
    _printf->_vfprintf
    _vfprintf->_vfpfcnvrt
    _vfpfcnvrt->_efgtoa
    _efgtoa->___flsub
    _floorf->___fldiv
    ___flsub->___fladd
    ___fladd->___fldiv
    ___flge->___flmul
    ___fldiv->___xxtofl
    _dtoa->_pad
    _pad->_fputs
    _fputs->_fputc
    _fputc->_putch
    _putch->_EUSART2_Write
    _abs->___awmod
    _TMR2_Initialize->_TMR2_SetInterruptHandler
    _PIN_MANAGER_Initialize->_IOCAF0_SetInterruptHandler
    _PIN_MANAGER_Initialize->_IOCAF1_SetInterruptHandler
    _EUSART2_Initialize->_EUSART2_SetErrorHandler
    _EUSART2_Initialize->_EUSART2_SetFramingErrorHandler
    _EUSART2_Initialize->_EUSART2_SetOverrunErrorHandler

Critical Paths under _INTERRUPT_InterruptManager in BANK0

    None.

Critical Paths under _main in BANK1

    None.

Critical Paths under _INTERRUPT_InterruptManager in BANK1

    None.

Critical Paths under _main in BANK2

    None.

Critical Paths under _INTERRUPT_InterruptManager in BANK2

    None.

Critical Paths under _main in BANK3

    None.

Critical Paths under _INTERRUPT_InterruptManager in BANK3

    None.

Critical Paths under _main in BANK4

    None.

Critical Paths under _INTERRUPT_InterruptManager in BANK4

    None.

Critical Paths under _main in BANK5

    None.

Critical Paths under _INTERRUPT_InterruptManager in BANK5

    None.

Critical Paths under _main in BANK6

    None.

Critical Paths under _INTERRUPT_InterruptManager in BANK6

    None.

Critical Paths under _main in BANK7

    None.

Critical Paths under _INTERRUPT_InterruptManager in BANK7

    None.

Critical Paths under _main in BANK8

    None.

Critical Paths under _INTERRUPT_InterruptManager in BANK8

    None.

Critical Paths under _main in BANK9

    None.

Critical Paths under _INTERRUPT_InterruptManager in BANK9

    None.

Critical Paths under _main in BANK10

    None.

Critical Paths under _INTERRUPT_InterruptManager in BANK10

    None.

Critical Paths under _main in BANK11

    None.

Critical Paths under _INTERRUPT_InterruptManager in BANK11

    None.

Critical Paths under _main in BANK12

    None.

Critical Paths under _INTERRUPT_InterruptManager in BANK12

    None.

Critical Paths under _main in BANK14

    None.

Critical Paths under _INTERRUPT_InterruptManager in BANK14

    None.

Call Graph Tables:

 ---------------------------------------------------------------------------------
 (Depth) Function   	        Calls       Base Space   Used Autos Params    Refs
 ---------------------------------------------------------------------------------
 (0) _main                                                72    72      0   45496
                                              0 BANK1      8     8      0
                 _EUSART2_Initialize
         _IOCAF0_SetInterruptHandler
             _PIN_MANAGER_Initialize
                  _SYSTEM_Initialize
           _TMR2_SetInterruptHandler
                    _TMR2_StartTimer
                            ___fladd
                            ___fldiv
                           ___xxtofl
                             _printf
 ---------------------------------------------------------------------------------
 (1) _printf                                              10     3      7   35356
                                            134 BANK0      8     1      7
                           _vfprintf
 ---------------------------------------------------------------------------------
 (2) _vfprintf                                             5     1      4   34987
                                            129 BANK0      5     1      4
                          _vfpfcnvrt
 ---------------------------------------------------------------------------------
 (3) _vfpfcnvrt                                           13     9      4   34508
                                            116 BANK0     13     9      4
                               _dtoa
                             _efgtoa
                              _fputc
 ---------------------------------------------------------------------------------
 (4) _efgtoa                                              54    47      7   26611
                                             63 BANK0     53    46      7
                            ___fladd
                            ___fldiv
                             ___fleq
                             ___flge
                            ___flmul
                            ___flneg
                            ___flsub
                            ___fltol
                      ___fpclassifyf
                             _floorf
                               _labs
                             _memcpy
                                _pad
                             _strcpy
 ---------------------------------------------------------------------------------
 (5) _strcpy                                               6     3      3     463
                                              0 BANK0      6     3      3
 ---------------------------------------------------------------------------------
 (5) _memcpy                                              11     5      6     478
                                              0 BANK0     11     5      6
 ---------------------------------------------------------------------------------
 (5) _labs                                                 8     4      4     363
                                              0 BANK0      8     4      4
 ---------------------------------------------------------------------------------
 (5) _floorf                                              20    16      4     669
                                             39 BANK0     20    16      4
                            ___fldiv (ARG)
 ---------------------------------------------------------------------------------
 (5) ___fpclassifyf                                       14    10      4     375
                                              0 BANK0     14    10      4
 ---------------------------------------------------------------------------------
 (5) ___fltol                                             10     6      4     607
                                              0 BANK0     10     6      4
 ---------------------------------------------------------------------------------
 (5) ___flsub                                              8     0      8    4407
                                             55 BANK0      8     0      8
                            ___fladd
                            ___flmul (ARG)
 ---------------------------------------------------------------------------------
 (6) ___fladd                                             16     8      8    3842
                                             39 BANK0     16     8      8
                            ___fldiv (ARG)
                           ___xxtofl (ARG)
 ---------------------------------------------------------------------------------
 (5) ___flneg                                              4     0      4     155
                                              0 BANK0      4     0      4
 ---------------------------------------------------------------------------------
 (5) ___flmul                                             25    17      8    3413
                                              0 BANK0     25    17      8
 ---------------------------------------------------------------------------------
 (5) ___flge                                              12     4      8     986
                                             25 BANK0     12     4      8
                            ___flmul (ARG)
 ---------------------------------------------------------------------------------
 (5) ___fleq                                              12     4      8     770
                                              0 BANK0     12     4      8
 ---------------------------------------------------------------------------------
 (5) ___fldiv                                             25    17      8    3123
                                             14 BANK0     25    17      8
                           ___xxtofl (ARG)
 ---------------------------------------------------------------------------------
 (4) _dtoa                                                12     8      4    5606
                                             27 BANK0     12     8      4
                            ___awdiv
                            ___awmod
                                _abs
                                _pad
 ---------------------------------------------------------------------------------
 (5) _pad                                                  9     3      6    3433
                                             18 BANK0      9     3      6
                              _fputc
                              _fputs
 ---------------------------------------------------------------------------------
 (6) _fputs                                                7     3      4    1239
                                             11 BANK0      7     3      4
                              _fputc
 ---------------------------------------------------------------------------------
 (4) _fputc                                                9     5      4     919
                                              2 BANK0      9     5      4
                              _putch
 ---------------------------------------------------------------------------------
 (5) _putch                                                1     1      0      62
                                              1 BANK0      1     1      0
                      _EUSART2_Write
 ---------------------------------------------------------------------------------
 (6) _EUSART2_Write                                        1     1      0      31
                                              0 BANK0      1     1      0
 ---------------------------------------------------------------------------------
 (5) _abs                                                  4     2      2     183
                                              6 BANK0      4     2      2
                            ___awmod (ARG)
 ---------------------------------------------------------------------------------
 (5) ___awmod                                              6     2      4     613
                                              0 BANK0      6     2      4
 ---------------------------------------------------------------------------------
 (5) ___awdiv                                              8     4      4     625
                                              0 BANK0      8     4      4
 ---------------------------------------------------------------------------------
 (1) ___xxtofl                                            14    10      4     876
                                              0 BANK0     14    10      4
 ---------------------------------------------------------------------------------
 (1) _TMR2_StartTimer                                      0     0      0       0
                         _TMR2_Start
 ---------------------------------------------------------------------------------
 (2) _TMR2_Start                                           0     0      0       0
 ---------------------------------------------------------------------------------
 (1) _SYSTEM_Initialize                                    0     0      0     996
                 _EUSART2_Initialize
               _INTERRUPT_Initialize
              _OSCILLATOR_Initialize
             _PIN_MANAGER_Initialize
                     _PMD_Initialize
                    _TMR2_Initialize
 ---------------------------------------------------------------------------------
 (2) _TMR2_Initialize                                      0     0      0     211
           _TMR2_SetInterruptHandler
 ---------------------------------------------------------------------------------
 (1) _TMR2_SetInterruptHandler                             3     0      3     211
                                              0 BANK0      3     0      3
 ---------------------------------------------------------------------------------
 (2) _PMD_Initialize                                       0     0      0       0
 ---------------------------------------------------------------------------------
 (2) _PIN_MANAGER_Initialize                               0     0      0     422
         _IOCAF0_SetInterruptHandler
         _IOCAF1_SetInterruptHandler
 ---------------------------------------------------------------------------------
 (3) _IOCAF1_SetInterruptHandler                           3     0      3     121
                                              0 BANK0      3     0      3
 ---------------------------------------------------------------------------------
 (3) _IOCAF0_SetInterruptHandler                           3     0      3     301
                                              0 BANK0      3     0      3
 ---------------------------------------------------------------------------------
 (2) _OSCILLATOR_Initialize                                0     0      0       0
 ---------------------------------------------------------------------------------
 (2) _INTERRUPT_Initialize                                 0     0      0       0
 ---------------------------------------------------------------------------------
 (2) _EUSART2_Initialize                                   0     0      0     363
            _EUSART2_SetErrorHandler
     _EUSART2_SetFramingErrorHandler
     _EUSART2_SetOverrunErrorHandler
 ---------------------------------------------------------------------------------
 (3) _EUSART2_SetOverrunErrorHandler                       3     0      3     121
                                              0 BANK0      3     0      3
 ---------------------------------------------------------------------------------
 (3) _EUSART2_SetFramingErrorHandler                       3     0      3     121
                                              0 BANK0      3     0      3
 ---------------------------------------------------------------------------------
 (3) _EUSART2_SetErrorHandler                              3     0      3     121
                                              0 BANK0      3     0      3
 ---------------------------------------------------------------------------------
 Estimated maximum stack depth 6
 ---------------------------------------------------------------------------------
 (Depth) Function   	        Calls       Base Space   Used Autos Params    Refs
 ---------------------------------------------------------------------------------
 (10) _INTERRUPT_InterruptManager                          2     2      0    7478
                                             55 COMRAM     2     2      0
                    _PIN_MANAGER_IOC
                           _TMR2_ISR
 ---------------------------------------------------------------------------------
 (11) _TMR2_ISR                                            0     0      0       0
                                NULL *
       _TMR2_DefaultInterruptHandler *
                     _timer_callback *
 ---------------------------------------------------------------------------------
 (12) _timer_callback                                      0     0      0       0
 ---------------------------------------------------------------------------------
 (12) _TMR2_DefaultInterruptHandler                        0     0      0       0
 ---------------------------------------------------------------------------------
 (11) _PIN_MANAGER_IOC                                     0     0      0    7478
                         _IOCAF0_ISR
                         _IOCAF1_ISR
 ---------------------------------------------------------------------------------
 (12) _IOCAF1_ISR                                          0     0      0       0
                                NULL *
     _IOCAF1_DefaultInterruptHandler *
 ---------------------------------------------------------------------------------
 (13) _IOCAF1_DefaultInterruptHandler                      0     0      0       0
 ---------------------------------------------------------------------------------
 (12) _IOCAF0_ISR                                          0     0      0    7478
                                NULL *
     _IOCAF0_DefaultInterruptHandler *
                           _pin_down *
                             _pin_up *
 ---------------------------------------------------------------------------------
 (13) _pin_up                                              0     0      0    3739
                          i2___fladd
                          i2___fldiv
                         i2___xxtofl
 ---------------------------------------------------------------------------------
 (13) _pin_down                                            0     0      0    3739
                          i2___fladd
                          i2___fldiv
                         i2___xxtofl
 ---------------------------------------------------------------------------------
 (14) i2___xxtofl                                         14    10      4     426
                                              0 COMRAM    14    10      4
 ---------------------------------------------------------------------------------
 (14) i2___fldiv                                          25    17      8    1225
                                             14 COMRAM    25    17      8
                         i2___xxtofl (ARG)
 ---------------------------------------------------------------------------------
 (14) i2___fladd                                          16     8      8    2088
                                             39 COMRAM    16     8      8
                          i2___fldiv (ARG)
                         i2___xxtofl (ARG)
 ---------------------------------------------------------------------------------
 (13) _IOCAF0_DefaultInterruptHandler                      0     0      0       0
 ---------------------------------------------------------------------------------
 (12) NULL(Fake)                                           0     0      0       0
 ---------------------------------------------------------------------------------
 Estimated maximum stack depth 14
 ---------------------------------------------------------------------------------

 Call Graph Graphs:

 _main (ROOT)
   _EUSART2_Initialize
     _EUSART2_SetErrorHandler
     _EUSART2_SetFramingErrorHandler
     _EUSART2_SetOverrunErrorHandler
   _IOCAF0_SetInterruptHandler
   _PIN_MANAGER_Initialize
     _IOCAF0_SetInterruptHandler
     _IOCAF1_SetInterruptHandler
   _SYSTEM_Initialize
     _EUSART2_Initialize
     _INTERRUPT_Initialize
     _OSCILLATOR_Initialize
     _PIN_MANAGER_Initialize
     _PMD_Initialize
     _TMR2_Initialize
       _TMR2_SetInterruptHandler
   _TMR2_SetInterruptHandler
   _TMR2_StartTimer
     _TMR2_Start
   ___fladd
     ___fldiv (ARG)
       ___xxtofl (ARG)
     ___xxtofl (ARG)
   ___fldiv
   ___xxtofl
   _printf
     _vfprintf
       _vfpfcnvrt
         _dtoa
           ___awdiv
           ___awmod
           _abs
             ___awmod (ARG)
           _pad
             _fputc
               _putch
                 _EUSART2_Write
             _fputs
               _fputc
         _efgtoa
           ___fladd
           ___fldiv
           ___fleq
           ___flge
             ___flmul (ARG)
           ___flmul
           ___flneg
           ___flsub
             ___fladd
             ___flmul (ARG)
           ___fltol
           ___fpclassifyf
           _floorf
             ___fldiv (ARG)
           _labs
           _memcpy
           _pad
           _strcpy
         _fputc

 _INTERRUPT_InterruptManager (ROOT)
   _PIN_MANAGER_IOC
     _IOCAF0_ISR
       NULL(Fake) *
       _IOCAF0_DefaultInterruptHandler *
       _pin_down *
         i2___fladd
           i2___fldiv (ARG)
             i2___xxtofl (ARG)
           i2___xxtofl (ARG)
         i2___fldiv
         i2___xxtofl
       _pin_up *
         i2___fladd
         i2___fldiv
         i2___xxtofl
     _IOCAF1_ISR
       NULL(Fake) *
       _IOCAF1_DefaultInterruptHandler *
   _TMR2_ISR
     NULL(Fake) *
     _TMR2_DefaultInterruptHandler *
     _timer_callback *

 Address spaces:
Name               Size   Autos  Total    Cost      Usage
BIGRAM             CFF      0       0      55        0.0%
EEDATA             400      0       0       0        0.0%
BITBIGSFR          100      0       0      54        0.0%
BITBANK12          100      0       0      28        0.0%
BANK12             100      0       0      29        0.0%
BITBANK11          100      0       0      26        0.0%
BANK11             100      0       0      27        0.0%
BITBANK10          100      0       0      24        0.0%
BANK10             100      0       0      25        0.0%
BITBANK9           100      0       0      22        0.0%
BANK9              100      0       0      23        0.0%
BITBANK8           100      0       0      20        0.0%
BANK8              100      0       0      21        0.0%
BITBANK7           100      0       0      18        0.0%
BANK7              100      0       0      19        0.0%
BITBANK6           100      0       0      16        0.0%
BANK6              100      0       0      17        0.0%
BITBANK5           100      0       0      14        0.0%
BANK5              100      0       0      15        0.0%
BITBANK4           100      0       0      12        0.0%
BANK4              100      0       0      13        0.0%
BITBANK3           100      0       0      10        0.0%
BANK3              100      0       0      11        0.0%
BITBANK2           100      0       0       8        0.0%
BANK2              100      0       0       9        0.0%
BITBANK1           100      0       0       6        0.0%
BANK1              100      8      5E       7       36.7%
BITBANK0            A0      0       0       4        0.0%
BANK0               A0     8E      99       5       95.6%
BITBIGSFR_1llll     69      0       0      51        0.0%
BITCOMRAM           5E      0       0       0        0.0%
COMRAM              5E     39      5E       1      100.0%
BITBIGSFR_1hhhh     58      0       0      35        0.0%
BITBIGSFR_1hhhh     32      0       0      33        0.0%
BITBIGSFR_1hhhh     2D      0       0      34        0.0%
BITBIGSFR_1lllh     22      0       0      49        0.0%
BITBANK14           1F      0       0      30        0.0%
BANK14              1F      0       0      31        0.0%
BIGRAM_1            1F      0       0      53        0.0%
BITBIGSFR_1hhhh      E      0       0      41        0.0%
BITBIGSFR_1hhhh      D      0       0      32        0.0%
BITBIGSFR_1llll      B      0       0      50        0.0%
BITBIGSFR_1hhhh      A      0       0      39        0.0%
BITBIGSFR_1hhhh      9      0       0      40        0.0%
BITBIGSFR_1lh        9      0       0      45        0.0%
BITBIGSFR_1hhhh      3      0       0      38        0.0%
BITBIGSFR_1hhhh      3      0       0      37        0.0%
BITBIGSFR_1hhhh      3      0       0      36        0.0%
BITBIGSFR_1lllh      3      0       0      48        0.0%
BITBIGSFR_1llhl      3      0       0      47        0.0%
BITBIGSFR_1llhh      2      0       0      46        0.0%
BITBIGSFR_1hhhh      2      0       0      42        0.0%
BITBIGSFR_1hhl       1      0       0      43        0.0%
BITBIGSFR_1hl        1      0       0      44        0.0%
BIGSFR_1             0      0       0     200        0.0%
BIGSFR               0      0       0     200        0.0%
BITSFR_3             0      0       0     200        0.0%
SFR_3                0      0       0     200        0.0%
BITSFR_2             0      0       0     200        0.0%
SFR_2                0      0       0     200        0.0%
BITSFR_1             0      0       0     200        0.0%
SFR_1                0      0       0     200        0.0%
BITSFR               0      0       0     200        0.0%
SFR                  0      0       0     200        0.0%
STACK                0      0       0       2        0.0%
NULL                 0      0       0       0        0.0%
ABS                  0      0     155      52        0.0%
DATA                 0      0     155       3        0.0%
CODE                 0      0       0       0        0.0%


Microchip Technology PIC18 Macro Assembler V2.45 build 20230818022343 
Symbol Table                                                                                   Fri Feb  2 14:07:23 2024

              __end_of_TMR2_SetInterruptHandler 46FE                                    ___fldiv@aexp 0086  
                                  ___fldiv@bexp 0085                                               _t 004A  
                                  ___fldiv@sign 007E                                              l40 46E0  
                                            l43 4694                                              l37 46C8  
                                            l90 4750                                              l78 4602  
                                            l87 4754                                    ___awdiv@sign 0065  
                                            _dc 00F2                                     fp__pin_down 0000  
                                           l200 46EE                                             l121 46FC  
                                           l212 4734                                             l215 4726  
                                           l218 4742                                             l235 4758  
                                           l167 4308                                             l191 469A  
                                           l361 4718                                             l194 46AE  
                                           l371 470A                                             l349 3F8C  
                                           l701 40EA                                             l712 3C3C  
                                           l707 3BF6                                             l716 44FC  
                                           l673 3ECE                                             l739 3B36  
                                           l686 403E                                             l970 1B3C  
                                           l971 1B2A                                             l972 1AF0  
                                           l987 1C56                                             l979 1E0C  
                                           l996 1D26                                             l997 1D14  
                                           _PR2 0FBB                                     i2___fladd@a 002C  
                                   i2___fladd@b 0028          __end_of_EUSART2_SetFramingErrorHandler 4736  
                _EUSART2_SetFramingErrorHandler 4728                                             _abs 44FE  
                                           _pad 41EC                                             _t_b 0042  
                                   i2___fldiv@a 0013                                     i2___fldiv@b 000F  
                                           _t_s 0046                                    ___awmod@sign 0065  
                                    i2___xxtofl 3582                                 _TMR2_Initialize 45D2  
                                           tosl 0FFD                                             wreg 0FE8  
                                  ___flmul@aexp 006D                                    ___flmul@bexp 0072  
                                  ___flmul@sign 006C                                    ___flmul@temp 0077  
                                  ___flmul@prod 0073                                    ___fltol@exp1 0069  
                                          l1100 3580                                            l1012 443A  
                                          l1111 3518                                            l1104 34BC  
                                          l1024 2A94                                            l1120 4678  
                                          l1026 28F4                                            l1035 293A  
                                          ?_abs 0066                                            l1060 26F8  
                                          l1037 29B2                                            l1029 28B8  
                                          l1038 29A0                                            l1063 258A  
                                          l1215 172C                                            l1056 2394  
                                          l1153 425C                                            l1073 26BA  
                                          l1065 2602                                            l1313 435A  
                                          l1066 25F0                                            l1307 42B4  
                                          l1156 3920                                            l1325 3E08  
                                          l1333 4482                                            l1149 4204  
                                          l1173 0FD8                                            l1182 194A  
                                          l1247 31B2                                            l1097 3424  
                                          l1169 3A2E                                            l1185 12E4  
                                          l1339 44C2                                            l1187 1124  
                                          l1284 451A                                            l1293 33C8  
                                          l1269 43F2                                            l1287 4532  
                                          l1279 3D3C                                            l1296 330C  
                                          l6001 4282                                            l6011 3240  
                                          l5301 194C                                            l6013 324E  
                                          l6021 3330                                            l6005 31B4  
                                          l6101 0F54                                            l5311 198A  
                                          l5303 195A                                            l6023 336C  
                                          l6007 31D4                                            l6111 0F9C  
                                          l6103 0F62                                            l5401 1B4A  
                                          l5321 19BA                                            l5313 199A  
                                          l5305 1968                                            l6025 3380  
                                          l6017 32C0                                            l6009 322C  
                                          l6041 433A                                            l6033 430A  
                                          l6201 133A                                            l6121 0FE6  
                                          l6113 0FAC                                            l6105 0F66  
                                          l6051 38DE                                            l5411 1B8C  
                                          l5403 1B5A                                            l5331 19E4  
                                          l5323 19CC                                            l5315 199C  
                                          l5307 196A                                            l6027 33A8  
                                          l6019 32FC                                            l6035 431E  
                                          l6043 433E                                            l6211 1384  
                                          l6203 1352                                            l6131 102C  
                                          l6123 0FEA                                            l6115 0FBC  
                                          l6107 0F8A                                            l6061 3918  
                                          l6053 38EE                                            l6045 38BC  
                                          l5421 1BBA                                            l5413 1B9A  
                                          l5333 19F4                                            l5341 1A1E  
                                          l5325 19CE                                            l5309 197A  
                                          l5317 19A4                                            l6029 33B8  
                                          l6037 432A                                            l6301 1890  
                                          l6213 1398                                            l6221 1490  
                                          l6205 1364                                            l6133 1034  
                                          l6125 1012                                            l6141 1072  
                                          l6117 0FC8                                            l6109 0F94  
                                          ?_pad 0072                                            l5503 443C  
                                          l6071 394A                                            l6063 392E  
                                          l6055 38F4                                            l6047 38C2  
                                          l5511 26FA                                            l5431 1C26  
                                          l5423 1BC4                                            l5415 1BA6  
                                          l5407 1B6E                                            l5351 1A56  
                                          l5343 1A2E                                            l5335 1A04  
                                          l5327 19D4                                            l5319 19B4  
                                          l6039 432E                                            l6311 18FC  
                                          l6303 1898                                            l6231 155E  
                                          l6223 14AE                                            l6215 13FC  
                                          l6207 136C                                            l6151 10BC  
                                          l6143 109A                                            l6135 1048  
                                          l6127 1022                                            l6119 0FD0  
                                          l6321 46F0                                            l5281 469A  
                                          l5505 444A                                            l6073 3950  
                                          l6081 39AA                                            l6065 3934  
                                          l6057 3904                                            l6049 38D6  
                                          l5601 292A                                            l5521 2738  
                                          l5513 2708                                            l5433 1C36  
                                          l5417 1BAA                                            l5409 1B7E  
                                          l5425 1BCA                                            l5361 1A6A  
                                          l5353 1A5A                                            l5345 1A40  
                                          l5337 1A14                                            l5329 19E2  
                                          l6313 190C                                            l6305 18A6  
                                          l6241 160E                                            l6233 156C  
                                          l6225 14E2                                            l6217 1454  
                                          l6209 1374                                            l6161 10EC  
                                          l6145 10AA                                            l6137 1052  
                                          l6129 1026                                            l6401 306C  
                                          l6323 4728                                            l6331 46FE  
                                          l5283 46AA                                            l5291 3D64  
                                          l5507 445C                                            l6091 39FE  
                                          l6083 39C6                                            l6075 3984  
                                          l6067 3938                                            l6059 3910  
                                          l5611 296A                                            l5603 2938  
                                          l5531 2768                                            l5523 2748  
                                          l5515 2716                                            l5451 1CB8  
                                          l5443 1C90                                            l5427 1BF0  
                                          l5435 1C46                                            l5419 1BB8  
                                          l5371 1A7E                                            l5363 1A6E  
                                          l5355 1A5E                                            l5347 1A4E  
                                          l5339 1A16                                            l6315 1922  
                                          l6307 18D6                                            l6251 1672  
                                          l6243 1642                                            l6235 157C  
                                          l6227 1516                                            l6219 148A  
                                          l6171 11AC                                            l6147 10AE  
                                          l6411 310A                                            l6403 3090  
                                          l6325 471A                                            l6501 45E6  
                                          l5285 46E6                                            l5293 3D6E  
                                          l5509 4462                                            l6093 3A0E  
                                          l6085 39D8                                            l6077 3988  
                                          l6069 3940                                            l5621 29DC  
                                          l5613 2998                                            l5605 294A  
                                          l5541 279E                                            l5533 276E  
                                          l5525 274A                                            l5517 2718  
                                          l5701 2424                                            l5453 1CC0  
                                          l5445 1C9A                                            l5437 1C6C  
                                          l5429 1C24                                            l5461 1CE4  
                                          l5381 1A92                                            l5373 1A82  
                                          l5365 1A72                                            l5357 1A62  
                                          l5349 1A52                                            l6317 192A  
                                          l6309 18E4                                            l6261 1724  
                                          l6253 1676                                            l6245 1656  
                                          l6237 15B0                                            l6229 152A  
                                          l6181 126E                                            l6173 11E0  
                                          l6165 1134                                            l6149 10B4  
                                          l6413 3118                                            l6405 30B8  
                                          l6421 317A                                            l6341 2E70  
                                          l6333 2E30                                            l6327 4736  
                                          l6511 42CC                                            l6503 45EA  
                                          l5295 3D8C                                            l5287 3D3E  
                                          l6087 39E8                                            l6079 398E  
                                          l5631 2A54                                            l5623 2A06  
                                          l5607 2958                                            l5551 27DE  
                                          l5543 27AE                                            l5535 277C  
                                          l5519 2728                                            l5527 2752  
                                          l5711 2466                                            l5703 2430  
                                          l5471 1D36                                            l5463 1CE8  
                                          l5455 1CC4                                            l5447 1CA8  
                                          l5439 1C7C                                            l5391 1B0A  
                                          l5383 1ABC                                            l5375 1A86  
                                          l5367 1A76                                            l5359 1A66  
                                          l6271 1766                                            l6263 173E  
                                          l6255 167E                                            l6239 160A  
                                          l6247 165A                                            l6191 1306  
                                          l6175 121E                                            l6167 1138  
                                          l6159 10D4                                            l6351 2E8E  
                                          l6343 2E78                                            l6335 2E58  
                                          l6513 42DE                                            l6329 470C  
                                          l6505 45EC                                            l5801 3E4C  
                                          l5297 3DC2                                            l5289 3D52  
                                          l6089 39F8                                            l5641 2A8A  
                                          l5633 2A70                                            l5617 29C2  
                                          l5625 2A0A                                            l5609 295C  
                                          l5553 27EE                                            l5561 280E  
                                          l5545 27B0                                            l5537 277E  
                                          l5529 2762                                            l5721 24C8  
                                          l5713 2476                                            l5705 243E  
                                          l5481 1D9C                                            l5473 1D42  
                                          l5465 1CF6                                            l5457 1CD4  
                                          l5449 1CAA                                            l5393 1B0E  
                                          l5385 1AD8                                            l5377 1A8A  
                                          l5369 1A7A                                            l6273 176E  
                                          l6265 174C                                            l6281 178E  
                                          l6257 168A                                            l6249 166A  
                                          l6193 130E                                            l6177 1232  
                                          l6185 12B0                                            l6169 116C  
                                          l6097 0F3E                                            l6409 30E0  
                                          l6361 2EFA                                            l6345 2E7A  
                                          l6353 2EC4                                            l6337 2E60  
                                          l6425 3188                                            l6521 43AA  
                                          l6601 3776                                            l6515 42F0  
                                          l6507 45FE                                            l6531 46B0  
                                          l5811 3E82                                            l5803 3E5E  
                                          l5635 2A74                                            l5627 2A24  
                                          l5619 29CE                                            l5571 284C  
                                          l5563 281E                                            l5555 27F6  
                                          l5539 278E                                            l5547 27B8  
                                          l5731 2570                                            l5723 24E4  
                                          l5715 2490                                            l5707 244A  
                                          l5651 22DC                                            l5491 1DE4  
                                          l5483 1DAC                                            l5475 1D50  
                                          l5467 1D0C                                            l5459 1CD6  
                                          l5395 1B1C                                            l5387 1AE8  
                                          l5379 1A8E                                            l6291 1814  
                                          l6283 17A0                                            l6275 177E  
                                          l6267 175C                                            l6259 1704  
                                          l6195 1316                                            l6187 12EC  
                                          l6179 1266                                            l6099 0F44  
                                          l6419 314A                                            l6371 2F5C  
                                          l6363 2F02                                            l6355 2ED4  
                                          l6347 2E86                                            l6339 2E6C  
                                          l6523 43B2                                            l6611 3844  
                                          l6603 3798                                            l6517 4302  
                                          l6509 42B6                                            l6461 3EE8  
                                          l6541 46C4                                            l6533 46B4  
                                          l5813 3E98                                            l5805 3E66  
                                          l5821 3EAE                                            l5637 2A82  
                                          l5629 2A3A                                            l5581 2894  
                                          l5573 285C                                            l5565 281E  
                                          l5557 27FA                                            l5549 27C8  
                                          l5741 25AC                                            l5733 257A  
                                          l5725 250E                                            l5717 24A0  
                                          l5709 245A                                            l5661 231C  
                                          l5653 22EA                                            l5493 1DE6  
                                          l5485 1DCC                                            l5477 1D8A  
                                          l5397 1B1E                                            l5389 1AFE  
                                          l6293 184A                                            l6285 17B2  
                                          l6277 1782                                            l6269 1760  
                                          l6197 131A                                            l6189 12FA  
                                          l6381 2FE2                                            l6373 2F80  
                                          l6357 2EDE                                            l6525 43C8  
                                          l6621 38A4                                            l6613 3852  
                                          l6605 379C                                            l6455 4756  
                                          l6471 3F40                                            l6463 3F34  
                                          l6535 46B8                                            l6519 4752  
                                          l6543 474C                                            l6551 33CE  
                                          l5823 3EBE                                            l5815 3EA0  
                                          l5807 3E6E                                            l5831 3F94  
                                          l5639 2A88                                            l5591 28E2  
                                          l5583 28A8                                            l5575 286C  
                                          l5751 261E                                            l5743 25BA  
                                          l5735 2588                                            l5727 2544  
                                          l5719 24BC                                            l5671 234C  
                                          l5663 2322                                            l5655 22EC  
                                          l5903 44C4                                            l5495 1DEC  
                                          l5487 1DD0                                            l5479 1D8C  
                                          l5399 1B28                                            l5911 3A30  
                                          l6295 1852                                            l6287 17B6  
                                          l6279 1788                                            l6199 132C  
                                          l6391 3024                                            l6383 2FEC  
                                          l6375 2F9C                                            l6359 2EF4  
                                          l6367 2F0A                                            l6527 43E8  
                                          l6615 386A                                            l6607 381C  
                                          l6481 3F4E                                            l6473 3F42  
                                          l6465 3F36                                            l6457 467A  
                                          l6537 46BC                                            l6553 33E0  
                                          l5825 3EC6                                            l5817 3EA2  
                                          l5809 3E7C                                            l5841 3FC4  
                                          l5833 3FA2                                            l5593 28F2  
                                          l5585 28B6                                            l5577 287C  
                                          l5569 2832                                            l5761 2688  
                                          l5753 262C                                            l5745 25E8  
                                          l5737 259A                                            l5729 2552  
                                          l5681 2384                                            l5673 234E  
                                          l5665 2332                                            l5657 22FC  
                                          l5649 22CE                                            l5905 44DC  
                                          l5497 1DFA                                            l5489 1DDE  
                                          l5921 3A88                                            l5913 3A48  
                                          l6289 17BC                                            l6297 1856  
                                          l6393 302A                                            l6369 2F3C  
                                          l6545 465E                                            l6617 3876  
                                          l6609 3836                                            l6491 3F58  
                                          l6483 3F50                                            l6475 3F44  
                                          l6467 3F38                                            l6459 3ED0  
                                          l6539 46C0                                            l6571 34A6  
                                          l6563 345E                                            l6555 33EE  
                                          l5819 3EA8                                            l5851 400A  
                                          l5843 3FD6                                            l5835 3FAA  
                                          l5595 2904                                            l5587 28C2  
                                          l5579 2884                                            l5771 26DE  
                                          l5763 26A2                                            l5755 2656  
                                          l5739 25A8                                            l5691 23D4  
                                          l5683 23A4                                            l5675 235E  
                                          l5667 2338                                            l5659 230C  
                                          l5907 44EC                                            l5499 1DFC  
                                          l5923 3A98                                            l6299 1874  
                                          l6395 3032                                            l6387 3004  
                                          l6379 2FB8                                            l6547 4664  
                                          l6619 389A                                            l6493 3F6A  
                                          l6485 3F52                                            l6477 3F46  
                                          l6469 3F3A                                            l6581 3526  
                                          l6573 34B2                                            l6565 3466  
                                          l6557 3434                                            l5861 4036  
                                          l5853 4012                                            l5845 3FDE  
                                          l5837 3FAE                                            l5829 3F8E  
                                          l5597 291A                                            l5589 28E0  
                                          l5765 26BE                                            l5773 26E4  
                                          l5749 2612                                            l5757 265A  
                                          l5693 23DE                                            l5685 23B4  
                                          l5677 236E                                            l5669 233E  
                                          l5781 4406                                            l5933 3AC2  
                                          l5925 3A9C                                            l5917 3A5C  
                                          l6389 300E                                            l6495 3F7C  
                                          l6487 3F54                                            l6479 3F4C  
                                          l6591 356E                                            l6583 3528  
                                          l6575 34EE                                            l6567 3472  
                                          l6559 344A                                            l5791 3E26  
                                          l5855 4018                                            l5847 3FE6  
                                          l5839 3FBC                                            l5599 2920  
                                          l5871 40AE                                            l5775 26E8  
                                          l5767 26CE                                            l5759 2674  
                                          l5695 23F4                                            l5679 237E  
                                          l5951 3B26                                            l5943 3AEA  
                                          l5935 3ACC                                            l5927 3AAA  
                                          l5919 3A86                                            l6751 30F4  
                                          l6399 303A                                            l6743 2EB6  
                                          l6497 46CA                                            l6489 3F56  
                                          l6593 3570                                            l6585 352C  
                                          l6577 34FA                                            l6569 34A4  
                                          l5793 3E2A                                            l5785 3E0A  
                                          l5849 3FF4                                            l5857 401E  
                                          l5961 4224                                            l5873 40BE  
                                          l5865 4040                                            l5881 3B38  
                                          l5769 26DC                                            l5697 2400  
                                          l5689 23C8                                            l5945 3AF6  
                                          l5937 3AD6                                            l6753 316C  
                                          l6745 2F1E                                            l6499 45D2  
                                          l6587 3550                                            l6579 3508  
                                          l5795 3E38                                            l5787 3E10  
                                          l5859 402E                                            l5963 422A  
                                          l5955 41EC                                            l5875 40E2  
                                          l5867 4070                                            l5891 3BC4  
                                          l5883 3B68                                            l5699 2418  
                                          l5779 43F4                                            l5947 3B06  
                                          l5971 3C3E                                            l6747 2FCC  
                                          l6589 3560                                            l5797 3E40  
                                          l5789 3E1E                                            l5965 4248  
                                          l5957 41FC                                            l5877 40E8  
                                          l5869 4080                                            l5893 3BD6  
                                          l5885 3B78                                            l5949 3B16  
                                          l5973 3C5E                                            l6749 304E  
                                          l6597 3736                                            l5799 3E44  
                                          l5967 44FE                                            l5959 4210  
                                          l5895 3BE4                                            l5887 3BA6  
                                          l5975 3C9E                                            l5983 3CDE  
                                          l6599 3766                                            l5969 450E  
                                          l5897 3C34                                            l5889 3BB6  
                                          l5985 3CF0                                            l5977 3CC6  
                                          l5993 4484                                            l5899 3C3A  
                                          l5979 3CD2                                            l5995 448C  
                                          l5989 3D34                                            l5997 425E  
                                          l5999 426E                                            STR_1 0F2A  
                                          STR_2 0F01                                            STR_3 0F20  
                                          STR_4 0F34                                            STR_7 0F38  
                                          _LATA 0F82                                            _LATB 0F83  
                                          _LATC 0F84                                            _LATD 0F85  
                                          _LATE 0F86                                            _T2PR 0FBB  
                                          u6000 1BF0                                            u6001 1BEC  
                                          u6010 1C36                                            u6011 1C32  
                                          u6100 1D22                                            u6020 1C6C  
                                          u6101 1D1E                                            u6021 1C68  
                                          u6110 1D36                                            u6030 1C7C  
                                          u6111 1D32                                            u6031 1C78  
                                          u6200 2716                                            u6120 1D50  
                                          u6040 1CA8                                            u7000 44C2  
                                          u6201 2712                                            u6121 1D4C  
                                          u6041 1CA4                                            u7001 44BE  
                                          u6210 2728                                            u6130 1D8A  
                                          u6050 1CB8                                            u7010 426E  
                                          u6211 2724                                            u6131 1D86  
                                          u6051 1CB4                                            u7011 426A  
                                          u6300 28E0                                            u6220 2738  
                                          u6140 1D9C                                            u6060 1CD4  
                                          u7100 336C                                            u7020 31FE  
                                          _PMD0 0EDC                                            u6301 28DC  
                                          u6221 2734                                            u6141 1D98  
                                          u6061 1CD0                                            u7101 3368  
                                          _PMD1 0EDD                                            u6310 2904  
                                          u6230 277C                                            u6150 1DAC  
                                          u6070 1CE4                                            u7110 33A8  
                                          u7030 322C                                            _PMD2 0EDE  
                                          u6311 2900                                            u6231 2778  
                                          u6151 1DA8                                            u6071 1CE0  
                                          u7111 33A4                                            u7031 3228  
                                          _PMD3 0EDF                                            u7200 39E8  
                                          u6400 2A24                                            u6320 291A  
                                          u6240 278E                                            u6160 1DCC  
                                          u6080 1CF6                                            u7040 324E  
                                          u7120 435A                                            _PMD4 0EE0  
                                          u7201 39E4                                            u6401 2A20  
                                          u6321 2916                                            u6241 278A  
                                          u6161 1DC8                                            u6081 1CF2  
                                          u7041 324A                                            u7025 31F4  
                                          u7121 4356                                            _PMD5 0EE1  
                                          u7210 39F8                                            u7130 38D2  
                                          u6410 2A54                                            u6330 2938  
                                          u6250 279E                                            u6170 1DDE  
                                          u6090 1D0C                                            u7211 39F4  
                                          u7131 38CC                                            u6411 2A50  
                                          u6331 2934                                            u6251 279A  
                                          u6171 1DDA                                            u6091 1D08  
                                          u7140 38D4                                            u6420 2A82  
                                          u6340 2958                                            u6260 27DE  
                                          u6500 23B4                                            u6180 1DFA  
                                          u7060 32BC                                            u7300 1120  
                                          u7220 0F62                                            u6421 2A7E  
                                          u6341 2954                                            u6261 27DA  
                                          u6501 23B0                                            u6181 1DF6  
                                          u7061 32B8                                            u7301 111C  
                                          u7221 0F5E                                            u6190 4482  
                                          u7150 38EE                                            u6350 296A  
                                          u6270 281E                                            u6510 252E  
                                          u6430 22EA                                            u7070 32E0  
                                          u7310 11AC                                            u7230 0FAC  
                                          u6191 447E                                            u7151 38EA  
                                          u6351 2966                                            u6271 281A  
                                          u6431 22E6                                            u7055 3262  
                                          u7311 11A8                                            u7231 0FA8  
                                          u7160 3904                                            u6360 2998  
                                          u6280 2894                                            u6600 26A2  
                                          u6520 2588                                            u6440 22FC  
                                          u5800 1968                                            u7080 32FC  
                                          u7056 326C                                            u7400 14AE  
                                          u7320 11E0                                            u7240 0FBC  
                                          u7161 3900                                            u6361 2994  
                                          u6281 2890                                            u6601 269E  
                                          u6521 2584                                            u6441 22F8  
                                          u5801 1964                                            u7081 32F8  
                                          u7057 327C                                            u7401 14AA  
                                          u7321 11DC                                            u7241 0FB8  
                                          u7170 392E                                            u6370 29AE  
                                          u6290 28B6                                            u6610 26DC  
                                          u6530 25A8                                            u6450 230C  
                                          u5810 197A                                            u7090 3350  
                                          u7410 1516                                            u7330 121E  
                                          u7250 0FE6                                            u7171 392A  
                                          u6371 29AA                                            u6291 28B2  
                                          u6611 26D8                                            u6531 25A4  
                                          u6515 2524                                            u6451 2308  
                                          u5811 1976                                            u7075 32D6  
                                          u7411 1512                                            u7331 121A  
                                          u7251 0FE2                                            u6620 3E1E  
                                          u6700 3FD6                                            u7180 39C6  
                                          u6380 29C2                                            u6540 25BA  
                                          u6460 234C                                            u5900 1AD4  
                                          u5820 198A                                            u7500 1874  
                                          u7420 155E                                            u7340 12AC  
                                          u7260 1012                                            u6621 3E1A  
                                          u6701 3FD2                                            u7181 39C2  
                                          u6381 29BE                                            u6541 25B6  
                                          u6461 2348                                            u5901 1ACE  
                                          u5821 1986                                            u7501 1870  
                                          u7421 155A                                            u7341 12A8  
                                          u7261 100E                                            u6630 3E38  
                                          u6710 3FF4                                            u5750 46AA  
                                          u7190 39D8                                            u6390 29DC  
                                          u6550 25E8                                            u6470 235E  
                                          u5910 1AD6                                            u5830 19CC  
                                          u7510 1890                                            u7430 156C  
                                          u7350 12E4                                            u7270 1022  
                                          u6631 3E34                                            u6711 3FF0  
                                          u5751 46A6                                            u7191 39D4  
                                          u6391 29D8                                            u6551 25E4  
                                          u6471 235A                                            u5831 19C8  
                                          u7095 3346                                            u7511 188C  
                                          u7431 1568                                            u7351 12E0  
                                          u7271 101E                                            u6640 3E5E  
                                          u6720 400A                                            u5760 3D52  
                                          u6800 3BE4                                            u6560 25FE  
                                          u6480 236E                                            u5920 1AFE  
                                          u5840 19E2                                            u7520 18F6  
                                          u7440 160A                                            u7360 12FA  
                                          u7280 109A                                            u7600 43E8  
                                          u6641 3E5A                                            u6721 4006  
                                          u5761 3D4E                                            u6801 3BE0  
                                          u6561 25FA                                            u6481 236A  
                                          u5921 1AFA                                            u5841 19DE  
                                          u7521 18F0                                            u7441 1606  
                                          u7361 12F6                                            u7281 1096  
                                          u7601 43E4                                            u7610 33E0  
                                          u6650 3E7C                                            u6730 402E  
                                          u5770 3D64                                            u6810 3C34  
                                          u6570 2612                                            u6490 23A4  
                                          u5930 1B1C                                            u5850 19F4  
                                          u7530 18F8                                            u7450 1656  
                                          u7370 132C                                            u7290 10AA  
                                          u7611 33DC                                            u6651 3E78  
                                          u6731 402A                                            u5771 3D60  
                                          u6811 3C30                                            u6571 260E  
                                          u6491 23A0                                            u5931 1B18  
                                          u5851 19F0                                            u7451 1652  
                                          u7371 1328                                            u7291 10A6  
                                          u7700 356E                                            u7620 33EE  
                                          u6660 3E98                                            u5780 3D8C  
                                          u6900 41FC                                            u6740 4070  
                                          u6580 262C                                            u6820 44DC  
                                          u5940 1B3C                                            u5860 1A04  
                                          u7540 190C                                            u7460 1704  
                                          u7380 133A                                            u7701 356A  
                                          u7621 33EA                                            u6661 3E94  
                                          u5781 3D88                                            u6901 41F8  
                                          u6741 406C                                            u6581 2628  
                                          u6821 44D8                                            u5941 1B38  
                                          u5861 1A00                                            u7541 1908  
                                          u7461 1700                                            u7381 1336  
                                          u7630 344A                                            u6670 3EBE  
                                          u5790 3DC2                                            u6910 4248  
                                          u6750 40AE                                            u6590 2674  
                                          u5950 1B4A                                            u5870 1A40  
                                          u6830 3A48                                            u7470 173E  
                                          u7390 1364                                            u7550 2E58  
                                          u7710 3844                                            u7631 3446  
                                          u6671 3EBA                                            u5791 3DBE  
                                          u6911 4244                                            u6751 40AA  
                                          u6591 2670                                            u5951 1B46  
                                          u5871 1A3C                                            u6831 3A44  
                                          u7471 173A                                            u7391 1360  
                                          u7551 2E54                                            u7711 3840  
                                          u7640 34A0                                            u6680 3FA2  
                                          u6920 450E                                            u6760 40E2  
                                          u5960 1B5A                                            u5880 1A4E  
                                          u6840 3A7C                                            u7480 174C  
                                          u7560 2ED4                                            u7720 3852  
                                          u7641 349C                                            u6681 3F9E  
                                          u6921 450A                                            u6761 40DE  
                                          u5961 1B56                                            u5881 1A4A  
                                          u7481 1748                                            u7561 2ED0  
                                          u7721 384E                                            u7650 34EA  
                                          u6690 3FBC                                            u6770 3B68  
                                          u5970 1B8C                                            u5890 1ABC  
                                          u6850 3AAA                                            u6930 3C80  
                                          u7490 17A0                                            u7570 2F5C  
                                          u7730 386A                                            u7651 34E6  
                                          u6691 3FB8                                            u6771 3B64  
                                          u5971 1B88                                            u5891 1AB8  
                                          u6851 3AA6                                            u7491 179C  
                                          u7571 2F58                                            u7731 3866  
                                          u7660 3508                                            u6780 3BA6  
                                          u5980 1B9A                                            u6860 3ABE  
                                          u6940 3C9E                                            u7580 2F7C  
                                          u7661 3504                                            u6781 3BA2  
                                          u5981 1B96                                            u6861 3ABA  
                                          u6845 3A72                                            u6941 3C9A  
                                          u7581 2F78                                            u7670 3518  
                                          u6790 3BC4                                            u5990 1BB8  
                                          u6870 3AE6                                            u6950 3CC6  
                                          u7590 308C                                            u7671 3514  
                                          u6791 3BC0                                            u5991 1BB4  
                                          u6871 3AE2                                            u6951 3CC2  
                                          u6935 3C74                                            u7591 3088  
                                          u7680 3526                                            u6880 3B06  
                                          u6960 3CF0                                            u7681 3522  
                                          u6881 3B02                                            u6961 3CEC  
                                          u7690 3560                                            u6890 3B16  
                                          u7691 355C                                            u6891 3B12  
                                          u6980 3D2A                                            u6981 3D24  
                                          u6990 3D2C                                            u6975 3D02  
                                          _TMR2 0FBA                                            _WPUA 0F0B  
                                          _WPUB 0F13                                            _WPUC 0F1B  
                                          _WPUD 0F20                                            _WPUE 0F28  
                                 _EUSART2_Write 4696                                            abs@a 0066  
                                          _dbuf 0100                                            _labs 425E  
                                          _main 3736                                            _dtoa 38BC  
                                          _t_ms 0048                                            _prec 00F0  
                                          pad@i 0079                                            pad@p 0076  
                                          fsr1h 0FE2                                            fsr2h 0FDA  
                                          indf2 0FDF                                            fsr1l 0FE1  
                                          fsr2l 0FD9                                            btemp 005F  
                                 ___fpclassifyf 3C3E                                            prodh 0FF4  
                                          prodl 0FF3                                            start 0076  
                               ___fldiv@new_exp 007F                                    ___param_bank 0000  
                                         ??_abs 0068                                           ??_pad 0078  
                 __end_of_OSCILLATOR_Initialize 46E2                                   ___fltol@sign1 0068  
                                         ?_labs 0060                                 __end_of___fladd 1E0E  
                                         ?_main 0001                                           ?_dtoa 007B  
                               __end_of___fldiv 2A96                                 __end_of___awdiv 3ED0  
                               __end_of___flneg 44FE                                 __end_of___awmod 4040  
                               __end_of___flmul 26FA                                 __end_of___flsub 443C  
                               __end_of___fltol 3B38                                 ___awdiv@divisor 0062  
                                         _T2CON 0FBC                                           _T2HLT 0FBD  
                                         _T2TMR 0FBA                                           _T2RST 0FBF  
                                         i2l124 475A                                           i2l118 4568  
                                         i2l240 0038                                           i2l420 40EC  
                                         i2l412 4632                                           i2l245 006A  
                                         i2l422 416A                                           i2l246 006A  
                                         i2l415 416C                                           i2l407 4604  
                                         i2l417 41EA                                           i2l354 465C  
                                         i2l364 475E                                           i2l358 45D0  
                                         i2l374 475C                                           i2l368 459C  
                                         i2l970 1FFC                                           i2l971 1FEA  
                                         i2l972 1FB0                                 ___awdiv@counter 0064  
                                         i2l987 2116                                           i2l979 22CC  
                                         i2l996 21E6                                           i2l997 21D4  
                                         _OSCEN 0ED7                                    vfpfcnvrt@fmt 00D6  
                                         _TRISA 0F87                                           _TRISB 0F88  
                                         _TRISC 0F89                                           _TRISD 0F8A  
                                         _TRISE 0F8B                                   i2___fladd@grs 0037  
                              __end_of_TMR2_ISR 456A                         __end_of_PIN_MANAGER_IOC 465E  
                                         _flags 00F4                                     ?_TMR2_Start 0001  
                                         _fputc 3D3E                                           _fputs 443C  
                                 i2___fldiv@grs 0022                                   i2___fldiv@rem 001B  
                                         labs@a 0060                                           pad@fp 0072  
                                         _width 00EE                                           _putch 46E2  
                                         dtoa@d 007D                                           dtoa@i 0085  
                                         dtoa@p 0081                                           dtoa@s 0084  
                                         dtoa@w 0082                                  ?_EUSART2_Write 0001  
                                         pclath 0FFA                                           pclatu 0FFB  
                                         tablat 0FF5                                ??_timer_callback 0001  
                                         ttemp5 0060                                           ttemp6 0063  
                                         ttemp7 0067                                           status 0FD8  
                                         wtemp8 0060                                  ?___fpclassifyf 0060  
                               _TMR2_StartTimer 474C                                 __initialization 435C  
                                  __end_of_labs 42B6                                    __end_of_main 38BC  
                                  __end_of_dtoa 3A30                         __end_of_TMR2_Initialize 4604  
                   ?_INTERRUPT_InterruptManager 0001                                          ??_labs 0064  
                      _TMR2_SetInterruptHandler 46F0                                          ??_main 00EE  
                                        ??_dtoa 007F                                   __activetblptr 0003  
                   _EUSART2_DefaultErrorHandler 0000                                     ?i2___xxtofl 0001  
                            main@time_start_msg 0150                    ??_IOCAF0_SetInterruptHandler 0063  
                    __end_of_EUSART2_Initialize 430A                                          ?_fputc 0062  
                                        ?_fputs 006B                                ___awdiv@dividend 0060  
                                        _ANSELA 0F0C                                          ?_putch 0001  
                                        _ANSELB 0F14                                          _ANSELC 0F1C  
                                        _ANSELD 0F21                                          _ANSELE 0F29  
                                        _RC2REG 0E94                                          _RD0PPS 0EFA  
                                        _RC2STA 0E98                                          _RB6PPS 0EF0  
                                        _ODCONA 0F0A                                          _ODCONB 0F12  
                                        _ODCONC 0F1A                                          _ODCOND 0F1F  
                                        _ODCONE 0F27                                          i2l1100 3734  
                                        i2l1111 36CC                                          i2l1024 2E2E  
                                        i2l1104 3670                                          i2l1026 2C8E  
                                        i2l1035 2CD4                                          i2l1037 2D4C  
                                        i2l1029 2C52                                          i2l1038 2D3A  
                                        i2l1097 35D8                                          i2l5001 459E  
                                        i2l5003 45B2                                          i2l5011 4620  
                                        i2l5005 45CC                                          i2l5013 462C  
                                        i2l5015 4630                                          i2l5007 4606  
                                        i2l5009 460A                                          i2l5041 4534  
                                        i2l4411 1E0E                                          i2l5043 4538  
                                        i2l5131 0054                                          i2l5123 0012  
                                        i2l4501 1FCA                                          i2l4421 1E4A  
                                        i2l4413 1E1A                                          i2l5061 4644  
                                        i2l5045 454E                                          i2l5133 0062  
                                        i2l5125 0022                                          i2l4511 200A  
                                        i2l4503 1FCE                                          i2l4431 1E7A  
                                        i2l4423 1E5A                                          i2l4415 1E28  
                                        i2l5063 4648                                          i2l5127 0030  
                                        i2l4601 22A4                                          i2l4521 204C  
                                        i2l4513 201A                                          i2l4505 1FDC  
                                        i2l4441 1EA4                                          i2l4433 1E8C  
                                        i2l4425 1E5C                                          i2l4417 1E2A  
                                        i2l5065 4658                                          i2l5129 0046  
                                        i2l4603 22A6                                          i2l4531 207A  
                                        i2l4523 205A                                          i2l4507 1FDE  
                                        i2l4443 1EB4                                          i2l4451 1EDE  
                                        i2l4435 1E8E                                          i2l4419 1E3A  
                                        i2l4427 1E64                                          i2l5059 4634  
                                        i2l4605 22AC                                          i2l4541 20E6  
                                        i2l4533 2084                                          i2l4525 2066  
                                        i2l4517 202E                                          i2l4509 1FE8  
                                        i2l4461 1F16                                          i2l4453 1EEE  
                                        i2l4445 1EC4                                          i2l4437 1E94  
                                        i2l4429 1E74                                          i2l4701 2CBA  
                                        i2l4621 2AC2                                          i2l4613 2A96  
                                        i2l4607 22BA                                          i2l4543 20F6  
                                        i2l4527 206A                                          i2l4519 203E  
                                        i2l4535 208A                                          i2l4471 1F2A  
                                        i2l4463 1F1A                                          i2l4455 1F00  
                                        i2l4447 1ED4                                          i2l4439 1EA2  
                                        i2l4711 2CF6                                          i2l4703 2CC4  
                                        i2l4631 2AFC                                          i2l4623 2AD2  
                                        i2l4615 2AA2                                          i2l4609 22BC  
                                        i2l4561 2178                                          i2l4553 2150  
                                        i2l4537 20B0                                          i2l4545 2106  
                                        i2l4529 2078                                          i2l4481 1F3E  
                                        i2l4473 1F2E                                          i2l4465 1F1E  
                                        i2l4457 1F0E                                          i2l4449 1ED6  
                                        i2l4721 2D68                                          i2l4713 2D04  
                                        i2l4705 2CD2                                          i2l4641 2B28  
                                        i2l4633 2B02                                          i2l4625 2AE2  
                                        i2l4617 2AB0                                          _INLVLA 0F08  
                                        _INLVLB 0F10                                          i2l4563 2180  
                                        i2l4555 215A                                          i2l4547 212C  
                                        i2l4539 20E4                                          i2l4571 21A4  
                                        i2l4491 1F52                                          i2l4483 1F42  
                                        i2l4475 1F32                                          i2l4467 1F22  
                                        i2l4459 1F12                                          i2l4731 2DD4  
                                        i2l4723 2D76                                          i2l4715 2D32  
                                        i2l4707 2CE4                                          i2l4651 2B62  
                                        i2l4643 2B38                                          i2l4635 2B08  
                                        i2l4627 2AE4                                          i2l4619 2AB2  
                                        i2l4811 40EE                                          _INLVLC 0F18  
                                        _INLVLD 0F1D                                          i2l4581 21F6  
                                        i2l4573 21A8                                          i2l4565 2184  
                                        i2l4557 2168                                          i2l4549 213C  
                                        i2l4493 1F7C                                          i2l4485 1F46  
                                        i2l4477 1F36                                          i2l4469 1F26  
                                        i2l4741 2E22                                          i2l4733 2DEE  
                                        i2l4725 2DA0                                          i2l4709 2CF2  
                                        i2l4653 2B78                                          i2l4645 2B48  
                                        i2l4637 2B16                                          i2l4629 2AEC  
                                        _INLVLE 0F25                                          i2l4591 225C  
                                        i2l4583 2202                                          i2l4575 21B6  
                                        i2l4567 2194                                          i2l4559 216A  
                                        i2l4495 1F98                                          i2l4487 1F4A  
                                        i2l4479 1F3A                                          i2l4743 2E24  
                                        i2l4735 2E0A                                          i2l4719 2D5C  
                                        i2l4727 2DA4                                          i2l4671 2BCC  
                                        i2l4655 2B88                                          i2l4663 2BA8  
                                        i2l4647 2B4A                                          i2l4639 2B18  
                                        i2l4751 3584                                          i2l2991 4598  
                                        i2l4593 226C                                          i2l4585 2210  
                                        i2l4577 21CC                                          i2l4569 2196  
                                        i2l4497 1FA8                                          i2l4489 1F4E  
                                        i2l4737 2E0E                                          i2l4729 2DBE  
                                        i2l4681 2C1E                                          i2l4673 2BE6  
                                        i2l4665 2BB8                                          i2l4657 2B90  
                                        i2l4649 2B52                                          i2l4753 3594  
                                        i2l4809 416E                                          i2l4595 228C  
                                        i2l4587 224A                                          i2l4499 1FBE  
                                        i2l4739 2E1C                                          i2l4691 2C7A  
                                        i2l4683 2C2E                                          i2l4675 2BF6  
                                        i2l4667 2BB8                                          i2l4659 2B94  
                                        i2l4771 365A                                          i2l4763 3612  
                                        i2l4755 35A2                                          i2l2987 456A  
                                        i2l4597 2290                                          i2l4589 224C  
                                        i2l4693 2C7C                                          i2l4685 2C42  
                                        i2l4677 2C06                                          i2l4781 36DA  
                                        i2l4773 3666                                          i2l4765 361A  
                                        i2l4757 35E8                                          i2l2989 457E  
                                        i2l4599 229E                                          i2l4695 2C8C  
                                        i2l4687 2C50                                          i2l4679 2C16  
                                        i2l4791 3722                                          i2l4783 36DC  
                                        i2l4775 36A2                                          i2l4767 3626  
                                        i2l4759 35FE                                          i2l4697 2C9E  
                                        i2l4689 2C5C                                          i2l4793 3724  
                                        i2l4785 36E0                                          i2l4777 36AE  
                                        i2l4769 3658                                          i2l4699 2CB4  
                                        i2l4787 3704                                          i2l4779 36BC  
                                        i2l4789 3714                                          _OSCFRQ 0ED9  
                                 vfpfcnvrt@done 00DA                                          _RX2PPS 0E88  
                                        _TX2REG 0E95                                          _TX2STA 0E99  
                              __end_of___xxtofl 3582                                  i2___fladd@aexp 0035  
                                i2___fladd@bexp 0036                                    vfprintf@cfmt 00E5  
                                        ___flge 3B38                                          ___fleq 4040  
                                     ??___fladd 008F                                       ??___fldiv 0076  
                                     ??___awdiv 0064                                       ??___flneg 0064  
                                     ??___awmod 0064                                       ??___flmul 0068  
                                     ??___flsub 009F                                       ??___fltol 0064  
                                        _efgtoa 0F3E                                          _floorf 31B4  
                                        _memcpy 430A                                          clear_0 4382  
                                        clear_1 438E                                          clear_2 439A  
                              ___awdiv@quotient 0066                                  i2___fldiv@aexp 0027  
                                i2___fldiv@bexp 0026                                          _pin_up 416C  
                               ___awmod@divisor 0062                                          isa$std 0001  
                   _EUSART2_FramingErrorHandler 0054                                  i2___fldiv@sign 001F  
                               ___awmod@counter 0064                                          _printf 465E  
                                        pad@buf 0074                                          dtoa@fp 007B  
                                        _strcpy 4484                                __end_of_pin_down 416C  
                                        fputc@c 0062                                  _PMD_Initialize 467A  
                                        fputs@c 006F                                          fputs@i 0070  
                                  __pdataCOMRAM 0057                                          fputs@s 006B  
                             __end_ofi2___fladd 22CE                               __end_ofi2___fldiv 2E30  
                               ___fpclassifyf@e 0068                                 ___fpclassifyf@u 006A  
                               ___fpclassifyf@x 0060                                    __mediumconst 0000  
                                        tblptrh 0FF7                                          tblptrl 0FF6  
                                        tblptru 0FF8                                __end_of_vfprintf 43F4  
                       __end_of_TMR2_StartTimer 4752                                 ??_EUSART2_Write 0060  
    IOCAF1_SetInterruptHandler@InterruptHandler 0060      IOCAF0_SetInterruptHandler@InterruptHandler 0060  
      TMR2_SetInterruptHandler@InterruptHandler 0060                                ?_PIN_MANAGER_IOC 0001  
                                  ??_IOCAF0_ISR 0038                                    ??_IOCAF1_ISR 0001  
                                    ___flge@ff1 0079                                      ___flge@ff2 007D  
                               ??___fpclassifyf 0064                                    ___xxtofl@arg 006A  
                                  ___xxtofl@exp 0069                               _SYSTEM_Initialize 46B0  
                                  ___xxtofl@val 0060                                      ___fleq@ff1 0060  
                                    ___fleq@ff2 0064                                      __accesstop 0060  
                       __end_of__initialization 43A0                                      ___flneg@f1 0060  
        __end_of_IOCAF1_DefaultInterruptHandler 475E                  _IOCAF1_DefaultInterruptHandler 475C  
                            ?_SYSTEM_Initialize 0001                                   ___rparam_used 0001  
                                    ___fltol@f1 0060                                  __pcstackCOMRAM 0001  
                           ??_SYSTEM_Initialize 0063                                       ?_TMR2_ISR 0001  
                                 __end_of_fputc 3E0A                                   __end_of_fputs 4484  
                                 __end_of_putch 46F0                                ?_TMR2_Initialize 0001  
                        __end_of_PMD_Initialize 4696                              __end_of_IOCAF0_ISR 45D2  
                            __end_of_IOCAF1_ISR 459E                        ?_EUSART2_SetErrorHandler 0060  
                                       ??_fputc 0066                       __end_of_SYSTEM_Initialize 46CA  
                                       ??_fputs 006F                                         ??_putch 0061  
                                    __pbssBANK0 00EE                                      __pbssBANK1 0100  
              ??_EUSART2_SetFramingErrorHandler 0063                 ?_EUSART2_SetFramingErrorHandler 0060  
                                    __pnvCOMRAM 004A                                         ?___flge 0079  
                                       ?___fleq 0060                                      ??_TMR2_ISR 0001  
                                       ?_efgtoa 009F                                         ?_floorf 0087  
                                       ?_memcpy 0060                                         ?_pin_up 0001  
                                       ?_printf 00E6                                 ?_PMD_Initialize 0001  
                                       ?_strcpy 0060                                       ?___xxtofl 0060  
            __end_of_IOCAF0_SetInterruptHandler 471A                      _IOCAF0_SetInterruptHandler 470C  
                                       _SP2BRGH 0E97                                         _SP2BRGL 0E96  
                                       _OSCCON1 0ED3                                         _OSCCON3 0ED5  
                                       _OSCTUNE 0ED8                                         _SLRCONA 0F09  
                                       _SLRCONB 0F11                                         _SLRCONC 0F19  
                                       _SLRCOND 0F1E                                         _SLRCONE 0F26  
                                  ??_TMR2_Start 0060                                ?_TMR2_StartTimer 0001  
                               i2___fladd@signs 0034                                       ?_pin_down 0001  
                                       __Hparam 0000                                         __Lparam 0000  
                    ??_TMR2_SetInterruptHandler 0063                                         ___fladd 194C  
                                       ___fldiv 26FA                                         ___awdiv 3E0A  
                                       ___flneg 44C4                                         ___awmod 3F8E  
                                       ___flmul 22CE                                         ___flsub 43F4  
                                       ___fltol 3A30                                       ?_vfprintf 00E1  
                                  __psmallconst 0F00                              __end_of_TMR2_Start 4756  
                                       __pcinit 435C                 __end_of_EUSART2_SetErrorHandler 4744  
                                       __ramtop 0F00                                         __ptext0 3736  
                                       __ptext1 465E                                         __ptext2 43AA  
                                       __ptext3 2E30                                         __ptext4 0F3E  
                                       __ptext5 4484                                         __ptext6 430A  
                                       __ptext7 425E                                         __ptext8 31B4  
                                       __ptext9 3C3E              _EUSART2_DefaultOverrunErrorHandler 0000  
                         _OSCILLATOR_Initialize 46CA                                       _T2CONbits 0FBC  
                                  ??i2___xxtofl 0005                                      ??___xxtofl 0064  
                              ___awmod@dividend 0060                        ??_PIN_MANAGER_Initialize 0063  
                                     _IOCAFbits 0F05                                       _T2HLTbits 0FBD  
                                       efgtoa@c 00A5                                         efgtoa@d 00B3  
                                       efgtoa@e 00B7                                         efgtoa@f 00A1  
                                     _IOCANbits 0F06                                         efgtoa@g 00CA  
                                       efgtoa@h 00C1                                         efgtoa@i 00BF  
                                       efgtoa@l 00C5                                         efgtoa@m 00B5  
                                       efgtoa@n 00CE                                         efgtoa@p 00AA  
                                       efgtoa@t 00AC                                         efgtoa@u 00D0  
                                       efgtoa@w 00B9                                       _IOCAPbits 0F07  
                          end_of_initialization 43A0                                         floorf@e 0095  
                                     _T2RSTbits 0FBF                                         floorf@m 0091  
                                       floorf@u 0097                                         floorf@x 0087  
                                       memcpy@d 0067                                         memcpy@n 0064  
                                       memcpy@s 0069                                         fputc@fp 0064  
                                       fputs@fp 006D                                  i2___xxtofl@arg 000B  
                                i2___xxtofl@exp 000A                                  i2___xxtofl@val 0001  
                                    ??_pin_down 0038                              _EUSART2_Initialize 42B6  
                             __end_of_vfpfcnvrt 31B4                                      efgtoa@mode 00B1  
                                    efgtoa@sign 00C9                              __end_ofi2___xxtofl 3736  
                                       postdec1 0FE5                                         postdec2 0FDD  
                                       postinc0 0FEE                                         postinc1 0FE6  
                                       postinc2 0FDE                                vfpfcnvrt@convarg 00DB  
                                    main@F13532 005B                                      main@F13534 0057  
                                    ??_vfprintf 00E5                             ?_EUSART2_Initialize 0001  
                                       strcpy@d 0064                                       _PORTAbits 0F8C  
                                   ___fladd@grs 0096                         _IOCAF0_InterruptHandler 0051  
                                 ___xxtofl@sign 0068                    ??_IOCAF1_SetInterruptHandler 0063  
                                   ___fldiv@grs 0081                                     ___fldiv@rem 007A  
                                     i2___fladd 1E0E                                       i2___fldiv 2A96  
                          ??_EUSART2_Initialize 0063                                     ___flmul@grs 006E  
                  __end_of_INTERRUPT_Initialize 475A            __end_of_TMR2_DefaultInterruptHandler 475C  
                  _TMR2_DefaultInterruptHandler 475A                               fp__timer_callback 0000  
                                __end_of___flge 3C3E                                  __end_of___fleq 40EC  
                                   vfpfcnvrt@ap 00D7                                     vfpfcnvrt@cp 00E0  
                                   vfpfcnvrt@fp 00D4                                   __pidataCOMRAM 4744  
                                __end_of_efgtoa 194C                                  __end_of_floorf 33CA  
                                __end_of_memcpy 435C                          ?_OSCILLATOR_Initialize 0001  
                                    floorf@F521 003A                                  __end_of_pin_up 41EC  
                                __end_of_printf 467A                                  __end_of_strcpy 44C4  
                           start_initialization 435C                                     __end_of_abs 4534  
                                   __end_of_pad 425E                                      ?i2___fladd 0028  
                                    ?i2___fldiv 000F                                     putch@txData 0061  
                         __end_of_EUSART2_Write 46B0                           __end_of___fpclassifyf 3D3E  
        __end_of_EUSART2_SetOverrunErrorHandler 4728                  _EUSART2_SetOverrunErrorHandler 471A  
                                   vfprintf@fmt 00E3                                        ??___flge 0081  
                                      ??___fleq 0068                                ??_PMD_Initialize 0060  
                                      ??_efgtoa 00A6                                        ??_floorf 008B  
                                      ??_memcpy 0066                                        ??_pin_up 0038  
               fp__TMR2_DefaultInterruptHandler 0000                   ?_TMR2_DefaultInterruptHandler 0001  
             fp__IOCAF0_DefaultInterruptHandler 0000                ??_IOCAF0_DefaultInterruptHandler 0001  
               ?_IOCAF0_DefaultInterruptHandler 0001                                        ??_printf 00ED  
                                      ??_strcpy 0063                                       ___fladd@a 008B  
                                     ___fladd@b 0087                                       ___fldiv@a 0072  
                                     ___fldiv@b 006E                                       ___flmul@a 0064  
                                     ___flmul@b 0060                                     __pbssCOMRAM 003A  
                                     ___flsub@a 009B                                       ___flsub@b 0097  
                   ?_IOCAF0_SetInterruptHandler 0060                                   __pcstackBANK0 0060  
                                 __pcstackBANK1 0150                             EUSART2_Write@txData 0060  
                                     __pnvBANK0 00F6                                       __pnvBANK1 0158  
                       _IOCAF1_InterruptHandler 004E                                     _efgtoa$1538 00AE  
                        _PIN_MANAGER_Initialize 3ED0                                       _dtoa$1507 007F  
                                     __pintcode 0008                                        ?___fladd 0087  
                                      ?___fldiv 006E                                        ?___awdiv 0060  
                                      ?___flneg 0060                                        ?___awmod 0060  
                                      ?___flmul 0060                                        ?___flsub 0097  
                                      ?___fltol 0060                    ??_INTERRUPT_InterruptManager 0038  
                                      _BAUD2CON 0E9A                                     __smallconst 0F00  
            __end_of_IOCAF1_SetInterruptHandler 470C                      _IOCAF1_SetInterruptHandler 46FE  
                                   ??i2___fladd 0030                                     ??i2___fldiv 0017  
                                      _T2CLKCON 0FBE                            _INTERRUPT_Initialize 4756  
       EUSART2_SetErrorHandler@interruptHandler 0060                                        _LATCbits 0F84  
                                      _LATEbits 0F86                                        _PIE0bits 0EBD  
                                      _PIE4bits 0EC1                                        i2u500_40 21E2  
                                      i2u260_40 457E                                        i2u500_41 21DE  
                                      i2u260_41 457A                                        i2u501_40 21F6  
                                      i2u501_41 21F2                                        i2u502_40 2210  
                                      i2u510_40 2AC2                                        i2u261_48 4584  
                                      i2u502_41 220C                                        i2u510_41 2ABE  
                                      i2u261_49 4598                                        i2u503_40 224A  
                                      i2u511_40 2AD2                                        i2u503_41 2246  
                                      i2u511_41 2ACE                                        _PIR0bits 0EC5  
                                      i2u504_40 225C                                        i2u520_40 2C9E  
                                      i2u512_40 2B16                                        i2u504_41 2258  
                                      i2u520_41 2C9A                                        i2u512_41 2B12  
                                      i2u505_40 226C                                        i2u521_40 2CB4  
                                      i2u513_40 2B28                                        i2u505_41 2268  
                                      i2u521_41 2CB0                                        i2u513_41 2B24  
                                      i2u506_40 228C                                        i2u530_40 2DEE  
                                      i2u522_40 2CD2                                        i2u514_40 2B38  
                                      i2u506_41 2288                                        i2u530_41 2DEA  
                                      i2u522_41 2CCE                                        i2u514_41 2B34  
                                      i2u507_40 229E                                        i2u531_40 2E1C  
                                      i2u523_40 2CF2                                        i2u515_40 2B78  
                                      i2u507_41 229A                                        i2u531_41 2E18  
                                      i2u523_41 2CEE                                        i2u515_41 2B74  
                                      i2u508_40 22BA                                        i2u524_40 2D04  
                                      i2u516_40 2BB8                                        i2u540_40 3714  
                                      i2u532_40 3594                                        i2u508_41 22B6  
                                      i2u524_41 2D00                                        i2u516_41 2BB4  
                                      i2u540_41 3710                                        i2u532_41 3590  
                                      i2u525_40 2D32                                        i2u517_40 2C2E  
                                      i2u509_40 2AB0                                        i2u541_40 3722  
                                      i2u533_40 35A2                                        i2u525_41 2D2E  
                                      i2u517_41 2C2A                                        i2u509_41 2AAC  
                                      i2u541_41 371E                                        i2u533_41 359E  
                                      _PIR3bits 0EC8                                        i2u470_40 1E28  
                                      i2u526_40 2D48                                        i2u518_40 2C50  
                                      i2u534_40 35FE                                        i2u470_41 1E24  
                                      i2u526_41 2D44                                        i2u518_41 2C4C  
                                      i2u534_41 35FA                                        i2u471_40 1E3A  
                                      i2u527_40 2D5C                                        i2u519_40 2C7A  
                                      i2u535_40 3654                                        i2u551_40 454E  
                                      i2u471_41 1E36                                        i2u527_41 2D58  
                                      i2u519_41 2C76                                        i2u535_41 3650  
                                      i2u551_41 454A                                        _PIR4bits 0EC9  
                                      i2u480_40 1F94                                        i2u472_40 1E4A  
                                      i2u528_40 2D76                                        i2u536_40 369E  
                                      i2u480_41 1F8E                                        i2u472_41 1E46  
                                      i2u528_41 2D72                                        i2u536_41 369A  
                                      i2u481_40 1F96                                        i2u473_40 1E8C  
                                      i2u529_40 2DBE                                        i2u537_40 36BC  
                                      i2u552_48 4554                                        i2u473_41 1E88  
                                      i2u529_41 2DBA                                        i2u537_41 36B8  
                                      i2u552_49 4568                                        i2u490_40 20B0  
                                      i2u482_40 1FBE                                        i2u474_40 1EA2  
                                      i2u538_40 36CC                                        i2u570_40 0054  
                                      i2u490_41 20AC                                        i2u482_41 1FBA  
                                      i2u474_41 1E9E                                        i2u538_41 36C8  
                                      i2u570_41 0050                                        i2u491_40 20F6  
                                      i2u483_40 1FDC                                        i2u475_40 1EB4  
                                      i2u539_40 36DA                                        i2u547_40 45B2  
                                      i2u555_40 4644                                        i2u571_40 0062  
                                      i2u491_41 20F2                                        i2u483_41 1FD8  
                                      i2u475_41 1EB0                                        i2u539_41 36D6  
                                      i2u547_41 45AE                                        i2u555_41 4640  
                                      i2u571_41 005E                                        i2u492_40 212C  
                                      i2u484_40 1FFC                                        i2u476_40 1EC4  
                                      i2u556_40 4658                                        i2u492_41 2128  
                                      i2u484_41 1FF8                                        i2u476_41 1EC0  
                                      i2u556_41 4654                                        i2u493_40 213C  
                                      i2u485_40 200A                                        i2u477_40 1F00  
                                      i2u548_48 45B8                                        i2u549_40 4620  
                                      i2u493_41 2138                                        i2u485_41 2006  
                                      i2u477_41 1EFC                                        i2u548_49 45CC  
                                      i2u549_41 461C                                        i2u494_40 2168  
                                      i2u486_40 201A                                        i2u478_40 1F0E  
                                      i2u494_41 2164                                        i2u486_41 2016  
                                      i2u478_41 1F0A                                        i2u495_40 2178  
                                      i2u487_40 204C                                        i2u479_40 1F7C  
                                      i2u567_40 0022                                        i2u495_41 2174  
                                      i2u487_41 2048                                        i2u479_41 1F78  
                                      i2u567_41 001E                                        i2u496_40 2194  
                                      i2u488_40 205A                                        i2u568_40 0030  
                                      i2u496_41 2190                                        i2u488_41 2056  
                                      i2u568_41 002C                                        i2u497_40 21A4  
                                      i2u489_40 2078                                        i2u569_40 0046  
                                      i2u497_41 21A0                                        i2u489_41 2074  
                                      i2u569_41 0042                                        i2u498_40 21B6  
                                      i2u498_41 21B2                                        i2u499_40 21CC  
                                      i2u499_41 21C8                               i2___fldiv@new_exp 0020  
                                _timer_callback 4604                                        _TMR2_ISR 4534  
                             ??_PIN_MANAGER_IOC 0038                                       _vfpfcnvrt 2E30  
                                     fp__pin_up 0000                  ??_TMR2_DefaultInterruptHandler 0001  
                     ?_TMR2_SetInterruptHandler 0060                                main@time_end_msg 0154  
                                    vfpfcnvrt@c 00DF                                       copy_data0 4370  
                         ?_INTERRUPT_Initialize 0001                         _EUSART2_SetErrorHandler 4736  
                             ??_TMR2_Initialize 0063                     _EUSART2_OverrunErrorHandler 015B  
                                      __Hrparam 0000                          __end_of_timer_callback 4634  
                                     memcpy@tmp 0066                                      vfprintf@ap 00E4  
                                      __Lrparam 0000                                      vfprintf@fp 00E1  
                       ??_OSCILLATOR_Initialize 0060                                      ?_vfpfcnvrt 00D4  
                            ___fpclassifyf@F465 003E                                        ___xxtofl 33CA  
                          _EUSART2_ErrorHandler 0158                                        __ptext10 3A30  
                                      __ptext11 43F4                                        __ptext20 443C  
                                      __ptext12 194C                                        __ptext21 3D3E  
                                      __ptext13 44C4                                        __ptext30 46B0  
                                      __ptext22 46E2                                        __ptext14 22CE  
                                      __ptext31 45D2                                        __ptext23 4696  
                                      __ptext15 3B38                                        __ptext40 471A  
                                      __ptext32 46F0                                        __ptext24 44FE  
                                      __ptext16 4040                                        __ptext41 4728  
                                      __ptext33 467A                                        __ptext25 3F8E  
                                      __ptext17 26FA                                        __ptext50 459E  
                                      __ptext42 4736                                        __ptext34 3ED0  
                                      __ptext26 3E0A                                        __ptext18 38BC  
                                      __ptext51 40EC                                        __ptext35 46FE  
                                      __ptext27 33CA                                        __ptext19 41EC  
                                      __ptext52 475E                                        __ptext44 4534  
                                      __ptext36 470C                                        __ptext28 474C  
                                      __ptext53 416C                                        __ptext45 475A  
                                      __ptext37 46CA                                        __ptext29 4752  
                                      __ptext54 3582                                        __ptext46 4604  
                                      __ptext38 4756                                        __ptext55 2A96  
                                      __ptext47 4634                                        __ptext39 42B6  
                                      __ptext56 1E0E                                        __ptext48 456A  
                                      __ptext57 0000                                        __ptext49 475C  
                                    _IOCAF0_ISR 459E                                      _IOCAF1_ISR 456A  
                                    strcpy@dest 0060              _EUSART2_DefaultFramingErrorHandler 0000  
                                      _pin_down 40EC                                 ?_timer_callback 0001  
                                      efgtoa@fp 009F                                        efgtoa@ne 00A8  
                                      efgtoa@pp 00B0                                        efgtoa@ou 00BB  
                                    _RC2STAbits 0E98  EUSART2_SetOverrunErrorHandler@interruptHandler 0060  
                                      isa$xinst 0000                                        int$flags 005F  
                                      _vfprintf 43AA                               ??_TMR2_StartTimer 0060  
            __end_of_INTERRUPT_InterruptManager 0076                      _INTERRUPT_InterruptManager 0008  
                                     printf@fmt 00E6                ??_EUSART2_SetOverrunErrorHandler 0063  
               ?_EUSART2_SetOverrunErrorHandler 0060                                      _INTCONbits 0FF2  
                                      memcpy@d1 0060                                        memcpy@s1 0062  
                        ??_INTERRUPT_Initialize 0060                       ??_EUSART2_SetErrorHandler 0063  
                                      intlevel2 0000          __end_of_IOCAF0_DefaultInterruptHandler 4760  
                _IOCAF0_DefaultInterruptHandler 475E                                 i2___xxtofl@sign 0009  
                       ?_PIN_MANAGER_Initialize 0001                                       strcpy@src 0062  
                                   efgtoa@nmode 00B2                                        printf@ap 00ED  
EUSART2_SetFramingErrorHandler@interruptHandler 0060                                     ??_vfpfcnvrt 00D8  
             fp__IOCAF1_DefaultInterruptHandler 0000                ??_IOCAF1_DefaultInterruptHandler 0001  
               ?_IOCAF1_DefaultInterruptHandler 0001                     ?_IOCAF1_SetInterruptHandler 0060  
                                    _TMR2_Start 4752                                      _TX2STAbits 0E99  
                                 ___fladd@signs 0093                                     ?_IOCAF0_ISR 0001  
                                   ?_IOCAF1_ISR 0001                  __end_of_PIN_MANAGER_Initialize 3F8E  
                            _eusart2RxLastError 00F5                                    ___fladd@aexp 0094  
                                  ___fladd@bexp 0095                                 _PIN_MANAGER_IOC 4634  
                         _TMR2_InterruptHandler 00F6  
