

Microchip MPLAB XC8 Assembler V2.45 build 20230818022343 
                                                                                               Thu Jan 25 12:58:10 2024

Microchip MPLAB XC8 C Compiler v2.45 (Free license) build 20230818022343 Og1 
     1                           	processor	18F47Q10
     2                           	fnconf	rparam,??,?,0
     3                           	pagewidth 120
     4                           	opt	flic
     5                           	psect	idataBANK0,global,class=CODE,delta=1,noexec
     6                           	psect	idataBANK1,global,class=CODE,delta=1,noexec
     7                           	psect	nvBANK1,global,class=BANK1,space=1,delta=1,lowdata,noexec
     8                           	psect	smallconst,global,reloc=2,class=SMALLCONST,delta=1,noexec
     9                           	psect	cinit,global,reloc=2,class=CODE,delta=1
    10                           	psect	bssBANK0,global,class=BANK0,space=1,delta=1,lowdata,noexec
    11                           	psect	dataBANK0,global,class=BANK0,space=1,delta=1,lowdata,noexec
    12                           	psect	bssBANK1,global,class=BANK1,space=1,delta=1,lowdata,noexec
    13                           	psect	dataBANK1,global,class=BANK1,space=1,delta=1,lowdata,noexec
    14                           	psect	cstackBANK1,global,class=BANK1,space=1,delta=1,lowdata,noexec
    15                           	psect	cstackBANK0,global,class=BANK0,space=1,delta=1,lowdata,noexec
    16                           	psect	cstackCOMRAM,global,class=COMRAM,space=1,delta=1,lowdata,noexec
    17                           	psect	text0,global,reloc=2,class=CODE,delta=1
    18                           	psect	text1,global,reloc=2,class=CODE,delta=1,group=3
    19                           	psect	text2,global,reloc=2,class=CODE,delta=1,group=3
    20                           	psect	text3,global,reloc=2,class=CODE,delta=1,group=1
    21                           	psect	text4,global,reloc=2,class=CODE,delta=1,group=1
    22                           	psect	text5,global,reloc=2,class=CODE,delta=1,group=1
    23                           	psect	text6,global,reloc=2,class=CODE,delta=1,group=3
    24                           	psect	text7,global,reloc=2,class=CODE,delta=1,group=1
    25                           	psect	text8,global,reloc=2,class=CODE,delta=1,group=3
    26                           	psect	text9,global,reloc=2,class=CODE,delta=1,group=3
    27                           	psect	text10,global,reloc=2,class=CODE,delta=1
    28                           	psect	text11,global,reloc=2,class=CODE,delta=1
    29                           	psect	text12,global,reloc=2,class=CODE,delta=1,group=3
    30                           	psect	text13,global,reloc=2,class=CODE,delta=1,group=3
    31                           	psect	text14,global,reloc=2,class=CODE,delta=1,group=3
    32                           	psect	text15,global,reloc=2,class=CODE,delta=1,group=3
    33                           	psect	text16,global,reloc=2,class=CODE,delta=1,group=2
    34                           	psect	text17,global,reloc=2,class=CODE,delta=1,group=2
    35                           	psect	text18,global,reloc=2,class=CODE,delta=1,group=2
    36                           	psect	text19,global,reloc=2,class=CODE,delta=1,group=2
    37                           	psect	text20,global,reloc=2,class=CODE,delta=1,group=2
    38                           	psect	text21,global,reloc=2,class=CODE,delta=1,group=2
    39                           	psect	text22,global,reloc=2,class=CODE,delta=1,group=2
    40                           	psect	text23,global,reloc=2,class=CODE,delta=1,group=2
    41                           	psect	text24,global,reloc=2,class=CODE,delta=1,group=3
    42                           	psect	text25,global,reloc=2,class=CODE,delta=1,group=2
    43                           	psect	text26,global,reloc=2,class=CODE,delta=1,group=2
    44                           	psect	text27,global,reloc=2,class=CODE,delta=1,group=2
    45                           	psect	text28,global,reloc=2,class=CODE,delta=1
    46                           	psect	text29,global,reloc=2,class=CODE,delta=1
    47                           	psect	text30,global,reloc=2,class=CODE,delta=1
    48                           	psect	text31,global,reloc=2,class=CODE,delta=1
    49                           	psect	text32,global,reloc=2,class=CODE,delta=1
    50                           	psect	text33,global,reloc=2,class=CODE,delta=1
    51                           	psect	text34,global,reloc=2,class=CODE,delta=1
    52                           	psect	text35,global,reloc=2,class=CODE,delta=1
    53                           	psect	text36,global,reloc=2,class=CODE,delta=1
    54                           	psect	text37,global,reloc=2,class=CODE,delta=1
    55                           	psect	text38,global,reloc=2,class=CODE,delta=1
    56                           	psect	text39,global,reloc=2,class=CODE,delta=1
    57                           	psect	text40,global,reloc=2,class=CODE,delta=1
    58                           	psect	text41,global,reloc=2,class=CODE,delta=1
    59                           	psect	text42,global,reloc=2,class=CODE,delta=1
    60                           	psect	text43,global,reloc=2,class=CODE,delta=1
    61                           	psect	text44,global,reloc=2,class=CODE,delta=1
    62                           	psect	intsave_regs,global,class=BIGRAM,space=1,delta=1,noexec
    63                           	psect	rparam,global,class=COMRAM,space=1,delta=1,noexec
    64                           	psect	config,global,abs,ovrld,class=CONFIG,space=4,delta=1,noexec
    65   000000                     
    66                           ; Generated 18/07/2023 GMT
    67                           ; 
    68                           ; Copyright © 2023, Microchip Technology Inc. and its subsidiaries ("Microchip")
    69                           ; All rights reserved.
    70                           ; 
    71                           ; This software is developed by Microchip Technology Inc. and its subsidiaries ("Microch
      +                          ip").
    72                           ; 
    73                           ; Redistribution and use in source and binary forms, with or without modification, are
    74                           ; permitted provided that the following conditions are met:
    75                           ; 
    76                           ;     1. Redistributions of source code must retain the above copyright notice, this lis
      +                          t of
    77                           ;        conditions and the following disclaimer.
    78                           ; 
    79                           ;     2. Redistributions in binary form must reproduce the above copyright notice, this 
      +                          list
    80                           ;        of conditions and the following disclaimer in the documentation and/or other
    81                           ;        materials provided with the distribution. Publication is not required when
    82                           ;        this file is used in an embedded application.
    83                           ; 
    84                           ;     3. Microchip's name may not be used to endorse or promote products derived from th
      +                          is
    85                           ;        software without specific prior written permission.
    86                           ; 
    87                           ; THIS SOFTWARE IS PROVIDED BY MICROCHIP "AS IS" AND ANY EXPRESS OR IMPLIED WARRANTIES,
    88                           ; INCLUDING, BUT NOT LIMITED TO, THE IMPLIED WARRANTIES OF MERCHANTABILITY AND FITNESS F
      +                          OR
    89                           ; PURPOSE ARE DISCLAIMED.  IN NO EVENT SHALL MICROCHIP BE LIABLE FOR ANY DIRECT, INDIREC
      +                          T,
    90                           ; INCIDENTAL, SPECIAL, EXEMPLARY, OR CONSEQUENTIAL DAMAGES (INCLUDING BUT NOT LIMITED TO
    91                           ; PROCUREMENT OF SUBSTITUTE GOODS OR SERVICES; LOSS OF USE, DATA OR PROFITS; OR BUSINESS
    92                           ; INTERRUPTION) HOWSOEVER CAUSED AND ON ANY THEORY OF LIABILITY, WHETHER IN CONTRACT, ST
      +                          RICT
    93                           ; LIABILITY, OR TORT (INCLUDING NEGLIGENCE OR OTHERWISE) ARISING IN ANY WAY OUT OF THE U
      +                          SE OF
    94                           ; THIS SOFTWARE, EVEN IF ADVISED OF THE POSSIBILITY OF SUCH DAMAGE.
    95                           ; 
    96                           ; 
    97                           ; Code-generator required, PIC18F47Q10 Definitions
    98                           ; 
    99                           ; SFR Addresses
   100   000000                     
   101 ;; Function _EUSART2_DefaultFramingErrorHandler is unused but had its address taken
   102   000000                     
   103 ;; Function _EUSART2_DefaultOverrunErrorHandler is unused but had its address taken
   104   000000                     
   105 ;; Function _EUSART2_DefaultErrorHandler is unused but had its address taken
   106   000000                     
   107                           	psect	idataBANK0
   108   003B30                     __pidataBANK0:
   109                           	callstack 0
   110                           
   111                           ;initializer for main@F13548
   112   003B30  0D                 	db	13
   113   003B31  0A                 	db	10
   114   003B32  00                 	db	0
   115                           
   116                           	psect	idataBANK1
   117   003A68                     __pidataBANK1:
   118                           	callstack 0
   119                           
   120                           ;initializer for main@F13551
   121   003A68  41                 	db	65
   122   003A69  44                 	db	68
   123   003A6A  43                 	db	67
   124   003A6B  20                 	db	32
   125   003A6C  56                 	db	86
   126   003A6D  6F                 	db	111
   127   003A6E  6C                 	db	108
   128   003A6F  74                 	db	116
   129   003A70  61                 	db	97
   130   003A71  67                 	db	103
   131   003A72  65                 	db	101
   132   003A73  3A                 	db	58
   133   003A74  20                 	db	32
   134   003A75  00                 	db	0
   135                           
   136                           ;initializer for main@F13546
   137   003A76  41                 	db	65
   138   003A77  44                 	db	68
   139   003A78  43                 	db	67
   140   003A79  3A                 	db	58
   141   003A7A  20                 	db	32
   142   003A7B  00                 	db	0
   143                           
   144                           ;initializer for main@F13553
   145   003A7C  0D                 	db	13
   146   003A7D  0A                 	db	10
   147   003A7E  0A                 	db	10
   148   003A7F  0A                 	db	10
   149   003A80  00                 	db	0
   150   000000                     _ADERRL	set	3945
   151   000000                     _ADERRH	set	3946
   152   000000                     _ADPREVL	set	3932
   153   000000                     _ADPREVH	set	3933
   154   000000                     _ADFLTRL	set	3949
   155   000000                     _ADFLTRH	set	3950
   156   000000                     _ADACCL	set	3947
   157   000000                     _ADACCH	set	3948
   158   000000                     _ADCNT	set	3938
   159   000000                     _ADRESL	set	3934
   160   000000                     _ADRESH	set	3935
   161   000000                     _ADACQ	set	3927
   162   000000                     _ADCON0	set	3931
   163   000000                     _ADCLK	set	3922
   164   000000                     _ADSTAT	set	3936
   165   000000                     _ADCON3	set	3926
   166   000000                     _ADCON2	set	3925
   167   000000                     _ADPRE	set	3929
   168   000000                     _ADSTPTH	set	3940
   169   000000                     _ADUTHH	set	3944
   170   000000                     _ADUTHL	set	3943
   171   000000                     _ADLTHH	set	3942
   172   000000                     _T2CON	set	4028
   173   000000                     _OSCTUNE	set	3800
   174   000000                     _OSCFRQ	set	3801
   175   000000                     _INLVLD	set	3869
   176   000000                     _SLRCOND	set	3870
   177   000000                     _ODCOND	set	3871
   178   000000                     _WPUD	set	3872
   179   000000                     _TRISD	set	3978
   180   000000                     _TRISC	set	3977
   181   000000                     _TRISB	set	3976
   182   000000                     _TRISA	set	3975
   183   000000                     _TRISE	set	3979
   184   000000                     _LATC	set	3972
   185   000000                     _LATB	set	3971
   186   000000                     _TX2REG	set	3733
   187   000000                     _SP2BRGH	set	3735
   188   000000                     _TX2STA	set	3737
   189                           
   190                           	psect	nvBANK1
   191   0001B3                     __pnvBANK1:
   192                           	callstack 0
   193   0001B3                     _EUSART2_ErrorHandler:
   194                           	callstack 0
   195   0001B3                     	ds	3
   196   0001B6                     _EUSART2_OverrunErrorHandler:
   197                           	callstack 0
   198   0001B6                     	ds	3
   199   0001B9                     _EUSART2_FramingErrorHandler:
   200                           	callstack 0
   201   0001B9                     	ds	3
   202   000000                     _RC2STAbits	set	3736
   203   000000                     _TX2STAbits	set	3737
   204   000000                     _ADCON1bits	set	3924
   205   000000                     _ADCON2bits	set	3925
   206   000000                     _ADCON3bits	set	3926
   207   000000                     _ADCON0bits	set	3931
   208   000000                     _ADSTATbits	set	3936
   209   000000                     _PR2	set	4027
   210   000000                     _TMR2	set	4026
   211   000000                     _T2CONbits	set	4028
   212   000000                     _T2RSTbits	set	4031
   213   000000                     _T2HLTbits	set	4029
   214   000000                     _RX2PPS	set	3720
   215   000000                     _RC2REG	set	3732
   216   000000                     _SP2BRGL	set	3734
   217   000000                     _RC2STA	set	3736
   218   000000                     _BAUD2CON	set	3738
   219   000000                     _PIR3bits	set	3784
   220   000000                     _PIR4bits	set	3785
   221   000000                     _OSCCON1	set	3795
   222   000000                     _RA4PPS	set	3814
   223   000000                     _INLVLA	set	3848
   224   000000                     _SLRCONA	set	3849
   225   000000                     _ODCONA	set	3850
   226   000000                     _WPUA	set	3851
   227   000000                     _ANSELA	set	3852
   228   000000                     _ANSELB	set	3860
   229   000000                     _ANSELC	set	3868
   230   000000                     _ANSELD	set	3873
   231   000000                     _LATA	set	3970
   232   000000                     _LATD	set	3973
   233   000000                     _LATE	set	3974
   234   000000                     _PWM4DCL	set	3999
   235   000000                     _PWM4DCH	set	4000
   236   000000                     _PWM4CON	set	4001
   237   000000                     _CCPTMRSbits	set	4013
   238   000000                     _T2TMR	set	4026
   239   000000                     _T2PR	set	4027
   240   000000                     _T2HLT	set	4029
   241   000000                     _T2CLKCON	set	4030
   242   000000                     _INLVLE	set	3877
   243   000000                     _SLRCONE	set	3878
   244   000000                     _ODCONE	set	3879
   245   000000                     _WPUE	set	3880
   246   000000                     _ANSELE	set	3881
   247   000000                     _INLVLC	set	3864
   248   000000                     _SLRCONC	set	3865
   249   000000                     _ODCONC	set	3866
   250   000000                     _WPUC	set	3867
   251   000000                     _ADACT	set	3921
   252   000000                     _ADREF	set	3923
   253   000000                     _ADCON1	set	3924
   254   000000                     _ADCAP	set	3928
   255   000000                     _ADPCH	set	3930
   256   000000                     _ADRPT	set	3937
   257   000000                     _ADSTPTL	set	3939
   258   000000                     _ADLTHL	set	3941
   259   000000                     _INLVLB	set	3856
   260   000000                     _SLRCONB	set	3857
   261   000000                     _ODCONB	set	3858
   262   000000                     _WPUB	set	3859
   263   000000                     _RB6PPS	set	3824
   264   000000                     _RD0PPS	set	3834
   265   000000                     _OSCCON3	set	3797
   266   000000                     _OSCEN	set	3799
   267   000000                     _PMD0	set	3804
   268   000000                     _PMD5	set	3809
   269   000000                     _PMD4	set	3808
   270   000000                     _PMD3	set	3807
   271   000000                     _PMD2	set	3806
   272   000000                     _PMD1	set	3805
   273   000000                     _T2RST	set	4031
   274                           
   275                           	psect	smallconst
   276   000F00                     __psmallconst:
   277                           	callstack 0
   278   000F00  00                 	db	0
   279   000F01                     STR_3:
   280                           
   281                           ; BSR set to: 15
   282   000F01  69                 	db	105	;'i'
   283   000F02  6E                 	db	110	;'n'
   284   000F03  66                 	db	102	;'f'
   285   000F04  00                 	db	0
   286   000F05                     STR_6:
   287                           
   288                           ; BSR set to: 15
   289   000F05  6E                 	db	110	;'n'
   290   000F06  61                 	db	97	;'a'
   291   000F07  6E                 	db	110	;'n'
   292   000F08  00                 	db	0
   293   000F09                     STR_1:
   294                           
   295                           ; BSR set to: 15
   296   000F09  25                 	db	37
   297   000F0A  64                 	db	100	;'d'
   298   000F0B  00                 	db	0
   299   000F0C                     STR_2:
   300                           
   301                           ; BSR set to: 15
   302   000F0C  25                 	db	37
   303   000F0D  66                 	db	102	;'f'
   304   000F0E  00                 	db	0
   305   000F0F  00                 	db	0	; dummy byte at the end
   306   000000                     
   307                           ; #config settings
   308                           
   309                           	psect	cinit
   310   003654                     __pcinit:
   311                           	callstack 0
   312   003654                     start_initialization:
   313                           	callstack 0
   314   003654                     __initialization:
   315                           	callstack 0
   316                           
   317                           ; Initialize objects allocated to BANK1 (25 bytes)
   318                           ; load TBLPTR registers with __pidataBANK1
   319   003654  0E68               	movlw	low __pidataBANK1
   320   003656  6EF6               	movwf	tblptrl,c
   321   003658  0E3A               	movlw	high __pidataBANK1
   322   00365A  6EF7               	movwf	tblptrh,c
   323   00365C  0E00               	movlw	low (__pidataBANK1 shr (0+16))
   324   00365E  6EF8               	movwf	tblptru,c
   325   003660  EE01  F09A         	lfsr	0,__pdataBANK1
   326   003664  EE10 F019          	lfsr	1,25
   327   003668                     copy_data0:
   328   003668  0009               	tblrd		*+
   329   00366A  CFF5 FFEE          	movff	tablat,postinc0
   330   00366E  50E5               	movf	postdec1,w,c
   331   003670  50E1               	movf	fsr1l,w,c
   332   003672  E1FA               	bnz	copy_data0
   333                           
   334                           ; Initialize objects allocated to BANK0 (3 bytes)
   335                           ; load TBLPTR registers with __pidataBANK0
   336   003674  0E30               	movlw	low __pidataBANK0
   337   003676  6EF6               	movwf	tblptrl,c
   338   003678  0E3B               	movlw	high __pidataBANK0
   339   00367A  6EF7               	movwf	tblptrh,c
   340   00367C  0E00               	movlw	low (__pidataBANK0 shr (0+16))
   341   00367E  6EF8               	movwf	tblptru,c
   342   003680  0009               	tblrd		*+	;fetch initializer
   343   003682  CFF5 F0B8          	movff	tablat,__pdataBANK0
   344   003686  0009               	tblrd		*+	;fetch initializer
   345   003688  CFF5 F0B9          	movff	tablat,__pdataBANK0+1
   346   00368C  0009               	tblrd		*+	;fetch initializer
   347   00368E  CFF5 F0BA          	movff	tablat,__pdataBANK0+2
   348                           
   349                           ; Clear objects allocated to BANK1 (80 bytes)
   350   003692  EE01  F000         	lfsr	0,__pbssBANK1
   351   003696  0E50               	movlw	80
   352   003698                     clear_0:
   353   003698  6AEE               	clrf	postinc0,c
   354   00369A  06E8               	decf	wreg,f,c
   355   00369C  E1FD               	bnz	clear_0
   356                           
   357                           ; Clear objects allocated to BANK0 (14 bytes)
   358   00369E  EE00  F0AA         	lfsr	0,__pbssBANK0
   359   0036A2  0E0E               	movlw	14
   360   0036A4                     clear_1:
   361   0036A4  6AEE               	clrf	postinc0,c
   362   0036A6  06E8               	decf	wreg,f,c
   363   0036A8  E1FD               	bnz	clear_1
   364   0036AA                     end_of_initialization:
   365                           	callstack 0
   366   0036AA                     __end_of__initialization:
   367                           	callstack 0
   368   0036AA  0100               	movlb	0
   369   0036AC  EF64  F014         	goto	_main	;jump to C main() function
   370                           
   371                           	psect	bssBANK0
   372   0000AA                     __pbssBANK0:
   373                           	callstack 0
   374   0000AA                     floorf@F521:
   375                           	callstack 0
   376   0000AA                     	ds	4
   377   0000AE                     ___fpclassifyf@F465:
   378                           	callstack 0
   379   0000AE                     	ds	4
   380   0000B2                     _width:
   381                           	callstack 0
   382   0000B2                     	ds	2
   383   0000B4                     _prec:
   384                           	callstack 0
   385   0000B4                     	ds	2
   386   0000B6                     _flags:
   387                           	callstack 0
   388   0000B6                     	ds	1
   389   0000B7                     _eusart2RxLastError:
   390                           	callstack 0
   391   0000B7                     	ds	1
   392                           
   393                           	psect	dataBANK0
   394   0000B8                     __pdataBANK0:
   395                           	callstack 0
   396   0000B8                     main@F13548:
   397                           	callstack 0
   398   0000B8                     	ds	3
   399                           
   400                           	psect	bssBANK1
   401   000100                     __pbssBANK1:
   402                           	callstack 0
   403   000100                     _dbuf:
   404                           	callstack 0
   405   000100                     	ds	80
   406                           
   407                           	psect	dataBANK1
   408   00019A                     __pdataBANK1:
   409                           	callstack 0
   410   00019A                     main@F13551:
   411                           	callstack 0
   412   00019A                     	ds	14
   413   0001A8                     main@F13546:
   414                           	callstack 0
   415   0001A8                     	ds	6
   416   0001AE                     main@F13553:
   417                           	callstack 0
   418   0001AE                     	ds	5
   419                           
   420                           	psect	cstackBANK1
   421   000150                     __pcstackBANK1:
   422                           	callstack 0
   423   000150                     main@adc_volt_start_msg:
   424                           	callstack 0
   425                           
   426                           ; 14 bytes @ 0x0
   427   000150                     	ds	14
   428   00015E                     main@adc_val_rxData:
   429                           	callstack 0
   430                           
   431                           ; 16 bytes @ 0xE
   432   00015E                     	ds	16
   433   00016E                     main@adc_volt_rxData:
   434                           	callstack 0
   435                           
   436                           ; 16 bytes @ 0x1E
   437   00016E                     	ds	16
   438   00017E                     main@adc_val_start_msg:
   439                           	callstack 0
   440                           
   441                           ; 6 bytes @ 0x2E
   442   00017E                     	ds	6
   443   000184                     main@adc_volt_end_msg:
   444                           	callstack 0
   445                           
   446                           ; 5 bytes @ 0x34
   447   000184                     	ds	5
   448   000189                     main@adc_val_end_msg:
   449                           	callstack 0
   450                           
   451                           ; 3 bytes @ 0x39
   452   000189                     	ds	3
   453   00018C                     main@adc_volt:
   454                           	callstack 0
   455                           
   456                           ; 4 bytes @ 0x3C
   457   00018C                     	ds	4
   458   000190                     main@pwm_write_data:
   459                           	callstack 0
   460                           
   461                           ; 2 bytes @ 0x40
   462   000190                     	ds	2
   463   000192                     main@i:
   464                           	callstack 0
   465                           
   466                           ; 1 bytes @ 0x42
   467   000192                     	ds	1
   468   000193                     main@i_362:
   469                           	callstack 0
   470                           
   471                           ; 1 bytes @ 0x43
   472   000193                     	ds	1
   473   000194                     main@i_363:
   474                           	callstack 0
   475                           
   476                           ; 1 bytes @ 0x44
   477   000194                     	ds	1
   478   000195                     main@i_364:
   479                           	callstack 0
   480                           
   481                           ; 1 bytes @ 0x45
   482   000195                     	ds	1
   483   000196                     main@i_365:
   484                           	callstack 0
   485                           
   486                           ; 1 bytes @ 0x46
   487   000196                     	ds	1
   488   000197                     main@i_366:
   489                           	callstack 0
   490                           
   491                           ; 1 bytes @ 0x47
   492   000197                     	ds	1
   493   000198                     main@adc_val:
   494                           	callstack 0
   495                           
   496                           ; 2 bytes @ 0x48
   497   000198                     	ds	2
   498                           
   499                           	psect	cstackBANK0
   500   000060                     __pcstackBANK0:
   501                           	callstack 0
   502   000060                     efgtoa@ne:
   503                           	callstack 0
   504                           
   505                           ; 2 bytes @ 0x0
   506   000060                     	ds	2
   507   000062                     efgtoa@p:
   508                           	callstack 0
   509                           
   510                           ; 2 bytes @ 0x2
   511   000062                     	ds	2
   512   000064                     efgtoa@t:
   513                           	callstack 0
   514                           
   515                           ; 2 bytes @ 0x4
   516   000064                     	ds	2
   517   000066                     _efgtoa$1472:
   518                           	callstack 0
   519                           
   520                           ; 2 bytes @ 0x6
   521   000066                     	ds	2
   522   000068                     efgtoa@pp:
   523                           	callstack 0
   524                           
   525                           ; 1 bytes @ 0x8
   526   000068                     	ds	1
   527   000069                     efgtoa@mode:
   528                           	callstack 0
   529                           
   530                           ; 1 bytes @ 0x9
   531   000069                     	ds	1
   532   00006A                     efgtoa@nmode:
   533                           	callstack 0
   534                           
   535                           ; 1 bytes @ 0xA
   536   00006A                     	ds	1
   537   00006B                     efgtoa@d:
   538                           	callstack 0
   539                           
   540                           ; 2 bytes @ 0xB
   541   00006B                     	ds	2
   542   00006D                     efgtoa@m:
   543                           	callstack 0
   544                           
   545                           ; 2 bytes @ 0xD
   546   00006D                     	ds	2
   547   00006F                     efgtoa@e:
   548                           	callstack 0
   549                           
   550                           ; 2 bytes @ 0xF
   551   00006F                     	ds	2
   552   000071                     efgtoa@w:
   553                           	callstack 0
   554                           
   555                           ; 2 bytes @ 0x11
   556   000071                     	ds	2
   557   000073                     efgtoa@ou:
   558                           	callstack 0
   559                           
   560                           ; 4 bytes @ 0x13
   561   000073                     	ds	4
   562   000077                     efgtoa@i:
   563                           	callstack 0
   564                           
   565                           ; 2 bytes @ 0x17
   566   000077                     	ds	2
   567   000079                     efgtoa@h:
   568                           	callstack 0
   569                           
   570                           ; 4 bytes @ 0x19
   571   000079                     	ds	4
   572   00007D                     efgtoa@l:
   573                           	callstack 0
   574                           
   575                           ; 4 bytes @ 0x1D
   576   00007D                     	ds	4
   577   000081                     efgtoa@sign:
   578                           	callstack 0
   579                           
   580                           ; 1 bytes @ 0x21
   581   000081                     	ds	1
   582   000082                     efgtoa@g:
   583                           	callstack 0
   584                           
   585                           ; 4 bytes @ 0x22
   586   000082                     	ds	4
   587   000086                     efgtoa@n:
   588                           	callstack 0
   589                           
   590                           ; 2 bytes @ 0x26
   591   000086                     	ds	2
   592   000088                     efgtoa@u:
   593                           	callstack 0
   594                           
   595                           ; 4 bytes @ 0x28
   596   000088                     	ds	4
   597   00008C                     vfpfcnvrt@done:
   598                           	callstack 0
   599                           
   600                           ; 1 bytes @ 0x2C
   601   00008C                     	ds	1
   602   00008D                     vfpfcnvrt@convarg:
   603                           	callstack 0
   604                           
   605                           ; 4 bytes @ 0x2D
   606   00008D                     	ds	4
   607   000091                     vfpfcnvrt@cp:
   608                           	callstack 0
   609                           
   610                           ; 1 bytes @ 0x31
   611   000091                     	ds	1
   612   000092                     vfpfcnvrt@c:
   613                           	callstack 0
   614                           
   615                           ; 1 bytes @ 0x32
   616   000092                     	ds	1
   617   000093                     ?_vfprintf:
   618                           	callstack 0
   619   000093                     vfprintf@fp:
   620                           	callstack 0
   621                           
   622                           ; 1 bytes @ 0x33
   623   000093                     	ds	1
   624   000094                     vfprintf@fmt:
   625                           	callstack 0
   626                           
   627                           ; 1 bytes @ 0x34
   628   000094                     	ds	1
   629   000095                     vfprintf@ap:
   630                           	callstack 0
   631                           
   632                           ; 1 bytes @ 0x35
   633   000095                     	ds	1
   634   000096                     ?_sprintf:
   635                           	callstack 0
   636   000096                     sprintf@s:
   637                           	callstack 0
   638                           
   639                           ; 2 bytes @ 0x36
   640   000096                     	ds	2
   641   000098                     sprintf@fmt:
   642                           	callstack 0
   643                           
   644                           ; 1 bytes @ 0x38
   645   000098                     	ds	5
   646   00009D                     sprintf@ap:
   647                           	callstack 0
   648                           
   649                           ; 1 bytes @ 0x3D
   650   00009D                     	ds	1
   651   00009E                     sprintf@f:
   652                           	callstack 0
   653                           
   654                           ; 12 bytes @ 0x3E
   655   00009E                     	ds	12
   656                           
   657                           	psect	cstackCOMRAM
   658   000001                     __pcstackCOMRAM:
   659                           	callstack 0
   660   000001                     ?_ADCC_GetConversionResult:
   661                           	callstack 0
   662   000001                     ?_strlen:
   663                           	callstack 0
   664   000001                     ?___fpclassifyf:
   665                           	callstack 0
   666   000001                     ?___awdiv:
   667                           	callstack 0
   668   000001                     ?___awmod:
   669                           	callstack 0
   670   000001                     ?___fladd:
   671                           	callstack 0
   672   000001                     ?_labs:
   673                           	callstack 0
   674   000001                     ?___flneg:
   675                           	callstack 0
   676   000001                     ?___fltol:
   677                           	callstack 0
   678   000001                     ?___xxtofl:
   679                           	callstack 0
   680   000001                     EUSART2_Write@txData:
   681                           	callstack 0
   682   000001                     ADCC_StartConversion@channel:
   683                           	callstack 0
   684   000001                     PWM4_LoadDutyValue@dutyValue:
   685                           	callstack 0
   686   000001                     ___awdiv@dividend:
   687                           	callstack 0
   688   000001                     ___awmod@dividend:
   689                           	callstack 0
   690   000001                     memcpy@d1:
   691                           	callstack 0
   692   000001                     strcpy@dest:
   693                           	callstack 0
   694   000001                     strlen@s:
   695                           	callstack 0
   696   000001                     EUSART2_SetFramingErrorHandler@interruptHandler:
   697                           	callstack 0
   698   000001                     EUSART2_SetOverrunErrorHandler@interruptHandler:
   699                           	callstack 0
   700   000001                     EUSART2_SetErrorHandler@interruptHandler:
   701                           	callstack 0
   702   000001                     ___fleq@ff1:
   703                           	callstack 0
   704   000001                     ___flneg@f1:
   705                           	callstack 0
   706   000001                     ___fltol@f1:
   707                           	callstack 0
   708   000001                     ___fladd@b:
   709                           	callstack 0
   710   000001                     ___xxtofl@val:
   711                           	callstack 0
   712   000001                     ___fpclassifyf@x:
   713                           	callstack 0
   714   000001                     labs@a:
   715                           	callstack 0
   716                           
   717                           ; 4 bytes @ 0x0
   718   000001                     	ds	1
   719   000002                     putch@txData:
   720                           	callstack 0
   721                           
   722                           ; 1 bytes @ 0x1
   723   000002                     	ds	1
   724   000003                     ??_ADCC_GetConversionResult:
   725   000003                     ??_PWM4_LoadDutyValue:
   726   000003                     strcpy@src:
   727                           	callstack 0
   728   000003                     ___awdiv@divisor:
   729                           	callstack 0
   730   000003                     ___awmod@divisor:
   731                           	callstack 0
   732   000003                     memcpy@s1:
   733                           	callstack 0
   734   000003                     fputc@c:
   735                           	callstack 0
   736   000003                     strlen@a:
   737                           	callstack 0
   738                           
   739                           ; 2 bytes @ 0x2
   740   000003                     	ds	1
   741   000004                     ??_strcpy:
   742   000004                     
   743                           ; 1 bytes @ 0x3
   744   000004                     	ds	1
   745   000005                     ??___fpclassifyf:
   746   000005                     ??_labs:
   747   000005                     ??___fltol:
   748   000005                     ??___xxtofl:
   749   000005                     ___awdiv@counter:
   750                           	callstack 0
   751   000005                     ___awmod@counter:
   752                           	callstack 0
   753   000005                     fputc@fp:
   754                           	callstack 0
   755   000005                     memcpy@n:
   756                           	callstack 0
   757   000005                     strcpy@d:
   758                           	callstack 0
   759   000005                     ___fleq@ff2:
   760                           	callstack 0
   761   000005                     ___fladd@a:
   762                           	callstack 0
   763                           
   764                           ; 4 bytes @ 0x4
   765   000005                     	ds	1
   766   000006                     ??_fputc:
   767   000006                     ___awdiv@sign:
   768                           	callstack 0
   769   000006                     ___awmod@sign:
   770                           	callstack 0
   771                           
   772                           ; 1 bytes @ 0x5
   773   000006                     	ds	1
   774   000007                     ?_abs:
   775                           	callstack 0
   776   000007                     memcpy@tmp:
   777                           	callstack 0
   778   000007                     ___awdiv@quotient:
   779                           	callstack 0
   780   000007                     abs@a:
   781                           	callstack 0
   782                           
   783                           ; 2 bytes @ 0x6
   784   000007                     	ds	1
   785   000008                     memcpy@d:
   786                           	callstack 0
   787                           
   788                           ; 2 bytes @ 0x7
   789   000008                     	ds	1
   790   000009                     ??___fladd:
   791   000009                     ??_abs:
   792   000009                     ??___fleq:
   793   000009                     ___fltol@sign1:
   794                           	callstack 0
   795   000009                     ___xxtofl@sign:
   796                           	callstack 0
   797   000009                     ___fpclassifyf@e:
   798                           	callstack 0
   799                           
   800                           ; 2 bytes @ 0x8
   801   000009                     	ds	1
   802   00000A                     ___fltol@exp1:
   803                           	callstack 0
   804   00000A                     ___xxtofl@exp:
   805                           	callstack 0
   806   00000A                     memcpy@s:
   807                           	callstack 0
   808                           
   809                           ; 2 bytes @ 0x9
   810   00000A                     	ds	1
   811   00000B                     fputs@s:
   812                           	callstack 0
   813   00000B                     ___xxtofl@arg:
   814                           	callstack 0
   815   00000B                     ___fpclassifyf@u:
   816                           	callstack 0
   817                           
   818                           ; 4 bytes @ 0xA
   819   00000B                     	ds	2
   820   00000D                     ___fladd@signs:
   821                           	callstack 0
   822   00000D                     fputs@fp:
   823                           	callstack 0
   824                           
   825                           ; 1 bytes @ 0xC
   826   00000D                     	ds	1
   827   00000E                     ___fladd@aexp:
   828                           	callstack 0
   829   00000E                     fputs@c:
   830                           	callstack 0
   831                           
   832                           ; 1 bytes @ 0xD
   833   00000E                     	ds	1
   834   00000F                     ?___fldiv:
   835                           	callstack 0
   836   00000F                     ___fladd@bexp:
   837                           	callstack 0
   838   00000F                     fputs@i:
   839                           	callstack 0
   840   00000F                     ___fldiv@b:
   841                           	callstack 0
   842                           
   843                           ; 4 bytes @ 0xE
   844   00000F                     	ds	1
   845   000010                     ___fladd@grs:
   846                           	callstack 0
   847                           
   848                           ; 1 bytes @ 0xF
   849   000010                     	ds	1
   850   000011                     pad@fp:
   851                           	callstack 0
   852                           
   853                           ; 1 bytes @ 0x10
   854   000011                     	ds	1
   855   000012                     pad@buf:
   856                           	callstack 0
   857                           
   858                           ; 2 bytes @ 0x11
   859   000012                     	ds	1
   860   000013                     ___fldiv@a:
   861                           	callstack 0
   862                           
   863                           ; 4 bytes @ 0x12
   864   000013                     	ds	1
   865   000014                     pad@p:
   866                           	callstack 0
   867                           
   868                           ; 2 bytes @ 0x13
   869   000014                     	ds	2
   870   000016                     ??_pad:
   871                           
   872                           ; 1 bytes @ 0x15
   873   000016                     	ds	1
   874   000017                     ??___fldiv:
   875   000017                     pad@i:
   876                           	callstack 0
   877                           
   878                           ; 2 bytes @ 0x16
   879   000017                     	ds	4
   880   00001B                     ___fldiv@rem:
   881                           	callstack 0
   882                           
   883                           ; 4 bytes @ 0x1A
   884   00001B                     	ds	4
   885   00001F                     ___fldiv@sign:
   886                           	callstack 0
   887                           
   888                           ; 1 bytes @ 0x1E
   889   00001F                     	ds	1
   890   000020                     ___fldiv@new_exp:
   891                           	callstack 0
   892                           
   893                           ; 2 bytes @ 0x1F
   894   000020                     	ds	2
   895   000022                     ___fldiv@grs:
   896                           	callstack 0
   897                           
   898                           ; 4 bytes @ 0x21
   899   000022                     	ds	4
   900   000026                     ___fldiv@bexp:
   901                           	callstack 0
   902                           
   903                           ; 1 bytes @ 0x25
   904   000026                     	ds	1
   905   000027                     ___fldiv@aexp:
   906                           	callstack 0
   907                           
   908                           ; 1 bytes @ 0x26
   909   000027                     	ds	1
   910   000028                     ?___flmul:
   911                           	callstack 0
   912   000028                     ?_floorf:
   913                           	callstack 0
   914   000028                     ___flmul@b:
   915                           	callstack 0
   916   000028                     floorf@x:
   917                           	callstack 0
   918                           
   919                           ; 4 bytes @ 0x27
   920   000028                     	ds	4
   921   00002C                     ??_floorf:
   922   00002C                     ___flmul@a:
   923                           	callstack 0
   924                           
   925                           ; 4 bytes @ 0x2B
   926   00002C                     	ds	4
   927   000030                     ??___flmul:
   928                           
   929                           ; 1 bytes @ 0x2F
   930   000030                     	ds	2
   931   000032                     floorf@m:
   932                           	callstack 0
   933                           
   934                           ; 4 bytes @ 0x31
   935   000032                     	ds	2
   936   000034                     ___flmul@sign:
   937                           	callstack 0
   938                           
   939                           ; 1 bytes @ 0x33
   940   000034                     	ds	1
   941   000035                     ___flmul@aexp:
   942                           	callstack 0
   943                           
   944                           ; 1 bytes @ 0x34
   945   000035                     	ds	1
   946   000036                     floorf@e:
   947                           	callstack 0
   948   000036                     ___flmul@grs:
   949                           	callstack 0
   950                           
   951                           ; 4 bytes @ 0x35
   952   000036                     	ds	2
   953   000038                     floorf@u:
   954                           	callstack 0
   955                           
   956                           ; 4 bytes @ 0x37
   957   000038                     	ds	2
   958   00003A                     ___flmul@bexp:
   959                           	callstack 0
   960                           
   961                           ; 1 bytes @ 0x39
   962   00003A                     	ds	1
   963   00003B                     ___flmul@prod:
   964                           	callstack 0
   965                           
   966                           ; 4 bytes @ 0x3A
   967   00003B                     	ds	4
   968   00003F                     ___flmul@temp:
   969                           	callstack 0
   970                           
   971                           ; 2 bytes @ 0x3E
   972   00003F                     	ds	2
   973   000041                     ?___flsub:
   974                           	callstack 0
   975   000041                     ___flge@ff1:
   976                           	callstack 0
   977   000041                     ___flsub@b:
   978                           	callstack 0
   979                           
   980                           ; 4 bytes @ 0x40
   981   000041                     	ds	4
   982   000045                     ___flge@ff2:
   983                           	callstack 0
   984   000045                     ___flsub@a:
   985                           	callstack 0
   986                           
   987                           ; 4 bytes @ 0x44
   988   000045                     	ds	4
   989   000049                     ??___flge:
   990                           
   991                           ; 1 bytes @ 0x48
   992   000049                     	ds	4
   993   00004D                     efgtoa@fp:
   994                           	callstack 0
   995                           
   996                           ; 1 bytes @ 0x4C
   997   00004D                     	ds	1
   998   00004E                     efgtoa@f:
   999                           	callstack 0
  1000                           
  1001                           ; 4 bytes @ 0x4D
  1002   00004E                     	ds	4
  1003   000052                     efgtoa@c:
  1004                           	callstack 0
  1005                           
  1006                           ; 1 bytes @ 0x51
  1007   000052                     	ds	1
  1008   000053                     ??_efgtoa:
  1009                           
  1010                           ; 1 bytes @ 0x52
  1011   000053                     	ds	2
  1012   000055                     vfpfcnvrt@fp:
  1013                           	callstack 0
  1014                           
  1015                           ; 1 bytes @ 0x54
  1016   000055                     	ds	1
  1017   000056                     vfpfcnvrt@fmt:
  1018                           	callstack 0
  1019                           
  1020                           ; 1 bytes @ 0x55
  1021   000056                     	ds	1
  1022   000057                     vfpfcnvrt@ap:
  1023                           	callstack 0
  1024                           
  1025                           ; 1 bytes @ 0x56
  1026   000057                     	ds	1
  1027   000058                     ??_vfpfcnvrt:
  1028                           
  1029                           ; 1 bytes @ 0x57
  1030   000058                     	ds	2
  1031   00005A                     vfprintf@cfmt:
  1032                           	callstack 0
  1033                           
  1034                           ; 1 bytes @ 0x59
  1035   00005A                     	ds	1
  1036   00005B                     ??_main:
  1037                           
  1038                           ; 1 bytes @ 0x5A
  1039   00005B                     	ds	2
  1040                           
  1041 ;;
  1042 ;;Main: autosize = 0, tempsize = 2, incstack = 0, save=0
  1043 ;;
  1044 ;; *************** function _main *****************
  1045 ;; Defined at:
  1046 ;;		line 50 in file "main.c"
  1047 ;; Parameters:    Size  Location     Type
  1048 ;;		None
  1049 ;; Auto vars:     Size  Location     Type
  1050 ;;  i               1   71[BANK1 ] unsigned char 
  1051 ;;  i               1   70[BANK1 ] unsigned char 
  1052 ;;  i               1   69[BANK1 ] unsigned char 
  1053 ;;  i               1   68[BANK1 ] unsigned char 
  1054 ;;  i               1   67[BANK1 ] unsigned char 
  1055 ;;  i               1   66[BANK1 ] unsigned char 
  1056 ;;  adc_volt_rxD   16   30[BANK1 ] unsigned char [16]
  1057 ;;  adc_val_rxDa   16   14[BANK1 ] unsigned char [16]
  1058 ;;  adc_volt_sta   14    0[BANK1 ] unsigned char [14]
  1059 ;;  adc_val_star    6   46[BANK1 ] unsigned char [6]
  1060 ;;  adc_volt_end    5   52[BANK1 ] unsigned char [5]
  1061 ;;  adc_volt        4   60[BANK1 ] float 
  1062 ;;  adc_val_end_    3   57[BANK1 ] unsigned char [3]
  1063 ;;  adc_val         2   72[BANK1 ] unsigned short 
  1064 ;;  pwm_write_da    2   64[BANK1 ] unsigned short 
  1065 ;; Return value:  Size  Location     Type
  1066 ;;                  1    wreg      void 
  1067 ;; Registers used:
  1068 ;;		wreg, fsr1l, fsr1h, fsr2l, fsr2h, status,2, status,0, tblptrl, tblptrh, tblptru, prodl, prodh, cstack
  1069 ;; Tracked objects:
  1070 ;;		On entry : 0/0
  1071 ;;		On exit  : 0/0
  1072 ;;		Unchanged: 0/0
  1073 ;; Data sizes:     COMRAM   BANK0   BANK1   BANK2   BANK3   BANK4   BANK5   BANK6   BANK7   BANK8   BANK9  BANK10  BANK1
      +1  BANK12  BANK14
  1074 ;;      Params:         0       0       0       0       0       0       0       0       0       0       0       0       
      +0       0       0
  1075 ;;      Locals:         0       0      74       0       0       0       0       0       0       0       0       0       
      +0       0       0
  1076 ;;      Temps:          2       0       0       0       0       0       0       0       0       0       0       0       
      +0       0       0
  1077 ;;      Totals:         2       0      74       0       0       0       0       0       0       0       0       0       
      +0       0       0
  1078 ;;Total ram usage:       76 bytes
  1079 ;; Hardware stack levels required when called: 9
  1080 ;; This function calls:
  1081 ;;		_ADCC_DisableContinuousConversion
  1082 ;;		_ADCC_GetConversionResult
  1083 ;;		_ADCC_Initialize
  1084 ;;		_ADCC_StartConversion
  1085 ;;		_EUSART2_Write
  1086 ;;		_PWM4_Initialize
  1087 ;;		_PWM4_LoadDutyValue
  1088 ;;		_SYSTEM_Initialize
  1089 ;;		_TMR2_StartTimer
  1090 ;;		___fldiv
  1091 ;;		___flmul
  1092 ;;		___xxtofl
  1093 ;;		_sprintf
  1094 ;;		_strlen
  1095 ;; This function is called by:
  1096 ;;		Startup code after reset
  1097 ;; This function uses a non-reentrant model
  1098 ;;
  1099                           
  1100                           	psect	text0
  1101   0028C8                     __ptext0:
  1102                           	callstack 0
  1103   0028C8                     _main:
  1104                           	callstack 22
  1105   0028C8                     
  1106                           ;main.c: 53:     SYSTEM_Initialize();
  1107   0028C8  EC09  F01D         	call	_SYSTEM_Initialize	;wreg free
  1108   0028CC                     
  1109                           ;main.c: 71:     TMR2_StartTimer();
  1110   0028CC  EC90  F01D         	call	_TMR2_StartTimer	;wreg free
  1111   0028D0                     
  1112                           ;main.c: 72:     PWM4_Initialize();
  1113   0028D0  EC59  F01D         	call	_PWM4_Initialize	;wreg free
  1114   0028D4                     
  1115                           ;main.c: 73:     ADCC_Initialize();
  1116   0028D4  ECAB  F01B         	call	_ADCC_Initialize	;wreg free
  1117   0028D8                     
  1118                           ;main.c: 74:     ADCC_DisableContinuousConversion();
  1119   0028D8  EC93  F01D         	call	_ADCC_DisableContinuousConversion	;wreg free
  1120   0028DC                     
  1121                           ;main.c: 78:     adc_result_t adc_val;;main.c: 80:     float adc_volt;;main.c: 82:     c
      +                          har adc_val_start_msg[] = "ADC: ";
  1122   0028DC  EE21  F0A8         	lfsr	2,main@F13546
  1123   0028E0  EE11  F07E         	lfsr	1,main@adc_val_start_msg
  1124   0028E4  0E05               	movlw	5
  1125   0028E6                     u6231:
  1126   0028E6  CFDB FFE3          	movff	plusw2,plusw1
  1127   0028EA  06E8               	decf	wreg,f,c
  1128   0028EC  E2FC               	bc	u6231
  1129   0028EE                     
  1130                           ;main.c: 83:     char adc_val_end_msg[] = "\r\n";
  1131   0028EE  C0B8  F189         	movff	main@F13548,main@adc_val_end_msg
  1132   0028F2  C0B9  F18A         	movff	main@F13548+1,main@adc_val_end_msg+1
  1133   0028F6  C0BA  F18B         	movff	main@F13548+2,main@adc_val_end_msg+2
  1134   0028FA                     
  1135                           ;main.c: 84:     char adc_val_rxData[16];;main.c: 86:     char adc_volt_start_msg[] = "A
      +                          DC Voltage: ";
  1136   0028FA  EE21  F09A         	lfsr	2,main@F13551
  1137   0028FE  EE11  F050         	lfsr	1,main@adc_volt_start_msg
  1138   002902  0E0D               	movlw	13
  1139   002904                     u6241:
  1140   002904  CFDB FFE3          	movff	plusw2,plusw1
  1141   002908  06E8               	decf	wreg,f,c
  1142   00290A  E2FC               	bc	u6241
  1143   00290C                     
  1144                           ;main.c: 87:     char adc_volt_end_msg[] = "\r\n\n\n";
  1145   00290C  EE21  F0AE         	lfsr	2,main@F13553
  1146   002910  EE11  F084         	lfsr	1,main@adc_volt_end_msg
  1147   002914  0E04               	movlw	4
  1148   002916                     u6251:
  1149   002916  CFDB FFE3          	movff	plusw2,plusw1
  1150   00291A  06E8               	decf	wreg,f,c
  1151   00291C  E2FC               	bc	u6251
  1152   00291E                     l5809:
  1153                           
  1154                           ;main.c: 93:     {;main.c: 107:             ADCC_StartConversion(channel_ANA2);
  1155   00291E  0E02               	movlw	2
  1156   002920  EC84  F01D         	call	_ADCC_StartConversion
  1157   002924                     
  1158                           ;main.c: 108:             adc_val = ADCC_GetConversionResult();
  1159   002924  EC64  F01D         	call	_ADCC_GetConversionResult	;wreg free
  1160   002928  C001  F198         	movff	?_ADCC_GetConversionResult,main@adc_val
  1161   00292C  C002  F199         	movff	?_ADCC_GetConversionResult+1,main@adc_val+1
  1162   002930                     
  1163                           ;main.c: 110:             sprintf(adc_val_rxData, "%d", adc_val);
  1164   002930  0E5E               	movlw	low main@adc_val_rxData
  1165   002932  0100               	movlb	0	; () banked
  1166   002934  6F96               	movwf	sprintf@s& (0+255),b
  1167   002936  0E01               	movlw	high main@adc_val_rxData
  1168   002938  6F97               	movwf	(sprintf@s+1)& (0+255),b
  1169   00293A  0E09               	movlw	low STR_1
  1170   00293C  6F98               	movwf	sprintf@fmt& (0+255),b
  1171   00293E  C198  F099         	movff	main@adc_val,?_sprintf+3
  1172   002942  C199  F09A         	movff	main@adc_val+1,?_sprintf+4
  1173   002946  EC3F  F01C         	call	_sprintf	;wreg free
  1174   00294A                     
  1175                           ;main.c: 112:             adc_volt = ((float)adc_val / 1023) * 3.3;
  1176   00294A  0E00               	movlw	0
  1177   00294C  6E13               	movwf	___fldiv@a^0,c
  1178   00294E  0EC0               	movlw	192
  1179   002950  6E14               	movwf	(___fldiv@a+1)^0,c
  1180   002952  0E7F               	movlw	127
  1181   002954  6E15               	movwf	(___fldiv@a+2)^0,c
  1182   002956  0E44               	movlw	68
  1183   002958  6E16               	movwf	(___fldiv@a+3)^0,c
  1184   00295A  C198  F001         	movff	main@adc_val,___xxtofl@val
  1185   00295E  C199  F002         	movff	main@adc_val+1,___xxtofl@val+1
  1186   002962  6A03               	clrf	(___xxtofl@val+2)^0,c
  1187   002964  6A04               	clrf	(___xxtofl@val+3)^0,c
  1188   002966  0E00               	movlw	0
  1189   002968  ECE6  F016         	call	___xxtofl
  1190   00296C  C001  F00F         	movff	?___xxtofl,___fldiv@b
  1191   002970  C002  F010         	movff	?___xxtofl+1,___fldiv@b+1
  1192   002974  C003  F011         	movff	?___xxtofl+2,___fldiv@b+2
  1193   002978  C004  F012         	movff	?___xxtofl+3,___fldiv@b+3
  1194   00297C  ECF1  F010         	call	___fldiv	;wreg free
  1195   002980  C00F  F028         	movff	?___fldiv,___flmul@b
  1196   002984  C010  F029         	movff	?___fldiv+1,___flmul@b+1
  1197   002988  C011  F02A         	movff	?___fldiv+2,___flmul@b+2
  1198   00298C  C012  F02B         	movff	?___fldiv+3,___flmul@b+3
  1199   002990  0E33               	movlw	51
  1200   002992  6E2C               	movwf	___flmul@a^0,c
  1201   002994  0E33               	movlw	51
  1202   002996  6E2D               	movwf	(___flmul@a+1)^0,c
  1203   002998  0E53               	movlw	83
  1204   00299A  6E2E               	movwf	(___flmul@a+2)^0,c
  1205   00299C  0E40               	movlw	64
  1206   00299E  6E2F               	movwf	(___flmul@a+3)^0,c
  1207   0029A0  ECDC  F00E         	call	___flmul	;wreg free
  1208   0029A4  C028  F18C         	movff	?___flmul,main@adc_volt
  1209   0029A8  C029  F18D         	movff	?___flmul+1,main@adc_volt+1
  1210   0029AC  C02A  F18E         	movff	?___flmul+2,main@adc_volt+2
  1211   0029B0  C02B  F18F         	movff	?___flmul+3,main@adc_volt+3
  1212   0029B4                     
  1213                           ;main.c: 113:             sprintf(adc_volt_rxData, "%f", adc_volt);
  1214   0029B4  0E6E               	movlw	low main@adc_volt_rxData
  1215   0029B6  0100               	movlb	0	; () banked
  1216   0029B8  6F96               	movwf	sprintf@s& (0+255),b
  1217   0029BA  0E01               	movlw	high main@adc_volt_rxData
  1218   0029BC  6F97               	movwf	(sprintf@s+1)& (0+255),b
  1219   0029BE  0E0C               	movlw	low STR_2
  1220   0029C0  6F98               	movwf	sprintf@fmt& (0+255),b
  1221   0029C2  C18C  F099         	movff	main@adc_volt,?_sprintf+3
  1222   0029C6  C18D  F09A         	movff	main@adc_volt+1,?_sprintf+4
  1223   0029CA  C18E  F09B         	movff	main@adc_volt+2,?_sprintf+5
  1224   0029CE  C18F  F09C         	movff	main@adc_volt+3,?_sprintf+6
  1225   0029D2  EC3F  F01C         	call	_sprintf	;wreg free
  1226   0029D6                     
  1227                           ;main.c: 115:             pwm_write_data = adc_val << 6;
  1228   0029D6  C198  F05B         	movff	main@adc_val,??_main
  1229   0029DA  C199  F05C         	movff	main@adc_val+1,??_main+1
  1230   0029DE  0E06               	movlw	6
  1231   0029E0                     u6265:
  1232   0029E0  90D8               	bcf	status,0,c
  1233   0029E2  365B               	rlcf	??_main^0,f,c
  1234   0029E4  365C               	rlcf	(??_main+1)^0,f,c
  1235   0029E6  2EE8               	decfsz	wreg,f,c
  1236   0029E8  EFF0  F014         	goto	u6265
  1237   0029EC  C05B  F190         	movff	??_main,main@pwm_write_data
  1238   0029F0  C05C  F191         	movff	??_main+1,main@pwm_write_data+1
  1239   0029F4                     
  1240                           ;main.c: 117:             PWM4_LoadDutyValue(pwm_write_data);
  1241   0029F4  C190  F001         	movff	main@pwm_write_data,PWM4_LoadDutyValue@dutyValue
  1242   0029F8  C191  F002         	movff	main@pwm_write_data+1,PWM4_LoadDutyValue@dutyValue+1
  1243   0029FC  ECEF  F01C         	call	_PWM4_LoadDutyValue	;wreg free
  1244   002A00                     
  1245                           ;main.c: 120:             for(uint8_t i = 0; i < strlen(adc_val_start_msg); i++)
  1246   002A00  0E00               	movlw	0
  1247   002A02  0101               	movlb	1	; () banked
  1248   002A04  6F92               	movwf	main@i& (0+255),b
  1249   002A06  EF10  F015         	goto	l5829
  1250   002A0A                     l5825:
  1251                           
  1252                           ; BSR set to: 1
  1253                           ;main.c: 121:             {;main.c: 122:                 EUSART2_Write(adc_val_start_msg
      +                          [i]);
  1254   002A0A  0E7E               	movlw	low main@adc_val_start_msg
  1255   002A0C  2592               	addwf	main@i& (0+255),w,b
  1256   002A0E  6ED9               	movwf	fsr2l,c
  1257   002A10  6ADA               	clrf	fsr2h,c
  1258   002A12  0E01               	movlw	high main@adc_val_start_msg
  1259   002A14  22DA               	addwfc	fsr2h,f,c
  1260   002A16  50DF               	movf	indf2,w,c
  1261   002A18  EC41  F01D         	call	_EUSART2_Write
  1262   002A1C                     
  1263                           ;main.c: 123:             }
  1264   002A1C  0101               	movlb	1	; () banked
  1265   002A1E  2B92               	incf	main@i& (0+255),f,b
  1266   002A20                     l5829:
  1267                           
  1268                           ; BSR set to: 1
  1269   002A20  0E7E               	movlw	low main@adc_val_start_msg
  1270   002A22  6E01               	movwf	strlen@s^0,c
  1271   002A24  0E01               	movlw	high main@adc_val_start_msg
  1272   002A26  6E02               	movwf	(strlen@s+1)^0,c
  1273   002A28  ECBA  F01C         	call	_strlen	;wreg free
  1274   002A2C  0101               	movlb	1	; () banked
  1275   002A2E  5192               	movf	main@i& (0+255),w,b
  1276   002A30  6E5B               	movwf	??_main^0,c
  1277   002A32  6A5C               	clrf	(??_main+1)^0,c
  1278   002A34  5001               	movf	?_strlen^0,w,c
  1279   002A36  5C5B               	subwf	??_main^0,w,c
  1280   002A38  5002               	movf	(?_strlen+1)^0,w,c
  1281   002A3A  585C               	subwfb	(??_main+1)^0,w,c
  1282   002A3C  A0D8               	btfss	status,0,c
  1283   002A3E  EF23  F015         	goto	u6271
  1284   002A42  EF25  F015         	goto	u6270
  1285   002A46                     u6271:
  1286   002A46  EF05  F015         	goto	l5825
  1287   002A4A                     u6270:
  1288   002A4A                     
  1289                           ; BSR set to: 1
  1290                           ;main.c: 125:             for(uint8_t i = 0; i < strlen(adc_val_rxData); i++)
  1291   002A4A  0E00               	movlw	0
  1292   002A4C  6F93               	movwf	main@i_362& (0+255),b
  1293   002A4E  EF34  F015         	goto	l5837
  1294   002A52                     l5833:
  1295                           
  1296                           ; BSR set to: 1
  1297                           ;main.c: 126:             {;main.c: 127:                 EUSART2_Write(adc_val_rxData[i]
      +                          );
  1298   002A52  0E5E               	movlw	low main@adc_val_rxData
  1299   002A54  2593               	addwf	main@i_362& (0+255),w,b
  1300   002A56  6ED9               	movwf	fsr2l,c
  1301   002A58  6ADA               	clrf	fsr2h,c
  1302   002A5A  0E01               	movlw	high main@adc_val_rxData
  1303   002A5C  22DA               	addwfc	fsr2h,f,c
  1304   002A5E  50DF               	movf	indf2,w,c
  1305   002A60  EC41  F01D         	call	_EUSART2_Write
  1306   002A64                     
  1307                           ;main.c: 128:             }
  1308   002A64  0101               	movlb	1	; () banked
  1309   002A66  2B93               	incf	main@i_362& (0+255),f,b
  1310   002A68                     l5837:
  1311                           
  1312                           ; BSR set to: 1
  1313   002A68  0E5E               	movlw	low main@adc_val_rxData
  1314   002A6A  6E01               	movwf	strlen@s^0,c
  1315   002A6C  0E01               	movlw	high main@adc_val_rxData
  1316   002A6E  6E02               	movwf	(strlen@s+1)^0,c
  1317   002A70  ECBA  F01C         	call	_strlen	;wreg free
  1318   002A74  0101               	movlb	1	; () banked
  1319   002A76  5193               	movf	main@i_362& (0+255),w,b
  1320   002A78  6E5B               	movwf	??_main^0,c
  1321   002A7A  6A5C               	clrf	(??_main+1)^0,c
  1322   002A7C  5001               	movf	?_strlen^0,w,c
  1323   002A7E  5C5B               	subwf	??_main^0,w,c
  1324   002A80  5002               	movf	(?_strlen+1)^0,w,c
  1325   002A82  585C               	subwfb	(??_main+1)^0,w,c
  1326   002A84  A0D8               	btfss	status,0,c
  1327   002A86  EF47  F015         	goto	u6281
  1328   002A8A  EF49  F015         	goto	u6280
  1329   002A8E                     u6281:
  1330   002A8E  EF29  F015         	goto	l5833
  1331   002A92                     u6280:
  1332   002A92                     
  1333                           ; BSR set to: 1
  1334                           ;main.c: 130:             for(uint8_t i = 0; i < strlen(adc_val_end_msg); i++)
  1335   002A92  0E00               	movlw	0
  1336   002A94  6F94               	movwf	main@i_363& (0+255),b
  1337   002A96  EF58  F015         	goto	l5845
  1338   002A9A                     l5841:
  1339                           
  1340                           ; BSR set to: 1
  1341                           ;main.c: 131:             {;main.c: 132:                 EUSART2_Write(adc_val_end_msg[i
      +                          ]);
  1342   002A9A  0E89               	movlw	low main@adc_val_end_msg
  1343   002A9C  2594               	addwf	main@i_363& (0+255),w,b
  1344   002A9E  6ED9               	movwf	fsr2l,c
  1345   002AA0  6ADA               	clrf	fsr2h,c
  1346   002AA2  0E01               	movlw	high main@adc_val_end_msg
  1347   002AA4  22DA               	addwfc	fsr2h,f,c
  1348   002AA6  50DF               	movf	indf2,w,c
  1349   002AA8  EC41  F01D         	call	_EUSART2_Write
  1350   002AAC                     
  1351                           ;main.c: 133:             }
  1352   002AAC  0101               	movlb	1	; () banked
  1353   002AAE  2B94               	incf	main@i_363& (0+255),f,b
  1354   002AB0                     l5845:
  1355                           
  1356                           ; BSR set to: 1
  1357   002AB0  0E89               	movlw	low main@adc_val_end_msg
  1358   002AB2  6E01               	movwf	strlen@s^0,c
  1359   002AB4  0E01               	movlw	high main@adc_val_end_msg
  1360   002AB6  6E02               	movwf	(strlen@s+1)^0,c
  1361   002AB8  ECBA  F01C         	call	_strlen	;wreg free
  1362   002ABC  0101               	movlb	1	; () banked
  1363   002ABE  5194               	movf	main@i_363& (0+255),w,b
  1364   002AC0  6E5B               	movwf	??_main^0,c
  1365   002AC2  6A5C               	clrf	(??_main+1)^0,c
  1366   002AC4  5001               	movf	?_strlen^0,w,c
  1367   002AC6  5C5B               	subwf	??_main^0,w,c
  1368   002AC8  5002               	movf	(?_strlen+1)^0,w,c
  1369   002ACA  585C               	subwfb	(??_main+1)^0,w,c
  1370   002ACC  A0D8               	btfss	status,0,c
  1371   002ACE  EF6B  F015         	goto	u6291
  1372   002AD2  EF6D  F015         	goto	u6290
  1373   002AD6                     u6291:
  1374   002AD6  EF4D  F015         	goto	l5841
  1375   002ADA                     u6290:
  1376   002ADA                     
  1377                           ; BSR set to: 1
  1378                           ;main.c: 137:             for(uint8_t i = 0; i < strlen(adc_volt_start_msg); i++)
  1379   002ADA  0E00               	movlw	0
  1380   002ADC  6F95               	movwf	main@i_364& (0+255),b
  1381   002ADE  EF7C  F015         	goto	l5853
  1382   002AE2                     l5849:
  1383                           
  1384                           ; BSR set to: 1
  1385                           ;main.c: 138:             {;main.c: 139:                 EUSART2_Write(adc_volt_start_ms
      +                          g[i]);
  1386   002AE2  0E50               	movlw	low main@adc_volt_start_msg
  1387   002AE4  2595               	addwf	main@i_364& (0+255),w,b
  1388   002AE6  6ED9               	movwf	fsr2l,c
  1389   002AE8  6ADA               	clrf	fsr2h,c
  1390   002AEA  0E01               	movlw	high main@adc_volt_start_msg
  1391   002AEC  22DA               	addwfc	fsr2h,f,c
  1392   002AEE  50DF               	movf	indf2,w,c
  1393   002AF0  EC41  F01D         	call	_EUSART2_Write
  1394   002AF4                     
  1395                           ;main.c: 140:             }
  1396   002AF4  0101               	movlb	1	; () banked
  1397   002AF6  2B95               	incf	main@i_364& (0+255),f,b
  1398   002AF8                     l5853:
  1399                           
  1400                           ; BSR set to: 1
  1401   002AF8  0E50               	movlw	low main@adc_volt_start_msg
  1402   002AFA  6E01               	movwf	strlen@s^0,c
  1403   002AFC  0E01               	movlw	high main@adc_volt_start_msg
  1404   002AFE  6E02               	movwf	(strlen@s+1)^0,c
  1405   002B00  ECBA  F01C         	call	_strlen	;wreg free
  1406   002B04  0101               	movlb	1	; () banked
  1407   002B06  5195               	movf	main@i_364& (0+255),w,b
  1408   002B08  6E5B               	movwf	??_main^0,c
  1409   002B0A  6A5C               	clrf	(??_main+1)^0,c
  1410   002B0C  5001               	movf	?_strlen^0,w,c
  1411   002B0E  5C5B               	subwf	??_main^0,w,c
  1412   002B10  5002               	movf	(?_strlen+1)^0,w,c
  1413   002B12  585C               	subwfb	(??_main+1)^0,w,c
  1414   002B14  A0D8               	btfss	status,0,c
  1415   002B16  EF8F  F015         	goto	u6301
  1416   002B1A  EF91  F015         	goto	u6300
  1417   002B1E                     u6301:
  1418   002B1E  EF71  F015         	goto	l5849
  1419   002B22                     u6300:
  1420   002B22                     
  1421                           ; BSR set to: 1
  1422                           ;main.c: 142:             for(uint8_t i = 0; i < strlen(adc_volt_rxData); i++)
  1423   002B22  0E00               	movlw	0
  1424   002B24  6F96               	movwf	main@i_365& (0+255),b
  1425   002B26  EFA0  F015         	goto	l5861
  1426   002B2A                     l5857:
  1427                           
  1428                           ; BSR set to: 1
  1429                           ;main.c: 143:             {;main.c: 144:                 EUSART2_Write(adc_volt_rxData[i
      +                          ]);
  1430   002B2A  0E6E               	movlw	low main@adc_volt_rxData
  1431   002B2C  2596               	addwf	main@i_365& (0+255),w,b
  1432   002B2E  6ED9               	movwf	fsr2l,c
  1433   002B30  6ADA               	clrf	fsr2h,c
  1434   002B32  0E01               	movlw	high main@adc_volt_rxData
  1435   002B34  22DA               	addwfc	fsr2h,f,c
  1436   002B36  50DF               	movf	indf2,w,c
  1437   002B38  EC41  F01D         	call	_EUSART2_Write
  1438   002B3C                     
  1439                           ;main.c: 145:             }
  1440   002B3C  0101               	movlb	1	; () banked
  1441   002B3E  2B96               	incf	main@i_365& (0+255),f,b
  1442   002B40                     l5861:
  1443                           
  1444                           ; BSR set to: 1
  1445   002B40  0E6E               	movlw	low main@adc_volt_rxData
  1446   002B42  6E01               	movwf	strlen@s^0,c
  1447   002B44  0E01               	movlw	high main@adc_volt_rxData
  1448   002B46  6E02               	movwf	(strlen@s+1)^0,c
  1449   002B48  ECBA  F01C         	call	_strlen	;wreg free
  1450   002B4C  0101               	movlb	1	; () banked
  1451   002B4E  5196               	movf	main@i_365& (0+255),w,b
  1452   002B50  6E5B               	movwf	??_main^0,c
  1453   002B52  6A5C               	clrf	(??_main+1)^0,c
  1454   002B54  5001               	movf	?_strlen^0,w,c
  1455   002B56  5C5B               	subwf	??_main^0,w,c
  1456   002B58  5002               	movf	(?_strlen+1)^0,w,c
  1457   002B5A  585C               	subwfb	(??_main+1)^0,w,c
  1458   002B5C  A0D8               	btfss	status,0,c
  1459   002B5E  EFB3  F015         	goto	u6311
  1460   002B62  EFB5  F015         	goto	u6310
  1461   002B66                     u6311:
  1462   002B66  EF95  F015         	goto	l5857
  1463   002B6A                     u6310:
  1464   002B6A                     
  1465                           ; BSR set to: 1
  1466                           ;main.c: 147:             for(uint8_t i = 0; i < strlen(adc_volt_end_msg); i++)
  1467   002B6A  0E00               	movlw	0
  1468   002B6C  6F97               	movwf	main@i_366& (0+255),b
  1469   002B6E  EFC4  F015         	goto	l5869
  1470   002B72                     l5865:
  1471                           
  1472                           ; BSR set to: 1
  1473                           ;main.c: 148:             {;main.c: 149:                 EUSART2_Write(adc_volt_end_msg[
      +                          i]);
  1474   002B72  0E84               	movlw	low main@adc_volt_end_msg
  1475   002B74  2597               	addwf	main@i_366& (0+255),w,b
  1476   002B76  6ED9               	movwf	fsr2l,c
  1477   002B78  6ADA               	clrf	fsr2h,c
  1478   002B7A  0E01               	movlw	high main@adc_volt_end_msg
  1479   002B7C  22DA               	addwfc	fsr2h,f,c
  1480   002B7E  50DF               	movf	indf2,w,c
  1481   002B80  EC41  F01D         	call	_EUSART2_Write
  1482   002B84                     
  1483                           ;main.c: 150:             }
  1484   002B84  0101               	movlb	1	; () banked
  1485   002B86  2B97               	incf	main@i_366& (0+255),f,b
  1486   002B88                     l5869:
  1487                           
  1488                           ; BSR set to: 1
  1489   002B88  0E84               	movlw	low main@adc_volt_end_msg
  1490   002B8A  6E01               	movwf	strlen@s^0,c
  1491   002B8C  0E01               	movlw	high main@adc_volt_end_msg
  1492   002B8E  6E02               	movwf	(strlen@s+1)^0,c
  1493   002B90  ECBA  F01C         	call	_strlen	;wreg free
  1494   002B94  0101               	movlb	1	; () banked
  1495   002B96  5197               	movf	main@i_366& (0+255),w,b
  1496   002B98  6E5B               	movwf	??_main^0,c
  1497   002B9A  6A5C               	clrf	(??_main+1)^0,c
  1498   002B9C  5001               	movf	?_strlen^0,w,c
  1499   002B9E  5C5B               	subwf	??_main^0,w,c
  1500   002BA0  5002               	movf	(?_strlen+1)^0,w,c
  1501   002BA2  585C               	subwfb	(??_main+1)^0,w,c
  1502   002BA4  A0D8               	btfss	status,0,c
  1503   002BA6  EFD7  F015         	goto	u6321
  1504   002BAA  EFD9  F015         	goto	u6320
  1505   002BAE                     u6321:
  1506   002BAE  EFB9  F015         	goto	l5865
  1507   002BB2                     u6320:
  1508   002BB2  EF8F  F014         	goto	l5809
  1509   002BB6  EF00  F000         	goto	start
  1510   002BBA                     __end_of_main:
  1511                           	callstack 0
  1512                           
  1513 ;; *************** function _strlen *****************
  1514 ;; Defined at:
  1515 ;;		line 5 in file "/opt/microchip/xc8/v2.45/pic/sources/c99/common/strlen.c"
  1516 ;; Parameters:    Size  Location     Type
  1517 ;;  s               2    0[COMRAM] PTR const unsigned char 
  1518 ;;		 -> main@adc_volt_rxData(16), main@adc_val_rxData(16), main@adc_volt_end_msg(5), main@adc_volt_start_msg(14), 
  1519 ;;		 -> main@adc_val_end_msg(3), main@adc_val_start_msg(6), 
  1520 ;; Auto vars:     Size  Location     Type
  1521 ;;  a               2    2[COMRAM] PTR const unsigned char 
  1522 ;;		 -> main@adc_volt_rxData(16), main@adc_val_rxData(16), main@adc_volt_end_msg(5), main@adc_volt_start_msg(14), 
  1523 ;;		 -> main@adc_val_end_msg(3), main@adc_val_start_msg(6), 
  1524 ;; Return value:  Size  Location     Type
  1525 ;;                  2    0[COMRAM] unsigned int 
  1526 ;; Registers used:
  1527 ;;		wreg, fsr2l, fsr2h, status,2, status,0
  1528 ;; Tracked objects:
  1529 ;;		On entry : 0/0
  1530 ;;		On exit  : 0/0
  1531 ;;		Unchanged: 0/0
  1532 ;; Data sizes:     COMRAM   BANK0   BANK1   BANK2   BANK3   BANK4   BANK5   BANK6   BANK7   BANK8   BANK9  BANK10  BANK1
      +1  BANK12  BANK14
  1533 ;;      Params:         2       0       0       0       0       0       0       0       0       0       0       0       
      +0       0       0
  1534 ;;      Locals:         2       0       0       0       0       0       0       0       0       0       0       0       
      +0       0       0
  1535 ;;      Temps:          0       0       0       0       0       0       0       0       0       0       0       0       
      +0       0       0
  1536 ;;      Totals:         4       0       0       0       0       0       0       0       0       0       0       0       
      +0       0       0
  1537 ;;Total ram usage:        4 bytes
  1538 ;; Hardware stack levels used: 1
  1539 ;; This function calls:
  1540 ;;		Nothing
  1541 ;; This function is called by:
  1542 ;;		_main
  1543 ;; This function uses a non-reentrant model
  1544 ;;
  1545                           
  1546                           	psect	text1
  1547   003974                     __ptext1:
  1548                           	callstack 0
  1549   003974                     _strlen:
  1550                           	callstack 30
  1551   003974  C001  F003         	movff	strlen@s,strlen@a
  1552   003978  C002  F004         	movff	strlen@s+1,strlen@a+1
  1553   00397C  EFC2  F01C         	goto	l5785
  1554   003980                     l5783:
  1555   003980  4A01               	infsnz	strlen@s^0,f,c
  1556   003982  2A02               	incf	(strlen@s+1)^0,f,c
  1557   003984                     l5785:
  1558   003984  C001  FFD9         	movff	strlen@s,fsr2l
  1559   003988  C002  FFDA         	movff	strlen@s+1,fsr2h
  1560   00398C  50DF               	movf	indf2,w,c
  1561   00398E  A4D8               	btfss	status,2,c
  1562   003990  EFCC  F01C         	goto	u6221
  1563   003994  EFCE  F01C         	goto	u6220
  1564   003998                     u6221:
  1565   003998  EFC0  F01C         	goto	l5783
  1566   00399C                     u6220:
  1567   00399C  5003               	movf	strlen@a^0,w,c
  1568   00399E  5C01               	subwf	strlen@s^0,w,c
  1569   0039A0  6E01               	movwf	?_strlen^0,c
  1570   0039A2  5004               	movf	(strlen@a+1)^0,w,c
  1571   0039A4  5802               	subwfb	(strlen@s+1)^0,w,c
  1572   0039A6  6E02               	movwf	(?_strlen+1)^0,c
  1573   0039A8  0012               	return		;funcret
  1574   0039AA                     __end_of_strlen:
  1575                           	callstack 0
  1576                           
  1577 ;; *************** function _sprintf *****************
  1578 ;; Defined at:
  1579 ;;		line 9 in file "/opt/microchip/xc8/v2.45/pic/sources/c99/common/nf_sprintf.c"
  1580 ;; Parameters:    Size  Location     Type
  1581 ;;  s               2   54[BANK0 ] PTR unsigned char 
  1582 ;;		 -> main@adc_volt_rxData(16), main@adc_val_rxData(16), 
  1583 ;;  fmt             1   56[BANK0 ] PTR const unsigned char 
  1584 ;;		 -> STR_2(3), STR_1(3), 
  1585 ;; Auto vars:     Size  Location     Type
  1586 ;;  f              12   62[BANK0 ] struct _IO_FILE
  1587 ;;  ret             2    0        int 
  1588 ;;  ap              1   61[BANK0 ] PTR void [1]
  1589 ;;		 -> ?_sprintf(2), 
  1590 ;; Return value:  Size  Location     Type
  1591 ;;                  2   54[BANK0 ] int 
  1592 ;; Registers used:
  1593 ;;		wreg, fsr1l, fsr1h, fsr2l, fsr2h, status,2, status,0, tblptrl, tblptrh, tblptru, prodl, prodh, cstack
  1594 ;; Tracked objects:
  1595 ;;		On entry : 0/0
  1596 ;;		On exit  : 0/0
  1597 ;;		Unchanged: 0/0
  1598 ;; Data sizes:     COMRAM   BANK0   BANK1   BANK2   BANK3   BANK4   BANK5   BANK6   BANK7   BANK8   BANK9  BANK10  BANK1
      +1  BANK12  BANK14
  1599 ;;      Params:         0       7       0       0       0       0       0       0       0       0       0       0       
      +0       0       0
  1600 ;;      Locals:         0      13       0       0       0       0       0       0       0       0       0       0       
      +0       0       0
  1601 ;;      Temps:          0       0       0       0       0       0       0       0       0       0       0       0       
      +0       0       0
  1602 ;;      Totals:         0      20       0       0       0       0       0       0       0       0       0       0       
      +0       0       0
  1603 ;;Total ram usage:       20 bytes
  1604 ;; Hardware stack levels used: 1
  1605 ;; Hardware stack levels required when called: 8
  1606 ;; This function calls:
  1607 ;;		_vfprintf
  1608 ;; This function is called by:
  1609 ;;		_main
  1610 ;; This function uses a non-reentrant model
  1611 ;;
  1612                           
  1613                           	psect	text2
  1614   00387E                     __ptext2:
  1615                           	callstack 0
  1616   00387E                     _sprintf:
  1617                           	callstack 22
  1618   00387E  0E99               	movlw	low (?_sprintf+3)
  1619   003880  0100               	movlb	0	; () banked
  1620   003882  6F9D               	movwf	sprintf@ap& (0+255),b
  1621   003884  C096  F09E         	movff	sprintf@s,sprintf@f
  1622   003888  C097  F09F         	movff	sprintf@s+1,sprintf@f+1
  1623   00388C                     
  1624                           ; BSR set to: 0
  1625   00388C  0E00               	movlw	0
  1626   00388E  6FA2               	movwf	(sprintf@f+4)& (0+255),b
  1627   003890  0E00               	movlw	0
  1628   003892  6FA1               	movwf	(sprintf@f+3)& (0+255),b
  1629   003894                     
  1630                           ; BSR set to: 0
  1631   003894  0E00               	movlw	0
  1632   003896  6FA9               	movwf	(sprintf@f+11)& (0+255),b
  1633   003898  0E00               	movlw	0
  1634   00389A  6FA8               	movwf	(sprintf@f+10)& (0+255),b
  1635   00389C                     
  1636                           ; BSR set to: 0
  1637   00389C  0E9E               	movlw	low sprintf@f
  1638   00389E  6F93               	movwf	vfprintf@fp& (0+255),b
  1639   0038A0  C098  F094         	movff	sprintf@fmt,vfprintf@fmt
  1640   0038A4  0E9D               	movlw	low sprintf@ap
  1641   0038A6  6F95               	movwf	vfprintf@ap& (0+255),b
  1642   0038A8  EC1D  F01C         	call	_vfprintf	;wreg free
  1643   0038AC  0100               	movlb	0	; () banked
  1644   0038AE  51A1               	movf	(sprintf@f+3)& (0+255),w,b
  1645   0038B0  2596               	addwf	sprintf@s& (0+255),w,b
  1646   0038B2  6ED9               	movwf	fsr2l,c
  1647   0038B4  51A2               	movf	(sprintf@f+4)& (0+255),w,b
  1648   0038B6  2197               	addwfc	(sprintf@s+1)& (0+255),w,b
  1649   0038B8  6EDA               	movwf	fsr2h,c
  1650   0038BA  6ADF               	clrf	indf2,c
  1651   0038BC                     
  1652                           ; BSR set to: 0
  1653   0038BC  0012               	return		;funcret
  1654   0038BE                     __end_of_sprintf:
  1655                           	callstack 0
  1656                           
  1657 ;; *************** function _vfprintf *****************
  1658 ;; Defined at:
  1659 ;;		line 1817 in file "/opt/microchip/xc8/v2.45/pic/sources/c99/common/doprnt.c"
  1660 ;; Parameters:    Size  Location     Type
  1661 ;;  fp              1   51[BANK0 ] PTR struct _IO_FILE
  1662 ;;		 -> sprintf@f(12), 
  1663 ;;  fmt             1   52[BANK0 ] PTR const unsigned char 
  1664 ;;		 -> STR_2(3), STR_1(3), 
  1665 ;;  ap              1   53[BANK0 ] PTR PTR void 
  1666 ;;		 -> sprintf@ap(1), 
  1667 ;; Auto vars:     Size  Location     Type
  1668 ;;  cfmt            1   89[COMRAM] PTR unsigned char 
  1669 ;;		 -> STR_2(3), STR_1(3), 
  1670 ;; Return value:  Size  Location     Type
  1671 ;;                  2   51[BANK0 ] int 
  1672 ;; Registers used:
  1673 ;;		wreg, fsr1l, fsr1h, fsr2l, fsr2h, status,2, status,0, tblptrl, tblptrh, tblptru, prodl, prodh, cstack
  1674 ;; Tracked objects:
  1675 ;;		On entry : 0/0
  1676 ;;		On exit  : 0/0
  1677 ;;		Unchanged: 0/0
  1678 ;; Data sizes:     COMRAM   BANK0   BANK1   BANK2   BANK3   BANK4   BANK5   BANK6   BANK7   BANK8   BANK9  BANK10  BANK1
      +1  BANK12  BANK14
  1679 ;;      Params:         0       3       0       0       0       0       0       0       0       0       0       0       
      +0       0       0
  1680 ;;      Locals:         1       0       0       0       0       0       0       0       0       0       0       0       
      +0       0       0
  1681 ;;      Temps:          0       0       0       0       0       0       0       0       0       0       0       0       
      +0       0       0
  1682 ;;      Totals:         1       3       0       0       0       0       0       0       0       0       0       0       
      +0       0       0
  1683 ;;Total ram usage:        4 bytes
  1684 ;; Hardware stack levels used: 1
  1685 ;; Hardware stack levels required when called: 7
  1686 ;; This function calls:
  1687 ;;		_vfpfcnvrt
  1688 ;; This function is called by:
  1689 ;;		_sprintf
  1690 ;; This function uses a non-reentrant model
  1691 ;;
  1692                           
  1693                           	psect	text3
  1694   00383A                     __ptext3:
  1695                           	callstack 0
  1696   00383A                     _vfprintf:
  1697                           	callstack 22
  1698   00383A                     
  1699                           ;/opt/microchip/xc8/v2.45/pic/sources/c99/common/doprnt.c: 1817: int vfprintf(FILE *fp, 
      +                          const char *fmt, va_list ap);/opt/microchip/xc8/v2.45/pic/sources/c99/common/doprnt.c: 1
      +                          818: {;/opt/microchip/xc8/v2.45/pic/sources/c99/common/doprnt.c: 1820:     char *cfmt;;/
      +                          opt/microchip/xc8/v2.45/pic/sources/c99/common/doprnt.c: 1822:     cfmt = (char *)fmt;
  1700   00383A  C094  F05A         	movff	vfprintf@fmt,vfprintf@cfmt
  1701                           
  1702                           ;/opt/microchip/xc8/v2.45/pic/sources/c99/common/doprnt.c: 1826:     while (*cfmt) {
  1703   00383E  EF29  F01C         	goto	l5517
  1704   003842                     l5515:
  1705                           
  1706                           ;/opt/microchip/xc8/v2.45/pic/sources/c99/common/doprnt.c: 1830:    vfpfcnvrt(fp, &cfmt,
      +                           ap);
  1707   003842  C093  F055         	movff	vfprintf@fp,vfpfcnvrt@fp
  1708   003846  0E5A               	movlw	low vfprintf@cfmt
  1709   003848  6E56               	movwf	vfpfcnvrt@fmt^0,c
  1710   00384A  C095  F057         	movff	vfprintf@ap,vfpfcnvrt@ap
  1711   00384E  ECBE  F012         	call	_vfpfcnvrt	;wreg free
  1712   003852                     l5517:
  1713                           
  1714                           ;/opt/microchip/xc8/v2.45/pic/sources/c99/common/doprnt.c: 1826:     while (*cfmt) {
  1715   003852  C05A  FFF6         	movff	vfprintf@cfmt,tblptrl
  1716   003856                     	if	1	;There is more than 1 active tblptr byte
  1717   003856  0E0F               	movlw	high __smallconst
  1718   003858  6EF7               	movwf	tblptrh,c
  1719   00385A                     	endif
  1720   00385A                     	if	0	;tblptru may be non-zero
  1721   00385A                     	endif
  1722   00385A                     	if	1	;Program memory is > 0xFFFF, there are 3 active tblptr bytes
  1723   00385A  0E00               	movlw	low (__smallconst shr (0+16))
  1724   00385C  6EF8               	movwf	tblptru,c
  1725   00385E                     	endif
  1726   00385E  0008               	tblrd		*
  1727   003860  50F5               	movf	tablat,w,c
  1728   003862  0900               	iorlw	0
  1729   003864  A4D8               	btfss	status,2,c
  1730   003866  EF37  F01C         	goto	u5991
  1731   00386A  EF39  F01C         	goto	u5990
  1732   00386E                     u5991:
  1733   00386E  EF21  F01C         	goto	l5515
  1734   003872                     u5990:
  1735   003872                     
  1736                           ;/opt/microchip/xc8/v2.45/pic/sources/c99/common/doprnt.c: 1835:  return 0;
  1737   003872  0E00               	movlw	0
  1738   003874  0100               	movlb	0	; () banked
  1739   003876  6F94               	movwf	(?_vfprintf+1)& (0+255),b
  1740   003878  0E00               	movlw	0
  1741   00387A  6F93               	movwf	?_vfprintf& (0+255),b
  1742   00387C                     
  1743                           ; BSR set to: 0
  1744   00387C  0012               	return		;funcret
  1745   00387E                     __end_of_vfprintf:
  1746                           	callstack 0
  1747                           
  1748 ;; *************** function _vfpfcnvrt *****************
  1749 ;; Defined at:
  1750 ;;		line 1177 in file "/opt/microchip/xc8/v2.45/pic/sources/c99/common/doprnt.c"
  1751 ;; Parameters:    Size  Location     Type
  1752 ;;  fp              1   84[COMRAM] PTR struct _IO_FILE
  1753 ;;		 -> sprintf@f(12), 
  1754 ;;  fmt             1   85[COMRAM] PTR PTR unsigned char 
  1755 ;;		 -> vfprintf@cfmt(1), 
  1756 ;;  ap              1   86[COMRAM] PTR PTR void 
  1757 ;;		 -> sprintf@ap(1), 
  1758 ;; Auto vars:     Size  Location     Type
  1759 ;;  convarg         4   45[BANK0 ] struct .
  1760 ;;  c               1   50[BANK0 ] unsigned char 
  1761 ;;  cp              1   49[BANK0 ] PTR unsigned char 
  1762 ;;		 -> STR_2(3), STR_1(3), 
  1763 ;;  done            1   44[BANK0 ] _Bool 
  1764 ;; Return value:  Size  Location     Type
  1765 ;;                  1    wreg      void 
  1766 ;; Registers used:
  1767 ;;		wreg, fsr1l, fsr1h, fsr2l, fsr2h, status,2, status,0, tblptrl, tblptrh, tblptru, prodl, prodh, cstack
  1768 ;; Tracked objects:
  1769 ;;		On entry : 0/0
  1770 ;;		On exit  : 0/0
  1771 ;;		Unchanged: 0/0
  1772 ;; Data sizes:     COMRAM   BANK0   BANK1   BANK2   BANK3   BANK4   BANK5   BANK6   BANK7   BANK8   BANK9  BANK10  BANK1
      +1  BANK12  BANK14
  1773 ;;      Params:         3       0       0       0       0       0       0       0       0       0       0       0       
      +0       0       0
  1774 ;;      Locals:         0       7       0       0       0       0       0       0       0       0       0       0       
      +0       0       0
  1775 ;;      Temps:          2       0       0       0       0       0       0       0       0       0       0       0       
      +0       0       0
  1776 ;;      Totals:         5       7       0       0       0       0       0       0       0       0       0       0       
      +0       0       0
  1777 ;;Total ram usage:       12 bytes
  1778 ;; Hardware stack levels used: 1
  1779 ;; Hardware stack levels required when called: 6
  1780 ;; This function calls:
  1781 ;;		___awdiv
  1782 ;;		___awmod
  1783 ;;		_abs
  1784 ;;		_efgtoa
  1785 ;;		_fputc
  1786 ;; This function is called by:
  1787 ;;		_vfprintf
  1788 ;; This function uses a non-reentrant model
  1789 ;;
  1790                           
  1791                           	psect	text4
  1792   00257C                     __ptext4:
  1793                           	callstack 0
  1794   00257C                     _vfpfcnvrt:
  1795                           	callstack 22
  1796   00257C                     
  1797                           ;/opt/microchip/xc8/v2.45/pic/sources/c99/common/doprnt.c: 1177: vfpfcnvrt(FILE *fp, cha
      +                          r *fmt[], va_list ap);/opt/microchip/xc8/v2.45/pic/sources/c99/common/doprnt.c: 1178: {;
      +                          /opt/microchip/xc8/v2.45/pic/sources/c99/common/doprnt.c: 1179:     char c, *cp;;/opt/mi
      +                          crochip/xc8/v2.45/pic/sources/c99/common/doprnt.c: 1180:     _Bool done;;/opt/microchip/
      +                          xc8/v2.45/pic/sources/c99/common/doprnt.c: 1188:  } convarg;;/opt/microchip/xc8/v2.45/pi
      +                          c/sources/c99/common/doprnt.c: 1201:     if ((*fmt)[0] == '%') {
  1798   00257C  5056               	movf	vfpfcnvrt@fmt^0,w,c
  1799   00257E  6ED9               	movwf	fsr2l,c
  1800   002580  6ADA               	clrf	fsr2h,c
  1801   002582  CFDF FFF6          	movff	indf2,tblptrl
  1802   002586                     	if	1	;There is more than 1 active tblptr byte
  1803   002586  0E0F               	movlw	high __smallconst
  1804   002588  6EF7               	movwf	tblptrh,c
  1805   00258A                     	endif
  1806   00258A                     	if	0	;tblptru may be non-zero
  1807   00258A                     	endif
  1808   00258A                     	if	1	;Program memory is > 0xFFFF, there are 3 active tblptr bytes
  1809   00258A  0E00               	movlw	low (__smallconst shr (0+16))
  1810   00258C  6EF8               	movwf	tblptru,c
  1811   00258E                     	endif
  1812   00258E  0008               	tblrd		*
  1813   002590  50F5               	movf	tablat,w,c
  1814   002592  0A25               	xorlw	37
  1815   002594  A4D8               	btfss	status,2,c
  1816   002596  EFCF  F012         	goto	u5881
  1817   00259A  EFD1  F012         	goto	u5880
  1818   00259E                     u5881:
  1819   00259E  EF50  F014         	goto	l5441
  1820   0025A2                     u5880:
  1821   0025A2                     
  1822                           ;/opt/microchip/xc8/v2.45/pic/sources/c99/common/doprnt.c: 1202:         ++*fmt;
  1823   0025A2  5056               	movf	vfpfcnvrt@fmt^0,w,c
  1824   0025A4  6ED9               	movwf	fsr2l,c
  1825   0025A6  6ADA               	clrf	fsr2h,c
  1826   0025A8  2ADF               	incf	indf2,f,c
  1827   0025AA                     
  1828                           ;/opt/microchip/xc8/v2.45/pic/sources/c99/common/doprnt.c: 1204:         flags = width =
      +                           0;
  1829   0025AA  0E00               	movlw	0
  1830   0025AC  0100               	movlb	0	; () banked
  1831   0025AE  6FB3               	movwf	(_width+1)& (0+255),b
  1832   0025B0  0E00               	movlw	0
  1833   0025B2  6FB2               	movwf	_width& (0+255),b
  1834   0025B4  C0B2  F0B6         	movff	_width,_flags
  1835   0025B8                     
  1836                           ; BSR set to: 0
  1837                           ;/opt/microchip/xc8/v2.45/pic/sources/c99/common/doprnt.c: 1205:         prec = -1;
  1838   0025B8  69B4               	setf	_prec& (0+255),b
  1839   0025BA  69B5               	setf	(_prec+1)& (0+255),b
  1840   0025BC                     
  1841                           ; BSR set to: 0
  1842                           ;/opt/microchip/xc8/v2.45/pic/sources/c99/common/doprnt.c: 1291:   cp = *fmt;
  1843   0025BC  5056               	movf	vfpfcnvrt@fmt^0,w,c
  1844   0025BE  6ED9               	movwf	fsr2l,c
  1845   0025C0  6ADA               	clrf	fsr2h,c
  1846   0025C2  50DF               	movf	indf2,w,c
  1847   0025C4  6F91               	movwf	vfpfcnvrt@cp& (0+255),b
  1848   0025C6                     
  1849                           ; BSR set to: 0
  1850                           ;/opt/microchip/xc8/v2.45/pic/sources/c99/common/doprnt.c: 1361:   if (*cp == 'd' || *cp
      +                           == 'i') {
  1851   0025C6  C091  FFF6         	movff	vfpfcnvrt@cp,tblptrl
  1852   0025CA                     	if	1	;There is more than 1 active tblptr byte
  1853   0025CA  0E0F               	movlw	high __smallconst
  1854   0025CC  6EF7               	movwf	tblptrh,c
  1855   0025CE                     	endif
  1856   0025CE                     	if	0	;tblptru may be non-zero
  1857   0025CE                     	endif
  1858   0025CE                     	if	1	;Program memory is > 0xFFFF, there are 3 active tblptr bytes
  1859   0025CE  0E00               	movlw	low (__smallconst shr (0+16))
  1860   0025D0  6EF8               	movwf	tblptru,c
  1861   0025D2                     	endif
  1862   0025D2  0008               	tblrd		*
  1863   0025D4  50F5               	movf	tablat,w,c
  1864   0025D6  0A64               	xorlw	100
  1865   0025D8  B4D8               	btfsc	status,2,c
  1866   0025DA  EFF1  F012         	goto	u5891
  1867   0025DE  EFF3  F012         	goto	u5890
  1868   0025E2                     u5891:
  1869   0025E2  EF03  F013         	goto	l5377
  1870   0025E6                     u5890:
  1871   0025E6                     
  1872                           ; BSR set to: 0
  1873   0025E6  C091  FFF6         	movff	vfpfcnvrt@cp,tblptrl
  1874   0025EA                     	if	1	;There is more than 1 active tblptr byte
  1875   0025EA  0E0F               	movlw	high __smallconst
  1876   0025EC  6EF7               	movwf	tblptrh,c
  1877   0025EE                     	endif
  1878   0025EE                     	if	0	;tblptru may be non-zero
  1879   0025EE                     	endif
  1880   0025EE                     	if	1	;Program memory is > 0xFFFF, there are 3 active tblptr bytes
  1881   0025EE  0E00               	movlw	low (__smallconst shr (0+16))
  1882   0025F0  6EF8               	movwf	tblptru,c
  1883   0025F2                     	endif
  1884   0025F2  0008               	tblrd		*
  1885   0025F4  50F5               	movf	tablat,w,c
  1886   0025F6  0A69               	xorlw	105
  1887   0025F8  A4D8               	btfss	status,2,c
  1888   0025FA  EF01  F013         	goto	u5901
  1889   0025FE  EF03  F013         	goto	u5900
  1890   002602                     u5901:
  1891   002602  EF91  F013         	goto	l5403
  1892   002606                     u5900:
  1893   002606                     l5377:
  1894                           
  1895                           ; BSR set to: 0
  1896                           ;/opt/microchip/xc8/v2.45/pic/sources/c99/common/doprnt.c: 1404:    convarg.sint = (vfpf
      +                          _sint_t)(int)(*(int *)__va_arg(*(int **)ap, (int)0));
  1897   002606  5057               	movf	vfpfcnvrt@ap^0,w,c
  1898   002608  6ED9               	movwf	fsr2l,c
  1899   00260A  6ADA               	clrf	fsr2h,c
  1900   00260C  0E02               	movlw	2
  1901   00260E  26DF               	addwf	indf2,f,c
  1902   002610  5CDF               	subwf	indf2,w,c
  1903   002612  6ED9               	movwf	fsr2l,c
  1904   002614  6ADA               	clrf	fsr2h,c
  1905   002616  CFDE F08D          	movff	postinc2,vfpfcnvrt@convarg
  1906   00261A  CFDE F08E          	movff	postinc2,vfpfcnvrt@convarg+1
  1907   00261E                     
  1908                           ; BSR set to: 0
  1909                           ;/opt/microchip/xc8/v2.45/pic/sources/c99/common/doprnt.c: 1406:    *fmt = cp+1;
  1910   00261E  5056               	movf	vfpfcnvrt@fmt^0,w,c
  1911   002620  6ED9               	movwf	fsr2l,c
  1912   002622  6ADA               	clrf	fsr2h,c
  1913   002624  2991               	incf	vfpfcnvrt@cp& (0+255),w,b
  1914   002626  6EDF               	movwf	indf2,c
  1915   002628                     
  1916                           ; BSR set to: 0
  1917                           ;/opt/microchip/xc8/v2.45/pic/sources/c99/common/doprnt.c: 1408:    c = sizeof(dbuf);
  1918   002628  0E50               	movlw	80
  1919   00262A  6F92               	movwf	vfpfcnvrt@c& (0+255),b
  1920                           
  1921                           ;/opt/microchip/xc8/v2.45/pic/sources/c99/common/doprnt.c: 1409:    done = convarg.sint 
      +                          < 0;
  1922   00262C  BF8E               	btfsc	(vfpfcnvrt@convarg+1)& (0+255),7,b
  1923   00262E  EF1B  F013         	goto	u5911
  1924   002632  EF1E  F013         	goto	u5910
  1925   002636                     u5911:
  1926   002636  0E01               	movlw	1
  1927   002638  EF1F  F013         	goto	u5920
  1928   00263C                     u5910:
  1929   00263C  0E00               	movlw	0
  1930   00263E                     u5920:
  1931   00263E  6F8C               	movwf	vfpfcnvrt@done& (0+255),b
  1932   002640                     l5383:
  1933                           
  1934                           ; BSR set to: 0
  1935                           ;/opt/microchip/xc8/v2.45/pic/sources/c99/common/doprnt.c: 1411:     dbuf[--c] = abs(con
      +                          varg.sint % 10) + '0';
  1936   002640  0792               	decf	vfpfcnvrt@c& (0+255),f,b
  1937   002642  0E00               	movlw	low _dbuf
  1938   002644  2592               	addwf	vfpfcnvrt@c& (0+255),w,b
  1939   002646  6ED9               	movwf	fsr2l,c
  1940   002648  6ADA               	clrf	fsr2h,c
  1941   00264A  0E01               	movlw	high _dbuf
  1942   00264C  22DA               	addwfc	fsr2h,f,c
  1943   00264E  C08D  F001         	movff	vfpfcnvrt@convarg,___awmod@dividend
  1944   002652  C08E  F002         	movff	vfpfcnvrt@convarg+1,___awmod@dividend+1
  1945   002656  0E00               	movlw	0
  1946   002658  6E04               	movwf	(___awmod@divisor+1)^0,c
  1947   00265A  0E0A               	movlw	10
  1948   00265C  6E03               	movwf	___awmod@divisor^0,c
  1949   00265E  EC03  F01A         	call	___awmod	;wreg free
  1950   002662  C001  F007         	movff	?___awmod,abs@a
  1951   002666  C002  F008         	movff	?___awmod+1,abs@a+1
  1952   00266A  ECD5  F01C         	call	_abs	;wreg free
  1953   00266E  5007               	movf	?_abs^0,w,c
  1954   002670  0F30               	addlw	48
  1955   002672  6EDF               	movwf	indf2,c
  1956   002674                     
  1957                           ;/opt/microchip/xc8/v2.45/pic/sources/c99/common/doprnt.c: 1412:     convarg.sint /= 10;
  1958   002674  C08D  F001         	movff	vfpfcnvrt@convarg,___awdiv@dividend
  1959   002678  C08E  F002         	movff	vfpfcnvrt@convarg+1,___awdiv@dividend+1
  1960   00267C  0E00               	movlw	0
  1961   00267E  6E04               	movwf	(___awdiv@divisor+1)^0,c
  1962   002680  0E0A               	movlw	10
  1963   002682  6E03               	movwf	___awdiv@divisor^0,c
  1964   002684  EC44  F019         	call	___awdiv	;wreg free
  1965   002688  C001  F08D         	movff	?___awdiv,vfpfcnvrt@convarg
  1966   00268C  C002  F08E         	movff	?___awdiv+1,vfpfcnvrt@convarg+1
  1967   002690                     
  1968                           ;/opt/microchip/xc8/v2.45/pic/sources/c99/common/doprnt.c: 1416:    } while (convarg.sin
      +                          t != 0 && c != 0);
  1969   002690  0100               	movlb	0	; () banked
  1970   002692  518D               	movf	vfpfcnvrt@convarg& (0+255),w,b
  1971   002694  118E               	iorwf	(vfpfcnvrt@convarg+1)& (0+255),w,b
  1972   002696  B4D8               	btfsc	status,2,c
  1973   002698  EF50  F013         	goto	u5931
  1974   00269C  EF52  F013         	goto	u5930
  1975   0026A0                     u5931:
  1976   0026A0  EF5A  F013         	goto	l5391
  1977   0026A4                     u5930:
  1978   0026A4                     
  1979                           ; BSR set to: 0
  1980   0026A4  5192               	movf	vfpfcnvrt@c& (0+255),w,b
  1981   0026A6  A4D8               	btfss	status,2,c
  1982   0026A8  EF58  F013         	goto	u5941
  1983   0026AC  EF5A  F013         	goto	u5940
  1984   0026B0                     u5941:
  1985   0026B0  EF20  F013         	goto	l5383
  1986   0026B4                     u5940:
  1987   0026B4                     l5391:
  1988                           
  1989                           ; BSR set to: 0
  1990                           ;/opt/microchip/xc8/v2.45/pic/sources/c99/common/doprnt.c: 1417:    if (c != 0 && done) 
      +                          {
  1991   0026B4  5192               	movf	vfpfcnvrt@c& (0+255),w,b
  1992   0026B6  B4D8               	btfsc	status,2,c
  1993   0026B8  EF60  F013         	goto	u5951
  1994   0026BC  EF62  F013         	goto	u5950
  1995   0026C0                     u5951:
  1996   0026C0  EF86  F013         	goto	l5401
  1997   0026C4                     u5950:
  1998   0026C4                     
  1999                           ; BSR set to: 0
  2000   0026C4  518C               	movf	vfpfcnvrt@done& (0+255),w,b
  2001   0026C6  B4D8               	btfsc	status,2,c
  2002   0026C8  EF68  F013         	goto	u5961
  2003   0026CC  EF6A  F013         	goto	u5960
  2004   0026D0                     u5961:
  2005   0026D0  EF86  F013         	goto	l5401
  2006   0026D4                     u5960:
  2007   0026D4                     
  2008                           ; BSR set to: 0
  2009                           ;/opt/microchip/xc8/v2.45/pic/sources/c99/common/doprnt.c: 1418:     dbuf[--c] = '-';
  2010   0026D4  0792               	decf	vfpfcnvrt@c& (0+255),f,b
  2011   0026D6  0E00               	movlw	low _dbuf
  2012   0026D8  2592               	addwf	vfpfcnvrt@c& (0+255),w,b
  2013   0026DA  6ED9               	movwf	fsr2l,c
  2014   0026DC  6ADA               	clrf	fsr2h,c
  2015   0026DE  0E01               	movlw	high _dbuf
  2016   0026E0  22DA               	addwfc	fsr2h,f,c
  2017   0026E2  0E2D               	movlw	45
  2018   0026E4  6EDF               	movwf	indf2,c
  2019   0026E6  EF86  F013         	goto	l5401
  2020   0026EA                     l5397:
  2021                           
  2022                           ; BSR set to: 0
  2023                           ;/opt/microchip/xc8/v2.45/pic/sources/c99/common/doprnt.c: 1424:     fputc(dbuf[c++], fp
      +                          );
  2024   0026EA  0E00               	movlw	low _dbuf
  2025   0026EC  2592               	addwf	vfpfcnvrt@c& (0+255),w,b
  2026   0026EE  6ED9               	movwf	fsr2l,c
  2027   0026F0  6ADA               	clrf	fsr2h,c
  2028   0026F2  0E01               	movlw	high _dbuf
  2029   0026F4  22DA               	addwfc	fsr2h,f,c
  2030   0026F6  50DF               	movf	indf2,w,c
  2031   0026F8  6E58               	movwf	??_vfpfcnvrt^0,c
  2032   0026FA  5058               	movf	??_vfpfcnvrt^0,w,c
  2033   0026FC  6E03               	movwf	fputc@c^0,c
  2034   0026FE  6A04               	clrf	(fputc@c+1)^0,c
  2035   002700  C055  F005         	movff	vfpfcnvrt@fp,fputc@fp
  2036   002704  ECA6  F019         	call	_fputc	;wreg free
  2037   002708  0100               	movlb	0	; () banked
  2038   00270A  2B92               	incf	vfpfcnvrt@c& (0+255),f,b
  2039   00270C                     l5401:
  2040                           
  2041                           ; BSR set to: 0
  2042                           ;/opt/microchip/xc8/v2.45/pic/sources/c99/common/doprnt.c: 1423:    while (c != sizeof(d
      +                          buf)) {
  2043   00270C  0E50               	movlw	80
  2044   00270E  1992               	xorwf	vfpfcnvrt@c& (0+255),w,b
  2045   002710  A4D8               	btfss	status,2,c
  2046   002712  EF8D  F013         	goto	u5971
  2047   002716  EF8F  F013         	goto	u5970
  2048   00271A                     u5971:
  2049   00271A  EF75  F013         	goto	l5397
  2050   00271E                     u5970:
  2051   00271E  EF63  F014         	goto	l1295
  2052   002722                     l5403:
  2053                           
  2054                           ; BSR set to: 0
  2055                           ;/opt/microchip/xc8/v2.45/pic/sources/c99/common/doprnt.c: 1689:   cp = *fmt;
  2056   002722  5056               	movf	vfpfcnvrt@fmt^0,w,c
  2057   002724  6ED9               	movwf	fsr2l,c
  2058   002726  6ADA               	clrf	fsr2h,c
  2059   002728  50DF               	movf	indf2,w,c
  2060   00272A  6F91               	movwf	vfpfcnvrt@cp& (0+255),b
  2061   00272C                     
  2062                           ; BSR set to: 0
  2063                           ;/opt/microchip/xc8/v2.45/pic/sources/c99/common/doprnt.c: 1690:   c = *cp;
  2064   00272C  C091  FFF6         	movff	vfpfcnvrt@cp,tblptrl
  2065   002730                     	if	1	;There is more than 1 active tblptr byte
  2066   002730  0E0F               	movlw	high __smallconst
  2067   002732  6EF7               	movwf	tblptrh,c
  2068   002734                     	endif
  2069   002734                     	if	0	;tblptru may be non-zero
  2070   002734                     	endif
  2071   002734                     	if	1	;Program memory is > 0xFFFF, there are 3 active tblptr bytes
  2072   002734  0E00               	movlw	low (__smallconst shr (0+16))
  2073   002736  6EF8               	movwf	tblptru,c
  2074   002738                     	endif
  2075   002738  0008               	tblrd		*
  2076   00273A  CFF5 F092          	movff	tablat,vfpfcnvrt@c
  2077                           
  2078                           ;/opt/microchip/xc8/v2.45/pic/sources/c99/common/doprnt.c: 1691:   switch(c) {
  2079   00273E  EFAC  F013         	goto	l5415
  2080   002742                     l5407:
  2081                           
  2082                           ; BSR set to: 0
  2083                           ;/opt/microchip/xc8/v2.45/pic/sources/c99/common/doprnt.c: 1695:     cp++;
  2084   002742  2B91               	incf	vfpfcnvrt@cp& (0+255),f,b
  2085                           
  2086                           ;/opt/microchip/xc8/v2.45/pic/sources/c99/common/doprnt.c: 1696:     break;
  2087   002744  EFC5  F013         	goto	l5417
  2088   002748                     l5409:
  2089                           
  2090                           ; BSR set to: 0
  2091                           ;/opt/microchip/xc8/v2.45/pic/sources/c99/common/doprnt.c: 1721:     c = 'l';
  2092   002748  0E6C               	movlw	108
  2093   00274A  6F92               	movwf	vfpfcnvrt@c& (0+255),b
  2094                           
  2095                           ;/opt/microchip/xc8/v2.45/pic/sources/c99/common/doprnt.c: 1722:     break;
  2096   00274C  EFC5  F013         	goto	l5417
  2097   002750                     l5411:
  2098                           
  2099                           ; BSR set to: 0
  2100                           ;/opt/microchip/xc8/v2.45/pic/sources/c99/common/doprnt.c: 1724:     c = 0;
  2101   002750  0E00               	movlw	0
  2102   002752  6F92               	movwf	vfpfcnvrt@c& (0+255),b
  2103                           
  2104                           ;/opt/microchip/xc8/v2.45/pic/sources/c99/common/doprnt.c: 1725:     break;
  2105   002754  EFC5  F013         	goto	l5417
  2106   002758                     l5415:
  2107                           
  2108                           ; BSR set to: 0
  2109   002758  5192               	movf	vfpfcnvrt@c& (0+255),w,b
  2110   00275A  6E58               	movwf	??_vfpfcnvrt^0,c
  2111   00275C  6A59               	clrf	(??_vfpfcnvrt+1)^0,c
  2112                           
  2113                           ; Switch on 2 bytes has been partitioned into a top level switch of size 1, and 1 sub-sw
      +                          itches
  2114                           ; Switch size 1, requested type "simple"
  2115                           ; Number of cases is 1, Range of values is 0 to 0
  2116                           ; switch strategies available:
  2117                           ; Name         Instructions Cycles
  2118                           ; simple_byte            4     3 (average)
  2119                           ;	Chosen strategy is simple_byte
  2120   00275E  5059               	movf	(??_vfpfcnvrt+1)^0,w,c
  2121   002760  0A00               	xorlw	0	; case 0
  2122   002762  B4D8               	btfsc	status,2,c
  2123   002764  EFB6  F013         	goto	l5961
  2124   002768  EFA8  F013         	goto	l5411
  2125   00276C                     l5961:
  2126                           
  2127                           ; BSR set to: 0
  2128                           ; Switch size 1, requested type "simple"
  2129                           ; Number of cases is 3, Range of values is 76 to 108
  2130                           ; switch strategies available:
  2131                           ; Name         Instructions Cycles
  2132                           ; simple_byte           10     6 (average)
  2133                           ;	Chosen strategy is simple_byte
  2134   00276C  5058               	movf	??_vfpfcnvrt^0,w,c
  2135   00276E  0A4C               	xorlw	76	; case 76
  2136   002770  B4D8               	btfsc	status,2,c
  2137   002772  EFA1  F013         	goto	l5407
  2138   002776  0A2A               	xorlw	42	; case 102
  2139   002778  B4D8               	btfsc	status,2,c
  2140   00277A  EFA4  F013         	goto	l5409
  2141   00277E  0A0A               	xorlw	10	; case 108
  2142   002780  B4D8               	btfsc	status,2,c
  2143   002782  EFA1  F013         	goto	l5407
  2144   002786  EFA8  F013         	goto	l5411
  2145   00278A                     l5417:
  2146                           
  2147                           ; BSR set to: 0
  2148   00278A  C091  FFF6         	movff	vfpfcnvrt@cp,tblptrl
  2149   00278E                     	if	1	;There is more than 1 active tblptr byte
  2150   00278E  0E0F               	movlw	high __smallconst
  2151   002790  6EF7               	movwf	tblptrh,c
  2152   002792                     	endif
  2153   002792                     	if	0	;tblptru may be non-zero
  2154   002792                     	endif
  2155   002792                     	if	1	;Program memory is > 0xFFFF, there are 3 active tblptr bytes
  2156   002792  0E00               	movlw	low (__smallconst shr (0+16))
  2157   002794  6EF8               	movwf	tblptru,c
  2158   002796                     	endif
  2159   002796  0008               	tblrd		*
  2160   002798  50F5               	movf	tablat,w,c
  2161   00279A  0A66               	xorlw	102
  2162   00279C  A4D8               	btfss	status,2,c
  2163   00279E  EFD3  F013         	goto	u5981
  2164   0027A2  EFD5  F013         	goto	u5980
  2165   0027A6                     u5981:
  2166   0027A6  EF4A  F014         	goto	l5437
  2167   0027AA                     u5980:
  2168   0027AA  EFFF  F013         	goto	l5425
  2169   0027AE                     l5419:
  2170                           
  2171                           ; BSR set to: 0
  2172                           ;/opt/microchip/xc8/v2.45/pic/sources/c99/common/doprnt.c: 1756:      convarg.f = (long 
      +                          double)(*(double *)__va_arg(*(double **)ap, (double)0));
  2173   0027AE  5057               	movf	vfpfcnvrt@ap^0,w,c
  2174   0027B0  6ED9               	movwf	fsr2l,c
  2175   0027B2  6ADA               	clrf	fsr2h,c
  2176   0027B4  CFDF F058          	movff	indf2,??_vfpfcnvrt
  2177   0027B8  0E04               	movlw	4
  2178   0027BA  26DF               	addwf	indf2,f,c
  2179   0027BC  5058               	movf	??_vfpfcnvrt^0,w,c
  2180   0027BE  6ED9               	movwf	fsr2l,c
  2181   0027C0  6ADA               	clrf	fsr2h,c
  2182   0027C2  CFDE F08D          	movff	postinc2,vfpfcnvrt@convarg
  2183   0027C6  CFDE F08E          	movff	postinc2,vfpfcnvrt@convarg+1
  2184   0027CA  CFDE F08F          	movff	postinc2,vfpfcnvrt@convarg+2
  2185   0027CE  CFDE F090          	movff	postinc2,vfpfcnvrt@convarg+3
  2186                           
  2187                           ;/opt/microchip/xc8/v2.45/pic/sources/c99/common/doprnt.c: 1757:      break;
  2188   0027D2  EF14  F014         	goto	l5427
  2189   0027D6                     l5421:
  2190                           
  2191                           ; BSR set to: 0
  2192                           ;/opt/microchip/xc8/v2.45/pic/sources/c99/common/doprnt.c: 1759:      convarg.f = (long 
      +                          double)(*(long double *)__va_arg(*(long double **)ap, (long double)0));
  2193   0027D6  5057               	movf	vfpfcnvrt@ap^0,w,c
  2194   0027D8  6ED9               	movwf	fsr2l,c
  2195   0027DA  6ADA               	clrf	fsr2h,c
  2196   0027DC  CFDF F058          	movff	indf2,??_vfpfcnvrt
  2197   0027E0  0E04               	movlw	4
  2198   0027E2  26DF               	addwf	indf2,f,c
  2199   0027E4  5058               	movf	??_vfpfcnvrt^0,w,c
  2200   0027E6  6ED9               	movwf	fsr2l,c
  2201   0027E8  6ADA               	clrf	fsr2h,c
  2202   0027EA  CFDE F08D          	movff	postinc2,vfpfcnvrt@convarg
  2203   0027EE  CFDE F08E          	movff	postinc2,vfpfcnvrt@convarg+1
  2204   0027F2  CFDE F08F          	movff	postinc2,vfpfcnvrt@convarg+2
  2205   0027F6  CFDE F090          	movff	postinc2,vfpfcnvrt@convarg+3
  2206                           
  2207                           ;/opt/microchip/xc8/v2.45/pic/sources/c99/common/doprnt.c: 1760:      break;
  2208   0027FA  EF14  F014         	goto	l5427
  2209   0027FE                     l5425:
  2210                           
  2211                           ; BSR set to: 0
  2212   0027FE  5192               	movf	vfpfcnvrt@c& (0+255),w,b
  2213   002800  6E58               	movwf	??_vfpfcnvrt^0,c
  2214   002802  6A59               	clrf	(??_vfpfcnvrt+1)^0,c
  2215                           
  2216                           ; Switch on 2 bytes has been partitioned into a top level switch of size 1, and 1 sub-sw
      +                          itches
  2217                           ; Switch size 1, requested type "simple"
  2218                           ; Number of cases is 1, Range of values is 0 to 0
  2219                           ; switch strategies available:
  2220                           ; Name         Instructions Cycles
  2221                           ; simple_byte            4     3 (average)
  2222                           ;	Chosen strategy is simple_byte
  2223   002804  5059               	movf	(??_vfpfcnvrt+1)^0,w,c
  2224   002806  0A00               	xorlw	0	; case 0
  2225   002808  B4D8               	btfsc	status,2,c
  2226   00280A  EF09  F014         	goto	l5963
  2227   00280E  EF14  F014         	goto	l5427
  2228   002812                     l5963:
  2229                           
  2230                           ; BSR set to: 0
  2231                           ; Switch size 1, requested type "simple"
  2232                           ; Number of cases is 2, Range of values is 76 to 108
  2233                           ; switch strategies available:
  2234                           ; Name         Instructions Cycles
  2235                           ; simple_byte            7     4 (average)
  2236                           ;	Chosen strategy is simple_byte
  2237   002812  5058               	movf	??_vfpfcnvrt^0,w,c
  2238   002814  0A4C               	xorlw	76	; case 76
  2239   002816  B4D8               	btfsc	status,2,c
  2240   002818  EFEB  F013         	goto	l5421
  2241   00281C  0A20               	xorlw	32	; case 108
  2242   00281E  B4D8               	btfsc	status,2,c
  2243   002820  EFD7  F013         	goto	l5419
  2244   002824  EF14  F014         	goto	l5427
  2245   002828                     l5427:
  2246                           
  2247                           ; BSR set to: 0
  2248                           ;/opt/microchip/xc8/v2.45/pic/sources/c99/common/doprnt.c: 1762:    *fmt = cp+1;
  2249   002828  5056               	movf	vfpfcnvrt@fmt^0,w,c
  2250   00282A  6ED9               	movwf	fsr2l,c
  2251   00282C  6ADA               	clrf	fsr2h,c
  2252   00282E  2991               	incf	vfpfcnvrt@cp& (0+255),w,b
  2253   002830  6EDF               	movwf	indf2,c
  2254                           
  2255                           ;/opt/microchip/xc8/v2.45/pic/sources/c99/common/doprnt.c: 1763:    switch (*cp) {
  2256   002832  EF32  F014         	goto	l5435
  2257   002836                     l5429:
  2258                           
  2259                           ; BSR set to: 0
  2260                           ;/opt/microchip/xc8/v2.45/pic/sources/c99/common/doprnt.c: 1790:      return (void) efgt
      +                          oa(fp, convarg.f, *cp);;	Return value of _vfpfcnvrt is never used
  2261   002836  C055  F04D         	movff	vfpfcnvrt@fp,efgtoa@fp
  2262   00283A  C08D  F04E         	movff	vfpfcnvrt@convarg,efgtoa@f
  2263   00283E  C08E  F04F         	movff	vfpfcnvrt@convarg+1,efgtoa@f+1
  2264   002842  C08F  F050         	movff	vfpfcnvrt@convarg+2,efgtoa@f+2
  2265   002846  C090  F051         	movff	vfpfcnvrt@convarg+3,efgtoa@f+3
  2266   00284A  C091  FFF6         	movff	vfpfcnvrt@cp,tblptrl
  2267   00284E                     	if	1	;There is more than 1 active tblptr byte
  2268   00284E  0E0F               	movlw	high __smallconst
  2269   002850  6EF7               	movwf	tblptrh,c
  2270   002852                     	endif
  2271   002852                     	if	0	;tblptru may be non-zero
  2272   002852                     	endif
  2273   002852                     	if	1	;Program memory is > 0xFFFF, there are 3 active tblptr bytes
  2274   002852  0E00               	movlw	low (__smallconst shr (0+16))
  2275   002854  6EF8               	movwf	tblptru,c
  2276   002856                     	endif
  2277   002856  0008               	tblrd		*
  2278   002858  CFF5 F052          	movff	tablat,efgtoa@c
  2279   00285C  EC88  F007         	call	_efgtoa	;wreg free
  2280   002860  EF63  F014         	goto	l1295
  2281   002864                     l5435:
  2282                           
  2283                           ; BSR set to: 0
  2284   002864  C091  FFF6         	movff	vfpfcnvrt@cp,tblptrl
  2285   002868                     	if	1	;There is more than 1 active tblptr byte
  2286   002868  0E0F               	movlw	high __smallconst
  2287   00286A  6EF7               	movwf	tblptrh,c
  2288   00286C                     	endif
  2289   00286C                     	if	0	;tblptru may be non-zero
  2290   00286C                     	endif
  2291   00286C                     	if	1	;Program memory is > 0xFFFF, there are 3 active tblptr bytes
  2292   00286C  0E00               	movlw	low (__smallconst shr (0+16))
  2293   00286E  6EF8               	movwf	tblptru,c
  2294   002870                     	endif
  2295   002870  0008               	tblrd		*
  2296   002872  50F5               	movf	tablat,w,c
  2297   002874  6E58               	movwf	??_vfpfcnvrt^0,c
  2298   002876  6A59               	clrf	(??_vfpfcnvrt+1)^0,c
  2299                           
  2300                           ; Switch on 2 bytes has been partitioned into a top level switch of size 1, and 1 sub-sw
      +                          itches
  2301                           ; Switch size 1, requested type "simple"
  2302                           ; Number of cases is 1, Range of values is 0 to 0
  2303                           ; switch strategies available:
  2304                           ; Name         Instructions Cycles
  2305                           ; simple_byte            4     3 (average)
  2306                           ;	Chosen strategy is simple_byte
  2307   002878  5059               	movf	(??_vfpfcnvrt+1)^0,w,c
  2308   00287A  0A00               	xorlw	0	; case 0
  2309   00287C  B4D8               	btfsc	status,2,c
  2310   00287E  EF43  F014         	goto	l5965
  2311   002882  EF4A  F014         	goto	l5437
  2312   002886                     l5965:
  2313                           
  2314                           ; BSR set to: 0
  2315                           ; Switch size 1, requested type "simple"
  2316                           ; Number of cases is 1, Range of values is 102 to 102
  2317                           ; switch strategies available:
  2318                           ; Name         Instructions Cycles
  2319                           ; simple_byte            4     3 (average)
  2320                           ;	Chosen strategy is simple_byte
  2321   002886  5058               	movf	??_vfpfcnvrt^0,w,c
  2322   002888  0A66               	xorlw	102	; case 102
  2323   00288A  B4D8               	btfsc	status,2,c
  2324   00288C  EF1B  F014         	goto	l5429
  2325   002890  EF4A  F014         	goto	l5437
  2326   002894                     l5437:
  2327                           
  2328                           ;/opt/microchip/xc8/v2.45/pic/sources/c99/common/doprnt.c: 1806:         ++*fmt;
  2329   002894  5056               	movf	vfpfcnvrt@fmt^0,w,c
  2330   002896  6ED9               	movwf	fsr2l,c
  2331   002898  6ADA               	clrf	fsr2h,c
  2332   00289A  2ADF               	incf	indf2,f,c
  2333   00289C  EF63  F014         	goto	l1295
  2334   0028A0                     l5441:
  2335                           
  2336                           ;/opt/microchip/xc8/v2.45/pic/sources/c99/common/doprnt.c: 1811:     fputc((int)(*fmt)[0
      +                          ], fp);
  2337   0028A0  5056               	movf	vfpfcnvrt@fmt^0,w,c
  2338   0028A2  6ED9               	movwf	fsr2l,c
  2339   0028A4  6ADA               	clrf	fsr2h,c
  2340   0028A6  CFDF FFF6          	movff	indf2,tblptrl
  2341   0028AA                     	if	1	;There is more than 1 active tblptr byte
  2342   0028AA  0E0F               	movlw	high __smallconst
  2343   0028AC  6EF7               	movwf	tblptrh,c
  2344   0028AE                     	endif
  2345   0028AE                     	if	0	;tblptru may be non-zero
  2346   0028AE                     	endif
  2347   0028AE                     	if	1	;Program memory is > 0xFFFF, there are 3 active tblptr bytes
  2348   0028AE  0E00               	movlw	low (__smallconst shr (0+16))
  2349   0028B0  6EF8               	movwf	tblptru,c
  2350   0028B2                     	endif
  2351   0028B2  0008               	tblrd		*
  2352   0028B4  50F5               	movf	tablat,w,c
  2353   0028B6  6E03               	movwf	fputc@c^0,c
  2354   0028B8  6A04               	clrf	(fputc@c+1)^0,c
  2355   0028BA  C055  F005         	movff	vfpfcnvrt@fp,fputc@fp
  2356   0028BE  ECA6  F019         	call	_fputc	;wreg free
  2357   0028C2  EF4A  F014         	goto	l5437
  2358   0028C6                     l1295:
  2359   0028C6  0012               	return		;funcret
  2360   0028C8                     __end_of_vfpfcnvrt:
  2361                           	callstack 0
  2362                           
  2363 ;; *************** function _efgtoa *****************
  2364 ;; Defined at:
  2365 ;;		line 587 in file "/opt/microchip/xc8/v2.45/pic/sources/c99/common/doprnt.c"
  2366 ;; Parameters:    Size  Location     Type
  2367 ;;  fp              1   76[COMRAM] PTR struct _IO_FILE
  2368 ;;		 -> sprintf@f(12), 
  2369 ;;  f               4   77[COMRAM] PTR struct _IO_FILE
  2370 ;;  c               1   81[COMRAM] unsigned char 
  2371 ;; Auto vars:     Size  Location     Type
  2372 ;;  u               4   40[BANK0 ] struct flui
  2373 ;;  g               4   34[BANK0 ] struct flui
  2374 ;;  l               4   29[BANK0 ] struct flui
  2375 ;;  h               4   25[BANK0 ] struct flui
  2376 ;;  ou              4   19[BANK0 ] struct flui
  2377 ;;  n               2   38[BANK0 ] int 
  2378 ;;  i               2   23[BANK0 ] int 
  2379 ;;  w               2   17[BANK0 ] int 
  2380 ;;  e               2   15[BANK0 ] int 
  2381 ;;  m               2   13[BANK0 ] int 
  2382 ;;  d               2   11[BANK0 ] int 
  2383 ;;  t               2    4[BANK0 ] int 
  2384 ;;  p               2    2[BANK0 ] int 
  2385 ;;  ne              2    0[BANK0 ] int 
  2386 ;;  sign            1   33[BANK0 ] unsigned char 
  2387 ;;  nmode           1   10[BANK0 ] unsigned char 
  2388 ;;  mode            1    9[BANK0 ] unsigned char 
  2389 ;;  pp              1    8[BANK0 ] unsigned char 
  2390 ;;  esign           1    0        unsigned char 
  2391 ;; Return value:  Size  Location     Type
  2392 ;;                  1    wreg      void 
  2393 ;; Registers used:
  2394 ;;		wreg, fsr1l, fsr1h, fsr2l, fsr2h, status,2, status,0, tblptrl, tblptrh, tblptru, prodl, prodh, cstack
  2395 ;; Tracked objects:
  2396 ;;		On entry : 0/0
  2397 ;;		On exit  : 0/0
  2398 ;;		Unchanged: 0/0
  2399 ;; Data sizes:     COMRAM   BANK0   BANK1   BANK2   BANK3   BANK4   BANK5   BANK6   BANK7   BANK8   BANK9  BANK10  BANK1
      +1  BANK12  BANK14
  2400 ;;      Params:         6       0       0       0       0       0       0       0       0       0       0       0       
      +0       0       0
  2401 ;;      Locals:         0      44       0       0       0       0       0       0       0       0       0       0       
      +0       0       0
  2402 ;;      Temps:          2       0       0       0       0       0       0       0       0       0       0       0       
      +0       0       0
  2403 ;;      Totals:         8      44       0       0       0       0       0       0       0       0       0       0       
      +0       0       0
  2404 ;;Total ram usage:       52 bytes
  2405 ;; Hardware stack levels used: 1
  2406 ;; Hardware stack levels required when called: 5
  2407 ;; This function calls:
  2408 ;;		___fladd
  2409 ;;		___fldiv
  2410 ;;		___fleq
  2411 ;;		___flge
  2412 ;;		___flmul
  2413 ;;		___flneg
  2414 ;;		___flsub
  2415 ;;		___fltol
  2416 ;;		___fpclassifyf
  2417 ;;		_floorf
  2418 ;;		_labs
  2419 ;;		_memcpy
  2420 ;;		_pad
  2421 ;;		_strcpy
  2422 ;; This function is called by:
  2423 ;;		_vfpfcnvrt
  2424 ;; This function uses a non-reentrant model
  2425 ;;
  2426                           
  2427                           	psect	text5
  2428   000F10                     __ptext5:
  2429                           	callstack 0
  2430   000F10                     _efgtoa:
  2431                           	callstack 22
  2432   000F10                     
  2433                           ;/opt/microchip/xc8/v2.45/pic/sources/c99/common/doprnt.c: 587: static void efgtoa(FILE 
      +                          *fp, long double f, char c);/opt/microchip/xc8/v2.45/pic/sources/c99/common/doprnt.c: 58
      +                          8: {;/opt/microchip/xc8/v2.45/pic/sources/c99/common/doprnt.c: 589:     char mode, nmode
      +                          , pp, sign, esign;;/opt/microchip/xc8/v2.45/pic/sources/c99/common/doprnt.c: 590:     in
      +                          t d, e, i, m, n, ne, p, t, w;;/opt/microchip/xc8/v2.45/pic/sources/c99/common/doprnt.c: 
      +                          591:     long double h, l;;/opt/microchip/xc8/v2.45/pic/sources/c99/common/doprnt.c: 592
      +                          :  union flui g, u, ou;
  2434   000F10  0E00               	movlw	0
  2435   000F12  0100               	movlb	0	; () banked
  2436   000F14  6F81               	movwf	efgtoa@sign& (0+255),b
  2437   000F16                     
  2438                           ; BSR set to: 0
  2439                           ;/opt/microchip/xc8/v2.45/pic/sources/c99/common/doprnt.c: 596:     g.f = f;
  2440   000F16  C04E  F082         	movff	efgtoa@f,efgtoa@g
  2441   000F1A  C04F  F083         	movff	efgtoa@f+1,efgtoa@g+1
  2442   000F1E  C050  F084         	movff	efgtoa@f+2,efgtoa@g+2
  2443   000F22  C051  F085         	movff	efgtoa@f+3,efgtoa@g+3
  2444   000F26                     
  2445                           ; BSR set to: 0
  2446                           ;/opt/microchip/xc8/v2.45/pic/sources/c99/common/doprnt.c: 597:     if (g.f < 0.0) {
  2447   000F26  BF85               	btfsc	(efgtoa@g+3)& (0+255),7,b
  2448   000F28  EF9A  F007         	goto	u5550
  2449   000F2C  EF98  F007         	goto	u5551
  2450   000F30                     u5551:
  2451   000F30  EFAE  F007         	goto	l5141
  2452   000F34                     u5550:
  2453   000F34                     
  2454                           ; BSR set to: 0
  2455                           ;/opt/microchip/xc8/v2.45/pic/sources/c99/common/doprnt.c: 598:         sign = 1;
  2456   000F34  0E01               	movlw	1
  2457   000F36  6F81               	movwf	efgtoa@sign& (0+255),b
  2458   000F38                     
  2459                           ; BSR set to: 0
  2460                           ;/opt/microchip/xc8/v2.45/pic/sources/c99/common/doprnt.c: 599:         g.f = -g.f;
  2461   000F38  C082  F001         	movff	efgtoa@g,___flneg@f1
  2462   000F3C  C083  F002         	movff	efgtoa@g+1,___flneg@f1+1
  2463   000F40  C084  F003         	movff	efgtoa@g+2,___flneg@f1+2
  2464   000F44  C085  F004         	movff	efgtoa@g+3,___flneg@f1+3
  2465   000F48  EC9E  F01C         	call	___flneg	;wreg free
  2466   000F4C  C001  F082         	movff	?___flneg,efgtoa@g
  2467   000F50  C002  F083         	movff	?___flneg+1,efgtoa@g+1
  2468   000F54  C003  F084         	movff	?___flneg+2,efgtoa@g+2
  2469   000F58  C004  F085         	movff	?___flneg+3,efgtoa@g+3
  2470   000F5C                     l5141:
  2471                           
  2472                           ;/opt/microchip/xc8/v2.45/pic/sources/c99/common/doprnt.c: 603:     n = 0;
  2473   000F5C  0E00               	movlw	0
  2474   000F5E  0100               	movlb	0	; () banked
  2475   000F60  6F87               	movwf	(efgtoa@n+1)& (0+255),b
  2476   000F62  0E00               	movlw	0
  2477   000F64  6F86               	movwf	efgtoa@n& (0+255),b
  2478   000F66                     
  2479                           ; BSR set to: 0
  2480                           ;/opt/microchip/xc8/v2.45/pic/sources/c99/common/doprnt.c: 604:     w = width;
  2481   000F66  C0B2  F071         	movff	_width,efgtoa@w
  2482   000F6A  C0B3  F072         	movff	_width+1,efgtoa@w+1
  2483   000F6E                     
  2484                           ; BSR set to: 0
  2485                           ;/opt/microchip/xc8/v2.45/pic/sources/c99/common/doprnt.c: 605:     if (sign
  2486   000F6E  5181               	movf	efgtoa@sign& (0+255),w,b
  2487   000F70  B4D8               	btfsc	status,2,c
  2488   000F72  EFBD  F007         	goto	u5561
  2489   000F76  EFBF  F007         	goto	u5560
  2490   000F7A                     u5561:
  2491   000F7A  EFD3  F007         	goto	l5155
  2492   000F7E                     u5560:
  2493   000F7E                     
  2494                           ; BSR set to: 0
  2495                           ;/opt/microchip/xc8/v2.45/pic/sources/c99/common/doprnt.c: 609:    ) {;/opt/microchip/xc
      +                          8/v2.45/pic/sources/c99/common/doprnt.c: 610:   sign = sign ? '-' : '+';
  2496   000F7E  5181               	movf	efgtoa@sign& (0+255),w,b
  2497   000F80  A4D8               	btfss	status,2,c
  2498   000F82  EFC5  F007         	goto	u5571
  2499   000F86  EFC7  F007         	goto	u5570
  2500   000F8A                     u5571:
  2501   000F8A  EFCD  F007         	goto	l5151
  2502   000F8E                     u5570:
  2503   000F8E                     
  2504                           ; BSR set to: 0
  2505   000F8E  0E00               	movlw	0
  2506   000F90  6F67               	movwf	(_efgtoa$1472+1)& (0+255),b
  2507   000F92  0E2B               	movlw	43
  2508   000F94  6F66               	movwf	_efgtoa$1472& (0+255),b
  2509   000F96  EFD1  F007         	goto	l5153
  2510   000F9A                     l5151:
  2511                           
  2512                           ; BSR set to: 0
  2513   000F9A  0E00               	movlw	0
  2514   000F9C  6F67               	movwf	(_efgtoa$1472+1)& (0+255),b
  2515   000F9E  0E2D               	movlw	45
  2516   000FA0  6F66               	movwf	_efgtoa$1472& (0+255),b
  2517   000FA2                     l5153:
  2518                           
  2519                           ; BSR set to: 0
  2520   000FA2  C066  F081         	movff	_efgtoa$1472,efgtoa@sign
  2521   000FA6                     l5155:
  2522                           
  2523                           ; BSR set to: 0
  2524                           ;/opt/microchip/xc8/v2.45/pic/sources/c99/common/doprnt.c: 619:     if (( __fpclassifyf(
      +                          g.f) == 1 )) {
  2525   000FA6  C082  F001         	movff	efgtoa@g,___fpclassifyf@x
  2526   000FAA  C083  F002         	movff	efgtoa@g+1,___fpclassifyf@x+1
  2527   000FAE  C084  F003         	movff	efgtoa@g+2,___fpclassifyf@x+2
  2528   000FB2  C085  F004         	movff	efgtoa@g+3,___fpclassifyf@x+3
  2529   000FB6  ECC5  F018         	call	___fpclassifyf	;wreg free
  2530   000FBA  0401               	decf	?___fpclassifyf^0,w,c
  2531   000FBC  1002               	iorwf	(?___fpclassifyf+1)^0,w,c
  2532   000FBE  A4D8               	btfss	status,2,c
  2533   000FC0  EFE4  F007         	goto	u5581
  2534   000FC4  EFE6  F007         	goto	u5580
  2535   000FC8                     u5581:
  2536   000FC8  EF15  F008         	goto	l5173
  2537   000FCC                     u5580:
  2538   000FCC                     
  2539                           ;/opt/microchip/xc8/v2.45/pic/sources/c99/common/doprnt.c: 620:   if (sign) {
  2540   000FCC  0100               	movlb	0	; () banked
  2541   000FCE  5181               	movf	efgtoa@sign& (0+255),w,b
  2542   000FD0  B4D8               	btfsc	status,2,c
  2543   000FD2  EFED  F007         	goto	u5591
  2544   000FD6  EFEF  F007         	goto	u5590
  2545   000FDA                     u5591:
  2546   000FDA  EFF8  F007         	goto	l5165
  2547   000FDE                     u5590:
  2548   000FDE                     
  2549                           ; BSR set to: 0
  2550                           ;/opt/microchip/xc8/v2.45/pic/sources/c99/common/doprnt.c: 621:    dbuf[0] = sign;
  2551   000FDE  C081  F100         	movff	efgtoa@sign,_dbuf
  2552   000FE2                     
  2553                           ; BSR set to: 0
  2554                           ;/opt/microchip/xc8/v2.45/pic/sources/c99/common/doprnt.c: 622:    w--;
  2555   000FE2  0771               	decf	efgtoa@w& (0+255),f,b
  2556   000FE4  A0D8               	btfss	status,0,c
  2557   000FE6  0772               	decf	(efgtoa@w+1)& (0+255),f,b
  2558   000FE8                     
  2559                           ; BSR set to: 0
  2560                           ;/opt/microchip/xc8/v2.45/pic/sources/c99/common/doprnt.c: 623:    n = 1;
  2561   000FE8  0E00               	movlw	0
  2562   000FEA  6F87               	movwf	(efgtoa@n+1)& (0+255),b
  2563   000FEC  0E01               	movlw	1
  2564   000FEE  6F86               	movwf	efgtoa@n& (0+255),b
  2565   000FF0                     l5165:
  2566                           
  2567                           ; BSR set to: 0
  2568                           ;/opt/microchip/xc8/v2.45/pic/sources/c99/common/doprnt.c: 631:   {;/opt/microchip/xc8/v
      +                          2.45/pic/sources/c99/common/doprnt.c: 632:             strcpy(&dbuf[n], "inf");
  2569   000FF0  0E00               	movlw	low _dbuf
  2570   000FF2  2586               	addwf	efgtoa@n& (0+255),w,b
  2571   000FF4  6E01               	movwf	strcpy@dest^0,c
  2572   000FF6  0E01               	movlw	high _dbuf
  2573   000FF8  2187               	addwfc	(efgtoa@n+1)& (0+255),w,b
  2574   000FFA  6E02               	movwf	(strcpy@dest+1)^0,c
  2575   000FFC  0E01               	movlw	low STR_3
  2576   000FFE  6E03               	movwf	strcpy@src^0,c
  2577   001000  EC7F  F01C         	call	_strcpy	;wreg free
  2578   001004                     l5167:
  2579                           
  2580                           ;/opt/microchip/xc8/v2.45/pic/sources/c99/common/doprnt.c: 633:         };/opt/microchip
      +                          /xc8/v2.45/pic/sources/c99/common/doprnt.c: 634:         w -= ((sizeof("inf")/sizeof("in
      +                          f"[0]))-1);
  2581   001004  0100               	movlb	0	; () banked
  2582   001006  0EFD               	movlw	253
  2583   001008  2771               	addwf	efgtoa@w& (0+255),f,b
  2584   00100A  0EFF               	movlw	255
  2585   00100C  2372               	addwfc	(efgtoa@w+1)& (0+255),f,b
  2586   00100E                     
  2587                           ; BSR set to: 0
  2588                           ;/opt/microchip/xc8/v2.45/pic/sources/c99/common/doprnt.c: 635:         return (void) pa
      +                          d(fp, &dbuf[0], w);
  2589   00100E  C04D  F011         	movff	efgtoa@fp,pad@fp
  2590   001012  0E00               	movlw	low _dbuf
  2591   001014  6E12               	movwf	pad@buf^0,c
  2592   001016  0E01               	movlw	high _dbuf
  2593   001018  6E13               	movwf	(pad@buf+1)^0,c
  2594   00101A  C071  F014         	movff	efgtoa@w,pad@p
  2595   00101E  C072  F015         	movff	efgtoa@w+1,pad@p+1
  2596   001022  ECF7  F01A         	call	_pad	;wreg free
  2597   001026  EF7B  F00C         	goto	l1239
  2598   00102A                     l5173:
  2599                           
  2600                           ;/opt/microchip/xc8/v2.45/pic/sources/c99/common/doprnt.c: 637:     if (( __fpclassifyf(
      +                          g.f) == 0 )) {
  2601   00102A  C082  F001         	movff	efgtoa@g,___fpclassifyf@x
  2602   00102E  C083  F002         	movff	efgtoa@g+1,___fpclassifyf@x+1
  2603   001032  C084  F003         	movff	efgtoa@g+2,___fpclassifyf@x+2
  2604   001036  C085  F004         	movff	efgtoa@g+3,___fpclassifyf@x+3
  2605   00103A  ECC5  F018         	call	___fpclassifyf	;wreg free
  2606   00103E  5001               	movf	?___fpclassifyf^0,w,c
  2607   001040  1002               	iorwf	(?___fpclassifyf+1)^0,w,c
  2608   001042  A4D8               	btfss	status,2,c
  2609   001044  EF26  F008         	goto	u5601
  2610   001048  EF28  F008         	goto	u5600
  2611   00104C                     u5601:
  2612   00104C  EF46  F008         	goto	l5191
  2613   001050                     u5600:
  2614   001050                     
  2615                           ;/opt/microchip/xc8/v2.45/pic/sources/c99/common/doprnt.c: 638:   if (sign) {
  2616   001050  0100               	movlb	0	; () banked
  2617   001052  5181               	movf	efgtoa@sign& (0+255),w,b
  2618   001054  B4D8               	btfsc	status,2,c
  2619   001056  EF2F  F008         	goto	u5611
  2620   00105A  EF31  F008         	goto	u5610
  2621   00105E                     u5611:
  2622   00105E  EF3A  F008         	goto	l5183
  2623   001062                     u5610:
  2624   001062                     
  2625                           ; BSR set to: 0
  2626                           ;/opt/microchip/xc8/v2.45/pic/sources/c99/common/doprnt.c: 639:    dbuf[0] = sign;
  2627   001062  C081  F100         	movff	efgtoa@sign,_dbuf
  2628   001066                     
  2629                           ; BSR set to: 0
  2630                           ;/opt/microchip/xc8/v2.45/pic/sources/c99/common/doprnt.c: 640:    w--;
  2631   001066  0771               	decf	efgtoa@w& (0+255),f,b
  2632   001068  A0D8               	btfss	status,0,c
  2633   00106A  0772               	decf	(efgtoa@w+1)& (0+255),f,b
  2634   00106C                     
  2635                           ; BSR set to: 0
  2636                           ;/opt/microchip/xc8/v2.45/pic/sources/c99/common/doprnt.c: 641:    n = 1;
  2637   00106C  0E00               	movlw	0
  2638   00106E  6F87               	movwf	(efgtoa@n+1)& (0+255),b
  2639   001070  0E01               	movlw	1
  2640   001072  6F86               	movwf	efgtoa@n& (0+255),b
  2641   001074                     l5183:
  2642                           
  2643                           ; BSR set to: 0
  2644                           ;/opt/microchip/xc8/v2.45/pic/sources/c99/common/doprnt.c: 649:   {;/opt/microchip/xc8/v
      +                          2.45/pic/sources/c99/common/doprnt.c: 650:             strcpy(&dbuf[n], "nan");
  2645   001074  0E00               	movlw	low _dbuf
  2646   001076  2586               	addwf	efgtoa@n& (0+255),w,b
  2647   001078  6E01               	movwf	strcpy@dest^0,c
  2648   00107A  0E01               	movlw	high _dbuf
  2649   00107C  2187               	addwfc	(efgtoa@n+1)& (0+255),w,b
  2650   00107E  6E02               	movwf	(strcpy@dest+1)^0,c
  2651   001080  0E05               	movlw	low STR_6
  2652   001082  6E03               	movwf	strcpy@src^0,c
  2653   001084  EC7F  F01C         	call	_strcpy	;wreg free
  2654   001088  EF02  F008         	goto	l5167
  2655   00108C                     l5191:
  2656                           
  2657                           ;/opt/microchip/xc8/v2.45/pic/sources/c99/common/doprnt.c: 657:     u.f = 1.0;
  2658   00108C  0E00               	movlw	0
  2659   00108E  0100               	movlb	0	; () banked
  2660   001090  6F88               	movwf	efgtoa@u& (0+255),b
  2661   001092  0E00               	movlw	0
  2662   001094  6F89               	movwf	(efgtoa@u+1)& (0+255),b
  2663   001096  0E80               	movlw	128
  2664   001098  6F8A               	movwf	(efgtoa@u+2)& (0+255),b
  2665   00109A  0E3F               	movlw	63
  2666   00109C  6F8B               	movwf	(efgtoa@u+3)& (0+255),b
  2667                           
  2668                           ;/opt/microchip/xc8/v2.45/pic/sources/c99/common/doprnt.c: 658:     e = 0;
  2669   00109E  0E00               	movlw	0
  2670   0010A0  6F70               	movwf	(efgtoa@e+1)& (0+255),b
  2671   0010A2  0E00               	movlw	0
  2672   0010A4  6F6F               	movwf	efgtoa@e& (0+255),b
  2673   0010A6                     
  2674                           ; BSR set to: 0
  2675                           ;/opt/microchip/xc8/v2.45/pic/sources/c99/common/doprnt.c: 659:  if (!(g.f == 0.0)) {
  2676   0010A6  C082  F001         	movff	efgtoa@g,___fleq@ff1
  2677   0010AA  C083  F002         	movff	efgtoa@g+1,___fleq@ff1+1
  2678   0010AE  C084  F003         	movff	efgtoa@g+2,___fleq@ff1+2
  2679   0010B2  C085  F004         	movff	efgtoa@g+3,___fleq@ff1+3
  2680   0010B6  0E00               	movlw	0
  2681   0010B8  6E05               	movwf	___fleq@ff2^0,c
  2682   0010BA  0E00               	movlw	0
  2683   0010BC  6E06               	movwf	(___fleq@ff2+1)^0,c
  2684   0010BE  0E00               	movlw	0
  2685   0010C0  6E07               	movwf	(___fleq@ff2+2)^0,c
  2686   0010C2  0E00               	movlw	0
  2687   0010C4  6E08               	movwf	(___fleq@ff2+3)^0,c
  2688   0010C6  EC5B  F01A         	call	___fleq	;wreg free
  2689   0010CA  B0D8               	btfsc	status,0,c
  2690   0010CC  EF6A  F008         	goto	u5621
  2691   0010D0  EF6C  F008         	goto	u5620
  2692   0010D4                     u5621:
  2693   0010D4  EF4B  F009         	goto	l1242
  2694   0010D8                     u5620:
  2695   0010D8  EF79  F008         	goto	l5199
  2696   0010DC                     l1244:
  2697                           
  2698                           ;/opt/microchip/xc8/v2.45/pic/sources/c99/common/doprnt.c: 661:    u = ou;
  2699   0010DC  C073  F088         	movff	efgtoa@ou,efgtoa@u
  2700   0010E0  C074  F089         	movff	efgtoa@ou+1,efgtoa@u+1
  2701   0010E4  C075  F08A         	movff	efgtoa@ou+2,efgtoa@u+2
  2702   0010E8  C076  F08B         	movff	efgtoa@ou+3,efgtoa@u+3
  2703   0010EC                     
  2704                           ;/opt/microchip/xc8/v2.45/pic/sources/c99/common/doprnt.c: 662:    ++e;
  2705   0010EC  0100               	movlb	0	; () banked
  2706   0010EE  4B6F               	infsnz	efgtoa@e& (0+255),f,b
  2707   0010F0  2B70               	incf	(efgtoa@e+1)& (0+255),f,b
  2708   0010F2                     l5199:
  2709                           
  2710                           ;/opt/microchip/xc8/v2.45/pic/sources/c99/common/doprnt.c: 660:   while ((labs((g).u-((o
      +                          u.f = u.f*10.0,ou)).u) <= 1) || g.f > ou.f) {
  2711   0010F2  C088  F028         	movff	efgtoa@u,___flmul@b
  2712   0010F6  C089  F029         	movff	efgtoa@u+1,___flmul@b+1
  2713   0010FA  C08A  F02A         	movff	efgtoa@u+2,___flmul@b+2
  2714   0010FE  C08B  F02B         	movff	efgtoa@u+3,___flmul@b+3
  2715   001102  0E00               	movlw	0
  2716   001104  6E2C               	movwf	___flmul@a^0,c
  2717   001106  0E00               	movlw	0
  2718   001108  6E2D               	movwf	(___flmul@a+1)^0,c
  2719   00110A  0E20               	movlw	32
  2720   00110C  6E2E               	movwf	(___flmul@a+2)^0,c
  2721   00110E  0E41               	movlw	65
  2722   001110  6E2F               	movwf	(___flmul@a+3)^0,c
  2723   001112  ECDC  F00E         	call	___flmul	;wreg free
  2724   001116  C028  F073         	movff	?___flmul,efgtoa@ou
  2725   00111A  C029  F074         	movff	?___flmul+1,efgtoa@ou+1
  2726   00111E  C02A  F075         	movff	?___flmul+2,efgtoa@ou+2
  2727   001122  C02B  F076         	movff	?___flmul+3,efgtoa@ou+3
  2728   001126  0100               	movlb	0	; () banked
  2729   001128  5173               	movf	efgtoa@ou& (0+255),w,b
  2730   00112A  5D82               	subwf	efgtoa@g& (0+255),w,b
  2731   00112C  6E01               	movwf	labs@a^0,c
  2732   00112E  5174               	movf	(efgtoa@ou+1)& (0+255),w,b
  2733   001130  5983               	subwfb	(efgtoa@g+1)& (0+255),w,b
  2734   001132  6E02               	movwf	(labs@a+1)^0,c
  2735   001134  5175               	movf	(efgtoa@ou+2)& (0+255),w,b
  2736   001136  5984               	subwfb	(efgtoa@g+2)& (0+255),w,b
  2737   001138  6E03               	movwf	(labs@a+2)^0,c
  2738   00113A  5176               	movf	(efgtoa@ou+3)& (0+255),w,b
  2739   00113C  5985               	subwfb	(efgtoa@g+3)& (0+255),w,b
  2740   00113E  6E04               	movwf	(labs@a+3)^0,c
  2741   001140  EC58  F01B         	call	_labs	;wreg free
  2742   001144  BE04               	btfsc	(?_labs+3)^0,7,c
  2743   001146  EFB0  F008         	goto	u5631
  2744   00114A  5004               	movf	(?_labs+3)^0,w,c
  2745   00114C  1003               	iorwf	(?_labs+2)^0,w,c
  2746   00114E  1002               	iorwf	(?_labs+1)^0,w,c
  2747   001150  E109               	bnz	u5630
  2748   001152  0E02               	movlw	2
  2749   001154  5C01               	subwf	?_labs^0,w,c
  2750   001156  A0D8               	btfss	status,0,c
  2751   001158  EFB0  F008         	goto	u5631
  2752   00115C  EFB2  F008         	goto	u5630
  2753   001160                     u5631:
  2754   001160  EF6E  F008         	goto	l1244
  2755   001164                     u5630:
  2756   001164  C073  F041         	movff	efgtoa@ou,___flge@ff1
  2757   001168  C074  F042         	movff	efgtoa@ou+1,___flge@ff1+1
  2758   00116C  C075  F043         	movff	efgtoa@ou+2,___flge@ff1+2
  2759   001170  C076  F044         	movff	efgtoa@ou+3,___flge@ff1+3
  2760   001174  C082  F045         	movff	efgtoa@g,___flge@ff2
  2761   001178  C083  F046         	movff	efgtoa@g+1,___flge@ff2+1
  2762   00117C  C084  F047         	movff	efgtoa@g+2,___flge@ff2+2
  2763   001180  C085  F048         	movff	efgtoa@g+3,___flge@ff2+3
  2764   001184  EC43  F018         	call	___flge	;wreg free
  2765   001188  A0D8               	btfss	status,0,c
  2766   00118A  EFC9  F008         	goto	u5641
  2767   00118E  EFCB  F008         	goto	u5640
  2768   001192                     u5641:
  2769   001192  EF6E  F008         	goto	l1244
  2770   001196                     u5640:
  2771   001196                     
  2772                           ;/opt/microchip/xc8/v2.45/pic/sources/c99/common/doprnt.c: 664:   if ((labs((g).u-(u).u)
      +                           <= 1)) {
  2773   001196  0100               	movlb	0	; () banked
  2774   001198  5188               	movf	efgtoa@u& (0+255),w,b
  2775   00119A  5D82               	subwf	efgtoa@g& (0+255),w,b
  2776   00119C  6E01               	movwf	labs@a^0,c
  2777   00119E  5189               	movf	(efgtoa@u+1)& (0+255),w,b
  2778   0011A0  5983               	subwfb	(efgtoa@g+1)& (0+255),w,b
  2779   0011A2  6E02               	movwf	(labs@a+1)^0,c
  2780   0011A4  518A               	movf	(efgtoa@u+2)& (0+255),w,b
  2781   0011A6  5984               	subwfb	(efgtoa@g+2)& (0+255),w,b
  2782   0011A8  6E03               	movwf	(labs@a+2)^0,c
  2783   0011AA  518B               	movf	(efgtoa@u+3)& (0+255),w,b
  2784   0011AC  5985               	subwfb	(efgtoa@g+3)& (0+255),w,b
  2785   0011AE  6E04               	movwf	(labs@a+3)^0,c
  2786   0011B0  EC58  F01B         	call	_labs	;wreg free
  2787   0011B4  BE04               	btfsc	(?_labs+3)^0,7,c
  2788   0011B6  EFEA  F008         	goto	u5650
  2789   0011BA  5004               	movf	(?_labs+3)^0,w,c
  2790   0011BC  1003               	iorwf	(?_labs+2)^0,w,c
  2791   0011BE  1002               	iorwf	(?_labs+1)^0,w,c
  2792   0011C0  E107               	bnz	u5651
  2793   0011C2  0E02               	movlw	2
  2794   0011C4  5C01               	subwf	?_labs^0,w,c
  2795   0011C6  B0D8               	btfsc	status,0,c
  2796   0011C8  EFE8  F008         	goto	u5651
  2797   0011CC  EFEA  F008         	goto	u5650
  2798   0011D0                     u5651:
  2799   0011D0  EF32  F009         	goto	l5217
  2800   0011D4                     u5650:
  2801   0011D4                     l5207:
  2802                           
  2803                           ;/opt/microchip/xc8/v2.45/pic/sources/c99/common/doprnt.c: 665:    g = u;
  2804   0011D4  C088  F082         	movff	efgtoa@u,efgtoa@g
  2805   0011D8  C089  F083         	movff	efgtoa@u+1,efgtoa@g+1
  2806   0011DC  C08A  F084         	movff	efgtoa@u+2,efgtoa@g+2
  2807   0011E0  C08B  F085         	movff	efgtoa@u+3,efgtoa@g+3
  2808                           
  2809                           ;/opt/microchip/xc8/v2.45/pic/sources/c99/common/doprnt.c: 666:   }
  2810   0011E4  EF4B  F009         	goto	l1242
  2811   0011E8                     l5209:
  2812                           
  2813                           ;/opt/microchip/xc8/v2.45/pic/sources/c99/common/doprnt.c: 669:     u.f = u.f/10.0;
  2814   0011E8  C088  F00F         	movff	efgtoa@u,___fldiv@b
  2815   0011EC  C089  F010         	movff	efgtoa@u+1,___fldiv@b+1
  2816   0011F0  C08A  F011         	movff	efgtoa@u+2,___fldiv@b+2
  2817   0011F4  C08B  F012         	movff	efgtoa@u+3,___fldiv@b+3
  2818   0011F8  0E00               	movlw	0
  2819   0011FA  6E13               	movwf	___fldiv@a^0,c
  2820   0011FC  0E00               	movlw	0
  2821   0011FE  6E14               	movwf	(___fldiv@a+1)^0,c
  2822   001200  0E20               	movlw	32
  2823   001202  6E15               	movwf	(___fldiv@a+2)^0,c
  2824   001204  0E41               	movlw	65
  2825   001206  6E16               	movwf	(___fldiv@a+3)^0,c
  2826   001208  ECF1  F010         	call	___fldiv	;wreg free
  2827   00120C  C00F  F088         	movff	?___fldiv,efgtoa@u
  2828   001210  C010  F089         	movff	?___fldiv+1,efgtoa@u+1
  2829   001214  C011  F08A         	movff	?___fldiv+2,efgtoa@u+2
  2830   001218  C012  F08B         	movff	?___fldiv+3,efgtoa@u+3
  2831   00121C                     
  2832                           ;/opt/microchip/xc8/v2.45/pic/sources/c99/common/doprnt.c: 670:     --e;
  2833   00121C  0100               	movlb	0	; () banked
  2834   00121E  076F               	decf	efgtoa@e& (0+255),f,b
  2835   001220  A0D8               	btfss	status,0,c
  2836   001222  0770               	decf	(efgtoa@e+1)& (0+255),f,b
  2837   001224                     
  2838                           ; BSR set to: 0
  2839                           ;/opt/microchip/xc8/v2.45/pic/sources/c99/common/doprnt.c: 671:     if ((labs((g).u-(u).
      +                          u) <= 1)) {
  2840   001224  5188               	movf	efgtoa@u& (0+255),w,b
  2841   001226  5D82               	subwf	efgtoa@g& (0+255),w,b
  2842   001228  6E01               	movwf	labs@a^0,c
  2843   00122A  5189               	movf	(efgtoa@u+1)& (0+255),w,b
  2844   00122C  5983               	subwfb	(efgtoa@g+1)& (0+255),w,b
  2845   00122E  6E02               	movwf	(labs@a+1)^0,c
  2846   001230  518A               	movf	(efgtoa@u+2)& (0+255),w,b
  2847   001232  5984               	subwfb	(efgtoa@g+2)& (0+255),w,b
  2848   001234  6E03               	movwf	(labs@a+2)^0,c
  2849   001236  518B               	movf	(efgtoa@u+3)& (0+255),w,b
  2850   001238  5985               	subwfb	(efgtoa@g+3)& (0+255),w,b
  2851   00123A  6E04               	movwf	(labs@a+3)^0,c
  2852   00123C  EC58  F01B         	call	_labs	;wreg free
  2853   001240  BE04               	btfsc	(?_labs+3)^0,7,c
  2854   001242  EF30  F009         	goto	u5660
  2855   001246  5004               	movf	(?_labs+3)^0,w,c
  2856   001248  1003               	iorwf	(?_labs+2)^0,w,c
  2857   00124A  1002               	iorwf	(?_labs+1)^0,w,c
  2858   00124C  E107               	bnz	u5661
  2859   00124E  0E02               	movlw	2
  2860   001250  5C01               	subwf	?_labs^0,w,c
  2861   001252  B0D8               	btfsc	status,0,c
  2862   001254  EF2E  F009         	goto	u5661
  2863   001258  EF30  F009         	goto	u5660
  2864   00125C                     u5661:
  2865   00125C  EF32  F009         	goto	l5217
  2866   001260                     u5660:
  2867   001260  EFEA  F008         	goto	l5207
  2868   001264                     l5217:
  2869                           
  2870                           ;/opt/microchip/xc8/v2.45/pic/sources/c99/common/doprnt.c: 668:    while (g.f < u.f) {
  2871   001264  C082  F041         	movff	efgtoa@g,___flge@ff1
  2872   001268  C083  F042         	movff	efgtoa@g+1,___flge@ff1+1
  2873   00126C  C084  F043         	movff	efgtoa@g+2,___flge@ff1+2
  2874   001270  C085  F044         	movff	efgtoa@g+3,___flge@ff1+3
  2875   001274  C088  F045         	movff	efgtoa@u,___flge@ff2
  2876   001278  C089  F046         	movff	efgtoa@u+1,___flge@ff2+1
  2877   00127C  C08A  F047         	movff	efgtoa@u+2,___flge@ff2+2
  2878   001280  C08B  F048         	movff	efgtoa@u+3,___flge@ff2+3
  2879   001284  EC43  F018         	call	___flge	;wreg free
  2880   001288  A0D8               	btfss	status,0,c
  2881   00128A  EF49  F009         	goto	u5671
  2882   00128E  EF4B  F009         	goto	u5670
  2883   001292                     u5671:
  2884   001292  EFF4  F008         	goto	l5209
  2885   001296                     u5670:
  2886   001296                     l1242:
  2887                           
  2888                           ;/opt/microchip/xc8/v2.45/pic/sources/c99/common/doprnt.c: 683:  mode = c;
  2889   001296  C052  F069         	movff	efgtoa@c,efgtoa@mode
  2890                           
  2891                           ;/opt/microchip/xc8/v2.45/pic/sources/c99/common/doprnt.c: 685:     nmode = mode;
  2892   00129A  C069  F06A         	movff	efgtoa@mode,efgtoa@nmode
  2893   00129E                     
  2894                           ;/opt/microchip/xc8/v2.45/pic/sources/c99/common/doprnt.c: 695:  {;/opt/microchip/xc8/v2
      +                          .45/pic/sources/c99/common/doprnt.c: 696:         p = (prec < 0) ? 6 : prec;
  2895   00129E  0100               	movlb	0	; () banked
  2896   0012A0  BFB5               	btfsc	(_prec+1)& (0+255),7,b
  2897   0012A2  EF55  F009         	goto	u5681
  2898   0012A6  EF57  F009         	goto	u5680
  2899   0012AA                     u5681:
  2900   0012AA  EF5D  F009         	goto	l5223
  2901   0012AE                     u5680:
  2902   0012AE                     
  2903                           ; BSR set to: 0
  2904   0012AE  C0B4  F062         	movff	_prec,efgtoa@p
  2905   0012B2  C0B5  F063         	movff	_prec+1,efgtoa@p+1
  2906   0012B6  EF61  F009         	goto	l5225
  2907   0012BA                     l5223:
  2908                           
  2909                           ; BSR set to: 0
  2910   0012BA  0E00               	movlw	0
  2911   0012BC  6F63               	movwf	(efgtoa@p+1)& (0+255),b
  2912   0012BE  0E06               	movlw	6
  2913   0012C0  6F62               	movwf	efgtoa@p& (0+255),b
  2914   0012C2                     l5225:
  2915                           
  2916                           ; BSR set to: 0
  2917                           ;/opt/microchip/xc8/v2.45/pic/sources/c99/common/doprnt.c: 697:     };/opt/microchip/xc8
      +                          /v2.45/pic/sources/c99/common/doprnt.c: 711:     m = p;
  2918   0012C2  C062  F06D         	movff	efgtoa@p,efgtoa@m
  2919   0012C6  C063  F06E         	movff	efgtoa@p+1,efgtoa@m+1
  2920   0012CA                     
  2921                           ; BSR set to: 0
  2922                           ;/opt/microchip/xc8/v2.45/pic/sources/c99/common/doprnt.c: 715:  {;/opt/microchip/xc8/v2
      +                          .45/pic/sources/c99/common/doprnt.c: 716:         ++m;
  2923   0012CA  4B6D               	infsnz	efgtoa@m& (0+255),f,b
  2924   0012CC  2B6E               	incf	(efgtoa@m+1)& (0+255),f,b
  2925   0012CE                     
  2926                           ; BSR set to: 0
  2927                           ;/opt/microchip/xc8/v2.45/pic/sources/c99/common/doprnt.c: 717:     };/opt/microchip/xc8
      +                          /v2.45/pic/sources/c99/common/doprnt.c: 721:     if (nmode == 'f') {
  2928   0012CE  0E66               	movlw	102
  2929   0012D0  196A               	xorwf	efgtoa@nmode& (0+255),w,b
  2930   0012D2  A4D8               	btfss	status,2,c
  2931   0012D4  EF6E  F009         	goto	u5691
  2932   0012D8  EF70  F009         	goto	u5690
  2933   0012DC                     u5691:
  2934   0012DC  EF90  F009         	goto	l5239
  2935   0012E0                     u5690:
  2936   0012E0                     
  2937                           ; BSR set to: 0
  2938                           ;/opt/microchip/xc8/v2.45/pic/sources/c99/common/doprnt.c: 722:         if (e < 0) {
  2939   0012E0  BF70               	btfsc	(efgtoa@e+1)& (0+255),7,b
  2940   0012E2  EF77  F009         	goto	u5700
  2941   0012E6  EF75  F009         	goto	u5701
  2942   0012EA                     u5701:
  2943   0012EA  EF83  F009         	goto	l5235
  2944   0012EE                     u5700:
  2945   0012EE                     
  2946                           ; BSR set to: 0
  2947                           ;/opt/microchip/xc8/v2.45/pic/sources/c99/common/doprnt.c: 723:             u.f = 1.0;
  2948   0012EE  0E00               	movlw	0
  2949   0012F0  6F88               	movwf	efgtoa@u& (0+255),b
  2950   0012F2  0E00               	movlw	0
  2951   0012F4  6F89               	movwf	(efgtoa@u+1)& (0+255),b
  2952   0012F6  0E80               	movlw	128
  2953   0012F8  6F8A               	movwf	(efgtoa@u+2)& (0+255),b
  2954   0012FA  0E3F               	movlw	63
  2955   0012FC  6F8B               	movwf	(efgtoa@u+3)& (0+255),b
  2956                           
  2957                           ;/opt/microchip/xc8/v2.45/pic/sources/c99/common/doprnt.c: 724:             e = 0;
  2958   0012FE  0E00               	movlw	0
  2959   001300  6F70               	movwf	(efgtoa@e+1)& (0+255),b
  2960   001302  0E00               	movlw	0
  2961   001304  6F6F               	movwf	efgtoa@e& (0+255),b
  2962   001306                     l5235:
  2963                           
  2964                           ; BSR set to: 0
  2965                           ;/opt/microchip/xc8/v2.45/pic/sources/c99/common/doprnt.c: 726:         if (!(mode == 'g
      +                          ')) {
  2966   001306  0E67               	movlw	103
  2967   001308  1969               	xorwf	efgtoa@mode& (0+255),w,b
  2968   00130A  B4D8               	btfsc	status,2,c
  2969   00130C  EF8A  F009         	goto	u5711
  2970   001310  EF8C  F009         	goto	u5710
  2971   001314                     u5711:
  2972   001314  EF90  F009         	goto	l5239
  2973   001318                     u5710:
  2974   001318                     
  2975                           ; BSR set to: 0
  2976                           ;/opt/microchip/xc8/v2.45/pic/sources/c99/common/doprnt.c: 727:             m += e;
  2977   001318  516F               	movf	efgtoa@e& (0+255),w,b
  2978   00131A  276D               	addwf	efgtoa@m& (0+255),f,b
  2979   00131C  5170               	movf	(efgtoa@e+1)& (0+255),w,b
  2980   00131E  236E               	addwfc	(efgtoa@m+1)& (0+255),f,b
  2981   001320                     l5239:
  2982                           
  2983                           ; BSR set to: 0
  2984                           ;/opt/microchip/xc8/v2.45/pic/sources/c99/common/doprnt.c: 733:     i = 0;
  2985   001320  0E00               	movlw	0
  2986   001322  6F78               	movwf	(efgtoa@i+1)& (0+255),b
  2987   001324  0E00               	movlw	0
  2988   001326  6F77               	movwf	efgtoa@i& (0+255),b
  2989   001328                     
  2990                           ; BSR set to: 0
  2991                           ;/opt/microchip/xc8/v2.45/pic/sources/c99/common/doprnt.c: 734:     h = g.f;
  2992   001328  C082  F079         	movff	efgtoa@g,efgtoa@h
  2993   00132C  C083  F07A         	movff	efgtoa@g+1,efgtoa@h+1
  2994   001330  C084  F07B         	movff	efgtoa@g+2,efgtoa@h+2
  2995   001334  C085  F07C         	movff	efgtoa@g+3,efgtoa@h+3
  2996   001338                     
  2997                           ; BSR set to: 0
  2998                           ;/opt/microchip/xc8/v2.45/pic/sources/c99/common/doprnt.c: 735:     ou = u;
  2999   001338  C088  F073         	movff	efgtoa@u,efgtoa@ou
  3000   00133C  C089  F074         	movff	efgtoa@u+1,efgtoa@ou+1
  3001   001340  C08A  F075         	movff	efgtoa@u+2,efgtoa@ou+2
  3002   001344  C08B  F076         	movff	efgtoa@u+3,efgtoa@ou+3
  3003                           
  3004                           ;/opt/microchip/xc8/v2.45/pic/sources/c99/common/doprnt.c: 736:     while (i < m) {
  3005   001348  EF21  F00A         	goto	l5253
  3006   00134C                     l5245:
  3007                           
  3008                           ; BSR set to: 0
  3009                           ;/opt/microchip/xc8/v2.45/pic/sources/c99/common/doprnt.c: 737:         l = floorf(h/u.f
      +                          );
  3010   00134C  C079  F00F         	movff	efgtoa@h,___fldiv@b
  3011   001350  C07A  F010         	movff	efgtoa@h+1,___fldiv@b+1
  3012   001354  C07B  F011         	movff	efgtoa@h+2,___fldiv@b+2
  3013   001358  C07C  F012         	movff	efgtoa@h+3,___fldiv@b+3
  3014   00135C  C088  F013         	movff	efgtoa@u,___fldiv@a
  3015   001360  C089  F014         	movff	efgtoa@u+1,___fldiv@a+1
  3016   001364  C08A  F015         	movff	efgtoa@u+2,___fldiv@a+2
  3017   001368  C08B  F016         	movff	efgtoa@u+3,___fldiv@a+3
  3018   00136C  ECF1  F010         	call	___fldiv	;wreg free
  3019   001370  C00F  F028         	movff	?___fldiv,floorf@x
  3020   001374  C010  F029         	movff	?___fldiv+1,floorf@x+1
  3021   001378  C011  F02A         	movff	?___fldiv+2,floorf@x+2
  3022   00137C  C012  F02B         	movff	?___fldiv+3,floorf@x+3
  3023   001380  ECDD  F015         	call	_floorf	;wreg free
  3024   001384  C028  F07D         	movff	?_floorf,efgtoa@l
  3025   001388  C029  F07E         	movff	?_floorf+1,efgtoa@l+1
  3026   00138C  C02A  F07F         	movff	?_floorf+2,efgtoa@l+2
  3027   001390  C02B  F080         	movff	?_floorf+3,efgtoa@l+3
  3028                           
  3029                           ;/opt/microchip/xc8/v2.45/pic/sources/c99/common/doprnt.c: 738:         d = (int)l;
  3030   001394  C07D  F001         	movff	efgtoa@l,___fltol@f1
  3031   001398  C07E  F002         	movff	efgtoa@l+1,___fltol@f1+1
  3032   00139C  C07F  F003         	movff	efgtoa@l+2,___fltol@f1+2
  3033   0013A0  C080  F004         	movff	efgtoa@l+3,___fltol@f1+3
  3034   0013A4  ECC0  F017         	call	___fltol	;wreg free
  3035   0013A8  C001  F06B         	movff	?___fltol,efgtoa@d
  3036   0013AC  C002  F06C         	movff	?___fltol+1,efgtoa@d+1
  3037   0013B0                     
  3038                           ;/opt/microchip/xc8/v2.45/pic/sources/c99/common/doprnt.c: 739:         h -= l*u.f;
  3039   0013B0  C079  F041         	movff	efgtoa@h,___flsub@b
  3040   0013B4  C07A  F042         	movff	efgtoa@h+1,___flsub@b+1
  3041   0013B8  C07B  F043         	movff	efgtoa@h+2,___flsub@b+2
  3042   0013BC  C07C  F044         	movff	efgtoa@h+3,___flsub@b+3
  3043   0013C0  C07D  F02C         	movff	efgtoa@l,___flmul@a
  3044   0013C4  C07E  F02D         	movff	efgtoa@l+1,___flmul@a+1
  3045   0013C8  C07F  F02E         	movff	efgtoa@l+2,___flmul@a+2
  3046   0013CC  C080  F02F         	movff	efgtoa@l+3,___flmul@a+3
  3047   0013D0  C088  F028         	movff	efgtoa@u,___flmul@b
  3048   0013D4  C089  F029         	movff	efgtoa@u+1,___flmul@b+1
  3049   0013D8  C08A  F02A         	movff	efgtoa@u+2,___flmul@b+2
  3050   0013DC  C08B  F02B         	movff	efgtoa@u+3,___flmul@b+3
  3051   0013E0  ECDC  F00E         	call	___flmul	;wreg free
  3052   0013E4  C028  F045         	movff	?___flmul,___flsub@a
  3053   0013E8  C029  F046         	movff	?___flmul+1,___flsub@a+1
  3054   0013EC  C02A  F047         	movff	?___flmul+2,___flsub@a+2
  3055   0013F0  C02B  F048         	movff	?___flmul+3,___flsub@a+3
  3056   0013F4  ECFA  F01B         	call	___flsub	;wreg free
  3057   0013F8  C041  F079         	movff	?___flsub,efgtoa@h
  3058   0013FC  C042  F07A         	movff	?___flsub+1,efgtoa@h+1
  3059   001400  C043  F07B         	movff	?___flsub+2,efgtoa@h+2
  3060   001404  C044  F07C         	movff	?___flsub+3,efgtoa@h+3
  3061   001408                     
  3062                           ;/opt/microchip/xc8/v2.45/pic/sources/c99/common/doprnt.c: 740:         u.f = u.f/10.0;
  3063   001408  C088  F00F         	movff	efgtoa@u,___fldiv@b
  3064   00140C  C089  F010         	movff	efgtoa@u+1,___fldiv@b+1
  3065   001410  C08A  F011         	movff	efgtoa@u+2,___fldiv@b+2
  3066   001414  C08B  F012         	movff	efgtoa@u+3,___fldiv@b+3
  3067   001418  0E00               	movlw	0
  3068   00141A  6E13               	movwf	___fldiv@a^0,c
  3069   00141C  0E00               	movlw	0
  3070   00141E  6E14               	movwf	(___fldiv@a+1)^0,c
  3071   001420  0E20               	movlw	32
  3072   001422  6E15               	movwf	(___fldiv@a+2)^0,c
  3073   001424  0E41               	movlw	65
  3074   001426  6E16               	movwf	(___fldiv@a+3)^0,c
  3075   001428  ECF1  F010         	call	___fldiv	;wreg free
  3076   00142C  C00F  F088         	movff	?___fldiv,efgtoa@u
  3077   001430  C010  F089         	movff	?___fldiv+1,efgtoa@u+1
  3078   001434  C011  F08A         	movff	?___fldiv+2,efgtoa@u+2
  3079   001438  C012  F08B         	movff	?___fldiv+3,efgtoa@u+3
  3080   00143C                     
  3081                           ;/opt/microchip/xc8/v2.45/pic/sources/c99/common/doprnt.c: 741:         ++i;
  3082   00143C  0100               	movlb	0	; () banked
  3083   00143E  4B77               	infsnz	efgtoa@i& (0+255),f,b
  3084   001440  2B78               	incf	(efgtoa@i+1)& (0+255),f,b
  3085   001442                     l5253:
  3086                           
  3087                           ; BSR set to: 0
  3088                           ;/opt/microchip/xc8/v2.45/pic/sources/c99/common/doprnt.c: 736:     while (i < m) {
  3089   001442  516D               	movf	efgtoa@m& (0+255),w,b
  3090   001444  5D77               	subwf	efgtoa@i& (0+255),w,b
  3091   001446  5178               	movf	(efgtoa@i+1)& (0+255),w,b
  3092   001448  0A80               	xorlw	128
  3093   00144A  6E53               	movwf	??_efgtoa^0,c
  3094   00144C  516E               	movf	(efgtoa@m+1)& (0+255),w,b
  3095   00144E  0A80               	xorlw	128
  3096   001450  5853               	subwfb	??_efgtoa^0,w,c
  3097   001452  A0D8               	btfss	status,0,c
  3098   001454  EF2E  F00A         	goto	u5721
  3099   001458  EF30  F00A         	goto	u5720
  3100   00145C                     u5721:
  3101   00145C  EFA6  F009         	goto	l5245
  3102   001460                     u5720:
  3103   001460                     
  3104                           ; BSR set to: 0
  3105                           ;/opt/microchip/xc8/v2.45/pic/sources/c99/common/doprnt.c: 745:     l = u.f*5.0;
  3106   001460  C088  F028         	movff	efgtoa@u,___flmul@b
  3107   001464  C089  F029         	movff	efgtoa@u+1,___flmul@b+1
  3108   001468  C08A  F02A         	movff	efgtoa@u+2,___flmul@b+2
  3109   00146C  C08B  F02B         	movff	efgtoa@u+3,___flmul@b+3
  3110   001470  0E00               	movlw	0
  3111   001472  6E2C               	movwf	___flmul@a^0,c
  3112   001474  0E00               	movlw	0
  3113   001476  6E2D               	movwf	(___flmul@a+1)^0,c
  3114   001478  0EA0               	movlw	160
  3115   00147A  6E2E               	movwf	(___flmul@a+2)^0,c
  3116   00147C  0E40               	movlw	64
  3117   00147E  6E2F               	movwf	(___flmul@a+3)^0,c
  3118   001480  ECDC  F00E         	call	___flmul	;wreg free
  3119   001484  C028  F07D         	movff	?___flmul,efgtoa@l
  3120   001488  C029  F07E         	movff	?___flmul+1,efgtoa@l+1
  3121   00148C  C02A  F07F         	movff	?___flmul+2,efgtoa@l+2
  3122   001490  C02B  F080         	movff	?___flmul+3,efgtoa@l+3
  3123   001494                     
  3124                           ;/opt/microchip/xc8/v2.45/pic/sources/c99/common/doprnt.c: 746:     if (h < l) {
  3125   001494  C079  F041         	movff	efgtoa@h,___flge@ff1
  3126   001498  C07A  F042         	movff	efgtoa@h+1,___flge@ff1+1
  3127   00149C  C07B  F043         	movff	efgtoa@h+2,___flge@ff1+2
  3128   0014A0  C07C  F044         	movff	efgtoa@h+3,___flge@ff1+3
  3129   0014A4  C07D  F045         	movff	efgtoa@l,___flge@ff2
  3130   0014A8  C07E  F046         	movff	efgtoa@l+1,___flge@ff2+1
  3131   0014AC  C07F  F047         	movff	efgtoa@l+2,___flge@ff2+2
  3132   0014B0  C080  F048         	movff	efgtoa@l+3,___flge@ff2+3
  3133   0014B4  EC43  F018         	call	___flge	;wreg free
  3134   0014B8  B0D8               	btfsc	status,0,c
  3135   0014BA  EF61  F00A         	goto	u5731
  3136   0014BE  EF63  F00A         	goto	u5730
  3137   0014C2                     u5731:
  3138   0014C2  EF6E  F00A         	goto	l5261
  3139   0014C6                     u5730:
  3140   0014C6                     
  3141                           ;/opt/microchip/xc8/v2.45/pic/sources/c99/common/doprnt.c: 747:         l = 0.0;
  3142   0014C6  0E00               	movlw	0
  3143   0014C8  0100               	movlb	0	; () banked
  3144   0014CA  6F7D               	movwf	efgtoa@l& (0+255),b
  3145   0014CC  0E00               	movlw	0
  3146   0014CE  6F7E               	movwf	(efgtoa@l+1)& (0+255),b
  3147   0014D0  0E00               	movlw	0
  3148   0014D2  6F7F               	movwf	(efgtoa@l+2)& (0+255),b
  3149   0014D4  0E00               	movlw	0
  3150   0014D6  6F80               	movwf	(efgtoa@l+3)& (0+255),b
  3151                           
  3152                           ;/opt/microchip/xc8/v2.45/pic/sources/c99/common/doprnt.c: 748:     } else {
  3153   0014D8  EF97  F00A         	goto	l5267
  3154   0014DC                     l5261:
  3155                           
  3156                           ;/opt/microchip/xc8/v2.45/pic/sources/c99/common/doprnt.c: 750:         if ((h == l) && 
      +                          !(d % 2)) {
  3157   0014DC  C079  F001         	movff	efgtoa@h,___fleq@ff1
  3158   0014E0  C07A  F002         	movff	efgtoa@h+1,___fleq@ff1+1
  3159   0014E4  C07B  F003         	movff	efgtoa@h+2,___fleq@ff1+2
  3160   0014E8  C07C  F004         	movff	efgtoa@h+3,___fleq@ff1+3
  3161   0014EC  C07D  F005         	movff	efgtoa@l,___fleq@ff2
  3162   0014F0  C07E  F006         	movff	efgtoa@l+1,___fleq@ff2+1
  3163   0014F4  C07F  F007         	movff	efgtoa@l+2,___fleq@ff2+2
  3164   0014F8  C080  F008         	movff	efgtoa@l+3,___fleq@ff2+3
  3165   0014FC  EC5B  F01A         	call	___fleq	;wreg free
  3166   001500  A0D8               	btfss	status,0,c
  3167   001502  EF85  F00A         	goto	u5741
  3168   001506  EF87  F00A         	goto	u5740
  3169   00150A                     u5741:
  3170   00150A  EF97  F00A         	goto	l5267
  3171   00150E                     u5740:
  3172   00150E  0100               	movlb	0	; () banked
  3173   001510  B16B               	btfsc	efgtoa@d& (0+255),0,b
  3174   001512  EF8D  F00A         	goto	u5751
  3175   001516  EF8F  F00A         	goto	u5750
  3176   00151A                     u5751:
  3177   00151A  EF97  F00A         	goto	l5267
  3178   00151E                     u5750:
  3179   00151E                     
  3180                           ; BSR set to: 0
  3181                           ;/opt/microchip/xc8/v2.45/pic/sources/c99/common/doprnt.c: 751:             l = 0.0;
  3182   00151E  0E00               	movlw	0
  3183   001520  6F7D               	movwf	efgtoa@l& (0+255),b
  3184   001522  0E00               	movlw	0
  3185   001524  6F7E               	movwf	(efgtoa@l+1)& (0+255),b
  3186   001526  0E00               	movlw	0
  3187   001528  6F7F               	movwf	(efgtoa@l+2)& (0+255),b
  3188   00152A  0E00               	movlw	0
  3189   00152C  6F80               	movwf	(efgtoa@l+3)& (0+255),b
  3190   00152E                     l5267:
  3191                           
  3192                           ;/opt/microchip/xc8/v2.45/pic/sources/c99/common/doprnt.c: 756:     h = g.f + l;
  3193   00152E  C082  F001         	movff	efgtoa@g,___fladd@b
  3194   001532  C083  F002         	movff	efgtoa@g+1,___fladd@b+1
  3195   001536  C084  F003         	movff	efgtoa@g+2,___fladd@b+2
  3196   00153A  C085  F004         	movff	efgtoa@g+3,___fladd@b+3
  3197   00153E  C07D  F005         	movff	efgtoa@l,___fladd@a
  3198   001542  C07E  F006         	movff	efgtoa@l+1,___fladd@a+1
  3199   001546  C07F  F007         	movff	efgtoa@l+2,___fladd@a+2
  3200   00154A  C080  F008         	movff	efgtoa@l+3,___fladd@a+3
  3201   00154E  EC7C  F00C         	call	___fladd	;wreg free
  3202   001552  C001  F079         	movff	?___fladd,efgtoa@h
  3203   001556  C002  F07A         	movff	?___fladd+1,efgtoa@h+1
  3204   00155A  C003  F07B         	movff	?___fladd+2,efgtoa@h+2
  3205   00155E  C004  F07C         	movff	?___fladd+3,efgtoa@h+3
  3206   001562                     
  3207                           ;/opt/microchip/xc8/v2.45/pic/sources/c99/common/doprnt.c: 758:  if (h >= (ou.f*10.0)) {
  3208   001562  C079  F041         	movff	efgtoa@h,___flge@ff1
  3209   001566  C07A  F042         	movff	efgtoa@h+1,___flge@ff1+1
  3210   00156A  C07B  F043         	movff	efgtoa@h+2,___flge@ff1+2
  3211   00156E  C07C  F044         	movff	efgtoa@h+3,___flge@ff1+3
  3212   001572  0E00               	movlw	0
  3213   001574  6E2C               	movwf	___flmul@a^0,c
  3214   001576  0E00               	movlw	0
  3215   001578  6E2D               	movwf	(___flmul@a+1)^0,c
  3216   00157A  0E20               	movlw	32
  3217   00157C  6E2E               	movwf	(___flmul@a+2)^0,c
  3218   00157E  0E41               	movlw	65
  3219   001580  6E2F               	movwf	(___flmul@a+3)^0,c
  3220   001582  C073  F028         	movff	efgtoa@ou,___flmul@b
  3221   001586  C074  F029         	movff	efgtoa@ou+1,___flmul@b+1
  3222   00158A  C075  F02A         	movff	efgtoa@ou+2,___flmul@b+2
  3223   00158E  C076  F02B         	movff	efgtoa@ou+3,___flmul@b+3
  3224   001592  ECDC  F00E         	call	___flmul	;wreg free
  3225   001596  C028  F045         	movff	?___flmul,___flge@ff2
  3226   00159A  C029  F046         	movff	?___flmul+1,___flge@ff2+1
  3227   00159E  C02A  F047         	movff	?___flmul+2,___flge@ff2+2
  3228   0015A2  C02B  F048         	movff	?___flmul+3,___flge@ff2+3
  3229   0015A6  EC43  F018         	call	___flge	;wreg free
  3230   0015AA  A0D8               	btfss	status,0,c
  3231   0015AC  EFDA  F00A         	goto	u5761
  3232   0015B0  EFDC  F00A         	goto	u5760
  3233   0015B4                     u5761:
  3234   0015B4  EF05  F00B         	goto	l5279
  3235   0015B8                     u5760:
  3236   0015B8                     
  3237                           ;/opt/microchip/xc8/v2.45/pic/sources/c99/common/doprnt.c: 759:   e++;
  3238   0015B8  0100               	movlb	0	; () banked
  3239   0015BA  4B6F               	infsnz	efgtoa@e& (0+255),f,b
  3240   0015BC  2B70               	incf	(efgtoa@e+1)& (0+255),f,b
  3241   0015BE                     
  3242                           ; BSR set to: 0
  3243                           ;/opt/microchip/xc8/v2.45/pic/sources/c99/common/doprnt.c: 760:   ou.f *= 10.0;
  3244   0015BE  C073  F028         	movff	efgtoa@ou,___flmul@b
  3245   0015C2  C074  F029         	movff	efgtoa@ou+1,___flmul@b+1
  3246   0015C6  C075  F02A         	movff	efgtoa@ou+2,___flmul@b+2
  3247   0015CA  C076  F02B         	movff	efgtoa@ou+3,___flmul@b+3
  3248   0015CE  0E00               	movlw	0
  3249   0015D0  6E2C               	movwf	___flmul@a^0,c
  3250   0015D2  0E00               	movlw	0
  3251   0015D4  6E2D               	movwf	(___flmul@a+1)^0,c
  3252   0015D6  0E20               	movlw	32
  3253   0015D8  6E2E               	movwf	(___flmul@a+2)^0,c
  3254   0015DA  0E41               	movlw	65
  3255   0015DC  6E2F               	movwf	(___flmul@a+3)^0,c
  3256   0015DE  ECDC  F00E         	call	___flmul	;wreg free
  3257   0015E2  C028  F073         	movff	?___flmul,efgtoa@ou
  3258   0015E6  C029  F074         	movff	?___flmul+1,efgtoa@ou+1
  3259   0015EA  C02A  F075         	movff	?___flmul+2,efgtoa@ou+2
  3260   0015EE  C02B  F076         	movff	?___flmul+3,efgtoa@ou+3
  3261   0015F2                     
  3262                           ;/opt/microchip/xc8/v2.45/pic/sources/c99/common/doprnt.c: 762:   if (nmode == 'f') {
  3263   0015F2  0E66               	movlw	102
  3264   0015F4  0100               	movlb	0	; () banked
  3265   0015F6  196A               	xorwf	efgtoa@nmode& (0+255),w,b
  3266   0015F8  A4D8               	btfss	status,2,c
  3267   0015FA  EF01  F00B         	goto	u5771
  3268   0015FE  EF03  F00B         	goto	u5770
  3269   001602                     u5771:
  3270   001602  EF05  F00B         	goto	l5279
  3271   001606                     u5770:
  3272   001606                     
  3273                           ; BSR set to: 0
  3274                           ;/opt/microchip/xc8/v2.45/pic/sources/c99/common/doprnt.c: 764:    m++;
  3275   001606  4B6D               	infsnz	efgtoa@m& (0+255),f,b
  3276   001608  2B6E               	incf	(efgtoa@m+1)& (0+255),f,b
  3277   00160A                     l5279:
  3278                           
  3279                           ;/opt/microchip/xc8/v2.45/pic/sources/c99/common/doprnt.c: 770:     u = ou;
  3280   00160A  C073  F088         	movff	efgtoa@ou,efgtoa@u
  3281   00160E  C074  F089         	movff	efgtoa@ou+1,efgtoa@u+1
  3282   001612  C075  F08A         	movff	efgtoa@ou+2,efgtoa@u+2
  3283   001616  C076  F08B         	movff	efgtoa@ou+3,efgtoa@u+3
  3284   00161A                     
  3285                           ;/opt/microchip/xc8/v2.45/pic/sources/c99/common/doprnt.c: 774:  ne = e;
  3286   00161A  C06F  F060         	movff	efgtoa@e,efgtoa@ne
  3287   00161E  C070  F061         	movff	efgtoa@e+1,efgtoa@ne+1
  3288   001622                     
  3289                           ;/opt/microchip/xc8/v2.45/pic/sources/c99/common/doprnt.c: 776:     pp = 0;
  3290   001622  0E00               	movlw	0
  3291   001624  0100               	movlb	0	; () banked
  3292   001626  6F68               	movwf	efgtoa@pp& (0+255),b
  3293   001628                     
  3294                           ; BSR set to: 0
  3295                           ;/opt/microchip/xc8/v2.45/pic/sources/c99/common/doprnt.c: 777:     t = 0;
  3296   001628  0E00               	movlw	0
  3297   00162A  6F65               	movwf	(efgtoa@t+1)& (0+255),b
  3298   00162C  0E00               	movlw	0
  3299   00162E  6F64               	movwf	efgtoa@t& (0+255),b
  3300   001630                     
  3301                           ; BSR set to: 0
  3302                           ;/opt/microchip/xc8/v2.45/pic/sources/c99/common/doprnt.c: 778:     i = 0;
  3303   001630  0E00               	movlw	0
  3304   001632  6F78               	movwf	(efgtoa@i+1)& (0+255),b
  3305   001634  0E00               	movlw	0
  3306   001636  6F77               	movwf	efgtoa@i& (0+255),b
  3307                           
  3308                           ;/opt/microchip/xc8/v2.45/pic/sources/c99/common/doprnt.c: 779:     while ((i < m) && (n
      +                           < (80 - 5))) {
  3309   001638  EF03  F00C         	goto	l5329
  3310   00163C                     l5289:
  3311                           
  3312                           ; BSR set to: 0
  3313                           ;/opt/microchip/xc8/v2.45/pic/sources/c99/common/doprnt.c: 780:         l = floorf(h/u.f
      +                          );
  3314   00163C  C079  F00F         	movff	efgtoa@h,___fldiv@b
  3315   001640  C07A  F010         	movff	efgtoa@h+1,___fldiv@b+1
  3316   001644  C07B  F011         	movff	efgtoa@h+2,___fldiv@b+2
  3317   001648  C07C  F012         	movff	efgtoa@h+3,___fldiv@b+3
  3318   00164C  C088  F013         	movff	efgtoa@u,___fldiv@a
  3319   001650  C089  F014         	movff	efgtoa@u+1,___fldiv@a+1
  3320   001654  C08A  F015         	movff	efgtoa@u+2,___fldiv@a+2
  3321   001658  C08B  F016         	movff	efgtoa@u+3,___fldiv@a+3
  3322   00165C  ECF1  F010         	call	___fldiv	;wreg free
  3323   001660  C00F  F028         	movff	?___fldiv,floorf@x
  3324   001664  C010  F029         	movff	?___fldiv+1,floorf@x+1
  3325   001668  C011  F02A         	movff	?___fldiv+2,floorf@x+2
  3326   00166C  C012  F02B         	movff	?___fldiv+3,floorf@x+3
  3327   001670  ECDD  F015         	call	_floorf	;wreg free
  3328   001674  C028  F07D         	movff	?_floorf,efgtoa@l
  3329   001678  C029  F07E         	movff	?_floorf+1,efgtoa@l+1
  3330   00167C  C02A  F07F         	movff	?_floorf+2,efgtoa@l+2
  3331   001680  C02B  F080         	movff	?_floorf+3,efgtoa@l+3
  3332                           
  3333                           ;/opt/microchip/xc8/v2.45/pic/sources/c99/common/doprnt.c: 781:         d = (int)l > 9 ?
      +                           9 : (int)l;
  3334   001684  C07D  F001         	movff	efgtoa@l,___fltol@f1
  3335   001688  C07E  F002         	movff	efgtoa@l+1,___fltol@f1+1
  3336   00168C  C07F  F003         	movff	efgtoa@l+2,___fltol@f1+2
  3337   001690  C080  F004         	movff	efgtoa@l+3,___fltol@f1+3
  3338   001694  ECC0  F017         	call	___fltol	;wreg free
  3339   001698  BE02               	btfsc	(?___fltol+1)^0,7,c
  3340   00169A  EF5A  F00B         	goto	u5780
  3341   00169E  5002               	movf	(?___fltol+1)^0,w,c
  3342   0016A0  E107               	bnz	u5781
  3343   0016A2  0E0A               	movlw	10
  3344   0016A4  5C01               	subwf	?___fltol^0,w,c
  3345   0016A6  B0D8               	btfsc	status,0,c
  3346   0016A8  EF58  F00B         	goto	u5781
  3347   0016AC  EF5A  F00B         	goto	u5780
  3348   0016B0                     u5781:
  3349   0016B0  EF6A  F00B         	goto	l5293
  3350   0016B4                     u5780:
  3351   0016B4  C07D  F001         	movff	efgtoa@l,___fltol@f1
  3352   0016B8  C07E  F002         	movff	efgtoa@l+1,___fltol@f1+1
  3353   0016BC  C07F  F003         	movff	efgtoa@l+2,___fltol@f1+2
  3354   0016C0  C080  F004         	movff	efgtoa@l+3,___fltol@f1+3
  3355   0016C4  ECC0  F017         	call	___fltol	;wreg free
  3356   0016C8  C001  F06B         	movff	?___fltol,efgtoa@d
  3357   0016CC  C002  F06C         	movff	?___fltol+1,efgtoa@d+1
  3358   0016D0  EF6F  F00B         	goto	l1272
  3359   0016D4                     l5293:
  3360   0016D4  0E00               	movlw	0
  3361   0016D6  0100               	movlb	0	; () banked
  3362   0016D8  6F6C               	movwf	(efgtoa@d+1)& (0+255),b
  3363   0016DA  0E09               	movlw	9
  3364   0016DC  6F6B               	movwf	efgtoa@d& (0+255),b
  3365   0016DE                     l1272:
  3366                           
  3367                           ;/opt/microchip/xc8/v2.45/pic/sources/c99/common/doprnt.c: 792:   {;/opt/microchip/xc8/v
      +                          2.45/pic/sources/c99/common/doprnt.c: 793:             if (!pp && (ne < 0)) {
  3368   0016DE  0100               	movlb	0	; () banked
  3369   0016E0  5168               	movf	efgtoa@pp& (0+255),w,b
  3370   0016E2  A4D8               	btfss	status,2,c
  3371   0016E4  EF76  F00B         	goto	u5791
  3372   0016E8  EF78  F00B         	goto	u5790
  3373   0016EC                     u5791:
  3374   0016EC  EFA0  F00B         	goto	l5313
  3375   0016F0                     u5790:
  3376   0016F0                     
  3377                           ; BSR set to: 0
  3378   0016F0  BF61               	btfsc	(efgtoa@ne+1)& (0+255),7,b
  3379   0016F2  EF7F  F00B         	goto	u5800
  3380   0016F6  EF7D  F00B         	goto	u5801
  3381   0016FA                     u5801:
  3382   0016FA  EFA0  F00B         	goto	l5313
  3383   0016FE                     u5800:
  3384   0016FE                     
  3385                           ; BSR set to: 0
  3386                           ;/opt/microchip/xc8/v2.45/pic/sources/c99/common/doprnt.c: 794:                 dbuf[n++
      +                          ] = '.';
  3387   0016FE  0E00               	movlw	low _dbuf
  3388   001700  2586               	addwf	efgtoa@n& (0+255),w,b
  3389   001702  6ED9               	movwf	fsr2l,c
  3390   001704  0E01               	movlw	high _dbuf
  3391   001706  2187               	addwfc	(efgtoa@n+1)& (0+255),w,b
  3392   001708  6EDA               	movwf	fsr2h,c
  3393   00170A  0E2E               	movlw	46
  3394   00170C  6EDF               	movwf	indf2,c
  3395   00170E                     
  3396                           ; BSR set to: 0
  3397   00170E  4B86               	infsnz	efgtoa@n& (0+255),f,b
  3398   001710  2B87               	incf	(efgtoa@n+1)& (0+255),f,b
  3399   001712                     
  3400                           ; BSR set to: 0
  3401                           ;/opt/microchip/xc8/v2.45/pic/sources/c99/common/doprnt.c: 795:                 --w;
  3402   001712  0771               	decf	efgtoa@w& (0+255),f,b
  3403   001714  A0D8               	btfss	status,0,c
  3404   001716  0772               	decf	(efgtoa@w+1)& (0+255),f,b
  3405   001718                     
  3406                           ; BSR set to: 0
  3407                           ;/opt/microchip/xc8/v2.45/pic/sources/c99/common/doprnt.c: 796:                 pp = 1;
  3408   001718  0E01               	movlw	1
  3409   00171A  6F68               	movwf	efgtoa@pp& (0+255),b
  3410   00171C  EFA0  F00B         	goto	l5313
  3411   001720                     l5305:
  3412                           
  3413                           ; BSR set to: 0
  3414                           ;/opt/microchip/xc8/v2.45/pic/sources/c99/common/doprnt.c: 799:                 dbuf[n++
      +                          ] = '0';
  3415   001720  0E00               	movlw	low _dbuf
  3416   001722  2586               	addwf	efgtoa@n& (0+255),w,b
  3417   001724  6ED9               	movwf	fsr2l,c
  3418   001726  0E01               	movlw	high _dbuf
  3419   001728  2187               	addwfc	(efgtoa@n+1)& (0+255),w,b
  3420   00172A  6EDA               	movwf	fsr2h,c
  3421   00172C  0E30               	movlw	48
  3422   00172E  6EDF               	movwf	indf2,c
  3423   001730                     
  3424                           ; BSR set to: 0
  3425   001730  4B86               	infsnz	efgtoa@n& (0+255),f,b
  3426   001732  2B87               	incf	(efgtoa@n+1)& (0+255),f,b
  3427   001734                     
  3428                           ; BSR set to: 0
  3429                           ;/opt/microchip/xc8/v2.45/pic/sources/c99/common/doprnt.c: 800:                 --w;
  3430   001734  0771               	decf	efgtoa@w& (0+255),f,b
  3431   001736  A0D8               	btfss	status,0,c
  3432   001738  0772               	decf	(efgtoa@w+1)& (0+255),f,b
  3433   00173A                     
  3434                           ; BSR set to: 0
  3435                           ;/opt/microchip/xc8/v2.45/pic/sources/c99/common/doprnt.c: 801:                 --t;
  3436   00173A  0764               	decf	efgtoa@t& (0+255),f,b
  3437   00173C  A0D8               	btfss	status,0,c
  3438   00173E  0765               	decf	(efgtoa@t+1)& (0+255),f,b
  3439   001740                     l5313:
  3440                           
  3441                           ; BSR set to: 0
  3442                           ;/opt/microchip/xc8/v2.45/pic/sources/c99/common/doprnt.c: 798:             while (t) {
  3443   001740  5164               	movf	efgtoa@t& (0+255),w,b
  3444   001742  1165               	iorwf	(efgtoa@t+1)& (0+255),w,b
  3445   001744  A4D8               	btfss	status,2,c
  3446   001746  EFA7  F00B         	goto	u5811
  3447   00174A  EFA9  F00B         	goto	u5810
  3448   00174E                     u5811:
  3449   00174E  EF90  F00B         	goto	l5305
  3450   001752                     u5810:
  3451   001752                     
  3452                           ; BSR set to: 0
  3453                           ;/opt/microchip/xc8/v2.45/pic/sources/c99/common/doprnt.c: 803:             dbuf[n++] = 
      +                          (char)((int)'0' + d);
  3454   001752  0E00               	movlw	low _dbuf
  3455   001754  2586               	addwf	efgtoa@n& (0+255),w,b
  3456   001756  6ED9               	movwf	fsr2l,c
  3457   001758  0E01               	movlw	high _dbuf
  3458   00175A  2187               	addwfc	(efgtoa@n+1)& (0+255),w,b
  3459   00175C  6EDA               	movwf	fsr2h,c
  3460   00175E  516B               	movf	efgtoa@d& (0+255),w,b
  3461   001760  0F30               	addlw	48
  3462   001762  6EDF               	movwf	indf2,c
  3463   001764                     
  3464                           ; BSR set to: 0
  3465   001764  4B86               	infsnz	efgtoa@n& (0+255),f,b
  3466   001766  2B87               	incf	(efgtoa@n+1)& (0+255),f,b
  3467   001768                     
  3468                           ; BSR set to: 0
  3469                           ;/opt/microchip/xc8/v2.45/pic/sources/c99/common/doprnt.c: 804:             --w;
  3470   001768  0771               	decf	efgtoa@w& (0+255),f,b
  3471   00176A  A0D8               	btfss	status,0,c
  3472   00176C  0772               	decf	(efgtoa@w+1)& (0+255),f,b
  3473   00176E                     
  3474                           ; BSR set to: 0
  3475                           ;/opt/microchip/xc8/v2.45/pic/sources/c99/common/doprnt.c: 805:         };/opt/microchip
      +                          /xc8/v2.45/pic/sources/c99/common/doprnt.c: 806:         h -= l*u.f;
  3476   00176E  C079  F041         	movff	efgtoa@h,___flsub@b
  3477   001772  C07A  F042         	movff	efgtoa@h+1,___flsub@b+1
  3478   001776  C07B  F043         	movff	efgtoa@h+2,___flsub@b+2
  3479   00177A  C07C  F044         	movff	efgtoa@h+3,___flsub@b+3
  3480   00177E  C07D  F02C         	movff	efgtoa@l,___flmul@a
  3481   001782  C07E  F02D         	movff	efgtoa@l+1,___flmul@a+1
  3482   001786  C07F  F02E         	movff	efgtoa@l+2,___flmul@a+2
  3483   00178A  C080  F02F         	movff	efgtoa@l+3,___flmul@a+3
  3484   00178E  C088  F028         	movff	efgtoa@u,___flmul@b
  3485   001792  C089  F029         	movff	efgtoa@u+1,___flmul@b+1
  3486   001796  C08A  F02A         	movff	efgtoa@u+2,___flmul@b+2
  3487   00179A  C08B  F02B         	movff	efgtoa@u+3,___flmul@b+3
  3488   00179E  ECDC  F00E         	call	___flmul	;wreg free
  3489   0017A2  C028  F045         	movff	?___flmul,___flsub@a
  3490   0017A6  C029  F046         	movff	?___flmul+1,___flsub@a+1
  3491   0017AA  C02A  F047         	movff	?___flmul+2,___flsub@a+2
  3492   0017AE  C02B  F048         	movff	?___flmul+3,___flsub@a+3
  3493   0017B2  ECFA  F01B         	call	___flsub	;wreg free
  3494   0017B6  C041  F079         	movff	?___flsub,efgtoa@h
  3495   0017BA  C042  F07A         	movff	?___flsub+1,efgtoa@h+1
  3496   0017BE  C043  F07B         	movff	?___flsub+2,efgtoa@h+2
  3497   0017C2  C044  F07C         	movff	?___flsub+3,efgtoa@h+3
  3498   0017C6                     
  3499                           ;/opt/microchip/xc8/v2.45/pic/sources/c99/common/doprnt.c: 807:         u.f = u.f/10.0;
  3500   0017C6  C088  F00F         	movff	efgtoa@u,___fldiv@b
  3501   0017CA  C089  F010         	movff	efgtoa@u+1,___fldiv@b+1
  3502   0017CE  C08A  F011         	movff	efgtoa@u+2,___fldiv@b+2
  3503   0017D2  C08B  F012         	movff	efgtoa@u+3,___fldiv@b+3
  3504   0017D6  0E00               	movlw	0
  3505   0017D8  6E13               	movwf	___fldiv@a^0,c
  3506   0017DA  0E00               	movlw	0
  3507   0017DC  6E14               	movwf	(___fldiv@a+1)^0,c
  3508   0017DE  0E20               	movlw	32
  3509   0017E0  6E15               	movwf	(___fldiv@a+2)^0,c
  3510   0017E2  0E41               	movlw	65
  3511   0017E4  6E16               	movwf	(___fldiv@a+3)^0,c
  3512   0017E6  ECF1  F010         	call	___fldiv	;wreg free
  3513   0017EA  C00F  F088         	movff	?___fldiv,efgtoa@u
  3514   0017EE  C010  F089         	movff	?___fldiv+1,efgtoa@u+1
  3515   0017F2  C011  F08A         	movff	?___fldiv+2,efgtoa@u+2
  3516   0017F6  C012  F08B         	movff	?___fldiv+3,efgtoa@u+3
  3517   0017FA                     
  3518                           ;/opt/microchip/xc8/v2.45/pic/sources/c99/common/doprnt.c: 808:         --ne;
  3519   0017FA  0100               	movlb	0	; () banked
  3520   0017FC  0760               	decf	efgtoa@ne& (0+255),f,b
  3521   0017FE  A0D8               	btfss	status,0,c
  3522   001800  0761               	decf	(efgtoa@ne+1)& (0+255),f,b
  3523   001802                     
  3524                           ; BSR set to: 0
  3525                           ;/opt/microchip/xc8/v2.45/pic/sources/c99/common/doprnt.c: 809:         ++i;
  3526   001802  4B77               	infsnz	efgtoa@i& (0+255),f,b
  3527   001804  2B78               	incf	(efgtoa@i+1)& (0+255),f,b
  3528   001806                     l5329:
  3529                           
  3530                           ; BSR set to: 0
  3531                           ;/opt/microchip/xc8/v2.45/pic/sources/c99/common/doprnt.c: 779:     while ((i < m) && (n
      +                           < (80 - 5))) {
  3532   001806  516D               	movf	efgtoa@m& (0+255),w,b
  3533   001808  5D77               	subwf	efgtoa@i& (0+255),w,b
  3534   00180A  5178               	movf	(efgtoa@i+1)& (0+255),w,b
  3535   00180C  0A80               	xorlw	128
  3536   00180E  6E53               	movwf	??_efgtoa^0,c
  3537   001810  516E               	movf	(efgtoa@m+1)& (0+255),w,b
  3538   001812  0A80               	xorlw	128
  3539   001814  5853               	subwfb	??_efgtoa^0,w,c
  3540   001816  B0D8               	btfsc	status,0,c
  3541   001818  EF10  F00C         	goto	u5821
  3542   00181C  EF12  F00C         	goto	u5820
  3543   001820                     u5821:
  3544   001820  EF20  F00C         	goto	l5333
  3545   001824                     u5820:
  3546   001824                     
  3547                           ; BSR set to: 0
  3548   001824  BF87               	btfsc	(efgtoa@n+1)& (0+255),7,b
  3549   001826  EF1E  F00C         	goto	u5831
  3550   00182A  5187               	movf	(efgtoa@n+1)& (0+255),w,b
  3551   00182C  E109               	bnz	u5830
  3552   00182E  0E4B               	movlw	75
  3553   001830  5D86               	subwf	efgtoa@n& (0+255),w,b
  3554   001832  A0D8               	btfss	status,0,c
  3555   001834  EF1E  F00C         	goto	u5831
  3556   001838  EF20  F00C         	goto	u5830
  3557   00183C                     u5831:
  3558   00183C  EF1E  F00B         	goto	l5289
  3559   001840                     u5830:
  3560   001840                     l5333:
  3561                           
  3562                           ; BSR set to: 0
  3563                           ;/opt/microchip/xc8/v2.45/pic/sources/c99/common/doprnt.c: 816:  i = sizeof(dbuf) - 1;
  3564   001840  0E00               	movlw	0
  3565   001842  6F78               	movwf	(efgtoa@i+1)& (0+255),b
  3566   001844  0E4F               	movlw	79
  3567   001846  6F77               	movwf	efgtoa@i& (0+255),b
  3568   001848                     
  3569                           ; BSR set to: 0
  3570                           ;/opt/microchip/xc8/v2.45/pic/sources/c99/common/doprnt.c: 817:     dbuf[i] = '\0';
  3571   001848  0E00               	movlw	low _dbuf
  3572   00184A  2577               	addwf	efgtoa@i& (0+255),w,b
  3573   00184C  6ED9               	movwf	fsr2l,c
  3574   00184E  0E01               	movlw	high _dbuf
  3575   001850  2178               	addwfc	(efgtoa@i+1)& (0+255),w,b
  3576   001852  6EDA               	movwf	fsr2h,c
  3577   001854  6ADF               	clrf	indf2,c
  3578   001856                     
  3579                           ; BSR set to: 0
  3580                           ;/opt/microchip/xc8/v2.45/pic/sources/c99/common/doprnt.c: 848:  memcpy(&dbuf[i-n], &dbu
      +                          f[0], (size_t)n);
  3581   001856  0E00               	movlw	low _dbuf
  3582   001858  6E53               	movwf	??_efgtoa^0,c
  3583   00185A  0E01               	movlw	high _dbuf
  3584   00185C  6E54               	movwf	(??_efgtoa+1)^0,c
  3585   00185E  5186               	movf	efgtoa@n& (0+255),w,b
  3586   001860  5E53               	subwf	??_efgtoa^0,f,c
  3587   001862  5187               	movf	(efgtoa@n+1)& (0+255),w,b
  3588   001864  5A54               	subwfb	(??_efgtoa+1)^0,f,c
  3589   001866  5177               	movf	efgtoa@i& (0+255),w,b
  3590   001868  2453               	addwf	??_efgtoa^0,w,c
  3591   00186A  6E01               	movwf	memcpy@d1^0,c
  3592   00186C  5178               	movf	(efgtoa@i+1)& (0+255),w,b
  3593   00186E  2054               	addwfc	(??_efgtoa+1)^0,w,c
  3594   001870  6E02               	movwf	(memcpy@d1+1)^0,c
  3595   001872  0E00               	movlw	low _dbuf
  3596   001874  6E03               	movwf	memcpy@s1^0,c
  3597   001876  0E01               	movlw	high _dbuf
  3598   001878  6E04               	movwf	(memcpy@s1+1)^0,c
  3599   00187A  C086  F005         	movff	efgtoa@n,memcpy@n
  3600   00187E  C087  F006         	movff	efgtoa@n+1,memcpy@n+1
  3601   001882  EC83  F01B         	call	_memcpy	;wreg free
  3602   001886                     
  3603                           ;/opt/microchip/xc8/v2.45/pic/sources/c99/common/doprnt.c: 849:  n = i-n;
  3604   001886  0100               	movlb	0	; () banked
  3605   001888  5186               	movf	efgtoa@n& (0+255),w,b
  3606   00188A  5D77               	subwf	efgtoa@i& (0+255),w,b
  3607   00188C  6F86               	movwf	efgtoa@n& (0+255),b
  3608   00188E  5187               	movf	(efgtoa@n+1)& (0+255),w,b
  3609   001890  5978               	subwfb	(efgtoa@i+1)& (0+255),w,b
  3610   001892  6F87               	movwf	(efgtoa@n+1)& (0+255),b
  3611   001894                     
  3612                           ; BSR set to: 0
  3613                           ;/opt/microchip/xc8/v2.45/pic/sources/c99/common/doprnt.c: 850:  i = sign == 0 ? 0 : 1;
  3614   001894  5181               	movf	efgtoa@sign& (0+255),w,b
  3615   001896  A4D8               	btfss	status,2,c
  3616   001898  EF50  F00C         	goto	u5841
  3617   00189C  EF53  F00C         	goto	u5840
  3618   0018A0                     u5841:
  3619   0018A0  0E01               	movlw	1
  3620   0018A2  EF54  F00C         	goto	u5850
  3621   0018A6                     u5840:
  3622   0018A6  0E00               	movlw	0
  3623   0018A8                     u5850:
  3624   0018A8  6F77               	movwf	efgtoa@i& (0+255),b
  3625   0018AA  6B78               	clrf	(efgtoa@i+1)& (0+255),b
  3626   0018AC                     
  3627                           ; BSR set to: 0
  3628                           ;/opt/microchip/xc8/v2.45/pic/sources/c99/common/doprnt.c: 861:  if (sign) {
  3629   0018AC  5181               	movf	efgtoa@sign& (0+255),w,b
  3630   0018AE  B4D8               	btfsc	status,2,c
  3631   0018B0  EF5C  F00C         	goto	u5861
  3632   0018B4  EF5E  F00C         	goto	u5860
  3633   0018B8                     u5861:
  3634   0018B8  EF69  F00C         	goto	l5347
  3635   0018BC                     u5860:
  3636   0018BC                     
  3637                           ; BSR set to: 0
  3638                           ;/opt/microchip/xc8/v2.45/pic/sources/c99/common/doprnt.c: 862:   dbuf[--n] = sign;
  3639   0018BC  0786               	decf	efgtoa@n& (0+255),f,b
  3640   0018BE  A0D8               	btfss	status,0,c
  3641   0018C0  0787               	decf	(efgtoa@n+1)& (0+255),f,b
  3642   0018C2  0E00               	movlw	low _dbuf
  3643   0018C4  2586               	addwf	efgtoa@n& (0+255),w,b
  3644   0018C6  6ED9               	movwf	fsr2l,c
  3645   0018C8  0E01               	movlw	high _dbuf
  3646   0018CA  2187               	addwfc	(efgtoa@n+1)& (0+255),w,b
  3647   0018CC  6EDA               	movwf	fsr2h,c
  3648   0018CE  C081  FFDF         	movff	efgtoa@sign,indf2
  3649   0018D2                     l5347:
  3650                           
  3651                           ; BSR set to: 0
  3652                           ;/opt/microchip/xc8/v2.45/pic/sources/c99/common/doprnt.c: 864:  w -= i;
  3653   0018D2  5177               	movf	efgtoa@i& (0+255),w,b
  3654   0018D4  5F71               	subwf	efgtoa@w& (0+255),f,b
  3655   0018D6  5178               	movf	(efgtoa@i+1)& (0+255),w,b
  3656   0018D8  5B72               	subwfb	(efgtoa@w+1)& (0+255),f,b
  3657   0018DA                     
  3658                           ; BSR set to: 0
  3659                           ;/opt/microchip/xc8/v2.45/pic/sources/c99/common/doprnt.c: 867:     return (void) pad(fp
      +                          , &dbuf[n], w);
  3660   0018DA  C04D  F011         	movff	efgtoa@fp,pad@fp
  3661   0018DE  0E00               	movlw	low _dbuf
  3662   0018E0  2586               	addwf	efgtoa@n& (0+255),w,b
  3663   0018E2  6E12               	movwf	pad@buf^0,c
  3664   0018E4  0E01               	movlw	high _dbuf
  3665   0018E6  2187               	addwfc	(efgtoa@n+1)& (0+255),w,b
  3666   0018E8  6E13               	movwf	(pad@buf+1)^0,c
  3667   0018EA  C071  F014         	movff	efgtoa@w,pad@p
  3668   0018EE  C072  F015         	movff	efgtoa@w+1,pad@p+1
  3669   0018F2  ECF7  F01A         	call	_pad	;wreg free
  3670   0018F6                     l1239:
  3671   0018F6  0012               	return		;funcret
  3672   0018F8                     __end_of_efgtoa:
  3673                           	callstack 0
  3674                           
  3675 ;; *************** function _strcpy *****************
  3676 ;; Defined at:
  3677 ;;		line 3 in file "/opt/microchip/xc8/v2.45/pic/sources/c99/common/strcpy.c"
  3678 ;; Parameters:    Size  Location     Type
  3679 ;;  dest            2    0[COMRAM] PTR unsigned char 
  3680 ;;		 -> dbuf(80), 
  3681 ;;  src             1    2[COMRAM] PTR const unsigned char 
  3682 ;;		 -> STR_6(4), STR_3(4), 
  3683 ;; Auto vars:     Size  Location     Type
  3684 ;;  d               2    4[COMRAM] PTR unsigned char 
  3685 ;;		 -> dbuf(80), 
  3686 ;; Return value:  Size  Location     Type
  3687 ;;                  2    0[COMRAM] PTR unsigned char 
  3688 ;; Registers used:
  3689 ;;		wreg, fsr2l, fsr2h, status,2, status,0, tblptrl, tblptrh, tblptru
  3690 ;; Tracked objects:
  3691 ;;		On entry : 0/0
  3692 ;;		On exit  : 0/0
  3693 ;;		Unchanged: 0/0
  3694 ;; Data sizes:     COMRAM   BANK0   BANK1   BANK2   BANK3   BANK4   BANK5   BANK6   BANK7   BANK8   BANK9  BANK10  BANK1
      +1  BANK12  BANK14
  3695 ;;      Params:         3       0       0       0       0       0       0       0       0       0       0       0       
      +0       0       0
  3696 ;;      Locals:         2       0       0       0       0       0       0       0       0       0       0       0       
      +0       0       0
  3697 ;;      Temps:          1       0       0       0       0       0       0       0       0       0       0       0       
      +0       0       0
  3698 ;;      Totals:         6       0       0       0       0       0       0       0       0       0       0       0       
      +0       0       0
  3699 ;;Total ram usage:        6 bytes
  3700 ;; Hardware stack levels used: 1
  3701 ;; This function calls:
  3702 ;;		Nothing
  3703 ;; This function is called by:
  3704 ;;		_efgtoa
  3705 ;; This function uses a non-reentrant model
  3706 ;;
  3707                           
  3708                           	psect	text6
  3709   0038FE                     __ptext6:
  3710                           	callstack 0
  3711   0038FE                     _strcpy:
  3712                           	callstack 26
  3713   0038FE  C001  F005         	movff	strcpy@dest,strcpy@d
  3714   003902  C002  F006         	movff	strcpy@dest+1,strcpy@d+1
  3715   003906                     l5001:
  3716   003906  2A03               	incf	strcpy@src^0,f,c
  3717   003908  0403               	decf	strcpy@src^0,w,c
  3718   00390A  6E04               	movwf	??_strcpy^0,c
  3719   00390C  C004  FFF6         	movff	??_strcpy,tblptrl
  3720   003910                     	if	1	;There is more than 1 active tblptr byte
  3721   003910  0E0F               	movlw	high __smallconst
  3722   003912  6EF7               	movwf	tblptrh,c
  3723   003914                     	endif
  3724   003914                     	if	0	;tblptru may be non-zero
  3725   003914                     	endif
  3726   003914                     	if	1	;Program memory is > 0xFFFF, there are 3 active tblptr bytes
  3727   003914  0E00               	movlw	low (__smallconst shr (0+16))
  3728   003916  6EF8               	movwf	tblptru,c
  3729   003918                     	endif
  3730   003918  C005  FFD9         	movff	strcpy@d,fsr2l
  3731   00391C  C006  FFDA         	movff	strcpy@d+1,fsr2h
  3732   003920  4A05               	infsnz	strcpy@d^0,f,c
  3733   003922  2A06               	incf	(strcpy@d+1)^0,f,c
  3734   003924  0008               	tblrd		*
  3735   003926  CFF5 FFDF          	movff	tablat,indf2
  3736   00392A  50DF               	movf	indf2,w,c
  3737   00392C  A4D8               	btfss	status,2,c
  3738   00392E  EF9B  F01C         	goto	u5301
  3739   003932  EF9D  F01C         	goto	u5300
  3740   003936                     u5301:
  3741   003936  EF83  F01C         	goto	l5001
  3742   00393A                     u5300:
  3743   00393A  0012               	return		;funcret
  3744   00393C                     __end_of_strcpy:
  3745                           	callstack 0
  3746                           
  3747 ;; *************** function _pad *****************
  3748 ;; Defined at:
  3749 ;;		line 193 in file "/opt/microchip/xc8/v2.45/pic/sources/c99/common/doprnt.c"
  3750 ;; Parameters:    Size  Location     Type
  3751 ;;  fp              1   16[COMRAM] PTR struct _IO_FILE
  3752 ;;		 -> sprintf@f(12), 
  3753 ;;  buf             2   17[COMRAM] PTR unsigned char 
  3754 ;;		 -> dbuf(80), 
  3755 ;;  p               2   19[COMRAM] int 
  3756 ;; Auto vars:     Size  Location     Type
  3757 ;;  i               2   22[COMRAM] int 
  3758 ;; Return value:  Size  Location     Type
  3759 ;;                  1    wreg      void 
  3760 ;; Registers used:
  3761 ;;		wreg, fsr1l, fsr1h, fsr2l, fsr2h, status,2, status,0, cstack
  3762 ;; Tracked objects:
  3763 ;;		On entry : 0/0
  3764 ;;		On exit  : 0/0
  3765 ;;		Unchanged: 0/0
  3766 ;; Data sizes:     COMRAM   BANK0   BANK1   BANK2   BANK3   BANK4   BANK5   BANK6   BANK7   BANK8   BANK9  BANK10  BANK1
      +1  BANK12  BANK14
  3767 ;;      Params:         5       0       0       0       0       0       0       0       0       0       0       0       
      +0       0       0
  3768 ;;      Locals:         2       0       0       0       0       0       0       0       0       0       0       0       
      +0       0       0
  3769 ;;      Temps:          1       0       0       0       0       0       0       0       0       0       0       0       
      +0       0       0
  3770 ;;      Totals:         8       0       0       0       0       0       0       0       0       0       0       0       
      +0       0       0
  3771 ;;Total ram usage:        8 bytes
  3772 ;; Hardware stack levels used: 1
  3773 ;; Hardware stack levels required when called: 4
  3774 ;; This function calls:
  3775 ;;		_fputc
  3776 ;;		_fputs
  3777 ;; This function is called by:
  3778 ;;		_efgtoa
  3779 ;; This function uses a non-reentrant model
  3780 ;;
  3781                           
  3782                           	psect	text7
  3783   0035EE                     __ptext7:
  3784                           	callstack 0
  3785   0035EE                     _pad:
  3786                           	callstack 22
  3787   0035EE                     
  3788                           ;/opt/microchip/xc8/v2.45/pic/sources/c99/common/doprnt.c: 193: static void pad(FILE *fp
      +                          , char *buf, int p);/opt/microchip/xc8/v2.45/pic/sources/c99/common/doprnt.c: 194: {;/op
      +                          t/microchip/xc8/v2.45/pic/sources/c99/common/doprnt.c: 195:     int i;;/opt/microchip/xc
      +                          8/v2.45/pic/sources/c99/common/doprnt.c: 205:  if (p < 0) {
  3789   0035EE  BE15               	btfsc	(pad@p+1)^0,7,c
  3790   0035F0  EFFE  F01A         	goto	u5210
  3791   0035F4  EFFC  F01A         	goto	u5211
  3792   0035F8                     u5211:
  3793   0035F8  EF02  F01B         	goto	l1224
  3794   0035FC                     u5210:
  3795   0035FC                     
  3796                           ;/opt/microchip/xc8/v2.45/pic/sources/c99/common/doprnt.c: 206:   p = 0;
  3797   0035FC  0E00               	movlw	0
  3798   0035FE  6E15               	movwf	(pad@p+1)^0,c
  3799   003600  0E00               	movlw	0
  3800   003602  6E14               	movwf	pad@p^0,c
  3801   003604                     l1224:
  3802                           
  3803                           ;/opt/microchip/xc8/v2.45/pic/sources/c99/common/doprnt.c: 208:     i = 0;
  3804   003604  0E00               	movlw	0
  3805   003606  6E18               	movwf	(pad@i+1)^0,c
  3806   003608  0E00               	movlw	0
  3807   00360A  6E17               	movwf	pad@i^0,c
  3808                           
  3809                           ;/opt/microchip/xc8/v2.45/pic/sources/c99/common/doprnt.c: 209:     while (i < p) {
  3810   00360C  EF12  F01B         	goto	l4973
  3811   003610                     l4969:
  3812                           
  3813                           ;/opt/microchip/xc8/v2.45/pic/sources/c99/common/doprnt.c: 210:         fputc(' ', fp);
  3814   003610  0E00               	movlw	0
  3815   003612  6E04               	movwf	(fputc@c+1)^0,c
  3816   003614  0E20               	movlw	32
  3817   003616  6E03               	movwf	fputc@c^0,c
  3818   003618  C011  F005         	movff	pad@fp,fputc@fp
  3819   00361C  ECA6  F019         	call	_fputc	;wreg free
  3820   003620                     
  3821                           ;/opt/microchip/xc8/v2.45/pic/sources/c99/common/doprnt.c: 211:         ++i;
  3822   003620  4A17               	infsnz	pad@i^0,f,c
  3823   003622  2A18               	incf	(pad@i+1)^0,f,c
  3824   003624                     l4973:
  3825                           
  3826                           ;/opt/microchip/xc8/v2.45/pic/sources/c99/common/doprnt.c: 209:     while (i < p) {
  3827   003624  5014               	movf	pad@p^0,w,c
  3828   003626  5C17               	subwf	pad@i^0,w,c
  3829   003628  5018               	movf	(pad@i+1)^0,w,c
  3830   00362A  0A80               	xorlw	128
  3831   00362C  6E16               	movwf	??_pad^0,c
  3832   00362E  5015               	movf	(pad@p+1)^0,w,c
  3833   003630  0A80               	xorlw	128
  3834   003632  5816               	subwfb	??_pad^0,w,c
  3835   003634  A0D8               	btfss	status,0,c
  3836   003636  EF1F  F01B         	goto	u5221
  3837   00363A  EF21  F01B         	goto	u5220
  3838   00363E                     u5221:
  3839   00363E  EF08  F01B         	goto	l4969
  3840   003642                     u5220:
  3841   003642                     
  3842                           ;/opt/microchip/xc8/v2.45/pic/sources/c99/common/doprnt.c: 218:         fputs((const cha
      +                          r *)buf, fp);
  3843   003642  C012  F00B         	movff	pad@buf,fputs@s
  3844   003646  C013  F00C         	movff	pad@buf+1,fputs@s+1
  3845   00364A  C011  F00D         	movff	pad@fp,fputs@fp
  3846   00364E  EC5F  F01C         	call	_fputs	;wreg free
  3847   003652  0012               	return		;funcret
  3848   003654                     __end_of_pad:
  3849                           	callstack 0
  3850                           
  3851 ;; *************** function _fputs *****************
  3852 ;; Defined at:
  3853 ;;		line 8 in file "/opt/microchip/xc8/v2.45/pic/sources/c99/common/nf_fputs.c"
  3854 ;; Parameters:    Size  Location     Type
  3855 ;;  s               2   10[COMRAM] PTR const unsigned char 
  3856 ;;		 -> dbuf(80), 
  3857 ;;  fp              1   12[COMRAM] PTR struct _IO_FILE
  3858 ;;		 -> sprintf@f(12), 
  3859 ;; Auto vars:     Size  Location     Type
  3860 ;;  i               2   14[COMRAM] int 
  3861 ;;  c               1   13[COMRAM] unsigned char 
  3862 ;; Return value:  Size  Location     Type
  3863 ;;                  2   10[COMRAM] int 
  3864 ;; Registers used:
  3865 ;;		wreg, fsr1l, fsr1h, fsr2l, fsr2h, status,2, status,0, cstack
  3866 ;; Tracked objects:
  3867 ;;		On entry : 0/0
  3868 ;;		On exit  : 0/0
  3869 ;;		Unchanged: 0/0
  3870 ;; Data sizes:     COMRAM   BANK0   BANK1   BANK2   BANK3   BANK4   BANK5   BANK6   BANK7   BANK8   BANK9  BANK10  BANK1
      +1  BANK12  BANK14
  3871 ;;      Params:         3       0       0       0       0       0       0       0       0       0       0       0       
      +0       0       0
  3872 ;;      Locals:         3       0       0       0       0       0       0       0       0       0       0       0       
      +0       0       0
  3873 ;;      Temps:          0       0       0       0       0       0       0       0       0       0       0       0       
      +0       0       0
  3874 ;;      Totals:         6       0       0       0       0       0       0       0       0       0       0       0       
      +0       0       0
  3875 ;;Total ram usage:        6 bytes
  3876 ;; Hardware stack levels used: 1
  3877 ;; Hardware stack levels required when called: 3
  3878 ;; This function calls:
  3879 ;;		_fputc
  3880 ;; This function is called by:
  3881 ;;		_pad
  3882 ;; This function uses a non-reentrant model
  3883 ;;
  3884                           
  3885                           	psect	text8
  3886   0038BE                     __ptext8:
  3887                           	callstack 0
  3888   0038BE                     _fputs:
  3889                           	callstack 22
  3890   0038BE  0E00               	movlw	0
  3891   0038C0  6E10               	movwf	(fputs@i+1)^0,c
  3892   0038C2  0E00               	movlw	0
  3893   0038C4  6E0F               	movwf	fputs@i^0,c
  3894   0038C6  EF6E  F01C         	goto	l4599
  3895   0038CA                     l4595:
  3896   0038CA  C00E  F003         	movff	fputs@c,fputc@c
  3897   0038CE  6A04               	clrf	(fputc@c+1)^0,c
  3898   0038D0  C00D  F005         	movff	fputs@fp,fputc@fp
  3899   0038D4  ECA6  F019         	call	_fputc	;wreg free
  3900   0038D8  4A0F               	infsnz	fputs@i^0,f,c
  3901   0038DA  2A10               	incf	(fputs@i+1)^0,f,c
  3902   0038DC                     l4599:
  3903   0038DC  500F               	movf	fputs@i^0,w,c
  3904   0038DE  240B               	addwf	fputs@s^0,w,c
  3905   0038E0  6ED9               	movwf	fsr2l,c
  3906   0038E2  5010               	movf	(fputs@i+1)^0,w,c
  3907   0038E4  200C               	addwfc	(fputs@s+1)^0,w,c
  3908   0038E6  6EDA               	movwf	fsr2h,c
  3909   0038E8  50DF               	movf	indf2,w,c
  3910   0038EA  6E0E               	movwf	fputs@c^0,c
  3911   0038EC  500E               	movf	fputs@c^0,w,c
  3912   0038EE  A4D8               	btfss	status,2,c
  3913   0038F0  EF7C  F01C         	goto	u4621
  3914   0038F4  EF7E  F01C         	goto	u4620
  3915   0038F8                     u4621:
  3916   0038F8  EF65  F01C         	goto	l4595
  3917   0038FC                     u4620:
  3918   0038FC  0012               	return		;funcret
  3919   0038FE                     __end_of_fputs:
  3920                           	callstack 0
  3921                           
  3922 ;; *************** function _fputc *****************
  3923 ;; Defined at:
  3924 ;;		line 8 in file "/opt/microchip/xc8/v2.45/pic/sources/c99/common/nf_fputc.c"
  3925 ;; Parameters:    Size  Location     Type
  3926 ;;  c               2    2[COMRAM] int 
  3927 ;;  fp              1    4[COMRAM] PTR struct _IO_FILE
  3928 ;;		 -> sprintf@f(12), 
  3929 ;; Auto vars:     Size  Location     Type
  3930 ;;		None
  3931 ;; Return value:  Size  Location     Type
  3932 ;;                  2    2[COMRAM] int 
  3933 ;; Registers used:
  3934 ;;		wreg, fsr1l, fsr1h, fsr2l, fsr2h, status,2, status,0, cstack
  3935 ;; Tracked objects:
  3936 ;;		On entry : 0/0
  3937 ;;		On exit  : 0/0
  3938 ;;		Unchanged: 0/0
  3939 ;; Data sizes:     COMRAM   BANK0   BANK1   BANK2   BANK3   BANK4   BANK5   BANK6   BANK7   BANK8   BANK9  BANK10  BANK1
      +1  BANK12  BANK14
  3940 ;;      Params:         3       0       0       0       0       0       0       0       0       0       0       0       
      +0       0       0
  3941 ;;      Locals:         0       0       0       0       0       0       0       0       0       0       0       0       
      +0       0       0
  3942 ;;      Temps:          5       0       0       0       0       0       0       0       0       0       0       0       
      +0       0       0
  3943 ;;      Totals:         8       0       0       0       0       0       0       0       0       0       0       0       
      +0       0       0
  3944 ;;Total ram usage:        8 bytes
  3945 ;; Hardware stack levels used: 1
  3946 ;; Hardware stack levels required when called: 2
  3947 ;; This function calls:
  3948 ;;		_putch
  3949 ;; This function is called by:
  3950 ;;		_pad
  3951 ;;		_vfpfcnvrt
  3952 ;;		_fputs
  3953 ;; This function uses a non-reentrant model
  3954 ;;
  3955                           
  3956                           	psect	text9
  3957   00334C                     __ptext9:
  3958                           	callstack 0
  3959   00334C                     _fputc:
  3960                           	callstack 25
  3961   00334C  5005               	movf	fputc@fp^0,w,c
  3962   00334E  B4D8               	btfsc	status,2,c
  3963   003350  EFAC  F019         	goto	u4191
  3964   003354  EFAE  F019         	goto	u4190
  3965   003358                     u4191:
  3966   003358  EFB6  F019         	goto	l4381
  3967   00335C                     u4190:
  3968   00335C  5005               	movf	fputc@fp^0,w,c
  3969   00335E  A4D8               	btfss	status,2,c
  3970   003360  EFB4  F019         	goto	u4201
  3971   003364  EFB6  F019         	goto	u4200
  3972   003368                     u4201:
  3973   003368  EFBB  F019         	goto	l4383
  3974   00336C                     u4200:
  3975   00336C                     l4381:
  3976   00336C  5003               	movf	fputc@c^0,w,c
  3977   00336E  EC8B  F01D         	call	_putch
  3978   003372  EF02  F01A         	goto	l1373
  3979   003376                     l4383:
  3980   003376  5005               	movf	fputc@fp^0,w,c
  3981   003378  6ED9               	movwf	fsr2l,c
  3982   00337A  6ADA               	clrf	fsr2h,c
  3983   00337C  0E0A               	movlw	10
  3984   00337E  26D9               	addwf	fsr2l,f,c
  3985   003380  50DE               	movf	postinc2,w,c
  3986   003382  10DE               	iorwf	postinc2,w,c
  3987   003384  B4D8               	btfsc	status,2,c
  3988   003386  EFC7  F019         	goto	u4211
  3989   00338A  EFC9  F019         	goto	u4210
  3990   00338E                     u4211:
  3991   00338E  EFE2  F019         	goto	l4387
  3992   003392                     u4210:
  3993   003392  5005               	movf	fputc@fp^0,w,c
  3994   003394  6ED9               	movwf	fsr2l,c
  3995   003396  6ADA               	clrf	fsr2h,c
  3996   003398  0E0A               	movlw	10
  3997   00339A  26D9               	addwf	fsr2l,f,c
  3998   00339C  5005               	movf	fputc@fp^0,w,c
  3999   00339E  6EE1               	movwf	fsr1l,c
  4000   0033A0  6AE2               	clrf	fsr1h,c
  4001   0033A2  0E03               	movlw	3
  4002   0033A4  26E1               	addwf	fsr1l,f,c
  4003   0033A6  50DE               	movf	postinc2,w,c
  4004   0033A8  5CE6               	subwf	postinc1,w,c
  4005   0033AA  50E6               	movf	postinc1,w,c
  4006   0033AC  0A80               	xorlw	128
  4007   0033AE  6E0A               	movwf	(??_fputc+4)^0,c
  4008   0033B0  50DE               	movf	postinc2,w,c
  4009   0033B2  0A80               	xorlw	128
  4010   0033B4  580A               	subwfb	(??_fputc+4)^0,w,c
  4011   0033B6  B0D8               	btfsc	status,0,c
  4012   0033B8  EFE0  F019         	goto	u4221
  4013   0033BC  EFE2  F019         	goto	u4220
  4014   0033C0                     u4221:
  4015   0033C0  EF02  F01A         	goto	l1373
  4016   0033C4                     u4220:
  4017   0033C4                     l4387:
  4018   0033C4  5005               	movf	fputc@fp^0,w,c
  4019   0033C6  6ED9               	movwf	fsr2l,c
  4020   0033C8  6ADA               	clrf	fsr2h,c
  4021   0033CA  0E03               	movlw	3
  4022   0033CC  26D9               	addwf	fsr2l,f,c
  4023   0033CE  CFDE F006          	movff	postinc2,??_fputc
  4024   0033D2  CFDD F007          	movff	postdec2,??_fputc+1
  4025   0033D6  5005               	movf	fputc@fp^0,w,c
  4026   0033D8  6ED9               	movwf	fsr2l,c
  4027   0033DA  6ADA               	clrf	fsr2h,c
  4028   0033DC  CFDE F008          	movff	postinc2,??_fputc+2
  4029   0033E0  CFDD F009          	movff	postdec2,??_fputc+3
  4030   0033E4  5006               	movf	??_fputc^0,w,c
  4031   0033E6  2408               	addwf	(??_fputc+2)^0,w,c
  4032   0033E8  6ED9               	movwf	fsr2l,c
  4033   0033EA  5007               	movf	(??_fputc+1)^0,w,c
  4034   0033EC  2009               	addwfc	(??_fputc+3)^0,w,c
  4035   0033EE  6EDA               	movwf	fsr2h,c
  4036   0033F0  C003  FFDF         	movff	fputc@c,indf2
  4037   0033F4  5005               	movf	fputc@fp^0,w,c
  4038   0033F6  6ED9               	movwf	fsr2l,c
  4039   0033F8  6ADA               	clrf	fsr2h,c
  4040   0033FA  0E03               	movlw	3
  4041   0033FC  26D9               	addwf	fsr2l,f,c
  4042   0033FE  2ADE               	incf	postinc2,f,c
  4043   003400  0E00               	movlw	0
  4044   003402  22DD               	addwfc	postdec2,f,c
  4045   003404                     l1373:
  4046   003404  0012               	return		;funcret
  4047   003406                     __end_of_fputc:
  4048                           	callstack 0
  4049                           
  4050 ;; *************** function _putch *****************
  4051 ;; Defined at:
  4052 ;;		line 146 in file "mcc_generated_files/eusart2.c"
  4053 ;; Parameters:    Size  Location     Type
  4054 ;;  txData          1    wreg     unsigned char 
  4055 ;; Auto vars:     Size  Location     Type
  4056 ;;  txData          1    1[COMRAM] unsigned char 
  4057 ;; Return value:  Size  Location     Type
  4058 ;;                  1    wreg      void 
  4059 ;; Registers used:
  4060 ;;		wreg, status,2, cstack
  4061 ;; Tracked objects:
  4062 ;;		On entry : 0/0
  4063 ;;		On exit  : 0/0
  4064 ;;		Unchanged: 0/0
  4065 ;; Data sizes:     COMRAM   BANK0   BANK1   BANK2   BANK3   BANK4   BANK5   BANK6   BANK7   BANK8   BANK9  BANK10  BANK1
      +1  BANK12  BANK14
  4066 ;;      Params:         0       0       0       0       0       0       0       0       0       0       0       0       
      +0       0       0
  4067 ;;      Locals:         1       0       0       0       0       0       0       0       0       0       0       0       
      +0       0       0
  4068 ;;      Temps:          0       0       0       0       0       0       0       0       0       0       0       0       
      +0       0       0
  4069 ;;      Totals:         1       0       0       0       0       0       0       0       0       0       0       0       
      +0       0       0
  4070 ;;Total ram usage:        1 bytes
  4071 ;; Hardware stack levels used: 1
  4072 ;; Hardware stack levels required when called: 1
  4073 ;; This function calls:
  4074 ;;		_EUSART2_Write
  4075 ;; This function is called by:
  4076 ;;		_fputc
  4077 ;; This function uses a non-reentrant model
  4078 ;;
  4079                           
  4080                           	psect	text10
  4081   003B16                     __ptext10:
  4082                           	callstack 0
  4083   003B16                     _putch:
  4084                           	callstack 25
  4085                           
  4086                           ;incstack = 0
  4087                           ;putch@txData stored from wreg
  4088   003B16  6E02               	movwf	putch@txData^0,c
  4089   003B18                     
  4090                           ;mcc_generated_files/eusart2.c: 146: void putch(char txData);mcc_generated_files/eusart2
      +                          .c: 147: {;mcc_generated_files/eusart2.c: 148:     EUSART2_Write(txData);
  4091   003B18  5002               	movf	putch@txData^0,w,c
  4092   003B1A  EC41  F01D         	call	_EUSART2_Write
  4093   003B1E  0012               	return		;funcret
  4094   003B20                     __end_of_putch:
  4095                           	callstack 0
  4096                           
  4097 ;; *************** function _EUSART2_Write *****************
  4098 ;; Defined at:
  4099 ;;		line 132 in file "mcc_generated_files/eusart2.c"
  4100 ;; Parameters:    Size  Location     Type
  4101 ;;  txData          1    wreg     unsigned char 
  4102 ;; Auto vars:     Size  Location     Type
  4103 ;;  txData          1    0[COMRAM] unsigned char 
  4104 ;; Return value:  Size  Location     Type
  4105 ;;                  1    wreg      void 
  4106 ;; Registers used:
  4107 ;;		wreg
  4108 ;; Tracked objects:
  4109 ;;		On entry : 0/0
  4110 ;;		On exit  : 0/0
  4111 ;;		Unchanged: 0/0
  4112 ;; Data sizes:     COMRAM   BANK0   BANK1   BANK2   BANK3   BANK4   BANK5   BANK6   BANK7   BANK8   BANK9  BANK10  BANK1
      +1  BANK12  BANK14
  4113 ;;      Params:         0       0       0       0       0       0       0       0       0       0       0       0       
      +0       0       0
  4114 ;;      Locals:         1       0       0       0       0       0       0       0       0       0       0       0       
      +0       0       0
  4115 ;;      Temps:          0       0       0       0       0       0       0       0       0       0       0       0       
      +0       0       0
  4116 ;;      Totals:         1       0       0       0       0       0       0       0       0       0       0       0       
      +0       0       0
  4117 ;;Total ram usage:        1 bytes
  4118 ;; Hardware stack levels used: 1
  4119 ;; This function calls:
  4120 ;;		Nothing
  4121 ;; This function is called by:
  4122 ;;		_putch
  4123 ;;		_main
  4124 ;; This function uses a non-reentrant model
  4125 ;;
  4126                           
  4127                           	psect	text11
  4128   003A82                     __ptext11:
  4129                           	callstack 0
  4130   003A82                     _EUSART2_Write:
  4131                           	callstack 25
  4132                           
  4133                           ;incstack = 0
  4134                           ;EUSART2_Write@txData stored from wreg
  4135   003A82  6E01               	movwf	EUSART2_Write@txData^0,c
  4136   003A84                     l67:
  4137                           
  4138                           ;mcc_generated_files/eusart2.c: 134:     while(0 == PIR3bits.TX2IF)
  4139   003A84  010E               	movlb	14	; () banked
  4140   003A86  ADC8               	btfss	200,6,b	;volatile
  4141   003A88  EF48  F01D         	goto	u4181
  4142   003A8C  EF4A  F01D         	goto	u4180
  4143   003A90                     u4181:
  4144   003A90  EF42  F01D         	goto	l67
  4145   003A94                     u4180:
  4146   003A94                     
  4147                           ; BSR set to: 14
  4148                           ;mcc_generated_files/eusart2.c: 138:     TX2REG = txData;
  4149   003A94  C001  FE95         	movff	EUSART2_Write@txData,3733	;volatile
  4150   003A98                     
  4151                           ; BSR set to: 14
  4152   003A98  0012               	return		;funcret
  4153   003A9A                     __end_of_EUSART2_Write:
  4154                           	callstack 0
  4155                           
  4156 ;; *************** function _memcpy *****************
  4157 ;; Defined at:
  4158 ;;		line 4 in file "/opt/microchip/xc8/v2.45/pic/sources/c99/common/memcpy.c"
  4159 ;; Parameters:    Size  Location     Type
  4160 ;;  d1              2    0[COMRAM] PTR void 
  4161 ;;		 -> dbuf(80), 
  4162 ;;  s1              2    2[COMRAM] PTR const void 
  4163 ;;		 -> dbuf(80), 
  4164 ;;  n               2    4[COMRAM] unsigned int 
  4165 ;; Auto vars:     Size  Location     Type
  4166 ;;  s               2    9[COMRAM] PTR const unsigned char 
  4167 ;;		 -> dbuf(80), 
  4168 ;;  d               2    7[COMRAM] PTR unsigned char 
  4169 ;;		 -> dbuf(80), 
  4170 ;;  tmp             1    6[COMRAM] unsigned char 
  4171 ;; Return value:  Size  Location     Type
  4172 ;;                  2    0[COMRAM] PTR void 
  4173 ;; Registers used:
  4174 ;;		wreg, fsr2l, fsr2h, status,2, status,0
  4175 ;; Tracked objects:
  4176 ;;		On entry : 0/0
  4177 ;;		On exit  : 0/0
  4178 ;;		Unchanged: 0/0
  4179 ;; Data sizes:     COMRAM   BANK0   BANK1   BANK2   BANK3   BANK4   BANK5   BANK6   BANK7   BANK8   BANK9  BANK10  BANK1
      +1  BANK12  BANK14
  4180 ;;      Params:         6       0       0       0       0       0       0       0       0       0       0       0       
      +0       0       0
  4181 ;;      Locals:         5       0       0       0       0       0       0       0       0       0       0       0       
      +0       0       0
  4182 ;;      Temps:          0       0       0       0       0       0       0       0       0       0       0       0       
      +0       0       0
  4183 ;;      Totals:        11       0       0       0       0       0       0       0       0       0       0       0       
      +0       0       0
  4184 ;;Total ram usage:       11 bytes
  4185 ;; Hardware stack levels used: 1
  4186 ;; This function calls:
  4187 ;;		Nothing
  4188 ;; This function is called by:
  4189 ;;		_efgtoa
  4190 ;; This function uses a non-reentrant model
  4191 ;;
  4192                           
  4193                           	psect	text12
  4194   003706                     __ptext12:
  4195                           	callstack 0
  4196   003706                     _memcpy:
  4197                           	callstack 26
  4198   003706  C003  F00A         	movff	memcpy@s1,memcpy@s
  4199   00370A  C004  F00B         	movff	memcpy@s1+1,memcpy@s+1
  4200   00370E  C001  F008         	movff	memcpy@d1,memcpy@d
  4201   003712  C002  F009         	movff	memcpy@d1+1,memcpy@d+1
  4202   003716  EF9D  F01B         	goto	l5049
  4203   00371A                     l5041:
  4204   00371A  C00A  FFD9         	movff	memcpy@s,fsr2l
  4205   00371E  C00B  FFDA         	movff	memcpy@s+1,fsr2h
  4206   003722  50DF               	movf	indf2,w,c
  4207   003724  6E07               	movwf	memcpy@tmp^0,c
  4208   003726  4A0A               	infsnz	memcpy@s^0,f,c
  4209   003728  2A0B               	incf	(memcpy@s+1)^0,f,c
  4210   00372A  C008  FFD9         	movff	memcpy@d,fsr2l
  4211   00372E  C009  FFDA         	movff	memcpy@d+1,fsr2h
  4212   003732  C007  FFDF         	movff	memcpy@tmp,indf2
  4213   003736  4A08               	infsnz	memcpy@d^0,f,c
  4214   003738  2A09               	incf	(memcpy@d+1)^0,f,c
  4215   00373A                     l5049:
  4216   00373A  0605               	decf	memcpy@n^0,f,c
  4217   00373C  A0D8               	btfss	status,0,c
  4218   00373E  0606               	decf	(memcpy@n+1)^0,f,c
  4219   003740  2805               	incf	memcpy@n^0,w,c
  4220   003742  E106               	bnz	u5421
  4221   003744  2806               	incf	(memcpy@n+1)^0,w,c
  4222   003746  A4D8               	btfss	status,2,c
  4223   003748  EFA8  F01B         	goto	u5421
  4224   00374C  EFAA  F01B         	goto	u5420
  4225   003750                     u5421:
  4226   003750  EF8D  F01B         	goto	l5041
  4227   003754                     u5420:
  4228   003754  0012               	return		;funcret
  4229   003756                     __end_of_memcpy:
  4230                           	callstack 0
  4231                           
  4232 ;; *************** function _labs *****************
  4233 ;; Defined at:
  4234 ;;		line 1 in file "/opt/microchip/xc8/v2.45/pic/sources/c99/common/labs.c"
  4235 ;; Parameters:    Size  Location     Type
  4236 ;;  a               4    0[COMRAM] long 
  4237 ;; Auto vars:     Size  Location     Type
  4238 ;;		None
  4239 ;; Return value:  Size  Location     Type
  4240 ;;                  4    0[COMRAM] long 
  4241 ;; Registers used:
  4242 ;;		wreg, status,2, status,0
  4243 ;; Tracked objects:
  4244 ;;		On entry : 0/0
  4245 ;;		On exit  : 0/0
  4246 ;;		Unchanged: 0/0
  4247 ;; Data sizes:     COMRAM   BANK0   BANK1   BANK2   BANK3   BANK4   BANK5   BANK6   BANK7   BANK8   BANK9  BANK10  BANK1
      +1  BANK12  BANK14
  4248 ;;      Params:         4       0       0       0       0       0       0       0       0       0       0       0       
      +0       0       0
  4249 ;;      Locals:         0       0       0       0       0       0       0       0       0       0       0       0       
      +0       0       0
  4250 ;;      Temps:          4       0       0       0       0       0       0       0       0       0       0       0       
      +0       0       0
  4251 ;;      Totals:         8       0       0       0       0       0       0       0       0       0       0       0       
      +0       0       0
  4252 ;;Total ram usage:        8 bytes
  4253 ;; Hardware stack levels used: 1
  4254 ;; This function calls:
  4255 ;;		Nothing
  4256 ;; This function is called by:
  4257 ;;		_efgtoa
  4258 ;; This function uses a non-reentrant model
  4259 ;;
  4260                           
  4261                           	psect	text13
  4262   0036B0                     __ptext13:
  4263                           	callstack 0
  4264   0036B0                     _labs:
  4265                           	callstack 26
  4266   0036B0  BE04               	btfsc	(labs@a+3)^0,7,c
  4267   0036B2  EF5D  F01B         	goto	u5311
  4268   0036B6  EF5F  F01B         	goto	u5310
  4269   0036BA                     u5311:
  4270   0036BA  EF69  F01B         	goto	l5007
  4271   0036BE                     u5310:
  4272   0036BE  C001  F001         	movff	labs@a,?_labs
  4273   0036C2  C002  F002         	movff	labs@a+1,?_labs+1
  4274   0036C6  C003  F003         	movff	labs@a+2,?_labs+2
  4275   0036CA  C004  F004         	movff	labs@a+3,?_labs+3
  4276   0036CE  EF82  F01B         	goto	l1355
  4277   0036D2                     l5007:
  4278   0036D2  C001  F005         	movff	labs@a,??_labs
  4279   0036D6  C002  F006         	movff	labs@a+1,??_labs+1
  4280   0036DA  C003  F007         	movff	labs@a+2,??_labs+2
  4281   0036DE  C004  F008         	movff	labs@a+3,??_labs+3
  4282   0036E2  1E05               	comf	??_labs^0,f,c
  4283   0036E4  1E06               	comf	(??_labs+1)^0,f,c
  4284   0036E6  1E07               	comf	(??_labs+2)^0,f,c
  4285   0036E8  1E08               	comf	(??_labs+3)^0,f,c
  4286   0036EA  2A05               	incf	??_labs^0,f,c
  4287   0036EC  0E00               	movlw	0
  4288   0036EE  2206               	addwfc	(??_labs+1)^0,f,c
  4289   0036F0  2207               	addwfc	(??_labs+2)^0,f,c
  4290   0036F2  2208               	addwfc	(??_labs+3)^0,f,c
  4291   0036F4  C005  F001         	movff	??_labs,?_labs
  4292   0036F8  C006  F002         	movff	??_labs+1,?_labs+1
  4293   0036FC  C007  F003         	movff	??_labs+2,?_labs+2
  4294   003700  C008  F004         	movff	??_labs+3,?_labs+3
  4295   003704                     l1355:
  4296   003704  0012               	return		;funcret
  4297   003706                     __end_of_labs:
  4298                           	callstack 0
  4299                           
  4300 ;; *************** function _floorf *****************
  4301 ;; Defined at:
  4302 ;;		line 3 in file "/opt/microchip/xc8/v2.45/pic/sources/c99/common/floorf.c"
  4303 ;; Parameters:    Size  Location     Type
  4304 ;;  x               4   39[COMRAM] float 
  4305 ;; Auto vars:     Size  Location     Type
  4306 ;;  u               4   55[COMRAM] struct .
  4307 ;;  m               4   49[COMRAM] unsigned long 
  4308 ;;  e               2   53[COMRAM] int 
  4309 ;; Return value:  Size  Location     Type
  4310 ;;                  4   39[COMRAM] float 
  4311 ;; Registers used:
  4312 ;;		wreg, status,2, status,0
  4313 ;; Tracked objects:
  4314 ;;		On entry : 0/0
  4315 ;;		On exit  : 0/0
  4316 ;;		Unchanged: 0/0
  4317 ;; Data sizes:     COMRAM   BANK0   BANK1   BANK2   BANK3   BANK4   BANK5   BANK6   BANK7   BANK8   BANK9  BANK10  BANK1
      +1  BANK12  BANK14
  4318 ;;      Params:         4       0       0       0       0       0       0       0       0       0       0       0       
      +0       0       0
  4319 ;;      Locals:        10       0       0       0       0       0       0       0       0       0       0       0       
      +0       0       0
  4320 ;;      Temps:          6       0       0       0       0       0       0       0       0       0       0       0       
      +0       0       0
  4321 ;;      Totals:        20       0       0       0       0       0       0       0       0       0       0       0       
      +0       0       0
  4322 ;;Total ram usage:       20 bytes
  4323 ;; Hardware stack levels used: 1
  4324 ;; This function calls:
  4325 ;;		Nothing
  4326 ;; This function is called by:
  4327 ;;		_efgtoa
  4328 ;; This function uses a non-reentrant model
  4329 ;;
  4330                           
  4331                           	psect	text14
  4332   002BBA                     __ptext14:
  4333                           	callstack 0
  4334   002BBA                     _floorf:
  4335                           	callstack 26
  4336   002BBA  C0AA  F038         	movff	floorf@F521,floorf@u
  4337   002BBE  C0AB  F039         	movff	floorf@F521+1,floorf@u+1
  4338   002BC2  C0AC  F03A         	movff	floorf@F521+2,floorf@u+2
  4339   002BC6  C0AD  F03B         	movff	floorf@F521+3,floorf@u+3
  4340   002BCA  C028  F038         	movff	floorf@x,floorf@u
  4341   002BCE  C029  F039         	movff	floorf@x+1,floorf@u+1
  4342   002BD2  C02A  F03A         	movff	floorf@x+2,floorf@u+2
  4343   002BD6  C02B  F03B         	movff	floorf@x+3,floorf@u+3
  4344   002BDA  0E81               	movlw	129
  4345   002BDC  6E2C               	movwf	??_floorf^0,c
  4346   002BDE  0EFF               	movlw	255
  4347   002BE0  6E2D               	movwf	(??_floorf+1)^0,c
  4348   002BE2  C038  F02E         	movff	floorf@u,??_floorf+2
  4349   002BE6  C039  F02F         	movff	floorf@u+1,??_floorf+3
  4350   002BEA  C03A  F030         	movff	floorf@u+2,??_floorf+4
  4351   002BEE  C03B  F031         	movff	floorf@u+3,??_floorf+5
  4352   002BF2  0E18               	movlw	24
  4353   002BF4  EF01  F016         	goto	u5320
  4354   002BF8                     u5325:
  4355   002BF8  90D8               	bcf	status,0,c
  4356   002BFA  3231               	rrcf	(??_floorf+5)^0,f,c
  4357   002BFC  3230               	rrcf	(??_floorf+4)^0,f,c
  4358   002BFE  322F               	rrcf	(??_floorf+3)^0,f,c
  4359   002C00  322E               	rrcf	(??_floorf+2)^0,f,c
  4360   002C02                     u5320:
  4361   002C02  2EE8               	decfsz	wreg,f,c
  4362   002C04  EFFC  F015         	goto	u5325
  4363   002C08  502E               	movf	(??_floorf+2)^0,w,c
  4364   002C0A  242C               	addwf	??_floorf^0,w,c
  4365   002C0C  6E36               	movwf	floorf@e^0,c
  4366   002C0E  0E00               	movlw	0
  4367   002C10  202D               	addwfc	(??_floorf+1)^0,w,c
  4368   002C12  6E37               	movwf	(floorf@e+1)^0,c
  4369   002C14  BE37               	btfsc	(floorf@e+1)^0,7,c
  4370   002C16  EF16  F016         	goto	u5331
  4371   002C1A  5037               	movf	(floorf@e+1)^0,w,c
  4372   002C1C  E109               	bnz	u5330
  4373   002C1E  0E17               	movlw	23
  4374   002C20  5C36               	subwf	floorf@e^0,w,c
  4375   002C22  A0D8               	btfss	status,0,c
  4376   002C24  EF16  F016         	goto	u5331
  4377   002C28  EF18  F016         	goto	u5330
  4378   002C2C                     u5331:
  4379   002C2C  EF22  F016         	goto	l5017
  4380   002C30                     u5330:
  4381   002C30                     l5015:
  4382   002C30  C028  F028         	movff	floorf@x,?_floorf
  4383   002C34  C029  F029         	movff	floorf@x+1,?_floorf+1
  4384   002C38  C02A  F02A         	movff	floorf@x+2,?_floorf+2
  4385   002C3C  C02B  F02B         	movff	floorf@x+3,?_floorf+3
  4386   002C40  EFE5  F016         	goto	l1341
  4387   002C44                     l5017:
  4388   002C44  BE37               	btfsc	(floorf@e+1)^0,7,c
  4389   002C46  EF27  F016         	goto	u5341
  4390   002C4A  EF29  F016         	goto	u5340
  4391   002C4E                     u5341:
  4392   002C4E  EF99  F016         	goto	l5027
  4393   002C52                     u5340:
  4394   002C52  C036  F02C         	movff	floorf@e,??_floorf
  4395   002C56  0EFF               	movlw	255
  4396   002C58  6E2D               	movwf	(??_floorf+1)^0,c
  4397   002C5A  0EFF               	movlw	255
  4398   002C5C  6E2E               	movwf	(??_floorf+2)^0,c
  4399   002C5E  0E7F               	movlw	127
  4400   002C60  6E2F               	movwf	(??_floorf+3)^0,c
  4401   002C62  0E00               	movlw	0
  4402   002C64  6E30               	movwf	(??_floorf+4)^0,c
  4403   002C66                     u5355:
  4404   002C66  662C               	tstfsz	??_floorf^0,c
  4405   002C68  EF38  F016         	goto	u5356
  4406   002C6C  EF40  F016         	goto	u5357
  4407   002C70                     u5356:
  4408   002C70  3430               	rlcf	(??_floorf+4)^0,w,c
  4409   002C72  3230               	rrcf	(??_floorf+4)^0,f,c
  4410   002C74  322F               	rrcf	(??_floorf+3)^0,f,c
  4411   002C76  322E               	rrcf	(??_floorf+2)^0,f,c
  4412   002C78  322D               	rrcf	(??_floorf+1)^0,f,c
  4413   002C7A  2E2C               	decfsz	??_floorf^0,f,c
  4414   002C7C  EF33  F016         	goto	u5355
  4415   002C80                     u5357:
  4416   002C80  C02D  F032         	movff	??_floorf+1,floorf@m
  4417   002C84  C02E  F033         	movff	??_floorf+2,floorf@m+1
  4418   002C88  C02F  F034         	movff	??_floorf+3,floorf@m+2
  4419   002C8C  C030  F035         	movff	??_floorf+4,floorf@m+3
  4420   002C90  5032               	movf	floorf@m^0,w,c
  4421   002C92  1438               	andwf	floorf@u^0,w,c
  4422   002C94  6E2C               	movwf	??_floorf^0,c
  4423   002C96  5033               	movf	(floorf@m+1)^0,w,c
  4424   002C98  1439               	andwf	(floorf@u+1)^0,w,c
  4425   002C9A  6E2D               	movwf	(??_floorf+1)^0,c
  4426   002C9C  5034               	movf	(floorf@m+2)^0,w,c
  4427   002C9E  143A               	andwf	(floorf@u+2)^0,w,c
  4428   002CA0  6E2E               	movwf	(??_floorf+2)^0,c
  4429   002CA2  5035               	movf	(floorf@m+3)^0,w,c
  4430   002CA4  143B               	andwf	(floorf@u+3)^0,w,c
  4431   002CA6  6E2F               	movwf	(??_floorf+3)^0,c
  4432   002CA8  502C               	movf	??_floorf^0,w,c
  4433   002CAA  102D               	iorwf	(??_floorf+1)^0,w,c
  4434   002CAC  102E               	iorwf	(??_floorf+2)^0,w,c
  4435   002CAE  102F               	iorwf	(??_floorf+3)^0,w,c
  4436   002CB0  A4D8               	btfss	status,2,c
  4437   002CB2  EF5D  F016         	goto	u5361
  4438   002CB6  EF5F  F016         	goto	u5360
  4439   002CBA                     u5361:
  4440   002CBA  EF61  F016         	goto	l5023
  4441   002CBE                     u5360:
  4442   002CBE  EF18  F016         	goto	l5015
  4443   002CC2                     l5023:
  4444   002CC2  C038  F02C         	movff	floorf@u,??_floorf
  4445   002CC6  C039  F02D         	movff	floorf@u+1,??_floorf+1
  4446   002CCA  C03A  F02E         	movff	floorf@u+2,??_floorf+2
  4447   002CCE  C03B  F02F         	movff	floorf@u+3,??_floorf+3
  4448   002CD2  0E20               	movlw	32
  4449   002CD4  EF71  F016         	goto	u5370
  4450   002CD8                     u5375:
  4451   002CD8  90D8               	bcf	status,0,c
  4452   002CDA  322F               	rrcf	(??_floorf+3)^0,f,c
  4453   002CDC  322E               	rrcf	(??_floorf+2)^0,f,c
  4454   002CDE  322D               	rrcf	(??_floorf+1)^0,f,c
  4455   002CE0  322C               	rrcf	??_floorf^0,f,c
  4456   002CE2                     u5370:
  4457   002CE2  2EE8               	decfsz	wreg,f,c
  4458   002CE4  EF6C  F016         	goto	u5375
  4459   002CE8  502C               	movf	??_floorf^0,w,c
  4460   002CEA  102D               	iorwf	(??_floorf+1)^0,w,c
  4461   002CEC  102E               	iorwf	(??_floorf+2)^0,w,c
  4462   002CEE  102F               	iorwf	(??_floorf+3)^0,w,c
  4463   002CF0  B4D8               	btfsc	status,2,c
  4464   002CF2  EF7D  F016         	goto	u5381
  4465   002CF6  EF7F  F016         	goto	u5380
  4466   002CFA                     u5381:
  4467   002CFA  EF87  F016         	goto	l1344
  4468   002CFE                     u5380:
  4469   002CFE  5032               	movf	floorf@m^0,w,c
  4470   002D00  2638               	addwf	floorf@u^0,f,c
  4471   002D02  5033               	movf	(floorf@m+1)^0,w,c
  4472   002D04  2239               	addwfc	(floorf@u+1)^0,f,c
  4473   002D06  5034               	movf	(floorf@m+2)^0,w,c
  4474   002D08  223A               	addwfc	(floorf@u+2)^0,f,c
  4475   002D0A  5035               	movf	(floorf@m+3)^0,w,c
  4476   002D0C  223B               	addwfc	(floorf@u+3)^0,f,c
  4477   002D0E                     l1344:
  4478   002D0E  1C32               	comf	floorf@m^0,w,c
  4479   002D10  6E2C               	movwf	??_floorf^0,c
  4480   002D12  1C33               	comf	(floorf@m+1)^0,w,c
  4481   002D14  6E2D               	movwf	(??_floorf+1)^0,c
  4482   002D16  1C34               	comf	(floorf@m+2)^0,w,c
  4483   002D18  6E2E               	movwf	(??_floorf+2)^0,c
  4484   002D1A  1C35               	comf	(floorf@m+3)^0,w,c
  4485   002D1C  6E2F               	movwf	(??_floorf+3)^0,c
  4486   002D1E  502C               	movf	??_floorf^0,w,c
  4487   002D20  1638               	andwf	floorf@u^0,f,c
  4488   002D22  502D               	movf	(??_floorf+1)^0,w,c
  4489   002D24  1639               	andwf	(floorf@u+1)^0,f,c
  4490   002D26  502E               	movf	(??_floorf+2)^0,w,c
  4491   002D28  163A               	andwf	(floorf@u+2)^0,f,c
  4492   002D2A  502F               	movf	(??_floorf+3)^0,w,c
  4493   002D2C  163B               	andwf	(floorf@u+3)^0,f,c
  4494   002D2E  EFDD  F016         	goto	l5035
  4495   002D32                     l5027:
  4496   002D32  C038  F02C         	movff	floorf@u,??_floorf
  4497   002D36  C039  F02D         	movff	floorf@u+1,??_floorf+1
  4498   002D3A  C03A  F02E         	movff	floorf@u+2,??_floorf+2
  4499   002D3E  C03B  F02F         	movff	floorf@u+3,??_floorf+3
  4500   002D42  0E20               	movlw	32
  4501   002D44  EFA9  F016         	goto	u5390
  4502   002D48                     u5395:
  4503   002D48  90D8               	bcf	status,0,c
  4504   002D4A  322F               	rrcf	(??_floorf+3)^0,f,c
  4505   002D4C  322E               	rrcf	(??_floorf+2)^0,f,c
  4506   002D4E  322D               	rrcf	(??_floorf+1)^0,f,c
  4507   002D50  322C               	rrcf	??_floorf^0,f,c
  4508   002D52                     u5390:
  4509   002D52  2EE8               	decfsz	wreg,f,c
  4510   002D54  EFA4  F016         	goto	u5395
  4511   002D58  502C               	movf	??_floorf^0,w,c
  4512   002D5A  102D               	iorwf	(??_floorf+1)^0,w,c
  4513   002D5C  102E               	iorwf	(??_floorf+2)^0,w,c
  4514   002D5E  102F               	iorwf	(??_floorf+3)^0,w,c
  4515   002D60  A4D8               	btfss	status,2,c
  4516   002D62  EFB5  F016         	goto	u5401
  4517   002D66  EFB7  F016         	goto	u5400
  4518   002D6A                     u5401:
  4519   002D6A  EFC1  F016         	goto	l5031
  4520   002D6E                     u5400:
  4521   002D6E  0E00               	movlw	0
  4522   002D70  6E38               	movwf	floorf@u^0,c
  4523   002D72  0E00               	movlw	0
  4524   002D74  6E39               	movwf	(floorf@u+1)^0,c
  4525   002D76  0E00               	movlw	0
  4526   002D78  6E3A               	movwf	(floorf@u+2)^0,c
  4527   002D7A  0E00               	movlw	0
  4528   002D7C  6E3B               	movwf	(floorf@u+3)^0,c
  4529   002D7E  EFDD  F016         	goto	l5035
  4530   002D82                     l5031:
  4531   002D82  90D8               	bcf	status,0,c
  4532   002D84  3438               	rlcf	floorf@u^0,w,c
  4533   002D86  6E2C               	movwf	??_floorf^0,c
  4534   002D88  3439               	rlcf	(floorf@u+1)^0,w,c
  4535   002D8A  6E2D               	movwf	(??_floorf+1)^0,c
  4536   002D8C  343A               	rlcf	(floorf@u+2)^0,w,c
  4537   002D8E  6E2E               	movwf	(??_floorf+2)^0,c
  4538   002D90  343B               	rlcf	(floorf@u+3)^0,w,c
  4539   002D92  6E2F               	movwf	(??_floorf+3)^0,c
  4540   002D94  502C               	movf	??_floorf^0,w,c
  4541   002D96  102D               	iorwf	(??_floorf+1)^0,w,c
  4542   002D98  102E               	iorwf	(??_floorf+2)^0,w,c
  4543   002D9A  102F               	iorwf	(??_floorf+3)^0,w,c
  4544   002D9C  B4D8               	btfsc	status,2,c
  4545   002D9E  EFD3  F016         	goto	u5411
  4546   002DA2  EFD5  F016         	goto	u5410
  4547   002DA6                     u5411:
  4548   002DA6  EFDD  F016         	goto	l5035
  4549   002DAA                     u5410:
  4550   002DAA  0E00               	movlw	0
  4551   002DAC  6E38               	movwf	floorf@u^0,c
  4552   002DAE  0E00               	movlw	0
  4553   002DB0  6E39               	movwf	(floorf@u+1)^0,c
  4554   002DB2  0E80               	movlw	128
  4555   002DB4  6E3A               	movwf	(floorf@u+2)^0,c
  4556   002DB6  0EBF               	movlw	191
  4557   002DB8  6E3B               	movwf	(floorf@u+3)^0,c
  4558   002DBA                     l5035:
  4559   002DBA  C038  F028         	movff	floorf@u,?_floorf
  4560   002DBE  C039  F029         	movff	floorf@u+1,?_floorf+1
  4561   002DC2  C03A  F02A         	movff	floorf@u+2,?_floorf+2
  4562   002DC6  C03B  F02B         	movff	floorf@u+3,?_floorf+3
  4563   002DCA                     l1341:
  4564   002DCA  0012               	return		;funcret
  4565   002DCC                     __end_of_floorf:
  4566                           	callstack 0
  4567                           
  4568 ;; *************** function ___fpclassifyf *****************
  4569 ;; Defined at:
  4570 ;;		line 4 in file "/opt/microchip/xc8/v2.45/pic/sources/c99/common/__fpclassifyf.c"
  4571 ;; Parameters:    Size  Location     Type
  4572 ;;  x               4    0[COMRAM] float 
  4573 ;; Auto vars:     Size  Location     Type
  4574 ;;  u               4   10[COMRAM] struct .
  4575 ;;  e               2    8[COMRAM] int 
  4576 ;; Return value:  Size  Location     Type
  4577 ;;                  2    0[COMRAM] int 
  4578 ;; Registers used:
  4579 ;;		wreg, status,2, status,0
  4580 ;; Tracked objects:
  4581 ;;		On entry : 0/0
  4582 ;;		On exit  : 0/0
  4583 ;;		Unchanged: 0/0
  4584 ;; Data sizes:     COMRAM   BANK0   BANK1   BANK2   BANK3   BANK4   BANK5   BANK6   BANK7   BANK8   BANK9  BANK10  BANK1
      +1  BANK12  BANK14
  4585 ;;      Params:         4       0       0       0       0       0       0       0       0       0       0       0       
      +0       0       0
  4586 ;;      Locals:         6       0       0       0       0       0       0       0       0       0       0       0       
      +0       0       0
  4587 ;;      Temps:          4       0       0       0       0       0       0       0       0       0       0       0       
      +0       0       0
  4588 ;;      Totals:        14       0       0       0       0       0       0       0       0       0       0       0       
      +0       0       0
  4589 ;;Total ram usage:       14 bytes
  4590 ;; Hardware stack levels used: 1
  4591 ;; This function calls:
  4592 ;;		Nothing
  4593 ;; This function is called by:
  4594 ;;		_efgtoa
  4595 ;; This function uses a non-reentrant model
  4596 ;;
  4597                           
  4598                           	psect	text15
  4599   00318A                     __ptext15:
  4600                           	callstack 0
  4601   00318A                     ___fpclassifyf:
  4602                           	callstack 26
  4603   00318A  C0AE  F00B         	movff	___fpclassifyf@F465,___fpclassifyf@u
  4604   00318E  C0AF  F00C         	movff	___fpclassifyf@F465+1,___fpclassifyf@u+1
  4605   003192  C0B0  F00D         	movff	___fpclassifyf@F465+2,___fpclassifyf@u+2
  4606   003196  C0B1  F00E         	movff	___fpclassifyf@F465+3,___fpclassifyf@u+3
  4607   00319A  C001  F00B         	movff	___fpclassifyf@x,___fpclassifyf@u
  4608   00319E  C002  F00C         	movff	___fpclassifyf@x+1,___fpclassifyf@u+1
  4609   0031A2  C003  F00D         	movff	___fpclassifyf@x+2,___fpclassifyf@u+2
  4610   0031A6  C004  F00E         	movff	___fpclassifyf@x+3,___fpclassifyf@u+3
  4611   0031AA  C00B  F005         	movff	___fpclassifyf@u,??___fpclassifyf
  4612   0031AE  C00C  F006         	movff	___fpclassifyf@u+1,??___fpclassifyf+1
  4613   0031B2  C00D  F007         	movff	___fpclassifyf@u+2,??___fpclassifyf+2
  4614   0031B6  C00E  F008         	movff	___fpclassifyf@u+3,??___fpclassifyf+3
  4615   0031BA  0E18               	movlw	24
  4616   0031BC  EFE5  F018         	goto	u5230
  4617   0031C0                     u5235:
  4618   0031C0  90D8               	bcf	status,0,c
  4619   0031C2  3208               	rrcf	(??___fpclassifyf+3)^0,f,c
  4620   0031C4  3207               	rrcf	(??___fpclassifyf+2)^0,f,c
  4621   0031C6  3206               	rrcf	(??___fpclassifyf+1)^0,f,c
  4622   0031C8  3205               	rrcf	??___fpclassifyf^0,f,c
  4623   0031CA                     u5230:
  4624   0031CA  2EE8               	decfsz	wreg,f,c
  4625   0031CC  EFE0  F018         	goto	u5235
  4626   0031D0  5005               	movf	??___fpclassifyf^0,w,c
  4627   0031D2  6E09               	movwf	___fpclassifyf@e^0,c
  4628   0031D4  6A0A               	clrf	(___fpclassifyf@e+1)^0,c
  4629   0031D6  5009               	movf	___fpclassifyf@e^0,w,c
  4630   0031D8  100A               	iorwf	(___fpclassifyf@e+1)^0,w,c
  4631   0031DA  A4D8               	btfss	status,2,c
  4632   0031DC  EFF2  F018         	goto	u5241
  4633   0031E0  EFF4  F018         	goto	u5240
  4634   0031E4                     u5241:
  4635   0031E4  EF14  F019         	goto	l4989
  4636   0031E8                     u5240:
  4637   0031E8  90D8               	bcf	status,0,c
  4638   0031EA  340B               	rlcf	___fpclassifyf@u^0,w,c
  4639   0031EC  6E05               	movwf	??___fpclassifyf^0,c
  4640   0031EE  340C               	rlcf	(___fpclassifyf@u+1)^0,w,c
  4641   0031F0  6E06               	movwf	(??___fpclassifyf+1)^0,c
  4642   0031F2  340D               	rlcf	(___fpclassifyf@u+2)^0,w,c
  4643   0031F4  6E07               	movwf	(??___fpclassifyf+2)^0,c
  4644   0031F6  340E               	rlcf	(___fpclassifyf@u+3)^0,w,c
  4645   0031F8  6E08               	movwf	(??___fpclassifyf+3)^0,c
  4646   0031FA  5005               	movf	??___fpclassifyf^0,w,c
  4647   0031FC  1006               	iorwf	(??___fpclassifyf+1)^0,w,c
  4648   0031FE  1007               	iorwf	(??___fpclassifyf+2)^0,w,c
  4649   003200  1008               	iorwf	(??___fpclassifyf+3)^0,w,c
  4650   003202  A4D8               	btfss	status,2,c
  4651   003204  EF06  F019         	goto	u5251
  4652   003208  EF08  F019         	goto	u5250
  4653   00320C                     u5251:
  4654   00320C  EF0E  F019         	goto	l4985
  4655   003210                     u5250:
  4656   003210  0E00               	movlw	0
  4657   003212  6E02               	movwf	(?___fpclassifyf+1)^0,c
  4658   003214  0E02               	movlw	2
  4659   003216  6E01               	movwf	?___fpclassifyf^0,c
  4660   003218  EF43  F019         	goto	l1327
  4661   00321C                     l4985:
  4662   00321C  0E00               	movlw	0
  4663   00321E  6E02               	movwf	(?___fpclassifyf+1)^0,c
  4664   003220  0E03               	movlw	3
  4665   003222  6E01               	movwf	?___fpclassifyf^0,c
  4666   003224  EF43  F019         	goto	l1327
  4667   003228                     l4989:
  4668   003228  2809               	incf	___fpclassifyf@e^0,w,c
  4669   00322A  100A               	iorwf	(___fpclassifyf@e+1)^0,w,c
  4670   00322C  A4D8               	btfss	status,2,c
  4671   00322E  EF1B  F019         	goto	u5261
  4672   003232  EF1D  F019         	goto	u5260
  4673   003236                     u5261:
  4674   003236  EF3F  F019         	goto	l4995
  4675   00323A                     u5260:
  4676   00323A  C00B  F005         	movff	___fpclassifyf@u,??___fpclassifyf
  4677   00323E  C00C  F006         	movff	___fpclassifyf@u+1,??___fpclassifyf+1
  4678   003242  C00D  F007         	movff	___fpclassifyf@u+2,??___fpclassifyf+2
  4679   003246  C00E  F008         	movff	___fpclassifyf@u+3,??___fpclassifyf+3
  4680   00324A  0E09               	movlw	9
  4681   00324C                     u5275:
  4682   00324C  90D8               	bcf	status,0,c
  4683   00324E  3605               	rlcf	??___fpclassifyf^0,f,c
  4684   003250  3606               	rlcf	(??___fpclassifyf+1)^0,f,c
  4685   003252  3607               	rlcf	(??___fpclassifyf+2)^0,f,c
  4686   003254  3608               	rlcf	(??___fpclassifyf+3)^0,f,c
  4687   003256  2EE8               	decfsz	wreg,f,c
  4688   003258  EF26  F019         	goto	u5275
  4689   00325C  5005               	movf	??___fpclassifyf^0,w,c
  4690   00325E  1006               	iorwf	(??___fpclassifyf+1)^0,w,c
  4691   003260  1007               	iorwf	(??___fpclassifyf+2)^0,w,c
  4692   003262  1008               	iorwf	(??___fpclassifyf+3)^0,w,c
  4693   003264  B4D8               	btfsc	status,2,c
  4694   003266  EF37  F019         	goto	u5281
  4695   00326A  EF3A  F019         	goto	u5280
  4696   00326E                     u5281:
  4697   00326E  0E01               	movlw	1
  4698   003270  EF3B  F019         	goto	u5290
  4699   003274                     u5280:
  4700   003274  0E00               	movlw	0
  4701   003276                     u5290:
  4702   003276  6E01               	movwf	?___fpclassifyf^0,c
  4703   003278  6A02               	clrf	(?___fpclassifyf+1)^0,c
  4704   00327A  EF43  F019         	goto	l1327
  4705   00327E                     l4995:
  4706   00327E  0E00               	movlw	0
  4707   003280  6E02               	movwf	(?___fpclassifyf+1)^0,c
  4708   003282  0E04               	movlw	4
  4709   003284  6E01               	movwf	?___fpclassifyf^0,c
  4710   003286                     l1327:
  4711   003286  0012               	return		;funcret
  4712   003288                     __end_of___fpclassifyf:
  4713                           	callstack 0
  4714                           
  4715 ;; *************** function ___fltol *****************
  4716 ;; Defined at:
  4717 ;;		line 43 in file "/opt/microchip/xc8/v2.45/pic/sources/c99/common/fltol.c"
  4718 ;; Parameters:    Size  Location     Type
  4719 ;;  f1              4    0[COMRAM] int 
  4720 ;; Auto vars:     Size  Location     Type
  4721 ;;  exp1            1    9[COMRAM] unsigned char 
  4722 ;;  sign1           1    8[COMRAM] unsigned char 
  4723 ;; Return value:  Size  Location     Type
  4724 ;;                  4    0[COMRAM] long 
  4725 ;; Registers used:
  4726 ;;		wreg, status,2, status,0
  4727 ;; Tracked objects:
  4728 ;;		On entry : 0/0
  4729 ;;		On exit  : 0/0
  4730 ;;		Unchanged: 0/0
  4731 ;; Data sizes:     COMRAM   BANK0   BANK1   BANK2   BANK3   BANK4   BANK5   BANK6   BANK7   BANK8   BANK9  BANK10  BANK1
      +1  BANK12  BANK14
  4732 ;;      Params:         4       0       0       0       0       0       0       0       0       0       0       0       
      +0       0       0
  4733 ;;      Locals:         2       0       0       0       0       0       0       0       0       0       0       0       
      +0       0       0
  4734 ;;      Temps:          4       0       0       0       0       0       0       0       0       0       0       0       
      +0       0       0
  4735 ;;      Totals:        10       0       0       0       0       0       0       0       0       0       0       0       
      +0       0       0
  4736 ;;Total ram usage:       10 bytes
  4737 ;; Hardware stack levels used: 1
  4738 ;; This function calls:
  4739 ;;		Nothing
  4740 ;; This function is called by:
  4741 ;;		_efgtoa
  4742 ;; This function uses a non-reentrant model
  4743 ;;
  4744                           
  4745                           	psect	text16
  4746   002F80                     __ptext16:
  4747                           	callstack 0
  4748   002F80                     ___fltol:
  4749                           	callstack 26
  4750   002F80  3403               	rlcf	(___fltol@f1+2)^0,w,c
  4751   002F82  3404               	rlcf	(___fltol@f1+3)^0,w,c
  4752   002F84  6E0A               	movwf	___fltol@exp1^0,c
  4753   002F86  500A               	movf	___fltol@exp1^0,w,c
  4754   002F88  A4D8               	btfss	status,2,c
  4755   002F8A  EFC9  F017         	goto	u5141
  4756   002F8E  EFCB  F017         	goto	u5140
  4757   002F92                     u5141:
  4758   002F92  EFD5  F017         	goto	l4927
  4759   002F96                     u5140:
  4760   002F96                     l4923:
  4761   002F96  0E00               	movlw	0
  4762   002F98  6E01               	movwf	?___fltol^0,c
  4763   002F9A  0E00               	movlw	0
  4764   002F9C  6E02               	movwf	(?___fltol+1)^0,c
  4765   002F9E  0E00               	movlw	0
  4766   002FA0  6E03               	movwf	(?___fltol+2)^0,c
  4767   002FA2  0E00               	movlw	0
  4768   002FA4  6E04               	movwf	(?___fltol+3)^0,c
  4769   002FA6  EF42  F018         	goto	l814
  4770   002FAA                     l4927:
  4771   002FAA  C001  F005         	movff	___fltol@f1,??___fltol
  4772   002FAE  C002  F006         	movff	___fltol@f1+1,??___fltol+1
  4773   002FB2  C003  F007         	movff	___fltol@f1+2,??___fltol+2
  4774   002FB6  C004  F008         	movff	___fltol@f1+3,??___fltol+3
  4775   002FBA  0E20               	movlw	32
  4776   002FBC  EFE5  F017         	goto	u5150
  4777   002FC0                     u5155:
  4778   002FC0  90D8               	bcf	status,0,c
  4779   002FC2  3208               	rrcf	(??___fltol+3)^0,f,c
  4780   002FC4  3207               	rrcf	(??___fltol+2)^0,f,c
  4781   002FC6  3206               	rrcf	(??___fltol+1)^0,f,c
  4782   002FC8  3205               	rrcf	??___fltol^0,f,c
  4783   002FCA                     u5150:
  4784   002FCA  2EE8               	decfsz	wreg,f,c
  4785   002FCC  EFE0  F017         	goto	u5155
  4786   002FD0  5005               	movf	??___fltol^0,w,c
  4787   002FD2  6E09               	movwf	___fltol@sign1^0,c
  4788   002FD4  8E03               	bsf	(___fltol@f1+2)^0,7,c
  4789   002FD6  0EFF               	movlw	255
  4790   002FD8  1601               	andwf	___fltol@f1^0,f,c
  4791   002FDA  0EFF               	movlw	255
  4792   002FDC  1602               	andwf	(___fltol@f1+1)^0,f,c
  4793   002FDE  0EFF               	movlw	255
  4794   002FE0  1603               	andwf	(___fltol@f1+2)^0,f,c
  4795   002FE2  0E00               	movlw	0
  4796   002FE4  1604               	andwf	(___fltol@f1+3)^0,f,c
  4797   002FE6  0E96               	movlw	150
  4798   002FE8  5E0A               	subwf	___fltol@exp1^0,f,c
  4799   002FEA  BE0A               	btfsc	___fltol@exp1^0,7,c
  4800   002FEC  EFFC  F017         	goto	u5160
  4801   002FF0  EFFA  F017         	goto	u5161
  4802   002FF4                     u5161:
  4803   002FF4  EF12  F018         	goto	l4947
  4804   002FF8                     u5160:
  4805   002FF8  500A               	movf	___fltol@exp1^0,w,c
  4806   002FFA  0A80               	xorlw	128
  4807   002FFC  0F97               	addlw	151
  4808   002FFE  B0D8               	btfsc	status,0,c
  4809   003000  EF04  F018         	goto	u5171
  4810   003004  EF06  F018         	goto	u5170
  4811   003008                     u5171:
  4812   003008  EF08  F018         	goto	l4943
  4813   00300C                     u5170:
  4814   00300C  EFCB  F017         	goto	l4923
  4815   003010                     l4943:
  4816   003010  90D8               	bcf	status,0,c
  4817   003012  3204               	rrcf	(___fltol@f1+3)^0,f,c
  4818   003014  3203               	rrcf	(___fltol@f1+2)^0,f,c
  4819   003016  3202               	rrcf	(___fltol@f1+1)^0,f,c
  4820   003018  3201               	rrcf	___fltol@f1^0,f,c
  4821   00301A  3E0A               	incfsz	___fltol@exp1^0,f,c
  4822   00301C  EF08  F018         	goto	l4943
  4823   003020  EF2A  F018         	goto	l4957
  4824   003024                     l4947:
  4825   003024  0E1F               	movlw	31
  4826   003026  640A               	cpfsgt	___fltol@exp1^0,c
  4827   003028  EF18  F018         	goto	u5181
  4828   00302C  EF1A  F018         	goto	u5180
  4829   003030                     u5181:
  4830   003030  EF22  F018         	goto	l4955
  4831   003034                     u5180:
  4832   003034  EFCB  F017         	goto	l4923
  4833   003038                     l4953:
  4834   003038  90D8               	bcf	status,0,c
  4835   00303A  3601               	rlcf	___fltol@f1^0,f,c
  4836   00303C  3602               	rlcf	(___fltol@f1+1)^0,f,c
  4837   00303E  3603               	rlcf	(___fltol@f1+2)^0,f,c
  4838   003040  3604               	rlcf	(___fltol@f1+3)^0,f,c
  4839   003042  060A               	decf	___fltol@exp1^0,f,c
  4840   003044                     l4955:
  4841   003044  500A               	movf	___fltol@exp1^0,w,c
  4842   003046  A4D8               	btfss	status,2,c
  4843   003048  EF28  F018         	goto	u5191
  4844   00304C  EF2A  F018         	goto	u5190
  4845   003050                     u5191:
  4846   003050  EF1C  F018         	goto	l4953
  4847   003054                     u5190:
  4848   003054                     l4957:
  4849   003054  5009               	movf	___fltol@sign1^0,w,c
  4850   003056  B4D8               	btfsc	status,2,c
  4851   003058  EF30  F018         	goto	u5201
  4852   00305C  EF32  F018         	goto	u5200
  4853   003060                     u5201:
  4854   003060  EF3A  F018         	goto	l4961
  4855   003064                     u5200:
  4856   003064  1E04               	comf	(___fltol@f1+3)^0,f,c
  4857   003066  1E03               	comf	(___fltol@f1+2)^0,f,c
  4858   003068  1E02               	comf	(___fltol@f1+1)^0,f,c
  4859   00306A  6C01               	negf	___fltol@f1^0,c
  4860   00306C  0E00               	movlw	0
  4861   00306E  2202               	addwfc	(___fltol@f1+1)^0,f,c
  4862   003070  2203               	addwfc	(___fltol@f1+2)^0,f,c
  4863   003072  2204               	addwfc	(___fltol@f1+3)^0,f,c
  4864   003074                     l4961:
  4865   003074  C001  F001         	movff	___fltol@f1,?___fltol
  4866   003078  C002  F002         	movff	___fltol@f1+1,?___fltol+1
  4867   00307C  C003  F003         	movff	___fltol@f1+2,?___fltol+2
  4868   003080  C004  F004         	movff	___fltol@f1+3,?___fltol+3
  4869   003084                     l814:
  4870   003084  0012               	return		;funcret
  4871   003086                     __end_of___fltol:
  4872                           	callstack 0
  4873                           
  4874 ;; *************** function ___flsub *****************
  4875 ;; Defined at:
  4876 ;;		line 245 in file "/opt/microchip/xc8/v2.45/pic/sources/c99/common/sprcadd.c"
  4877 ;; Parameters:    Size  Location     Type
  4878 ;;  b               4   64[COMRAM] long 
  4879 ;;  a               4   68[COMRAM] long 
  4880 ;; Auto vars:     Size  Location     Type
  4881 ;;		None
  4882 ;; Return value:  Size  Location     Type
  4883 ;;                  4   64[COMRAM] long 
  4884 ;; Registers used:
  4885 ;;		wreg, status,2, status,0, cstack
  4886 ;; Tracked objects:
  4887 ;;		On entry : 0/0
  4888 ;;		On exit  : 0/0
  4889 ;;		Unchanged: 0/0
  4890 ;; Data sizes:     COMRAM   BANK0   BANK1   BANK2   BANK3   BANK4   BANK5   BANK6   BANK7   BANK8   BANK9  BANK10  BANK1
      +1  BANK12  BANK14
  4891 ;;      Params:         8       0       0       0       0       0       0       0       0       0       0       0       
      +0       0       0
  4892 ;;      Locals:         0       0       0       0       0       0       0       0       0       0       0       0       
      +0       0       0
  4893 ;;      Temps:          0       0       0       0       0       0       0       0       0       0       0       0       
      +0       0       0
  4894 ;;      Totals:         8       0       0       0       0       0       0       0       0       0       0       0       
      +0       0       0
  4895 ;;Total ram usage:        8 bytes
  4896 ;; Hardware stack levels used: 1
  4897 ;; Hardware stack levels required when called: 1
  4898 ;; This function calls:
  4899 ;;		___fladd
  4900 ;; This function is called by:
  4901 ;;		_efgtoa
  4902 ;; This function uses a non-reentrant model
  4903 ;;
  4904                           
  4905                           	psect	text17
  4906   0037F4                     __ptext17:
  4907                           	callstack 0
  4908   0037F4                     ___flsub:
  4909                           	callstack 25
  4910   0037F4  0E00               	movlw	0
  4911   0037F6  1A45               	xorwf	___flsub@a^0,f,c
  4912   0037F8  0E00               	movlw	0
  4913   0037FA  1A46               	xorwf	(___flsub@a+1)^0,f,c
  4914   0037FC  0E00               	movlw	0
  4915   0037FE  1A47               	xorwf	(___flsub@a+2)^0,f,c
  4916   003800  0E80               	movlw	128
  4917   003802  1A48               	xorwf	(___flsub@a+3)^0,f,c
  4918   003804  C041  F001         	movff	___flsub@b,___fladd@b
  4919   003808  C042  F002         	movff	___flsub@b+1,___fladd@b+1
  4920   00380C  C043  F003         	movff	___flsub@b+2,___fladd@b+2
  4921   003810  C044  F004         	movff	___flsub@b+3,___fladd@b+3
  4922   003814  C045  F005         	movff	___flsub@a,___fladd@a
  4923   003818  C046  F006         	movff	___flsub@a+1,___fladd@a+1
  4924   00381C  C047  F007         	movff	___flsub@a+2,___fladd@a+2
  4925   003820  C048  F008         	movff	___flsub@a+3,___fladd@a+3
  4926   003824  EC7C  F00C         	call	___fladd	;wreg free
  4927   003828  C001  F041         	movff	?___fladd,?___flsub
  4928   00382C  C002  F042         	movff	?___fladd+1,?___flsub+1
  4929   003830  C003  F043         	movff	?___fladd+2,?___flsub+2
  4930   003834  C004  F044         	movff	?___fladd+3,?___flsub+3
  4931   003838  0012               	return		;funcret
  4932   00383A                     __end_of___flsub:
  4933                           	callstack 0
  4934                           
  4935 ;; *************** function ___fladd *****************
  4936 ;; Defined at:
  4937 ;;		line 10 in file "/opt/microchip/xc8/v2.45/pic/sources/c99/common/sprcadd.c"
  4938 ;; Parameters:    Size  Location     Type
  4939 ;;  b               4    0[COMRAM] long 
  4940 ;;  a               4    4[COMRAM] long 
  4941 ;; Auto vars:     Size  Location     Type
  4942 ;;  grs             1   15[COMRAM] unsigned char 
  4943 ;;  bexp            1   14[COMRAM] unsigned char 
  4944 ;;  aexp            1   13[COMRAM] unsigned char 
  4945 ;;  signs           1   12[COMRAM] unsigned char 
  4946 ;; Return value:  Size  Location     Type
  4947 ;;                  4    0[COMRAM] unsigned char 
  4948 ;; Registers used:
  4949 ;;		wreg, status,2, status,0
  4950 ;; Tracked objects:
  4951 ;;		On entry : 0/0
  4952 ;;		On exit  : 0/0
  4953 ;;		Unchanged: 0/0
  4954 ;; Data sizes:     COMRAM   BANK0   BANK1   BANK2   BANK3   BANK4   BANK5   BANK6   BANK7   BANK8   BANK9  BANK10  BANK1
      +1  BANK12  BANK14
  4955 ;;      Params:         8       0       0       0       0       0       0       0       0       0       0       0       
      +0       0       0
  4956 ;;      Locals:         4       0       0       0       0       0       0       0       0       0       0       0       
      +0       0       0
  4957 ;;      Temps:          4       0       0       0       0       0       0       0       0       0       0       0       
      +0       0       0
  4958 ;;      Totals:        16       0       0       0       0       0       0       0       0       0       0       0       
      +0       0       0
  4959 ;;Total ram usage:       16 bytes
  4960 ;; Hardware stack levels used: 1
  4961 ;; This function calls:
  4962 ;;		Nothing
  4963 ;; This function is called by:
  4964 ;;		___flsub
  4965 ;;		_efgtoa
  4966 ;; This function uses a non-reentrant model
  4967 ;;
  4968                           
  4969                           	psect	text18
  4970   0018F8                     __ptext18:
  4971                           	callstack 0
  4972   0018F8                     ___fladd:
  4973                           	callstack 25
  4974   0018F8  5004               	movf	(___fladd@b+3)^0,w,c
  4975   0018FA  0B80               	andlw	128
  4976   0018FC  6E0D               	movwf	___fladd@signs^0,c
  4977   0018FE  5004               	movf	(___fladd@b+3)^0,w,c
  4978   001900  2404               	addwf	(___fladd@b+3)^0,w,c
  4979   001902  6E0F               	movwf	___fladd@bexp^0,c
  4980   001904  AE03               	btfss	(___fladd@b+2)^0,7,c
  4981   001906  EF87  F00C         	goto	u4231
  4982   00190A  EF89  F00C         	goto	u4230
  4983   00190E                     u4231:
  4984   00190E  EF8A  F00C         	goto	l4397
  4985   001912                     u4230:
  4986   001912  800F               	bsf	___fladd@bexp^0,0,c
  4987   001914                     l4397:
  4988   001914  500F               	movf	___fladd@bexp^0,w,c
  4989   001916  B4D8               	btfsc	status,2,c
  4990   001918  EF90  F00C         	goto	u4241
  4991   00191C  EF92  F00C         	goto	u4240
  4992   001920                     u4241:
  4993   001920  EFA7  F00C         	goto	l4407
  4994   001924                     u4240:
  4995   001924  280F               	incf	___fladd@bexp^0,w,c
  4996   001926  A4D8               	btfss	status,2,c
  4997   001928  EF98  F00C         	goto	u4251
  4998   00192C  EF9A  F00C         	goto	u4250
  4999   001930                     u4251:
  5000   001930  EFA2  F00C         	goto	l4403
  5001   001934                     u4250:
  5002   001934  0E00               	movlw	0
  5003   001936  6E01               	movwf	___fladd@b^0,c
  5004   001938  0E00               	movlw	0
  5005   00193A  6E02               	movwf	(___fladd@b+1)^0,c
  5006   00193C  0E00               	movlw	0
  5007   00193E  6E03               	movwf	(___fladd@b+2)^0,c
  5008   001940  0E00               	movlw	0
  5009   001942  6E04               	movwf	(___fladd@b+3)^0,c
  5010   001944                     l4403:
  5011   001944  8E03               	bsf	(___fladd@b+2)^0,7,c
  5012   001946  0E00               	movlw	0
  5013   001948  6E04               	movwf	(___fladd@b+3)^0,c
  5014   00194A  EFAF  F00C         	goto	l4409
  5015   00194E                     l4407:
  5016   00194E  0E00               	movlw	0
  5017   001950  6E01               	movwf	___fladd@b^0,c
  5018   001952  0E00               	movlw	0
  5019   001954  6E02               	movwf	(___fladd@b+1)^0,c
  5020   001956  0E00               	movlw	0
  5021   001958  6E03               	movwf	(___fladd@b+2)^0,c
  5022   00195A  0E00               	movlw	0
  5023   00195C  6E04               	movwf	(___fladd@b+3)^0,c
  5024   00195E                     l4409:
  5025   00195E  5008               	movf	(___fladd@a+3)^0,w,c
  5026   001960  0B80               	andlw	128
  5027   001962  6E0E               	movwf	___fladd@aexp^0,c
  5028   001964  500D               	movf	___fladd@signs^0,w,c
  5029   001966  180E               	xorwf	___fladd@aexp^0,w,c
  5030   001968  B4D8               	btfsc	status,2,c
  5031   00196A  EFB9  F00C         	goto	u4261
  5032   00196E  EFBB  F00C         	goto	u4260
  5033   001972                     u4261:
  5034   001972  EFBC  F00C         	goto	l4415
  5035   001976                     u4260:
  5036   001976  8C0D               	bsf	___fladd@signs^0,6,c
  5037   001978                     l4415:
  5038   001978  5008               	movf	(___fladd@a+3)^0,w,c
  5039   00197A  2408               	addwf	(___fladd@a+3)^0,w,c
  5040   00197C  6E0E               	movwf	___fladd@aexp^0,c
  5041   00197E  AE07               	btfss	(___fladd@a+2)^0,7,c
  5042   001980  EFC4  F00C         	goto	u4271
  5043   001984  EFC6  F00C         	goto	u4270
  5044   001988                     u4271:
  5045   001988  EFC7  F00C         	goto	l4421
  5046   00198C                     u4270:
  5047   00198C  800E               	bsf	___fladd@aexp^0,0,c
  5048   00198E                     l4421:
  5049   00198E  500E               	movf	___fladd@aexp^0,w,c
  5050   001990  B4D8               	btfsc	status,2,c
  5051   001992  EFCD  F00C         	goto	u4281
  5052   001996  EFCF  F00C         	goto	u4280
  5053   00199A                     u4281:
  5054   00199A  EFE4  F00C         	goto	l4431
  5055   00199E                     u4280:
  5056   00199E  280E               	incf	___fladd@aexp^0,w,c
  5057   0019A0  A4D8               	btfss	status,2,c
  5058   0019A2  EFD5  F00C         	goto	u4291
  5059   0019A6  EFD7  F00C         	goto	u4290
  5060   0019AA                     u4291:
  5061   0019AA  EFDF  F00C         	goto	l4427
  5062   0019AE                     u4290:
  5063   0019AE  0E00               	movlw	0
  5064   0019B0  6E05               	movwf	___fladd@a^0,c
  5065   0019B2  0E00               	movlw	0
  5066   0019B4  6E06               	movwf	(___fladd@a+1)^0,c
  5067   0019B6  0E00               	movlw	0
  5068   0019B8  6E07               	movwf	(___fladd@a+2)^0,c
  5069   0019BA  0E00               	movlw	0
  5070   0019BC  6E08               	movwf	(___fladd@a+3)^0,c
  5071   0019BE                     l4427:
  5072   0019BE  8E07               	bsf	(___fladd@a+2)^0,7,c
  5073   0019C0  0E00               	movlw	0
  5074   0019C2  6E08               	movwf	(___fladd@a+3)^0,c
  5075   0019C4  EFEC  F00C         	goto	l4433
  5076   0019C8                     l4431:
  5077   0019C8  0E00               	movlw	0
  5078   0019CA  6E05               	movwf	___fladd@a^0,c
  5079   0019CC  0E00               	movlw	0
  5080   0019CE  6E06               	movwf	(___fladd@a+1)^0,c
  5081   0019D0  0E00               	movlw	0
  5082   0019D2  6E07               	movwf	(___fladd@a+2)^0,c
  5083   0019D4  0E00               	movlw	0
  5084   0019D6  6E08               	movwf	(___fladd@a+3)^0,c
  5085   0019D8                     l4433:
  5086   0019D8  500F               	movf	___fladd@bexp^0,w,c
  5087   0019DA  5C0E               	subwf	___fladd@aexp^0,w,c
  5088   0019DC  B0D8               	btfsc	status,0,c
  5089   0019DE  EFF3  F00C         	goto	u4301
  5090   0019E2  EFF5  F00C         	goto	u4300
  5091   0019E6                     u4301:
  5092   0019E6  EF1C  F00D         	goto	l4469
  5093   0019EA                     u4300:
  5094   0019EA  AC0D               	btfss	___fladd@signs^0,6,c
  5095   0019EC  EFFA  F00C         	goto	u4311
  5096   0019F0  EFFC  F00C         	goto	u4310
  5097   0019F4                     u4311:
  5098   0019F4  EFFE  F00C         	goto	l4439
  5099   0019F8                     u4310:
  5100   0019F8  0E80               	movlw	128
  5101   0019FA  1A0D               	xorwf	___fladd@signs^0,f,c
  5102   0019FC                     l4439:
  5103   0019FC  C00F  F010         	movff	___fladd@bexp,___fladd@grs
  5104   001A00  C00E  F00F         	movff	___fladd@aexp,___fladd@bexp
  5105   001A04  C010  F00E         	movff	___fladd@grs,___fladd@aexp
  5106   001A08  C001  F010         	movff	___fladd@b,___fladd@grs
  5107   001A0C  C005  F001         	movff	___fladd@a,___fladd@b
  5108   001A10  C010  F005         	movff	___fladd@grs,___fladd@a
  5109   001A14  C002  F010         	movff	___fladd@b+1,___fladd@grs
  5110   001A18  C006  F002         	movff	___fladd@a+1,___fladd@b+1
  5111   001A1C  C010  F006         	movff	___fladd@grs,___fladd@a+1
  5112   001A20  C003  F010         	movff	___fladd@b+2,___fladd@grs
  5113   001A24  C007  F003         	movff	___fladd@a+2,___fladd@b+2
  5114   001A28  C010  F007         	movff	___fladd@grs,___fladd@a+2
  5115   001A2C  C004  F010         	movff	___fladd@b+3,___fladd@grs
  5116   001A30  C008  F004         	movff	___fladd@a+3,___fladd@b+3
  5117   001A34  C010  F008         	movff	___fladd@grs,___fladd@a+3
  5118   001A38                     l4469:
  5119   001A38  0E00               	movlw	0
  5120   001A3A  6E10               	movwf	___fladd@grs^0,c
  5121   001A3C  500F               	movf	___fladd@bexp^0,w,c
  5122   001A3E  C00E  F009         	movff	___fladd@aexp,??___fladd
  5123   001A42  6A0A               	clrf	(??___fladd+1)^0,c
  5124   001A44  5E09               	subwf	??___fladd^0,f,c
  5125   001A46  0E00               	movlw	0
  5126   001A48  5A0A               	subwfb	(??___fladd+1)^0,f,c
  5127   001A4A  BE0A               	btfsc	(??___fladd+1)^0,7,c
  5128   001A4C  EF31  F00D         	goto	u4321
  5129   001A50  500A               	movf	(??___fladd+1)^0,w,c
  5130   001A52  E109               	bnz	u4320
  5131   001A54  0E1A               	movlw	26
  5132   001A56  5C09               	subwf	??___fladd^0,w,c
  5133   001A58  A0D8               	btfss	status,0,c
  5134   001A5A  EF31  F00D         	goto	u4321
  5135   001A5E  EF33  F00D         	goto	u4320
  5136   001A62                     u4321:
  5137   001A62  EF6A  F00D         	goto	l1046
  5138   001A66                     u4320:
  5139   001A66  5001               	movf	___fladd@b^0,w,c
  5140   001A68  1002               	iorwf	(___fladd@b+1)^0,w,c
  5141   001A6A  1003               	iorwf	(___fladd@b+2)^0,w,c
  5142   001A6C  1004               	iorwf	(___fladd@b+3)^0,w,c
  5143   001A6E  A4D8               	btfss	status,2,c
  5144   001A70  EF3C  F00D         	goto	u4331
  5145   001A74  EF3F  F00D         	goto	u4330
  5146   001A78                     u4331:
  5147   001A78  0E01               	movlw	1
  5148   001A7A  EF40  F00D         	goto	u4340
  5149   001A7E                     u4330:
  5150   001A7E  0E00               	movlw	0
  5151   001A80                     u4340:
  5152   001A80  6E10               	movwf	___fladd@grs^0,c
  5153   001A82  0E00               	movlw	0
  5154   001A84  6E01               	movwf	___fladd@b^0,c
  5155   001A86  0E00               	movlw	0
  5156   001A88  6E02               	movwf	(___fladd@b+1)^0,c
  5157   001A8A  0E00               	movlw	0
  5158   001A8C  6E03               	movwf	(___fladd@b+2)^0,c
  5159   001A8E  0E00               	movlw	0
  5160   001A90  6E04               	movwf	(___fladd@b+3)^0,c
  5161   001A92  C00E  F00F         	movff	___fladd@aexp,___fladd@bexp
  5162   001A96  EF73  F00D         	goto	l1045
  5163   001A9A                     l1047:
  5164   001A9A  A010               	btfss	___fladd@grs^0,0,c
  5165   001A9C  EF52  F00D         	goto	u4351
  5166   001AA0  EF54  F00D         	goto	u4350
  5167   001AA4                     u4351:
  5168   001AA4  EF5A  F00D         	goto	l4481
  5169   001AA8                     u4350:
  5170   001AA8  90D8               	bcf	status,0,c
  5171   001AAA  3010               	rrcf	___fladd@grs^0,w,c
  5172   001AAC  0901               	iorlw	1
  5173   001AAE  6E10               	movwf	___fladd@grs^0,c
  5174   001AB0  EF5C  F00D         	goto	l4483
  5175   001AB4                     l4481:
  5176   001AB4  90D8               	bcf	status,0,c
  5177   001AB6  3210               	rrcf	___fladd@grs^0,f,c
  5178   001AB8                     l4483:
  5179   001AB8  A001               	btfss	___fladd@b^0,0,c
  5180   001ABA  EF61  F00D         	goto	u4361
  5181   001ABE  EF63  F00D         	goto	u4360
  5182   001AC2                     u4361:
  5183   001AC2  EF64  F00D         	goto	l4487
  5184   001AC6                     u4360:
  5185   001AC6  8E10               	bsf	___fladd@grs^0,7,c
  5186   001AC8                     l4487:
  5187   001AC8  3404               	rlcf	(___fladd@b+3)^0,w,c
  5188   001ACA  3204               	rrcf	(___fladd@b+3)^0,f,c
  5189   001ACC  3203               	rrcf	(___fladd@b+2)^0,f,c
  5190   001ACE  3202               	rrcf	(___fladd@b+1)^0,f,c
  5191   001AD0  3201               	rrcf	___fladd@b^0,f,c
  5192   001AD2  2A0F               	incf	___fladd@bexp^0,f,c
  5193   001AD4                     l1046:
  5194   001AD4  500E               	movf	___fladd@aexp^0,w,c
  5195   001AD6  5C0F               	subwf	___fladd@bexp^0,w,c
  5196   001AD8  A0D8               	btfss	status,0,c
  5197   001ADA  EF71  F00D         	goto	u4371
  5198   001ADE  EF73  F00D         	goto	u4370
  5199   001AE2                     u4371:
  5200   001AE2  EF4D  F00D         	goto	l1047
  5201   001AE6                     u4370:
  5202   001AE6                     l1045:
  5203   001AE6  BC0D               	btfsc	___fladd@signs^0,6,c
  5204   001AE8  EF78  F00D         	goto	u4381
  5205   001AEC  EF7A  F00D         	goto	u4380
  5206   001AF0                     u4381:
  5207   001AF0  EFBA  F00D         	goto	l4515
  5208   001AF4                     u4380:
  5209   001AF4  500F               	movf	___fladd@bexp^0,w,c
  5210   001AF6  A4D8               	btfss	status,2,c
  5211   001AF8  EF80  F00D         	goto	u4391
  5212   001AFC  EF82  F00D         	goto	u4390
  5213   001B00                     u4391:
  5214   001B00  EF8C  F00D         	goto	l4497
  5215   001B04                     u4390:
  5216   001B04  0E00               	movlw	0
  5217   001B06  6E01               	movwf	?___fladd^0,c
  5218   001B08  0E00               	movlw	0
  5219   001B0A  6E02               	movwf	(?___fladd+1)^0,c
  5220   001B0C  0E00               	movlw	0
  5221   001B0E  6E03               	movwf	(?___fladd+2)^0,c
  5222   001B10  0E00               	movlw	0
  5223   001B12  6E04               	movwf	(?___fladd+3)^0,c
  5224   001B14  EFDB  F00E         	goto	l1054
  5225   001B18                     l4497:
  5226   001B18  5005               	movf	___fladd@a^0,w,c
  5227   001B1A  2601               	addwf	___fladd@b^0,f,c
  5228   001B1C  5006               	movf	(___fladd@a+1)^0,w,c
  5229   001B1E  2202               	addwfc	(___fladd@b+1)^0,f,c
  5230   001B20  5007               	movf	(___fladd@a+2)^0,w,c
  5231   001B22  2203               	addwfc	(___fladd@b+2)^0,f,c
  5232   001B24  5008               	movf	(___fladd@a+3)^0,w,c
  5233   001B26  2204               	addwfc	(___fladd@b+3)^0,f,c
  5234   001B28  A004               	btfss	(___fladd@b+3)^0,0,c
  5235   001B2A  EF99  F00D         	goto	u4401
  5236   001B2E  EF9B  F00D         	goto	u4400
  5237   001B32                     u4401:
  5238   001B32  EF47  F00E         	goto	l4551
  5239   001B36                     u4400:
  5240   001B36  A010               	btfss	___fladd@grs^0,0,c
  5241   001B38  EFA0  F00D         	goto	u4411
  5242   001B3C  EFA2  F00D         	goto	u4410
  5243   001B40                     u4411:
  5244   001B40  EFA8  F00D         	goto	l4505
  5245   001B44                     u4410:
  5246   001B44  90D8               	bcf	status,0,c
  5247   001B46  3010               	rrcf	___fladd@grs^0,w,c
  5248   001B48  0901               	iorlw	1
  5249   001B4A  6E10               	movwf	___fladd@grs^0,c
  5250   001B4C  EFAA  F00D         	goto	l4507
  5251   001B50                     l4505:
  5252   001B50  90D8               	bcf	status,0,c
  5253   001B52  3210               	rrcf	___fladd@grs^0,f,c
  5254   001B54                     l4507:
  5255   001B54  A001               	btfss	___fladd@b^0,0,c
  5256   001B56  EFAF  F00D         	goto	u4421
  5257   001B5A  EFB1  F00D         	goto	u4420
  5258   001B5E                     u4421:
  5259   001B5E  EFB2  F00D         	goto	l4511
  5260   001B62                     u4420:
  5261   001B62  8E10               	bsf	___fladd@grs^0,7,c
  5262   001B64                     l4511:
  5263   001B64  3404               	rlcf	(___fladd@b+3)^0,w,c
  5264   001B66  3204               	rrcf	(___fladd@b+3)^0,f,c
  5265   001B68  3203               	rrcf	(___fladd@b+2)^0,f,c
  5266   001B6A  3202               	rrcf	(___fladd@b+1)^0,f,c
  5267   001B6C  3201               	rrcf	___fladd@b^0,f,c
  5268   001B6E  2A0F               	incf	___fladd@bexp^0,f,c
  5269   001B70  EF47  F00E         	goto	l4551
  5270   001B74                     l4515:
  5271   001B74  5005               	movf	___fladd@a^0,w,c
  5272   001B76  5C01               	subwf	___fladd@b^0,w,c
  5273   001B78  5006               	movf	(___fladd@a+1)^0,w,c
  5274   001B7A  5802               	subwfb	(___fladd@b+1)^0,w,c
  5275   001B7C  5007               	movf	(___fladd@a+2)^0,w,c
  5276   001B7E  5803               	subwfb	(___fladd@b+2)^0,w,c
  5277   001B80  5004               	movf	(___fladd@b+3)^0,w,c
  5278   001B82  0A80               	xorlw	128
  5279   001B84  6E09               	movwf	??___fladd^0,c
  5280   001B86  5008               	movf	(___fladd@a+3)^0,w,c
  5281   001B88  0A80               	xorlw	128
  5282   001B8A  5809               	subwfb	??___fladd^0,w,c
  5283   001B8C  B0D8               	btfsc	status,0,c
  5284   001B8E  EFCB  F00D         	goto	u4431
  5285   001B92  EFCD  F00D         	goto	u4430
  5286   001B96                     u4431:
  5287   001B96  EFF8  F00D         	goto	l4525
  5288   001B9A                     u4430:
  5289   001B9A  5001               	movf	___fladd@b^0,w,c
  5290   001B9C  5C05               	subwf	___fladd@a^0,w,c
  5291   001B9E  6E09               	movwf	??___fladd^0,c
  5292   001BA0  5002               	movf	(___fladd@b+1)^0,w,c
  5293   001BA2  5806               	subwfb	(___fladd@a+1)^0,w,c
  5294   001BA4  6E0A               	movwf	(??___fladd+1)^0,c
  5295   001BA6  5003               	movf	(___fladd@b+2)^0,w,c
  5296   001BA8  5807               	subwfb	(___fladd@a+2)^0,w,c
  5297   001BAA  6E0B               	movwf	(??___fladd+2)^0,c
  5298   001BAC  5004               	movf	(___fladd@b+3)^0,w,c
  5299   001BAE  5808               	subwfb	(___fladd@a+3)^0,w,c
  5300   001BB0  6E0C               	movwf	(??___fladd+3)^0,c
  5301   001BB2  0EFF               	movlw	255
  5302   001BB4  2409               	addwf	??___fladd^0,w,c
  5303   001BB6  6E01               	movwf	___fladd@b^0,c
  5304   001BB8  0EFF               	movlw	255
  5305   001BBA  200A               	addwfc	(??___fladd+1)^0,w,c
  5306   001BBC  6E02               	movwf	(___fladd@b+1)^0,c
  5307   001BBE  0EFF               	movlw	255
  5308   001BC0  200B               	addwfc	(??___fladd+2)^0,w,c
  5309   001BC2  6E03               	movwf	(___fladd@b+2)^0,c
  5310   001BC4  0EFF               	movlw	255
  5311   001BC6  200C               	addwfc	(??___fladd+3)^0,w,c
  5312   001BC8  6E04               	movwf	(___fladd@b+3)^0,c
  5313   001BCA  0E80               	movlw	128
  5314   001BCC  1A0D               	xorwf	___fladd@signs^0,f,c
  5315   001BCE  6C10               	negf	___fladd@grs^0,c
  5316   001BD0  5010               	movf	___fladd@grs^0,w,c
  5317   001BD2  A4D8               	btfss	status,2,c
  5318   001BD4  EFEE  F00D         	goto	u4441
  5319   001BD8  EFF0  F00D         	goto	u4440
  5320   001BDC                     u4441:
  5321   001BDC  EF00  F00E         	goto	l1062
  5322   001BE0                     u4440:
  5323   001BE0  0E01               	movlw	1
  5324   001BE2  2601               	addwf	___fladd@b^0,f,c
  5325   001BE4  0E00               	movlw	0
  5326   001BE6  2202               	addwfc	(___fladd@b+1)^0,f,c
  5327   001BE8  2203               	addwfc	(___fladd@b+2)^0,f,c
  5328   001BEA  2204               	addwfc	(___fladd@b+3)^0,f,c
  5329   001BEC  EF00  F00E         	goto	l1062
  5330   001BF0                     l4525:
  5331   001BF0  5005               	movf	___fladd@a^0,w,c
  5332   001BF2  5E01               	subwf	___fladd@b^0,f,c
  5333   001BF4  5006               	movf	(___fladd@a+1)^0,w,c
  5334   001BF6  5A02               	subwfb	(___fladd@b+1)^0,f,c
  5335   001BF8  5007               	movf	(___fladd@a+2)^0,w,c
  5336   001BFA  5A03               	subwfb	(___fladd@b+2)^0,f,c
  5337   001BFC  5008               	movf	(___fladd@a+3)^0,w,c
  5338   001BFE  5A04               	subwfb	(___fladd@b+3)^0,f,c
  5339   001C00                     l1062:
  5340   001C00  5001               	movf	___fladd@b^0,w,c
  5341   001C02  1002               	iorwf	(___fladd@b+1)^0,w,c
  5342   001C04  1003               	iorwf	(___fladd@b+2)^0,w,c
  5343   001C06  1004               	iorwf	(___fladd@b+3)^0,w,c
  5344   001C08  A4D8               	btfss	status,2,c
  5345   001C0A  EF09  F00E         	goto	u4451
  5346   001C0E  EF0B  F00E         	goto	u4450
  5347   001C12                     u4451:
  5348   001C12  EF40  F00E         	goto	l4549
  5349   001C16                     u4450:
  5350   001C16  5010               	movf	___fladd@grs^0,w,c
  5351   001C18  A4D8               	btfss	status,2,c
  5352   001C1A  EF11  F00E         	goto	u4461
  5353   001C1E  EF13  F00E         	goto	u4460
  5354   001C22                     u4461:
  5355   001C22  EF40  F00E         	goto	l4549
  5356   001C26                     u4460:
  5357   001C26  0E00               	movlw	0
  5358   001C28  6E01               	movwf	?___fladd^0,c
  5359   001C2A  0E00               	movlw	0
  5360   001C2C  6E02               	movwf	(?___fladd+1)^0,c
  5361   001C2E  0E00               	movlw	0
  5362   001C30  6E03               	movwf	(?___fladd+2)^0,c
  5363   001C32  0E00               	movlw	0
  5364   001C34  6E04               	movwf	(?___fladd+3)^0,c
  5365   001C36  EFDB  F00E         	goto	l1054
  5366   001C3A                     l4533:
  5367   001C3A  90D8               	bcf	status,0,c
  5368   001C3C  3601               	rlcf	___fladd@b^0,f,c
  5369   001C3E  3602               	rlcf	(___fladd@b+1)^0,f,c
  5370   001C40  3603               	rlcf	(___fladd@b+2)^0,f,c
  5371   001C42  3604               	rlcf	(___fladd@b+3)^0,f,c
  5372   001C44  AE10               	btfss	___fladd@grs^0,7,c
  5373   001C46  EF27  F00E         	goto	u4471
  5374   001C4A  EF29  F00E         	goto	u4470
  5375   001C4E                     u4471:
  5376   001C4E  EF2A  F00E         	goto	l4539
  5377   001C52                     u4470:
  5378   001C52  8001               	bsf	___fladd@b^0,0,c
  5379   001C54                     l4539:
  5380   001C54  A010               	btfss	___fladd@grs^0,0,c
  5381   001C56  EF2F  F00E         	goto	u4481
  5382   001C5A  EF31  F00E         	goto	u4480
  5383   001C5E                     u4481:
  5384   001C5E  EF35  F00E         	goto	l4543
  5385   001C62                     u4480:
  5386   001C62  80D8               	bsf	status,0,c
  5387   001C64  3610               	rlcf	___fladd@grs^0,f,c
  5388   001C66  EF37  F00E         	goto	l4545
  5389   001C6A                     l4543:
  5390   001C6A  90D8               	bcf	status,0,c
  5391   001C6C  3610               	rlcf	___fladd@grs^0,f,c
  5392   001C6E                     l4545:
  5393   001C6E  500F               	movf	___fladd@bexp^0,w,c
  5394   001C70  B4D8               	btfsc	status,2,c
  5395   001C72  EF3D  F00E         	goto	u4491
  5396   001C76  EF3F  F00E         	goto	u4490
  5397   001C7A                     u4491:
  5398   001C7A  EF40  F00E         	goto	l4549
  5399   001C7E                     u4490:
  5400   001C7E  060F               	decf	___fladd@bexp^0,f,c
  5401   001C80                     l4549:
  5402   001C80  AE03               	btfss	(___fladd@b+2)^0,7,c
  5403   001C82  EF45  F00E         	goto	u4501
  5404   001C86  EF47  F00E         	goto	u4500
  5405   001C8A                     u4501:
  5406   001C8A  EF1D  F00E         	goto	l4533
  5407   001C8E                     u4500:
  5408   001C8E                     l4551:
  5409   001C8E  0E00               	movlw	0
  5410   001C90  6E0E               	movwf	___fladd@aexp^0,c
  5411   001C92  AE10               	btfss	___fladd@grs^0,7,c
  5412   001C94  EF4E  F00E         	goto	u4511
  5413   001C98  EF50  F00E         	goto	u4510
  5414   001C9C                     u4511:
  5415   001C9C  EF68  F00E         	goto	l1071
  5416   001CA0                     u4510:
  5417   001CA0  C010  F009         	movff	___fladd@grs,??___fladd
  5418   001CA4  0E7F               	movlw	127
  5419   001CA6  1609               	andwf	??___fladd^0,f,c
  5420   001CA8  B4D8               	btfsc	status,2,c
  5421   001CAA  EF59  F00E         	goto	u4521
  5422   001CAE  EF5B  F00E         	goto	u4520
  5423   001CB2                     u4521:
  5424   001CB2  EF5F  F00E         	goto	l1072
  5425   001CB6                     u4520:
  5426   001CB6                     l4557:
  5427   001CB6  0E01               	movlw	1
  5428   001CB8  6E0E               	movwf	___fladd@aexp^0,c
  5429   001CBA  EF68  F00E         	goto	l1071
  5430   001CBE                     l1072:
  5431   001CBE  A001               	btfss	___fladd@b^0,0,c
  5432   001CC0  EF64  F00E         	goto	u4531
  5433   001CC4  EF66  F00E         	goto	u4530
  5434   001CC8                     u4531:
  5435   001CC8  EF68  F00E         	goto	l1071
  5436   001CCC                     u4530:
  5437   001CCC  EF5B  F00E         	goto	l4557
  5438   001CD0                     l1071:
  5439   001CD0  500E               	movf	___fladd@aexp^0,w,c
  5440   001CD2  B4D8               	btfsc	status,2,c
  5441   001CD4  EF6E  F00E         	goto	u4541
  5442   001CD8  EF70  F00E         	goto	u4540
  5443   001CDC                     u4541:
  5444   001CDC  EF9B  F00E         	goto	l4569
  5445   001CE0                     u4540:
  5446   001CE0  0E01               	movlw	1
  5447   001CE2  2601               	addwf	___fladd@b^0,f,c
  5448   001CE4  0E00               	movlw	0
  5449   001CE6  2202               	addwfc	(___fladd@b+1)^0,f,c
  5450   001CE8  2203               	addwfc	(___fladd@b+2)^0,f,c
  5451   001CEA  2204               	addwfc	(___fladd@b+3)^0,f,c
  5452   001CEC  A004               	btfss	(___fladd@b+3)^0,0,c
  5453   001CEE  EF7B  F00E         	goto	u4551
  5454   001CF2  EF7D  F00E         	goto	u4550
  5455   001CF6                     u4551:
  5456   001CF6  EF9B  F00E         	goto	l4569
  5457   001CFA                     u4550:
  5458   001CFA  C001  F009         	movff	___fladd@b,??___fladd
  5459   001CFE  C002  F00A         	movff	___fladd@b+1,??___fladd+1
  5460   001D02  C003  F00B         	movff	___fladd@b+2,??___fladd+2
  5461   001D06  C004  F00C         	movff	___fladd@b+3,??___fladd+3
  5462   001D0A  340C               	rlcf	(??___fladd+3)^0,w,c
  5463   001D0C  320C               	rrcf	(??___fladd+3)^0,f,c
  5464   001D0E  320B               	rrcf	(??___fladd+2)^0,f,c
  5465   001D10  320A               	rrcf	(??___fladd+1)^0,f,c
  5466   001D12  3209               	rrcf	??___fladd^0,f,c
  5467   001D14  C009  F001         	movff	??___fladd,___fladd@b
  5468   001D18  C00A  F002         	movff	??___fladd+1,___fladd@b+1
  5469   001D1C  C00B  F003         	movff	??___fladd+2,___fladd@b+2
  5470   001D20  C00C  F004         	movff	??___fladd+3,___fladd@b+3
  5471   001D24  280F               	incf	___fladd@bexp^0,w,c
  5472   001D26  B4D8               	btfsc	status,2,c
  5473   001D28  EF98  F00E         	goto	u4561
  5474   001D2C  EF9A  F00E         	goto	u4560
  5475   001D30                     u4561:
  5476   001D30  EF9B  F00E         	goto	l4569
  5477   001D34                     u4560:
  5478   001D34  2A0F               	incf	___fladd@bexp^0,f,c
  5479   001D36                     l4569:
  5480   001D36  280F               	incf	___fladd@bexp^0,w,c
  5481   001D38  B4D8               	btfsc	status,2,c
  5482   001D3A  EFA1  F00E         	goto	u4571
  5483   001D3E  EFA3  F00E         	goto	u4570
  5484   001D42                     u4571:
  5485   001D42  EFAB  F00E         	goto	l4573
  5486   001D46                     u4570:
  5487   001D46  500F               	movf	___fladd@bexp^0,w,c
  5488   001D48  A4D8               	btfss	status,2,c
  5489   001D4A  EFA9  F00E         	goto	u4581
  5490   001D4E  EFAB  F00E         	goto	u4580
  5491   001D52                     u4581:
  5492   001D52  EFBD  F00E         	goto	l4577
  5493   001D56                     u4580:
  5494   001D56                     l4573:
  5495   001D56  0E00               	movlw	0
  5496   001D58  6E01               	movwf	___fladd@b^0,c
  5497   001D5A  0E00               	movlw	0
  5498   001D5C  6E02               	movwf	(___fladd@b+1)^0,c
  5499   001D5E  0E00               	movlw	0
  5500   001D60  6E03               	movwf	(___fladd@b+2)^0,c
  5501   001D62  0E00               	movlw	0
  5502   001D64  6E04               	movwf	(___fladd@b+3)^0,c
  5503   001D66  500F               	movf	___fladd@bexp^0,w,c
  5504   001D68  A4D8               	btfss	status,2,c
  5505   001D6A  EFB9  F00E         	goto	u4591
  5506   001D6E  EFBB  F00E         	goto	u4590
  5507   001D72                     u4591:
  5508   001D72  EFBD  F00E         	goto	l4577
  5509   001D76                     u4590:
  5510   001D76  0E00               	movlw	0
  5511   001D78  6E0D               	movwf	___fladd@signs^0,c
  5512   001D7A                     l4577:
  5513   001D7A  A00F               	btfss	___fladd@bexp^0,0,c
  5514   001D7C  EFC2  F00E         	goto	u4601
  5515   001D80  EFC4  F00E         	goto	u4600
  5516   001D84                     u4601:
  5517   001D84  EFC7  F00E         	goto	l4581
  5518   001D88                     u4600:
  5519   001D88  8E03               	bsf	(___fladd@b+2)^0,7,c
  5520   001D8A  EFC8  F00E         	goto	l4583
  5521   001D8E                     l4581:
  5522   001D8E  9E03               	bcf	(___fladd@b+2)^0,7,c
  5523   001D90                     l4583:
  5524   001D90  90D8               	bcf	status,0,c
  5525   001D92  300F               	rrcf	___fladd@bexp^0,w,c
  5526   001D94  6E04               	movwf	(___fladd@b+3)^0,c
  5527   001D96  AE0D               	btfss	___fladd@signs^0,7,c
  5528   001D98  EFD0  F00E         	goto	u4611
  5529   001D9C  EFD2  F00E         	goto	u4610
  5530   001DA0                     u4611:
  5531   001DA0  EFD3  F00E         	goto	l4589
  5532   001DA4                     u4610:
  5533   001DA4  8E04               	bsf	(___fladd@b+3)^0,7,c
  5534   001DA6                     l4589:
  5535   001DA6  C001  F001         	movff	___fladd@b,?___fladd
  5536   001DAA  C002  F002         	movff	___fladd@b+1,?___fladd+1
  5537   001DAE  C003  F003         	movff	___fladd@b+2,?___fladd+2
  5538   001DB2  C004  F004         	movff	___fladd@b+3,?___fladd+3
  5539   001DB6                     l1054:
  5540   001DB6  0012               	return		;funcret
  5541   001DB8                     __end_of___fladd:
  5542                           	callstack 0
  5543                           
  5544 ;; *************** function ___flneg *****************
  5545 ;; Defined at:
  5546 ;;		line 15 in file "/opt/microchip/xc8/v2.45/pic/sources/c99/common/flneg.c"
  5547 ;; Parameters:    Size  Location     Type
  5548 ;;  f1              4    0[COMRAM] unsigned char 
  5549 ;; Auto vars:     Size  Location     Type
  5550 ;;		None
  5551 ;; Return value:  Size  Location     Type
  5552 ;;                  4    0[COMRAM] unsigned char 
  5553 ;; Registers used:
  5554 ;;		wreg, status,2, status,0
  5555 ;; Tracked objects:
  5556 ;;		On entry : 0/0
  5557 ;;		On exit  : 0/0
  5558 ;;		Unchanged: 0/0
  5559 ;; Data sizes:     COMRAM   BANK0   BANK1   BANK2   BANK3   BANK4   BANK5   BANK6   BANK7   BANK8   BANK9  BANK10  BANK1
      +1  BANK12  BANK14
  5560 ;;      Params:         4       0       0       0       0       0       0       0       0       0       0       0       
      +0       0       0
  5561 ;;      Locals:         0       0       0       0       0       0       0       0       0       0       0       0       
      +0       0       0
  5562 ;;      Temps:          0       0       0       0       0       0       0       0       0       0       0       0       
      +0       0       0
  5563 ;;      Totals:         4       0       0       0       0       0       0       0       0       0       0       0       
      +0       0       0
  5564 ;;Total ram usage:        4 bytes
  5565 ;; Hardware stack levels used: 1
  5566 ;; This function calls:
  5567 ;;		Nothing
  5568 ;; This function is called by:
  5569 ;;		_efgtoa
  5570 ;; This function uses a non-reentrant model
  5571 ;;
  5572                           
  5573                           	psect	text19
  5574   00393C                     __ptext19:
  5575                           	callstack 0
  5576   00393C                     ___flneg:
  5577                           	callstack 26
  5578   00393C  5001               	movf	___flneg@f1^0,w,c
  5579   00393E  1002               	iorwf	(___flneg@f1+1)^0,w,c
  5580   003940  1003               	iorwf	(___flneg@f1+2)^0,w,c
  5581   003942  1004               	iorwf	(___flneg@f1+3)^0,w,c
  5582   003944  B4D8               	btfsc	status,2,c
  5583   003946  EFA7  F01C         	goto	u5131
  5584   00394A  EFA9  F01C         	goto	u5130
  5585   00394E                     u5131:
  5586   00394E  EFB1  F01C         	goto	l4917
  5587   003952                     u5130:
  5588   003952  0E00               	movlw	0
  5589   003954  1A01               	xorwf	___flneg@f1^0,f,c
  5590   003956  0E00               	movlw	0
  5591   003958  1A02               	xorwf	(___flneg@f1+1)^0,f,c
  5592   00395A  0E00               	movlw	0
  5593   00395C  1A03               	xorwf	(___flneg@f1+2)^0,f,c
  5594   00395E  0E80               	movlw	128
  5595   003960  1A04               	xorwf	(___flneg@f1+3)^0,f,c
  5596   003962                     l4917:
  5597   003962  C001  F001         	movff	___flneg@f1,?___flneg
  5598   003966  C002  F002         	movff	___flneg@f1+1,?___flneg+1
  5599   00396A  C003  F003         	movff	___flneg@f1+2,?___flneg+2
  5600   00396E  C004  F004         	movff	___flneg@f1+3,?___flneg+3
  5601   003972  0012               	return		;funcret
  5602   003974                     __end_of___flneg:
  5603                           	callstack 0
  5604                           
  5605 ;; *************** function ___flmul *****************
  5606 ;; Defined at:
  5607 ;;		line 8 in file "/opt/microchip/xc8/v2.45/pic/sources/c99/common/sprcmul.c"
  5608 ;; Parameters:    Size  Location     Type
  5609 ;;  b               4   39[COMRAM] unsigned char 
  5610 ;;  a               4   43[COMRAM] unsigned char 
  5611 ;; Auto vars:     Size  Location     Type
  5612 ;;  prod            4   58[COMRAM] struct .
  5613 ;;  grs             4   53[COMRAM] unsigned long 
  5614 ;;  temp            2   62[COMRAM] struct .
  5615 ;;  bexp            1   57[COMRAM] unsigned char 
  5616 ;;  aexp            1   52[COMRAM] unsigned char 
  5617 ;;  sign            1   51[COMRAM] unsigned char 
  5618 ;; Return value:  Size  Location     Type
  5619 ;;                  4   39[COMRAM] unsigned char 
  5620 ;; Registers used:
  5621 ;;		wreg, status,2, status,0, prodl, prodh
  5622 ;; Tracked objects:
  5623 ;;		On entry : 0/0
  5624 ;;		On exit  : 0/0
  5625 ;;		Unchanged: 0/0
  5626 ;; Data sizes:     COMRAM   BANK0   BANK1   BANK2   BANK3   BANK4   BANK5   BANK6   BANK7   BANK8   BANK9  BANK10  BANK1
      +1  BANK12  BANK14
  5627 ;;      Params:         8       0       0       0       0       0       0       0       0       0       0       0       
      +0       0       0
  5628 ;;      Locals:        13       0       0       0       0       0       0       0       0       0       0       0       
      +0       0       0
  5629 ;;      Temps:          4       0       0       0       0       0       0       0       0       0       0       0       
      +0       0       0
  5630 ;;      Totals:        25       0       0       0       0       0       0       0       0       0       0       0       
      +0       0       0
  5631 ;;Total ram usage:       25 bytes
  5632 ;; Hardware stack levels used: 1
  5633 ;; This function calls:
  5634 ;;		Nothing
  5635 ;; This function is called by:
  5636 ;;		_main
  5637 ;;		_efgtoa
  5638 ;; This function uses a non-reentrant model
  5639 ;;
  5640                           
  5641                           	psect	text20
  5642   001DB8                     __ptext20:
  5643                           	callstack 0
  5644   001DB8                     ___flmul:
  5645                           	callstack 26
  5646   001DB8  502B               	movf	(___flmul@b+3)^0,w,c
  5647   001DBA  0B80               	andlw	128
  5648   001DBC  6E34               	movwf	___flmul@sign^0,c
  5649   001DBE  502B               	movf	(___flmul@b+3)^0,w,c
  5650   001DC0  242B               	addwf	(___flmul@b+3)^0,w,c
  5651   001DC2  6E3A               	movwf	___flmul@bexp^0,c
  5652   001DC4  AE2A               	btfss	(___flmul@b+2)^0,7,c
  5653   001DC6  EFE7  F00E         	goto	u4861
  5654   001DCA  EFE9  F00E         	goto	u4860
  5655   001DCE                     u4861:
  5656   001DCE  EFEA  F00E         	goto	l4745
  5657   001DD2                     u4860:
  5658   001DD2  803A               	bsf	___flmul@bexp^0,0,c
  5659   001DD4                     l4745:
  5660   001DD4  503A               	movf	___flmul@bexp^0,w,c
  5661   001DD6  B4D8               	btfsc	status,2,c
  5662   001DD8  EFF0  F00E         	goto	u4871
  5663   001DDC  EFF2  F00E         	goto	u4870
  5664   001DE0                     u4871:
  5665   001DE0  EF05  F00F         	goto	l4753
  5666   001DE4                     u4870:
  5667   001DE4  283A               	incf	___flmul@bexp^0,w,c
  5668   001DE6  A4D8               	btfss	status,2,c
  5669   001DE8  EFF8  F00E         	goto	u4881
  5670   001DEC  EFFA  F00E         	goto	u4880
  5671   001DF0                     u4881:
  5672   001DF0  EF02  F00F         	goto	l4751
  5673   001DF4                     u4880:
  5674   001DF4  0E00               	movlw	0
  5675   001DF6  6E28               	movwf	___flmul@b^0,c
  5676   001DF8  0E00               	movlw	0
  5677   001DFA  6E29               	movwf	(___flmul@b+1)^0,c
  5678   001DFC  0E00               	movlw	0
  5679   001DFE  6E2A               	movwf	(___flmul@b+2)^0,c
  5680   001E00  0E00               	movlw	0
  5681   001E02  6E2B               	movwf	(___flmul@b+3)^0,c
  5682   001E04                     l4751:
  5683   001E04  8E2A               	bsf	(___flmul@b+2)^0,7,c
  5684   001E06  EF0D  F00F         	goto	l4755
  5685   001E0A                     l4753:
  5686   001E0A  0E00               	movlw	0
  5687   001E0C  6E28               	movwf	___flmul@b^0,c
  5688   001E0E  0E00               	movlw	0
  5689   001E10  6E29               	movwf	(___flmul@b+1)^0,c
  5690   001E12  0E00               	movlw	0
  5691   001E14  6E2A               	movwf	(___flmul@b+2)^0,c
  5692   001E16  0E00               	movlw	0
  5693   001E18  6E2B               	movwf	(___flmul@b+3)^0,c
  5694   001E1A                     l4755:
  5695   001E1A  502F               	movf	(___flmul@a+3)^0,w,c
  5696   001E1C  0B80               	andlw	128
  5697   001E1E  1A34               	xorwf	___flmul@sign^0,f,c
  5698   001E20  502F               	movf	(___flmul@a+3)^0,w,c
  5699   001E22  242F               	addwf	(___flmul@a+3)^0,w,c
  5700   001E24  6E35               	movwf	___flmul@aexp^0,c
  5701   001E26  AE2E               	btfss	(___flmul@a+2)^0,7,c
  5702   001E28  EF18  F00F         	goto	u4891
  5703   001E2C  EF1A  F00F         	goto	u4890
  5704   001E30                     u4891:
  5705   001E30  EF1B  F00F         	goto	l4763
  5706   001E34                     u4890:
  5707   001E34  8035               	bsf	___flmul@aexp^0,0,c
  5708   001E36                     l4763:
  5709   001E36  5035               	movf	___flmul@aexp^0,w,c
  5710   001E38  B4D8               	btfsc	status,2,c
  5711   001E3A  EF21  F00F         	goto	u4901
  5712   001E3E  EF23  F00F         	goto	u4900
  5713   001E42                     u4901:
  5714   001E42  EF36  F00F         	goto	l4771
  5715   001E46                     u4900:
  5716   001E46  2835               	incf	___flmul@aexp^0,w,c
  5717   001E48  A4D8               	btfss	status,2,c
  5718   001E4A  EF29  F00F         	goto	u4911
  5719   001E4E  EF2B  F00F         	goto	u4910
  5720   001E52                     u4911:
  5721   001E52  EF33  F00F         	goto	l4769
  5722   001E56                     u4910:
  5723   001E56  0E00               	movlw	0
  5724   001E58  6E2C               	movwf	___flmul@a^0,c
  5725   001E5A  0E00               	movlw	0
  5726   001E5C  6E2D               	movwf	(___flmul@a+1)^0,c
  5727   001E5E  0E00               	movlw	0
  5728   001E60  6E2E               	movwf	(___flmul@a+2)^0,c
  5729   001E62  0E00               	movlw	0
  5730   001E64  6E2F               	movwf	(___flmul@a+3)^0,c
  5731   001E66                     l4769:
  5732   001E66  8E2E               	bsf	(___flmul@a+2)^0,7,c
  5733   001E68  EF3E  F00F         	goto	l1131
  5734   001E6C                     l4771:
  5735   001E6C  0E00               	movlw	0
  5736   001E6E  6E2C               	movwf	___flmul@a^0,c
  5737   001E70  0E00               	movlw	0
  5738   001E72  6E2D               	movwf	(___flmul@a+1)^0,c
  5739   001E74  0E00               	movlw	0
  5740   001E76  6E2E               	movwf	(___flmul@a+2)^0,c
  5741   001E78  0E00               	movlw	0
  5742   001E7A  6E2F               	movwf	(___flmul@a+3)^0,c
  5743   001E7C                     l1131:
  5744   001E7C  5035               	movf	___flmul@aexp^0,w,c
  5745   001E7E  B4D8               	btfsc	status,2,c
  5746   001E80  EF44  F00F         	goto	u4921
  5747   001E84  EF46  F00F         	goto	u4920
  5748   001E88                     u4921:
  5749   001E88  EF4E  F00F         	goto	l4775
  5750   001E8C                     u4920:
  5751   001E8C  503A               	movf	___flmul@bexp^0,w,c
  5752   001E8E  A4D8               	btfss	status,2,c
  5753   001E90  EF4C  F00F         	goto	u4931
  5754   001E94  EF4E  F00F         	goto	u4930
  5755   001E98                     u4931:
  5756   001E98  EF58  F00F         	goto	l4779
  5757   001E9C                     u4930:
  5758   001E9C                     l4775:
  5759   001E9C  0E00               	movlw	0
  5760   001E9E  6E28               	movwf	?___flmul^0,c
  5761   001EA0  0E00               	movlw	0
  5762   001EA2  6E29               	movwf	(?___flmul+1)^0,c
  5763   001EA4  0E00               	movlw	0
  5764   001EA6  6E2A               	movwf	(?___flmul+2)^0,c
  5765   001EA8  0E00               	movlw	0
  5766   001EAA  6E2B               	movwf	(?___flmul+3)^0,c
  5767   001EAC  EFF0  F010         	goto	l1135
  5768   001EB0                     l4779:
  5769   001EB0  502E               	movf	(___flmul@a+2)^0,w,c
  5770   001EB2  0228               	mulwf	___flmul@b^0,c
  5771   001EB4  CFF3 F03F          	movff	prodl,___flmul@temp
  5772   001EB8  CFF4 F040          	movff	prodh,___flmul@temp+1
  5773   001EBC  503F               	movf	___flmul@temp^0,w,c
  5774   001EBE  6E36               	movwf	___flmul@grs^0,c
  5775   001EC0  6A37               	clrf	(___flmul@grs+1)^0,c
  5776   001EC2  6A38               	clrf	(___flmul@grs+2)^0,c
  5777   001EC4  6A39               	clrf	(___flmul@grs+3)^0,c
  5778   001EC6  5040               	movf	(___flmul@temp+1)^0,w,c
  5779   001EC8  6E3B               	movwf	___flmul@prod^0,c
  5780   001ECA  6A3C               	clrf	(___flmul@prod+1)^0,c
  5781   001ECC  6A3D               	clrf	(___flmul@prod+2)^0,c
  5782   001ECE  6A3E               	clrf	(___flmul@prod+3)^0,c
  5783   001ED0  502D               	movf	(___flmul@a+1)^0,w,c
  5784   001ED2  0229               	mulwf	(___flmul@b+1)^0,c
  5785   001ED4  CFF3 F03F          	movff	prodl,___flmul@temp
  5786   001ED8  CFF4 F040          	movff	prodh,___flmul@temp+1
  5787   001EDC  503F               	movf	___flmul@temp^0,w,c
  5788   001EDE  2636               	addwf	___flmul@grs^0,f,c
  5789   001EE0  0E00               	movlw	0
  5790   001EE2  2237               	addwfc	(___flmul@grs+1)^0,f,c
  5791   001EE4  2238               	addwfc	(___flmul@grs+2)^0,f,c
  5792   001EE6  2239               	addwfc	(___flmul@grs+3)^0,f,c
  5793   001EE8  5040               	movf	(___flmul@temp+1)^0,w,c
  5794   001EEA  263B               	addwf	___flmul@prod^0,f,c
  5795   001EEC  0E00               	movlw	0
  5796   001EEE  223C               	addwfc	(___flmul@prod+1)^0,f,c
  5797   001EF0  223D               	addwfc	(___flmul@prod+2)^0,f,c
  5798   001EF2  223E               	addwfc	(___flmul@prod+3)^0,f,c
  5799   001EF4  502C               	movf	___flmul@a^0,w,c
  5800   001EF6  022A               	mulwf	(___flmul@b+2)^0,c
  5801   001EF8  CFF3 F03F          	movff	prodl,___flmul@temp
  5802   001EFC  CFF4 F040          	movff	prodh,___flmul@temp+1
  5803   001F00  503F               	movf	___flmul@temp^0,w,c
  5804   001F02  2636               	addwf	___flmul@grs^0,f,c
  5805   001F04  0E00               	movlw	0
  5806   001F06  2237               	addwfc	(___flmul@grs+1)^0,f,c
  5807   001F08  2238               	addwfc	(___flmul@grs+2)^0,f,c
  5808   001F0A  2239               	addwfc	(___flmul@grs+3)^0,f,c
  5809   001F0C  5040               	movf	(___flmul@temp+1)^0,w,c
  5810   001F0E  263B               	addwf	___flmul@prod^0,f,c
  5811   001F10  0E00               	movlw	0
  5812   001F12  223C               	addwfc	(___flmul@prod+1)^0,f,c
  5813   001F14  223D               	addwfc	(___flmul@prod+2)^0,f,c
  5814   001F16  223E               	addwfc	(___flmul@prod+3)^0,f,c
  5815   001F18  C038  F039         	movff	___flmul@grs+2,___flmul@grs+3
  5816   001F1C  C037  F038         	movff	___flmul@grs+1,___flmul@grs+2
  5817   001F20  C036  F037         	movff	___flmul@grs,___flmul@grs+1
  5818   001F24  6A36               	clrf	___flmul@grs^0,c
  5819   001F26  502C               	movf	___flmul@a^0,w,c
  5820   001F28  0229               	mulwf	(___flmul@b+1)^0,c
  5821   001F2A  CFF3 F03F          	movff	prodl,___flmul@temp
  5822   001F2E  CFF4 F040          	movff	prodh,___flmul@temp+1
  5823   001F32  503F               	movf	___flmul@temp^0,w,c
  5824   001F34  2636               	addwf	___flmul@grs^0,f,c
  5825   001F36  5040               	movf	(___flmul@temp+1)^0,w,c
  5826   001F38  2237               	addwfc	(___flmul@grs+1)^0,f,c
  5827   001F3A  0E00               	movlw	0
  5828   001F3C  2238               	addwfc	(___flmul@grs+2)^0,f,c
  5829   001F3E  0E00               	movlw	0
  5830   001F40  2239               	addwfc	(___flmul@grs+3)^0,f,c
  5831   001F42  502D               	movf	(___flmul@a+1)^0,w,c
  5832   001F44  0228               	mulwf	___flmul@b^0,c
  5833   001F46  CFF3 F03F          	movff	prodl,___flmul@temp
  5834   001F4A  CFF4 F040          	movff	prodh,___flmul@temp+1
  5835   001F4E  503F               	movf	___flmul@temp^0,w,c
  5836   001F50  2636               	addwf	___flmul@grs^0,f,c
  5837   001F52  5040               	movf	(___flmul@temp+1)^0,w,c
  5838   001F54  2237               	addwfc	(___flmul@grs+1)^0,f,c
  5839   001F56  0E00               	movlw	0
  5840   001F58  2238               	addwfc	(___flmul@grs+2)^0,f,c
  5841   001F5A  0E00               	movlw	0
  5842   001F5C  2239               	addwfc	(___flmul@grs+3)^0,f,c
  5843   001F5E  C038  F039         	movff	___flmul@grs+2,___flmul@grs+3
  5844   001F62  C037  F038         	movff	___flmul@grs+1,___flmul@grs+2
  5845   001F66  C036  F037         	movff	___flmul@grs,___flmul@grs+1
  5846   001F6A  6A36               	clrf	___flmul@grs^0,c
  5847   001F6C  502C               	movf	___flmul@a^0,w,c
  5848   001F6E  0228               	mulwf	___flmul@b^0,c
  5849   001F70  CFF3 F03F          	movff	prodl,___flmul@temp
  5850   001F74  CFF4 F040          	movff	prodh,___flmul@temp+1
  5851   001F78  503F               	movf	___flmul@temp^0,w,c
  5852   001F7A  2636               	addwf	___flmul@grs^0,f,c
  5853   001F7C  5040               	movf	(___flmul@temp+1)^0,w,c
  5854   001F7E  2237               	addwfc	(___flmul@grs+1)^0,f,c
  5855   001F80  0E00               	movlw	0
  5856   001F82  2238               	addwfc	(___flmul@grs+2)^0,f,c
  5857   001F84  0E00               	movlw	0
  5858   001F86  2239               	addwfc	(___flmul@grs+3)^0,f,c
  5859   001F88  502E               	movf	(___flmul@a+2)^0,w,c
  5860   001F8A  0229               	mulwf	(___flmul@b+1)^0,c
  5861   001F8C  CFF3 F03F          	movff	prodl,___flmul@temp
  5862   001F90  CFF4 F040          	movff	prodh,___flmul@temp+1
  5863   001F94  503F               	movf	___flmul@temp^0,w,c
  5864   001F96  263B               	addwf	___flmul@prod^0,f,c
  5865   001F98  5040               	movf	(___flmul@temp+1)^0,w,c
  5866   001F9A  223C               	addwfc	(___flmul@prod+1)^0,f,c
  5867   001F9C  0E00               	movlw	0
  5868   001F9E  223D               	addwfc	(___flmul@prod+2)^0,f,c
  5869   001FA0  0E00               	movlw	0
  5870   001FA2  223E               	addwfc	(___flmul@prod+3)^0,f,c
  5871   001FA4  502D               	movf	(___flmul@a+1)^0,w,c
  5872   001FA6  022A               	mulwf	(___flmul@b+2)^0,c
  5873   001FA8  CFF3 F03F          	movff	prodl,___flmul@temp
  5874   001FAC  CFF4 F040          	movff	prodh,___flmul@temp+1
  5875   001FB0  503F               	movf	___flmul@temp^0,w,c
  5876   001FB2  263B               	addwf	___flmul@prod^0,f,c
  5877   001FB4  5040               	movf	(___flmul@temp+1)^0,w,c
  5878   001FB6  223C               	addwfc	(___flmul@prod+1)^0,f,c
  5879   001FB8  0E00               	movlw	0
  5880   001FBA  223D               	addwfc	(___flmul@prod+2)^0,f,c
  5881   001FBC  0E00               	movlw	0
  5882   001FBE  223E               	addwfc	(___flmul@prod+3)^0,f,c
  5883   001FC0  502E               	movf	(___flmul@a+2)^0,w,c
  5884   001FC2  022A               	mulwf	(___flmul@b+2)^0,c
  5885   001FC4  CFF3 F03F          	movff	prodl,___flmul@temp
  5886   001FC8  CFF4 F040          	movff	prodh,___flmul@temp+1
  5887   001FCC  503F               	movf	___flmul@temp^0,w,c
  5888   001FCE  6E30               	movwf	??___flmul^0,c
  5889   001FD0  5040               	movf	(___flmul@temp+1)^0,w,c
  5890   001FD2  6E31               	movwf	(??___flmul+1)^0,c
  5891   001FD4  6A32               	clrf	(??___flmul+2)^0,c
  5892   001FD6  6A33               	clrf	(??___flmul+3)^0,c
  5893   001FD8  C032  F033         	movff	??___flmul+2,??___flmul+3
  5894   001FDC  C031  F032         	movff	??___flmul+1,??___flmul+2
  5895   001FE0  C030  F031         	movff	??___flmul,??___flmul+1
  5896   001FE4  6A30               	clrf	??___flmul^0,c
  5897   001FE6  5030               	movf	??___flmul^0,w,c
  5898   001FE8  263B               	addwf	___flmul@prod^0,f,c
  5899   001FEA  5031               	movf	(??___flmul+1)^0,w,c
  5900   001FEC  223C               	addwfc	(___flmul@prod+1)^0,f,c
  5901   001FEE  5032               	movf	(??___flmul+2)^0,w,c
  5902   001FF0  223D               	addwfc	(___flmul@prod+2)^0,f,c
  5903   001FF2  5033               	movf	(??___flmul+3)^0,w,c
  5904   001FF4  223E               	addwfc	(___flmul@prod+3)^0,f,c
  5905   001FF6  C036  F030         	movff	___flmul@grs,??___flmul
  5906   001FFA  C037  F031         	movff	___flmul@grs+1,??___flmul+1
  5907   001FFE  C038  F032         	movff	___flmul@grs+2,??___flmul+2
  5908   002002  C039  F033         	movff	___flmul@grs+3,??___flmul+3
  5909   002006  0E19               	movlw	25
  5910   002008  EF0B  F010         	goto	u4940
  5911   00200C                     u4945:
  5912   00200C  90D8               	bcf	status,0,c
  5913   00200E  3233               	rrcf	(??___flmul+3)^0,f,c
  5914   002010  3232               	rrcf	(??___flmul+2)^0,f,c
  5915   002012  3231               	rrcf	(??___flmul+1)^0,f,c
  5916   002014  3230               	rrcf	??___flmul^0,f,c
  5917   002016                     u4940:
  5918   002016  2EE8               	decfsz	wreg,f,c
  5919   002018  EF06  F010         	goto	u4945
  5920   00201C  5030               	movf	??___flmul^0,w,c
  5921   00201E  263B               	addwf	___flmul@prod^0,f,c
  5922   002020  5031               	movf	(??___flmul+1)^0,w,c
  5923   002022  223C               	addwfc	(___flmul@prod+1)^0,f,c
  5924   002024  5032               	movf	(??___flmul+2)^0,w,c
  5925   002026  223D               	addwfc	(___flmul@prod+2)^0,f,c
  5926   002028  5033               	movf	(??___flmul+3)^0,w,c
  5927   00202A  223E               	addwfc	(___flmul@prod+3)^0,f,c
  5928   00202C  C038  F039         	movff	___flmul@grs+2,___flmul@grs+3
  5929   002030  C037  F038         	movff	___flmul@grs+1,___flmul@grs+2
  5930   002034  C036  F037         	movff	___flmul@grs,___flmul@grs+1
  5931   002038  6A36               	clrf	___flmul@grs^0,c
  5932   00203A  5035               	movf	___flmul@aexp^0,w,c
  5933   00203C  C03A  F030         	movff	___flmul@bexp,??___flmul
  5934   002040  6A31               	clrf	(??___flmul+1)^0,c
  5935   002042  2630               	addwf	??___flmul^0,f,c
  5936   002044  0E00               	movlw	0
  5937   002046  2231               	addwfc	(??___flmul+1)^0,f,c
  5938   002048  0E82               	movlw	130
  5939   00204A  2430               	addwf	??___flmul^0,w,c
  5940   00204C  6E3F               	movwf	___flmul@temp^0,c
  5941   00204E  0EFF               	movlw	255
  5942   002050  2031               	addwfc	(??___flmul+1)^0,w,c
  5943   002052  6E40               	movwf	(___flmul@temp+1)^0,c
  5944   002054  EF41  F010         	goto	l4827
  5945   002058                     l4821:
  5946   002058  90D8               	bcf	status,0,c
  5947   00205A  363B               	rlcf	___flmul@prod^0,f,c
  5948   00205C  363C               	rlcf	(___flmul@prod+1)^0,f,c
  5949   00205E  363D               	rlcf	(___flmul@prod+2)^0,f,c
  5950   002060  363E               	rlcf	(___flmul@prod+3)^0,f,c
  5951   002062  AE39               	btfss	(___flmul@grs+3)^0,7,c
  5952   002064  EF36  F010         	goto	u4951
  5953   002068  EF38  F010         	goto	u4950
  5954   00206C                     u4951:
  5955   00206C  EF39  F010         	goto	l1138
  5956   002070                     u4950:
  5957   002070  803B               	bsf	___flmul@prod^0,0,c
  5958   002072                     l1138:
  5959   002072  90D8               	bcf	status,0,c
  5960   002074  3636               	rlcf	___flmul@grs^0,f,c
  5961   002076  3637               	rlcf	(___flmul@grs+1)^0,f,c
  5962   002078  3638               	rlcf	(___flmul@grs+2)^0,f,c
  5963   00207A  3639               	rlcf	(___flmul@grs+3)^0,f,c
  5964   00207C  063F               	decf	___flmul@temp^0,f,c
  5965   00207E  A0D8               	btfss	status,0,c
  5966   002080  0640               	decf	(___flmul@temp+1)^0,f,c
  5967   002082                     l4827:
  5968   002082  AE3D               	btfss	(___flmul@prod+2)^0,7,c
  5969   002084  EF46  F010         	goto	u4961
  5970   002088  EF48  F010         	goto	u4960
  5971   00208C                     u4961:
  5972   00208C  EF2C  F010         	goto	l4821
  5973   002090                     u4960:
  5974   002090  0E00               	movlw	0
  5975   002092  6E35               	movwf	___flmul@aexp^0,c
  5976   002094  AE39               	btfss	(___flmul@grs+3)^0,7,c
  5977   002096  EF4F  F010         	goto	u4971
  5978   00209A  EF51  F010         	goto	u4970
  5979   00209E                     u4971:
  5980   00209E  EF75  F010         	goto	l1140
  5981   0020A2                     u4970:
  5982   0020A2  0EFF               	movlw	255
  5983   0020A4  1436               	andwf	___flmul@grs^0,w,c
  5984   0020A6  6E30               	movwf	??___flmul^0,c
  5985   0020A8  0EFF               	movlw	255
  5986   0020AA  1437               	andwf	(___flmul@grs+1)^0,w,c
  5987   0020AC  6E31               	movwf	(??___flmul+1)^0,c
  5988   0020AE  0EFF               	movlw	255
  5989   0020B0  1438               	andwf	(___flmul@grs+2)^0,w,c
  5990   0020B2  6E32               	movwf	(??___flmul+2)^0,c
  5991   0020B4  0E7F               	movlw	127
  5992   0020B6  1439               	andwf	(___flmul@grs+3)^0,w,c
  5993   0020B8  6E33               	movwf	(??___flmul+3)^0,c
  5994   0020BA  5030               	movf	??___flmul^0,w,c
  5995   0020BC  1031               	iorwf	(??___flmul+1)^0,w,c
  5996   0020BE  1032               	iorwf	(??___flmul+2)^0,w,c
  5997   0020C0  1033               	iorwf	(??___flmul+3)^0,w,c
  5998   0020C2  B4D8               	btfsc	status,2,c
  5999   0020C4  EF66  F010         	goto	u4981
  6000   0020C8  EF68  F010         	goto	u4980
  6001   0020CC                     u4981:
  6002   0020CC  EF6C  F010         	goto	l1141
  6003   0020D0                     u4980:
  6004   0020D0                     l4835:
  6005   0020D0  0E01               	movlw	1
  6006   0020D2  6E35               	movwf	___flmul@aexp^0,c
  6007   0020D4  EF75  F010         	goto	l1140
  6008   0020D8                     l1141:
  6009   0020D8  A03B               	btfss	___flmul@prod^0,0,c
  6010   0020DA  EF71  F010         	goto	u4991
  6011   0020DE  EF73  F010         	goto	u4990
  6012   0020E2                     u4991:
  6013   0020E2  EF75  F010         	goto	l1140
  6014   0020E6                     u4990:
  6015   0020E6  EF68  F010         	goto	l4835
  6016   0020EA                     l1140:
  6017   0020EA  5035               	movf	___flmul@aexp^0,w,c
  6018   0020EC  B4D8               	btfsc	status,2,c
  6019   0020EE  EF7B  F010         	goto	u5001
  6020   0020F2  EF7D  F010         	goto	u5000
  6021   0020F6                     u5001:
  6022   0020F6  EFA1  F010         	goto	l4847
  6023   0020FA                     u5000:
  6024   0020FA  0E01               	movlw	1
  6025   0020FC  263B               	addwf	___flmul@prod^0,f,c
  6026   0020FE  0E00               	movlw	0
  6027   002100  223C               	addwfc	(___flmul@prod+1)^0,f,c
  6028   002102  223D               	addwfc	(___flmul@prod+2)^0,f,c
  6029   002104  223E               	addwfc	(___flmul@prod+3)^0,f,c
  6030   002106  A03E               	btfss	(___flmul@prod+3)^0,0,c
  6031   002108  EF88  F010         	goto	u5011
  6032   00210C  EF8A  F010         	goto	u5010
  6033   002110                     u5011:
  6034   002110  EFA1  F010         	goto	l4847
  6035   002114                     u5010:
  6036   002114  C03B  F030         	movff	___flmul@prod,??___flmul
  6037   002118  C03C  F031         	movff	___flmul@prod+1,??___flmul+1
  6038   00211C  C03D  F032         	movff	___flmul@prod+2,??___flmul+2
  6039   002120  C03E  F033         	movff	___flmul@prod+3,??___flmul+3
  6040   002124  3433               	rlcf	(??___flmul+3)^0,w,c
  6041   002126  3233               	rrcf	(??___flmul+3)^0,f,c
  6042   002128  3232               	rrcf	(??___flmul+2)^0,f,c
  6043   00212A  3231               	rrcf	(??___flmul+1)^0,f,c
  6044   00212C  3230               	rrcf	??___flmul^0,f,c
  6045   00212E  C030  F03B         	movff	??___flmul,___flmul@prod
  6046   002132  C031  F03C         	movff	??___flmul+1,___flmul@prod+1
  6047   002136  C032  F03D         	movff	??___flmul+2,___flmul@prod+2
  6048   00213A  C033  F03E         	movff	??___flmul+3,___flmul@prod+3
  6049   00213E  4A3F               	infsnz	___flmul@temp^0,f,c
  6050   002140  2A40               	incf	(___flmul@temp+1)^0,f,c
  6051   002142                     l4847:
  6052   002142  BE40               	btfsc	(___flmul@temp+1)^0,7,c
  6053   002144  EFAC  F010         	goto	u5021
  6054   002148  5040               	movf	(___flmul@temp+1)^0,w,c
  6055   00214A  E108               	bnz	u5020
  6056   00214C  283F               	incf	___flmul@temp^0,w,c
  6057   00214E  A0D8               	btfss	status,0,c
  6058   002150  EFAC  F010         	goto	u5021
  6059   002154  EFAE  F010         	goto	u5020
  6060   002158                     u5021:
  6061   002158  EFB8  F010         	goto	l4851
  6062   00215C                     u5020:
  6063   00215C  0E00               	movlw	0
  6064   00215E  6E3B               	movwf	___flmul@prod^0,c
  6065   002160  0E00               	movlw	0
  6066   002162  6E3C               	movwf	(___flmul@prod+1)^0,c
  6067   002164  0E80               	movlw	128
  6068   002166  6E3D               	movwf	(___flmul@prod+2)^0,c
  6069   002168  0E7F               	movlw	127
  6070   00216A  6E3E               	movwf	(___flmul@prod+3)^0,c
  6071   00216C  EFE6  F010         	goto	l4863
  6072   002170                     l4851:
  6073   002170  BE40               	btfsc	(___flmul@temp+1)^0,7,c
  6074   002172  EFC5  F010         	goto	u5030
  6075   002176  5040               	movf	(___flmul@temp+1)^0,w,c
  6076   002178  E106               	bnz	u5031
  6077   00217A  043F               	decf	___flmul@temp^0,w,c
  6078   00217C  B0D8               	btfsc	status,0,c
  6079   00217E  EFC3  F010         	goto	u5031
  6080   002182  EFC5  F010         	goto	u5030
  6081   002186                     u5031:
  6082   002186  EFD1  F010         	goto	l1148
  6083   00218A                     u5030:
  6084   00218A  0E00               	movlw	0
  6085   00218C  6E3B               	movwf	___flmul@prod^0,c
  6086   00218E  0E00               	movlw	0
  6087   002190  6E3C               	movwf	(___flmul@prod+1)^0,c
  6088   002192  0E00               	movlw	0
  6089   002194  6E3D               	movwf	(___flmul@prod+2)^0,c
  6090   002196  0E00               	movlw	0
  6091   002198  6E3E               	movwf	(___flmul@prod+3)^0,c
  6092   00219A  0E00               	movlw	0
  6093   00219C  6E34               	movwf	___flmul@sign^0,c
  6094   00219E  EFE6  F010         	goto	l4863
  6095   0021A2                     l1148:
  6096   0021A2  C03F  F03A         	movff	___flmul@temp,___flmul@bexp
  6097   0021A6  0EFF               	movlw	255
  6098   0021A8  163B               	andwf	___flmul@prod^0,f,c
  6099   0021AA  0EFF               	movlw	255
  6100   0021AC  163C               	andwf	(___flmul@prod+1)^0,f,c
  6101   0021AE  0E7F               	movlw	127
  6102   0021B0  163D               	andwf	(___flmul@prod+2)^0,f,c
  6103   0021B2  0E00               	movlw	0
  6104   0021B4  163E               	andwf	(___flmul@prod+3)^0,f,c
  6105   0021B6  A03A               	btfss	___flmul@bexp^0,0,c
  6106   0021B8  EFE0  F010         	goto	u5041
  6107   0021BC  EFE2  F010         	goto	u5040
  6108   0021C0                     u5041:
  6109   0021C0  EFE3  F010         	goto	l4861
  6110   0021C4                     u5040:
  6111   0021C4  8E3D               	bsf	(___flmul@prod+2)^0,7,c
  6112   0021C6                     l4861:
  6113   0021C6  90D8               	bcf	status,0,c
  6114   0021C8  303A               	rrcf	___flmul@bexp^0,w,c
  6115   0021CA  6E3E               	movwf	(___flmul@prod+3)^0,c
  6116   0021CC                     l4863:
  6117   0021CC  5034               	movf	___flmul@sign^0,w,c
  6118   0021CE  123E               	iorwf	(___flmul@prod+3)^0,f,c
  6119   0021D0  C03B  F028         	movff	___flmul@prod,?___flmul
  6120   0021D4  C03C  F029         	movff	___flmul@prod+1,?___flmul+1
  6121   0021D8  C03D  F02A         	movff	___flmul@prod+2,?___flmul+2
  6122   0021DC  C03E  F02B         	movff	___flmul@prod+3,?___flmul+3
  6123   0021E0                     l1135:
  6124   0021E0  0012               	return		;funcret
  6125   0021E2                     __end_of___flmul:
  6126                           	callstack 0
  6127                           
  6128 ;; *************** function ___flge *****************
  6129 ;; Defined at:
  6130 ;;		line 4 in file "/opt/microchip/xc8/v2.45/pic/sources/c99/common/flge.c"
  6131 ;; Parameters:    Size  Location     Type
  6132 ;;  ff1             4   64[COMRAM] unsigned char 
  6133 ;;  ff2             4   68[COMRAM] unsigned char 
  6134 ;; Auto vars:     Size  Location     Type
  6135 ;;		None
  6136 ;; Return value:  Size  Location     Type
  6137 ;;		None               void
  6138 ;; Registers used:
  6139 ;;		wreg, status,2, status,0
  6140 ;; Tracked objects:
  6141 ;;		On entry : 0/0
  6142 ;;		On exit  : 0/0
  6143 ;;		Unchanged: 0/0
  6144 ;; Data sizes:     COMRAM   BANK0   BANK1   BANK2   BANK3   BANK4   BANK5   BANK6   BANK7   BANK8   BANK9  BANK10  BANK1
      +1  BANK12  BANK14
  6145 ;;      Params:         8       0       0       0       0       0       0       0       0       0       0       0       
      +0       0       0
  6146 ;;      Locals:         0       0       0       0       0       0       0       0       0       0       0       0       
      +0       0       0
  6147 ;;      Temps:          4       0       0       0       0       0       0       0       0       0       0       0       
      +0       0       0
  6148 ;;      Totals:        12       0       0       0       0       0       0       0       0       0       0       0       
      +0       0       0
  6149 ;;Total ram usage:       12 bytes
  6150 ;; Hardware stack levels used: 1
  6151 ;; This function calls:
  6152 ;;		Nothing
  6153 ;; This function is called by:
  6154 ;;		_efgtoa
  6155 ;; This function uses a non-reentrant model
  6156 ;;
  6157                           
  6158                           	psect	text21
  6159   003086                     __ptext21:
  6160                           	callstack 0
  6161   003086                     ___flge:
  6162                           	callstack 26
  6163   003086  0E00               	movlw	0
  6164   003088  1441               	andwf	___flge@ff1^0,w,c
  6165   00308A  6E49               	movwf	??___flge^0,c
  6166   00308C  0E00               	movlw	0
  6167   00308E  1442               	andwf	(___flge@ff1+1)^0,w,c
  6168   003090  6E4A               	movwf	(??___flge+1)^0,c
  6169   003092  0E80               	movlw	128
  6170   003094  1443               	andwf	(___flge@ff1+2)^0,w,c
  6171   003096  6E4B               	movwf	(??___flge+2)^0,c
  6172   003098  0E7F               	movlw	127
  6173   00309A  1444               	andwf	(___flge@ff1+3)^0,w,c
  6174   00309C  6E4C               	movwf	(??___flge+3)^0,c
  6175   00309E  5049               	movf	??___flge^0,w,c
  6176   0030A0  104A               	iorwf	(??___flge+1)^0,w,c
  6177   0030A2  104B               	iorwf	(??___flge+2)^0,w,c
  6178   0030A4  104C               	iorwf	(??___flge+3)^0,w,c
  6179   0030A6  A4D8               	btfss	status,2,c
  6180   0030A8  EF58  F018         	goto	u5081
  6181   0030AC  EF5A  F018         	goto	u5080
  6182   0030B0                     u5081:
  6183   0030B0  EF62  F018         	goto	l4895
  6184   0030B4                     u5080:
  6185   0030B4  0E00               	movlw	0
  6186   0030B6  6E41               	movwf	___flge@ff1^0,c
  6187   0030B8  0E00               	movlw	0
  6188   0030BA  6E42               	movwf	(___flge@ff1+1)^0,c
  6189   0030BC  0E00               	movlw	0
  6190   0030BE  6E43               	movwf	(___flge@ff1+2)^0,c
  6191   0030C0  0E00               	movlw	0
  6192   0030C2  6E44               	movwf	(___flge@ff1+3)^0,c
  6193   0030C4                     l4895:
  6194   0030C4  0E00               	movlw	0
  6195   0030C6  1445               	andwf	___flge@ff2^0,w,c
  6196   0030C8  6E49               	movwf	??___flge^0,c
  6197   0030CA  0E00               	movlw	0
  6198   0030CC  1446               	andwf	(___flge@ff2+1)^0,w,c
  6199   0030CE  6E4A               	movwf	(??___flge+1)^0,c
  6200   0030D0  0E80               	movlw	128
  6201   0030D2  1447               	andwf	(___flge@ff2+2)^0,w,c
  6202   0030D4  6E4B               	movwf	(??___flge+2)^0,c
  6203   0030D6  0E7F               	movlw	127
  6204   0030D8  1448               	andwf	(___flge@ff2+3)^0,w,c
  6205   0030DA  6E4C               	movwf	(??___flge+3)^0,c
  6206   0030DC  5049               	movf	??___flge^0,w,c
  6207   0030DE  104A               	iorwf	(??___flge+1)^0,w,c
  6208   0030E0  104B               	iorwf	(??___flge+2)^0,w,c
  6209   0030E2  104C               	iorwf	(??___flge+3)^0,w,c
  6210   0030E4  A4D8               	btfss	status,2,c
  6211   0030E6  EF77  F018         	goto	u5091
  6212   0030EA  EF79  F018         	goto	u5090
  6213   0030EE                     u5091:
  6214   0030EE  EF81  F018         	goto	l4899
  6215   0030F2                     u5090:
  6216   0030F2  0E00               	movlw	0
  6217   0030F4  6E45               	movwf	___flge@ff2^0,c
  6218   0030F6  0E00               	movlw	0
  6219   0030F8  6E46               	movwf	(___flge@ff2+1)^0,c
  6220   0030FA  0E00               	movlw	0
  6221   0030FC  6E47               	movwf	(___flge@ff2+2)^0,c
  6222   0030FE  0E00               	movlw	0
  6223   003100  6E48               	movwf	(___flge@ff2+3)^0,c
  6224   003102                     l4899:
  6225   003102  AE44               	btfss	(___flge@ff1+3)^0,7,c
  6226   003104  EF86  F018         	goto	u5101
  6227   003108  EF88  F018         	goto	u5100
  6228   00310C                     u5101:
  6229   00310C  EF91  F018         	goto	l4903
  6230   003110                     u5100:
  6231   003110  6C41               	negf	___flge@ff1^0,c
  6232   003112  1E42               	comf	(___flge@ff1+1)^0,f,c
  6233   003114  B0D8               	btfsc	status,0,c
  6234   003116  2A42               	incf	(___flge@ff1+1)^0,f,c
  6235   003118  1E43               	comf	(___flge@ff1+2)^0,f,c
  6236   00311A  B0D8               	btfsc	status,0,c
  6237   00311C  2A43               	incf	(___flge@ff1+2)^0,f,c
  6238   00311E  0E80               	movlw	128
  6239   003120  5644               	subfwb	(___flge@ff1+3)^0,f,c
  6240   003122                     l4903:
  6241   003122  AE48               	btfss	(___flge@ff2+3)^0,7,c
  6242   003124  EF96  F018         	goto	u5111
  6243   003128  EF98  F018         	goto	u5110
  6244   00312C                     u5111:
  6245   00312C  EFA1  F018         	goto	l782
  6246   003130                     u5110:
  6247   003130  6C45               	negf	___flge@ff2^0,c
  6248   003132  1E46               	comf	(___flge@ff2+1)^0,f,c
  6249   003134  B0D8               	btfsc	status,0,c
  6250   003136  2A46               	incf	(___flge@ff2+1)^0,f,c
  6251   003138  1E47               	comf	(___flge@ff2+2)^0,f,c
  6252   00313A  B0D8               	btfsc	status,0,c
  6253   00313C  2A47               	incf	(___flge@ff2+2)^0,f,c
  6254   00313E  0E80               	movlw	128
  6255   003140  5648               	subfwb	(___flge@ff2+3)^0,f,c
  6256   003142                     l782:
  6257   003142  0E00               	movlw	0
  6258   003144  1A41               	xorwf	___flge@ff1^0,f,c
  6259   003146  0E00               	movlw	0
  6260   003148  1A42               	xorwf	(___flge@ff1+1)^0,f,c
  6261   00314A  0E00               	movlw	0
  6262   00314C  1A43               	xorwf	(___flge@ff1+2)^0,f,c
  6263   00314E  0E80               	movlw	128
  6264   003150  1A44               	xorwf	(___flge@ff1+3)^0,f,c
  6265   003152  0E00               	movlw	0
  6266   003154  1A45               	xorwf	___flge@ff2^0,f,c
  6267   003156  0E00               	movlw	0
  6268   003158  1A46               	xorwf	(___flge@ff2+1)^0,f,c
  6269   00315A  0E00               	movlw	0
  6270   00315C  1A47               	xorwf	(___flge@ff2+2)^0,f,c
  6271   00315E  0E80               	movlw	128
  6272   003160  1A48               	xorwf	(___flge@ff2+3)^0,f,c
  6273   003162  5045               	movf	___flge@ff2^0,w,c
  6274   003164  5C41               	subwf	___flge@ff1^0,w,c
  6275   003166  5046               	movf	(___flge@ff2+1)^0,w,c
  6276   003168  5842               	subwfb	(___flge@ff1+1)^0,w,c
  6277   00316A  5047               	movf	(___flge@ff2+2)^0,w,c
  6278   00316C  5843               	subwfb	(___flge@ff1+2)^0,w,c
  6279   00316E  5048               	movf	(___flge@ff2+3)^0,w,c
  6280   003170  5844               	subwfb	(___flge@ff1+3)^0,w,c
  6281   003172  B0D8               	btfsc	status,0,c
  6282   003174  EFBE  F018         	goto	u5121
  6283   003178  EFC0  F018         	goto	u5120
  6284   00317C                     u5121:
  6285   00317C  EFC3  F018         	goto	l4909
  6286   003180                     u5120:
  6287   003180  90D8               	bcf	status,0,c
  6288   003182  EFC4  F018         	goto	l787
  6289   003186                     l4909:
  6290   003186  80D8               	bsf	status,0,c
  6291   003188                     l787:
  6292   003188  0012               	return		;funcret
  6293   00318A                     __end_of___flge:
  6294                           	callstack 0
  6295                           
  6296 ;; *************** function ___fleq *****************
  6297 ;; Defined at:
  6298 ;;		line 4 in file "/opt/microchip/xc8/v2.45/pic/sources/c99/common/fleq.c"
  6299 ;; Parameters:    Size  Location     Type
  6300 ;;  ff1             4    0[COMRAM] unsigned char 
  6301 ;;  ff2             4    4[COMRAM] unsigned char 
  6302 ;; Auto vars:     Size  Location     Type
  6303 ;;		None
  6304 ;; Return value:  Size  Location     Type
  6305 ;;		None               void
  6306 ;; Registers used:
  6307 ;;		wreg, status,2, status,0
  6308 ;; Tracked objects:
  6309 ;;		On entry : 0/0
  6310 ;;		On exit  : 0/0
  6311 ;;		Unchanged: 0/0
  6312 ;; Data sizes:     COMRAM   BANK0   BANK1   BANK2   BANK3   BANK4   BANK5   BANK6   BANK7   BANK8   BANK9  BANK10  BANK1
      +1  BANK12  BANK14
  6313 ;;      Params:         8       0       0       0       0       0       0       0       0       0       0       0       
      +0       0       0
  6314 ;;      Locals:         0       0       0       0       0       0       0       0       0       0       0       0       
      +0       0       0
  6315 ;;      Temps:          4       0       0       0       0       0       0       0       0       0       0       0       
      +0       0       0
  6316 ;;      Totals:        12       0       0       0       0       0       0       0       0       0       0       0       
      +0       0       0
  6317 ;;Total ram usage:       12 bytes
  6318 ;; Hardware stack levels used: 1
  6319 ;; This function calls:
  6320 ;;		Nothing
  6321 ;; This function is called by:
  6322 ;;		_efgtoa
  6323 ;; This function uses a non-reentrant model
  6324 ;;
  6325                           
  6326                           	psect	text22
  6327   0034B6                     __ptext22:
  6328                           	callstack 0
  6329   0034B6                     ___fleq:
  6330                           	callstack 26
  6331   0034B6  0E00               	movlw	0
  6332   0034B8  1401               	andwf	___fleq@ff1^0,w,c
  6333   0034BA  6E09               	movwf	??___fleq^0,c
  6334   0034BC  0E00               	movlw	0
  6335   0034BE  1402               	andwf	(___fleq@ff1+1)^0,w,c
  6336   0034C0  6E0A               	movwf	(??___fleq+1)^0,c
  6337   0034C2  0E80               	movlw	128
  6338   0034C4  1403               	andwf	(___fleq@ff1+2)^0,w,c
  6339   0034C6  6E0B               	movwf	(??___fleq+2)^0,c
  6340   0034C8  0E7F               	movlw	127
  6341   0034CA  1404               	andwf	(___fleq@ff1+3)^0,w,c
  6342   0034CC  6E0C               	movwf	(??___fleq+3)^0,c
  6343   0034CE  5009               	movf	??___fleq^0,w,c
  6344   0034D0  100A               	iorwf	(??___fleq+1)^0,w,c
  6345   0034D2  100B               	iorwf	(??___fleq+2)^0,w,c
  6346   0034D4  100C               	iorwf	(??___fleq+3)^0,w,c
  6347   0034D6  A4D8               	btfss	status,2,c
  6348   0034D8  EF70  F01A         	goto	u5051
  6349   0034DC  EF72  F01A         	goto	u5050
  6350   0034E0                     u5051:
  6351   0034E0  EF7A  F01A         	goto	l4879
  6352   0034E4                     u5050:
  6353   0034E4  0E00               	movlw	0
  6354   0034E6  6E01               	movwf	___fleq@ff1^0,c
  6355   0034E8  0E00               	movlw	0
  6356   0034EA  6E02               	movwf	(___fleq@ff1+1)^0,c
  6357   0034EC  0E00               	movlw	0
  6358   0034EE  6E03               	movwf	(___fleq@ff1+2)^0,c
  6359   0034F0  0E00               	movlw	0
  6360   0034F2  6E04               	movwf	(___fleq@ff1+3)^0,c
  6361   0034F4                     l4879:
  6362   0034F4  0E00               	movlw	0
  6363   0034F6  1405               	andwf	___fleq@ff2^0,w,c
  6364   0034F8  6E09               	movwf	??___fleq^0,c
  6365   0034FA  0E00               	movlw	0
  6366   0034FC  1406               	andwf	(___fleq@ff2+1)^0,w,c
  6367   0034FE  6E0A               	movwf	(??___fleq+1)^0,c
  6368   003500  0E80               	movlw	128
  6369   003502  1407               	andwf	(___fleq@ff2+2)^0,w,c
  6370   003504  6E0B               	movwf	(??___fleq+2)^0,c
  6371   003506  0E7F               	movlw	127
  6372   003508  1408               	andwf	(___fleq@ff2+3)^0,w,c
  6373   00350A  6E0C               	movwf	(??___fleq+3)^0,c
  6374   00350C  5009               	movf	??___fleq^0,w,c
  6375   00350E  100A               	iorwf	(??___fleq+1)^0,w,c
  6376   003510  100B               	iorwf	(??___fleq+2)^0,w,c
  6377   003512  100C               	iorwf	(??___fleq+3)^0,w,c
  6378   003514  A4D8               	btfss	status,2,c
  6379   003516  EF8F  F01A         	goto	u5061
  6380   00351A  EF91  F01A         	goto	u5060
  6381   00351E                     u5061:
  6382   00351E  EF99  F01A         	goto	l4883
  6383   003522                     u5060:
  6384   003522  0E00               	movlw	0
  6385   003524  6E05               	movwf	___fleq@ff2^0,c
  6386   003526  0E00               	movlw	0
  6387   003528  6E06               	movwf	(___fleq@ff2+1)^0,c
  6388   00352A  0E00               	movlw	0
  6389   00352C  6E07               	movwf	(___fleq@ff2+2)^0,c
  6390   00352E  0E00               	movlw	0
  6391   003530  6E08               	movwf	(___fleq@ff2+3)^0,c
  6392   003532                     l4883:
  6393   003532  5005               	movf	___fleq@ff2^0,w,c
  6394   003534  1801               	xorwf	___fleq@ff1^0,w,c
  6395   003536  E10F               	bnz	u5070
  6396   003538  5006               	movf	(___fleq@ff2+1)^0,w,c
  6397   00353A  1802               	xorwf	(___fleq@ff1+1)^0,w,c
  6398   00353C  E10C               	bnz	u5070
  6399   00353E  5007               	movf	(___fleq@ff2+2)^0,w,c
  6400   003540  1803               	xorwf	(___fleq@ff1+2)^0,w,c
  6401   003542  E109               	bnz	u5070
  6402   003544  5008               	movf	(___fleq@ff2+3)^0,w,c
  6403   003546  1804               	xorwf	(___fleq@ff1+3)^0,w,c
  6404   003548  B4D8               	btfsc	status,2,c
  6405   00354A  EFA9  F01A         	goto	u5071
  6406   00354E  EFAB  F01A         	goto	u5070
  6407   003552                     u5071:
  6408   003552  EFAE  F01A         	goto	l4887
  6409   003556                     u5070:
  6410   003556  90D8               	bcf	status,0,c
  6411   003558  EFAF  F01A         	goto	l776
  6412   00355C                     l4887:
  6413   00355C  80D8               	bsf	status,0,c
  6414   00355E                     l776:
  6415   00355E  0012               	return		;funcret
  6416   003560                     __end_of___fleq:
  6417                           	callstack 0
  6418                           
  6419 ;; *************** function ___fldiv *****************
  6420 ;; Defined at:
  6421 ;;		line 11 in file "/opt/microchip/xc8/v2.45/pic/sources/c99/common/sprcdiv.c"
  6422 ;; Parameters:    Size  Location     Type
  6423 ;;  b               4   14[COMRAM] unsigned char 
  6424 ;;  a               4   18[COMRAM] unsigned char 
  6425 ;; Auto vars:     Size  Location     Type
  6426 ;;  grs             4   33[COMRAM] unsigned long 
  6427 ;;  rem             4   26[COMRAM] unsigned long 
  6428 ;;  new_exp         2   31[COMRAM] short 
  6429 ;;  aexp            1   38[COMRAM] unsigned char 
  6430 ;;  bexp            1   37[COMRAM] unsigned char 
  6431 ;;  sign            1   30[COMRAM] unsigned char 
  6432 ;; Return value:  Size  Location     Type
  6433 ;;                  4   14[COMRAM] unsigned char 
  6434 ;; Registers used:
  6435 ;;		wreg, status,2, status,0
  6436 ;; Tracked objects:
  6437 ;;		On entry : 0/0
  6438 ;;		On exit  : 0/0
  6439 ;;		Unchanged: 0/0
  6440 ;; Data sizes:     COMRAM   BANK0   BANK1   BANK2   BANK3   BANK4   BANK5   BANK6   BANK7   BANK8   BANK9  BANK10  BANK1
      +1  BANK12  BANK14
  6441 ;;      Params:         8       0       0       0       0       0       0       0       0       0       0       0       
      +0       0       0
  6442 ;;      Locals:        13       0       0       0       0       0       0       0       0       0       0       0       
      +0       0       0
  6443 ;;      Temps:          4       0       0       0       0       0       0       0       0       0       0       0       
      +0       0       0
  6444 ;;      Totals:        25       0       0       0       0       0       0       0       0       0       0       0       
      +0       0       0
  6445 ;;Total ram usage:       25 bytes
  6446 ;; Hardware stack levels used: 1
  6447 ;; This function calls:
  6448 ;;		Nothing
  6449 ;; This function is called by:
  6450 ;;		_main
  6451 ;;		_efgtoa
  6452 ;; This function uses a non-reentrant model
  6453 ;;
  6454                           
  6455                           	psect	text23
  6456   0021E2                     __ptext23:
  6457                           	callstack 0
  6458   0021E2                     ___fldiv:
  6459                           	callstack 26
  6460   0021E2  5012               	movf	(___fldiv@b+3)^0,w,c
  6461   0021E4  0B80               	andlw	128
  6462   0021E6  6E1F               	movwf	___fldiv@sign^0,c
  6463   0021E8  5012               	movf	(___fldiv@b+3)^0,w,c
  6464   0021EA  2412               	addwf	(___fldiv@b+3)^0,w,c
  6465   0021EC  6E26               	movwf	___fldiv@bexp^0,c
  6466   0021EE  AE11               	btfss	(___fldiv@b+2)^0,7,c
  6467   0021F0  EFFC  F010         	goto	u4631
  6468   0021F4  EFFE  F010         	goto	u4630
  6469   0021F8                     u4631:
  6470   0021F8  EFFF  F010         	goto	l4607
  6471   0021FC                     u4630:
  6472   0021FC  8026               	bsf	___fldiv@bexp^0,0,c
  6473   0021FE                     l4607:
  6474   0021FE  5026               	movf	___fldiv@bexp^0,w,c
  6475   002200  B4D8               	btfsc	status,2,c
  6476   002202  EF05  F011         	goto	u4641
  6477   002206  EF07  F011         	goto	u4640
  6478   00220A                     u4641:
  6479   00220A  EF1C  F011         	goto	l4617
  6480   00220E                     u4640:
  6481   00220E  2826               	incf	___fldiv@bexp^0,w,c
  6482   002210  A4D8               	btfss	status,2,c
  6483   002212  EF0D  F011         	goto	u4651
  6484   002216  EF0F  F011         	goto	u4650
  6485   00221A                     u4651:
  6486   00221A  EF17  F011         	goto	l4613
  6487   00221E                     u4650:
  6488   00221E  0E00               	movlw	0
  6489   002220  6E0F               	movwf	___fldiv@b^0,c
  6490   002222  0E00               	movlw	0
  6491   002224  6E10               	movwf	(___fldiv@b+1)^0,c
  6492   002226  0E00               	movlw	0
  6493   002228  6E11               	movwf	(___fldiv@b+2)^0,c
  6494   00222A  0E00               	movlw	0
  6495   00222C  6E12               	movwf	(___fldiv@b+3)^0,c
  6496   00222E                     l4613:
  6497   00222E  8E11               	bsf	(___fldiv@b+2)^0,7,c
  6498   002230  0E00               	movlw	0
  6499   002232  6E12               	movwf	(___fldiv@b+3)^0,c
  6500   002234  EF24  F011         	goto	l4619
  6501   002238                     l4617:
  6502   002238  0E00               	movlw	0
  6503   00223A  6E0F               	movwf	___fldiv@b^0,c
  6504   00223C  0E00               	movlw	0
  6505   00223E  6E10               	movwf	(___fldiv@b+1)^0,c
  6506   002240  0E00               	movlw	0
  6507   002242  6E11               	movwf	(___fldiv@b+2)^0,c
  6508   002244  0E00               	movlw	0
  6509   002246  6E12               	movwf	(___fldiv@b+3)^0,c
  6510   002248                     l4619:
  6511   002248  5016               	movf	(___fldiv@a+3)^0,w,c
  6512   00224A  0B80               	andlw	128
  6513   00224C  1A1F               	xorwf	___fldiv@sign^0,f,c
  6514   00224E  5016               	movf	(___fldiv@a+3)^0,w,c
  6515   002250  2416               	addwf	(___fldiv@a+3)^0,w,c
  6516   002252  6E27               	movwf	___fldiv@aexp^0,c
  6517   002254  AE15               	btfss	(___fldiv@a+2)^0,7,c
  6518   002256  EF2F  F011         	goto	u4661
  6519   00225A  EF31  F011         	goto	u4660
  6520   00225E                     u4661:
  6521   00225E  EF32  F011         	goto	l4627
  6522   002262                     u4660:
  6523   002262  8027               	bsf	___fldiv@aexp^0,0,c
  6524   002264                     l4627:
  6525   002264  5027               	movf	___fldiv@aexp^0,w,c
  6526   002266  B4D8               	btfsc	status,2,c
  6527   002268  EF38  F011         	goto	u4671
  6528   00226C  EF3A  F011         	goto	u4670
  6529   002270                     u4671:
  6530   002270  EF4F  F011         	goto	l4637
  6531   002274                     u4670:
  6532   002274  2827               	incf	___fldiv@aexp^0,w,c
  6533   002276  A4D8               	btfss	status,2,c
  6534   002278  EF40  F011         	goto	u4681
  6535   00227C  EF42  F011         	goto	u4680
  6536   002280                     u4681:
  6537   002280  EF4A  F011         	goto	l4633
  6538   002284                     u4680:
  6539   002284  0E00               	movlw	0
  6540   002286  6E13               	movwf	___fldiv@a^0,c
  6541   002288  0E00               	movlw	0
  6542   00228A  6E14               	movwf	(___fldiv@a+1)^0,c
  6543   00228C  0E00               	movlw	0
  6544   00228E  6E15               	movwf	(___fldiv@a+2)^0,c
  6545   002290  0E00               	movlw	0
  6546   002292  6E16               	movwf	(___fldiv@a+3)^0,c
  6547   002294                     l4633:
  6548   002294  8E15               	bsf	(___fldiv@a+2)^0,7,c
  6549   002296  0E00               	movlw	0
  6550   002298  6E16               	movwf	(___fldiv@a+3)^0,c
  6551   00229A  EF57  F011         	goto	l4639
  6552   00229E                     l4637:
  6553   00229E  0E00               	movlw	0
  6554   0022A0  6E13               	movwf	___fldiv@a^0,c
  6555   0022A2  0E00               	movlw	0
  6556   0022A4  6E14               	movwf	(___fldiv@a+1)^0,c
  6557   0022A6  0E00               	movlw	0
  6558   0022A8  6E15               	movwf	(___fldiv@a+2)^0,c
  6559   0022AA  0E00               	movlw	0
  6560   0022AC  6E16               	movwf	(___fldiv@a+3)^0,c
  6561   0022AE                     l4639:
  6562   0022AE  5013               	movf	___fldiv@a^0,w,c
  6563   0022B0  1014               	iorwf	(___fldiv@a+1)^0,w,c
  6564   0022B2  1015               	iorwf	(___fldiv@a+2)^0,w,c
  6565   0022B4  1016               	iorwf	(___fldiv@a+3)^0,w,c
  6566   0022B6  A4D8               	btfss	status,2,c
  6567   0022B8  EF60  F011         	goto	u4691
  6568   0022BC  EF62  F011         	goto	u4690
  6569   0022C0                     u4691:
  6570   0022C0  EF7A  F011         	goto	l4651
  6571   0022C4                     u4690:
  6572   0022C4  0E00               	movlw	0
  6573   0022C6  6E0F               	movwf	___fldiv@b^0,c
  6574   0022C8  0E00               	movlw	0
  6575   0022CA  6E10               	movwf	(___fldiv@b+1)^0,c
  6576   0022CC  0E00               	movlw	0
  6577   0022CE  6E11               	movwf	(___fldiv@b+2)^0,c
  6578   0022D0  0E00               	movlw	0
  6579   0022D2  6E12               	movwf	(___fldiv@b+3)^0,c
  6580   0022D4  0E80               	movlw	128
  6581   0022D6  1211               	iorwf	(___fldiv@b+2)^0,f,c
  6582   0022D8  0E7F               	movlw	127
  6583   0022DA  1212               	iorwf	(___fldiv@b+3)^0,f,c
  6584   0022DC                     l4645:
  6585   0022DC  501F               	movf	___fldiv@sign^0,w,c
  6586   0022DE  1212               	iorwf	(___fldiv@b+3)^0,f,c
  6587   0022E0  C00F  F00F         	movff	___fldiv@b,?___fldiv
  6588   0022E4  C010  F010         	movff	___fldiv@b+1,?___fldiv+1
  6589   0022E8  C011  F011         	movff	___fldiv@b+2,?___fldiv+2
  6590   0022EC  C012  F012         	movff	___fldiv@b+3,?___fldiv+3
  6591   0022F0  EFBD  F012         	goto	l1099
  6592   0022F4                     l4651:
  6593   0022F4  5026               	movf	___fldiv@bexp^0,w,c
  6594   0022F6  A4D8               	btfss	status,2,c
  6595   0022F8  EF80  F011         	goto	u4701
  6596   0022FC  EF82  F011         	goto	u4700
  6597   002300                     u4701:
  6598   002300  EF8C  F011         	goto	l4659
  6599   002304                     u4700:
  6600   002304  0E00               	movlw	0
  6601   002306  6E0F               	movwf	?___fldiv^0,c
  6602   002308  0E00               	movlw	0
  6603   00230A  6E10               	movwf	(?___fldiv+1)^0,c
  6604   00230C  0E00               	movlw	0
  6605   00230E  6E11               	movwf	(?___fldiv+2)^0,c
  6606   002310  0E00               	movlw	0
  6607   002312  6E12               	movwf	(?___fldiv+3)^0,c
  6608   002314  EFBD  F012         	goto	l1099
  6609   002318                     l4659:
  6610   002318  5027               	movf	___fldiv@aexp^0,w,c
  6611   00231A  C026  F017         	movff	___fldiv@bexp,??___fldiv
  6612   00231E  6A18               	clrf	(??___fldiv+1)^0,c
  6613   002320  5E17               	subwf	??___fldiv^0,f,c
  6614   002322  0E00               	movlw	0
  6615   002324  5A18               	subwfb	(??___fldiv+1)^0,f,c
  6616   002326  0E7F               	movlw	127
  6617   002328  2417               	addwf	??___fldiv^0,w,c
  6618   00232A  6E20               	movwf	___fldiv@new_exp^0,c
  6619   00232C  0E00               	movlw	0
  6620   00232E  2018               	addwfc	(??___fldiv+1)^0,w,c
  6621   002330  6E21               	movwf	(___fldiv@new_exp+1)^0,c
  6622   002332  C00F  F01B         	movff	___fldiv@b,___fldiv@rem
  6623   002336  C010  F01C         	movff	___fldiv@b+1,___fldiv@rem+1
  6624   00233A  C011  F01D         	movff	___fldiv@b+2,___fldiv@rem+2
  6625   00233E  C012  F01E         	movff	___fldiv@b+3,___fldiv@rem+3
  6626   002342  0E00               	movlw	0
  6627   002344  6E0F               	movwf	___fldiv@b^0,c
  6628   002346  0E00               	movlw	0
  6629   002348  6E10               	movwf	(___fldiv@b+1)^0,c
  6630   00234A  0E00               	movlw	0
  6631   00234C  6E11               	movwf	(___fldiv@b+2)^0,c
  6632   00234E  0E00               	movlw	0
  6633   002350  6E12               	movwf	(___fldiv@b+3)^0,c
  6634   002352  0E00               	movlw	0
  6635   002354  6E22               	movwf	___fldiv@grs^0,c
  6636   002356  0E00               	movlw	0
  6637   002358  6E23               	movwf	(___fldiv@grs+1)^0,c
  6638   00235A  0E00               	movlw	0
  6639   00235C  6E24               	movwf	(___fldiv@grs+2)^0,c
  6640   00235E  0E00               	movlw	0
  6641   002360  6E25               	movwf	(___fldiv@grs+3)^0,c
  6642   002362  0E00               	movlw	0
  6643   002364  6E27               	movwf	___fldiv@aexp^0,c
  6644   002366  EFED  F011         	goto	l1101
  6645   00236A                     l4669:
  6646   00236A  5027               	movf	___fldiv@aexp^0,w,c
  6647   00236C  B4D8               	btfsc	status,2,c
  6648   00236E  EFBB  F011         	goto	u4711
  6649   002372  EFBD  F011         	goto	u4710
  6650   002376                     u4711:
  6651   002376  EFD4  F011         	goto	l4677
  6652   00237A                     u4710:
  6653   00237A  90D8               	bcf	status,0,c
  6654   00237C  361B               	rlcf	___fldiv@rem^0,f,c
  6655   00237E  361C               	rlcf	(___fldiv@rem+1)^0,f,c
  6656   002380  361D               	rlcf	(___fldiv@rem+2)^0,f,c
  6657   002382  361E               	rlcf	(___fldiv@rem+3)^0,f,c
  6658   002384  90D8               	bcf	status,0,c
  6659   002386  360F               	rlcf	___fldiv@b^0,f,c
  6660   002388  3610               	rlcf	(___fldiv@b+1)^0,f,c
  6661   00238A  3611               	rlcf	(___fldiv@b+2)^0,f,c
  6662   00238C  3612               	rlcf	(___fldiv@b+3)^0,f,c
  6663   00238E  AE25               	btfss	(___fldiv@grs+3)^0,7,c
  6664   002390  EFCC  F011         	goto	u4721
  6665   002394  EFCE  F011         	goto	u4720
  6666   002398                     u4721:
  6667   002398  EFCF  F011         	goto	l1104
  6668   00239C                     u4720:
  6669   00239C  800F               	bsf	___fldiv@b^0,0,c
  6670   00239E                     l1104:
  6671   00239E  90D8               	bcf	status,0,c
  6672   0023A0  3622               	rlcf	___fldiv@grs^0,f,c
  6673   0023A2  3623               	rlcf	(___fldiv@grs+1)^0,f,c
  6674   0023A4  3624               	rlcf	(___fldiv@grs+2)^0,f,c
  6675   0023A6  3625               	rlcf	(___fldiv@grs+3)^0,f,c
  6676   0023A8                     l4677:
  6677   0023A8  5013               	movf	___fldiv@a^0,w,c
  6678   0023AA  5C1B               	subwf	___fldiv@rem^0,w,c
  6679   0023AC  5014               	movf	(___fldiv@a+1)^0,w,c
  6680   0023AE  581C               	subwfb	(___fldiv@rem+1)^0,w,c
  6681   0023B0  5015               	movf	(___fldiv@a+2)^0,w,c
  6682   0023B2  581D               	subwfb	(___fldiv@rem+2)^0,w,c
  6683   0023B4  5016               	movf	(___fldiv@a+3)^0,w,c
  6684   0023B6  581E               	subwfb	(___fldiv@rem+3)^0,w,c
  6685   0023B8  A0D8               	btfss	status,0,c
  6686   0023BA  EFE1  F011         	goto	u4731
  6687   0023BE  EFE3  F011         	goto	u4730
  6688   0023C2                     u4731:
  6689   0023C2  EFEC  F011         	goto	l4683
  6690   0023C6                     u4730:
  6691   0023C6  8C25               	bsf	(___fldiv@grs+3)^0,6,c
  6692   0023C8  5013               	movf	___fldiv@a^0,w,c
  6693   0023CA  5E1B               	subwf	___fldiv@rem^0,f,c
  6694   0023CC  5014               	movf	(___fldiv@a+1)^0,w,c
  6695   0023CE  5A1C               	subwfb	(___fldiv@rem+1)^0,f,c
  6696   0023D0  5015               	movf	(___fldiv@a+2)^0,w,c
  6697   0023D2  5A1D               	subwfb	(___fldiv@rem+2)^0,f,c
  6698   0023D4  5016               	movf	(___fldiv@a+3)^0,w,c
  6699   0023D6  5A1E               	subwfb	(___fldiv@rem+3)^0,f,c
  6700   0023D8                     l4683:
  6701   0023D8  2A27               	incf	___fldiv@aexp^0,f,c
  6702   0023DA                     l1101:
  6703   0023DA  0E19               	movlw	25
  6704   0023DC  6427               	cpfsgt	___fldiv@aexp^0,c
  6705   0023DE  EFF3  F011         	goto	u4741
  6706   0023E2  EFF5  F011         	goto	u4740
  6707   0023E6                     u4741:
  6708   0023E6  EFB5  F011         	goto	l4669
  6709   0023EA                     u4740:
  6710   0023EA  501B               	movf	___fldiv@rem^0,w,c
  6711   0023EC  101C               	iorwf	(___fldiv@rem+1)^0,w,c
  6712   0023EE  101D               	iorwf	(___fldiv@rem+2)^0,w,c
  6713   0023F0  101E               	iorwf	(___fldiv@rem+3)^0,w,c
  6714   0023F2  B4D8               	btfsc	status,2,c
  6715   0023F4  EFFE  F011         	goto	u4751
  6716   0023F8  EF00  F012         	goto	u4750
  6717   0023FC                     u4751:
  6718   0023FC  EF18  F012         	goto	l4695
  6719   002400                     u4750:
  6720   002400  8022               	bsf	___fldiv@grs^0,0,c
  6721   002402  EF18  F012         	goto	l4695
  6722   002406                     l4689:
  6723   002406  90D8               	bcf	status,0,c
  6724   002408  360F               	rlcf	___fldiv@b^0,f,c
  6725   00240A  3610               	rlcf	(___fldiv@b+1)^0,f,c
  6726   00240C  3611               	rlcf	(___fldiv@b+2)^0,f,c
  6727   00240E  3612               	rlcf	(___fldiv@b+3)^0,f,c
  6728   002410  AE25               	btfss	(___fldiv@grs+3)^0,7,c
  6729   002412  EF0D  F012         	goto	u4761
  6730   002416  EF0F  F012         	goto	u4760
  6731   00241A                     u4761:
  6732   00241A  EF10  F012         	goto	l1110
  6733   00241E                     u4760:
  6734   00241E  800F               	bsf	___fldiv@b^0,0,c
  6735   002420                     l1110:
  6736   002420  90D8               	bcf	status,0,c
  6737   002422  3622               	rlcf	___fldiv@grs^0,f,c
  6738   002424  3623               	rlcf	(___fldiv@grs+1)^0,f,c
  6739   002426  3624               	rlcf	(___fldiv@grs+2)^0,f,c
  6740   002428  3625               	rlcf	(___fldiv@grs+3)^0,f,c
  6741   00242A  0620               	decf	___fldiv@new_exp^0,f,c
  6742   00242C  A0D8               	btfss	status,0,c
  6743   00242E  0621               	decf	(___fldiv@new_exp+1)^0,f,c
  6744   002430                     l4695:
  6745   002430  AE11               	btfss	(___fldiv@b+2)^0,7,c
  6746   002432  EF1D  F012         	goto	u4771
  6747   002436  EF1F  F012         	goto	u4770
  6748   00243A                     u4771:
  6749   00243A  EF03  F012         	goto	l4689
  6750   00243E                     u4770:
  6751   00243E  0E00               	movlw	0
  6752   002440  6E27               	movwf	___fldiv@aexp^0,c
  6753   002442  AE25               	btfss	(___fldiv@grs+3)^0,7,c
  6754   002444  EF26  F012         	goto	u4781
  6755   002448  EF28  F012         	goto	u4780
  6756   00244C                     u4781:
  6757   00244C  EF4C  F012         	goto	l1112
  6758   002450                     u4780:
  6759   002450  0EFF               	movlw	255
  6760   002452  1422               	andwf	___fldiv@grs^0,w,c
  6761   002454  6E17               	movwf	??___fldiv^0,c
  6762   002456  0EFF               	movlw	255
  6763   002458  1423               	andwf	(___fldiv@grs+1)^0,w,c
  6764   00245A  6E18               	movwf	(??___fldiv+1)^0,c
  6765   00245C  0EFF               	movlw	255
  6766   00245E  1424               	andwf	(___fldiv@grs+2)^0,w,c
  6767   002460  6E19               	movwf	(??___fldiv+2)^0,c
  6768   002462  0E7F               	movlw	127
  6769   002464  1425               	andwf	(___fldiv@grs+3)^0,w,c
  6770   002466  6E1A               	movwf	(??___fldiv+3)^0,c
  6771   002468  5017               	movf	??___fldiv^0,w,c
  6772   00246A  1018               	iorwf	(??___fldiv+1)^0,w,c
  6773   00246C  1019               	iorwf	(??___fldiv+2)^0,w,c
  6774   00246E  101A               	iorwf	(??___fldiv+3)^0,w,c
  6775   002470  B4D8               	btfsc	status,2,c
  6776   002472  EF3D  F012         	goto	u4791
  6777   002476  EF3F  F012         	goto	u4790
  6778   00247A                     u4791:
  6779   00247A  EF43  F012         	goto	l1113
  6780   00247E                     u4790:
  6781   00247E                     l4703:
  6782   00247E  0E01               	movlw	1
  6783   002480  6E27               	movwf	___fldiv@aexp^0,c
  6784   002482  EF4C  F012         	goto	l1112
  6785   002486                     l1113:
  6786   002486  A00F               	btfss	___fldiv@b^0,0,c
  6787   002488  EF48  F012         	goto	u4801
  6788   00248C  EF4A  F012         	goto	u4800
  6789   002490                     u4801:
  6790   002490  EF4C  F012         	goto	l1112
  6791   002494                     u4800:
  6792   002494  EF3F  F012         	goto	l4703
  6793   002498                     l1112:
  6794   002498  5027               	movf	___fldiv@aexp^0,w,c
  6795   00249A  B4D8               	btfsc	status,2,c
  6796   00249C  EF52  F012         	goto	u4811
  6797   0024A0  EF54  F012         	goto	u4810
  6798   0024A4                     u4811:
  6799   0024A4  EF78  F012         	goto	l4715
  6800   0024A8                     u4810:
  6801   0024A8  0E01               	movlw	1
  6802   0024AA  260F               	addwf	___fldiv@b^0,f,c
  6803   0024AC  0E00               	movlw	0
  6804   0024AE  2210               	addwfc	(___fldiv@b+1)^0,f,c
  6805   0024B0  2211               	addwfc	(___fldiv@b+2)^0,f,c
  6806   0024B2  2212               	addwfc	(___fldiv@b+3)^0,f,c
  6807   0024B4  A012               	btfss	(___fldiv@b+3)^0,0,c
  6808   0024B6  EF5F  F012         	goto	u4821
  6809   0024BA  EF61  F012         	goto	u4820
  6810   0024BE                     u4821:
  6811   0024BE  EF78  F012         	goto	l4715
  6812   0024C2                     u4820:
  6813   0024C2  C00F  F017         	movff	___fldiv@b,??___fldiv
  6814   0024C6  C010  F018         	movff	___fldiv@b+1,??___fldiv+1
  6815   0024CA  C011  F019         	movff	___fldiv@b+2,??___fldiv+2
  6816   0024CE  C012  F01A         	movff	___fldiv@b+3,??___fldiv+3
  6817   0024D2  341A               	rlcf	(??___fldiv+3)^0,w,c
  6818   0024D4  321A               	rrcf	(??___fldiv+3)^0,f,c
  6819   0024D6  3219               	rrcf	(??___fldiv+2)^0,f,c
  6820   0024D8  3218               	rrcf	(??___fldiv+1)^0,f,c
  6821   0024DA  3217               	rrcf	??___fldiv^0,f,c
  6822   0024DC  C017  F00F         	movff	??___fldiv,___fldiv@b
  6823   0024E0  C018  F010         	movff	??___fldiv+1,___fldiv@b+1
  6824   0024E4  C019  F011         	movff	??___fldiv+2,___fldiv@b+2
  6825   0024E8  C01A  F012         	movff	??___fldiv+3,___fldiv@b+3
  6826   0024EC  4A20               	infsnz	___fldiv@new_exp^0,f,c
  6827   0024EE  2A21               	incf	(___fldiv@new_exp+1)^0,f,c
  6828   0024F0                     l4715:
  6829   0024F0  BE21               	btfsc	(___fldiv@new_exp+1)^0,7,c
  6830   0024F2  EF83  F012         	goto	u4831
  6831   0024F6  5021               	movf	(___fldiv@new_exp+1)^0,w,c
  6832   0024F8  E108               	bnz	u4830
  6833   0024FA  2820               	incf	___fldiv@new_exp^0,w,c
  6834   0024FC  A0D8               	btfss	status,0,c
  6835   0024FE  EF83  F012         	goto	u4831
  6836   002502  EF85  F012         	goto	u4830
  6837   002506                     u4831:
  6838   002506  EF90  F012         	goto	l4719
  6839   00250A                     u4830:
  6840   00250A  0E00               	movlw	0
  6841   00250C  6E21               	movwf	(___fldiv@new_exp+1)^0,c
  6842   00250E  6820               	setf	___fldiv@new_exp^0,c
  6843   002510  0E00               	movlw	0
  6844   002512  6E0F               	movwf	___fldiv@b^0,c
  6845   002514  0E00               	movlw	0
  6846   002516  6E10               	movwf	(___fldiv@b+1)^0,c
  6847   002518  0E00               	movlw	0
  6848   00251A  6E11               	movwf	(___fldiv@b+2)^0,c
  6849   00251C  0E00               	movlw	0
  6850   00251E  6E12               	movwf	(___fldiv@b+3)^0,c
  6851   002520                     l4719:
  6852   002520  BE21               	btfsc	(___fldiv@new_exp+1)^0,7,c
  6853   002522  EF9D  F012         	goto	u4840
  6854   002526  5021               	movf	(___fldiv@new_exp+1)^0,w,c
  6855   002528  E106               	bnz	u4841
  6856   00252A  0420               	decf	___fldiv@new_exp^0,w,c
  6857   00252C  B0D8               	btfsc	status,0,c
  6858   00252E  EF9B  F012         	goto	u4841
  6859   002532  EF9D  F012         	goto	u4840
  6860   002536                     u4841:
  6861   002536  EFAB  F012         	goto	l4723
  6862   00253A                     u4840:
  6863   00253A  0E00               	movlw	0
  6864   00253C  6E21               	movwf	(___fldiv@new_exp+1)^0,c
  6865   00253E  0E00               	movlw	0
  6866   002540  6E20               	movwf	___fldiv@new_exp^0,c
  6867   002542  0E00               	movlw	0
  6868   002544  6E0F               	movwf	___fldiv@b^0,c
  6869   002546  0E00               	movlw	0
  6870   002548  6E10               	movwf	(___fldiv@b+1)^0,c
  6871   00254A  0E00               	movlw	0
  6872   00254C  6E11               	movwf	(___fldiv@b+2)^0,c
  6873   00254E  0E00               	movlw	0
  6874   002550  6E12               	movwf	(___fldiv@b+3)^0,c
  6875   002552  0E00               	movlw	0
  6876   002554  6E1F               	movwf	___fldiv@sign^0,c
  6877   002556                     l4723:
  6878   002556  C020  F026         	movff	___fldiv@new_exp,___fldiv@bexp
  6879   00255A  A026               	btfss	___fldiv@bexp^0,0,c
  6880   00255C  EFB2  F012         	goto	u4851
  6881   002560  EFB4  F012         	goto	u4850
  6882   002564                     u4851:
  6883   002564  EFB7  F012         	goto	l4729
  6884   002568                     u4850:
  6885   002568  8E11               	bsf	(___fldiv@b+2)^0,7,c
  6886   00256A  EFB8  F012         	goto	l4731
  6887   00256E                     l4729:
  6888   00256E  9E11               	bcf	(___fldiv@b+2)^0,7,c
  6889   002570                     l4731:
  6890   002570  90D8               	bcf	status,0,c
  6891   002572  3026               	rrcf	___fldiv@bexp^0,w,c
  6892   002574  6E12               	movwf	(___fldiv@b+3)^0,c
  6893   002576  EF6E  F011         	goto	l4645
  6894   00257A                     l1099:
  6895   00257A  0012               	return		;funcret
  6896   00257C                     __end_of___fldiv:
  6897                           	callstack 0
  6898                           
  6899 ;; *************** function _abs *****************
  6900 ;; Defined at:
  6901 ;;		line 1 in file "/opt/microchip/xc8/v2.45/pic/sources/c99/common/abs.c"
  6902 ;; Parameters:    Size  Location     Type
  6903 ;;  a               2    6[COMRAM] int 
  6904 ;; Auto vars:     Size  Location     Type
  6905 ;;		None
  6906 ;; Return value:  Size  Location     Type
  6907 ;;                  2    6[COMRAM] int 
  6908 ;; Registers used:
  6909 ;;		wreg, status,2, status,0
  6910 ;; Tracked objects:
  6911 ;;		On entry : 0/0
  6912 ;;		On exit  : 0/0
  6913 ;;		Unchanged: 0/0
  6914 ;; Data sizes:     COMRAM   BANK0   BANK1   BANK2   BANK3   BANK4   BANK5   BANK6   BANK7   BANK8   BANK9  BANK10  BANK1
      +1  BANK12  BANK14
  6915 ;;      Params:         2       0       0       0       0       0       0       0       0       0       0       0       
      +0       0       0
  6916 ;;      Locals:         0       0       0       0       0       0       0       0       0       0       0       0       
      +0       0       0
  6917 ;;      Temps:          2       0       0       0       0       0       0       0       0       0       0       0       
      +0       0       0
  6918 ;;      Totals:         4       0       0       0       0       0       0       0       0       0       0       0       
      +0       0       0
  6919 ;;Total ram usage:        4 bytes
  6920 ;; Hardware stack levels used: 1
  6921 ;; This function calls:
  6922 ;;		Nothing
  6923 ;; This function is called by:
  6924 ;;		_vfpfcnvrt
  6925 ;; This function uses a non-reentrant model
  6926 ;;
  6927                           
  6928                           	psect	text24
  6929   0039AA                     __ptext24:
  6930                           	callstack 0
  6931   0039AA                     _abs:
  6932                           	callstack 27
  6933   0039AA  BE08               	btfsc	(abs@a+1)^0,7,c
  6934   0039AC  EFDA  F01C         	goto	u5871
  6935   0039B0  EFDC  F01C         	goto	u5870
  6936   0039B4                     u5871:
  6937   0039B4  EFE2  F01C         	goto	l1332
  6938   0039B8                     u5870:
  6939   0039B8  C007  F007         	movff	abs@a,?_abs
  6940   0039BC  C008  F008         	movff	abs@a+1,?_abs+1
  6941   0039C0  EFEE  F01C         	goto	l1335
  6942   0039C4                     l1332:
  6943   0039C4  C007  F009         	movff	abs@a,??_abs
  6944   0039C8  C008  F00A         	movff	abs@a+1,??_abs+1
  6945   0039CC  1E09               	comf	??_abs^0,f,c
  6946   0039CE  1E0A               	comf	(??_abs+1)^0,f,c
  6947   0039D0  4A09               	infsnz	??_abs^0,f,c
  6948   0039D2  2A0A               	incf	(??_abs+1)^0,f,c
  6949   0039D4  C009  F007         	movff	??_abs,?_abs
  6950   0039D8  C00A  F008         	movff	??_abs+1,?_abs+1
  6951   0039DC                     l1335:
  6952   0039DC  0012               	return		;funcret
  6953   0039DE                     __end_of_abs:
  6954                           	callstack 0
  6955                           
  6956 ;; *************** function ___awmod *****************
  6957 ;; Defined at:
  6958 ;;		line 7 in file "/opt/microchip/xc8/v2.45/pic/sources/c99/common/awmod.c"
  6959 ;; Parameters:    Size  Location     Type
  6960 ;;  dividend        2    0[COMRAM] int 
  6961 ;;  divisor         2    2[COMRAM] int 
  6962 ;; Auto vars:     Size  Location     Type
  6963 ;;  sign            1    5[COMRAM] unsigned char 
  6964 ;;  counter         1    4[COMRAM] unsigned char 
  6965 ;; Return value:  Size  Location     Type
  6966 ;;                  2    0[COMRAM] int 
  6967 ;; Registers used:
  6968 ;;		wreg, status,2, status,0
  6969 ;; Tracked objects:
  6970 ;;		On entry : 0/0
  6971 ;;		On exit  : 0/0
  6972 ;;		Unchanged: 0/0
  6973 ;; Data sizes:     COMRAM   BANK0   BANK1   BANK2   BANK3   BANK4   BANK5   BANK6   BANK7   BANK8   BANK9  BANK10  BANK1
      +1  BANK12  BANK14
  6974 ;;      Params:         4       0       0       0       0       0       0       0       0       0       0       0       
      +0       0       0
  6975 ;;      Locals:         2       0       0       0       0       0       0       0       0       0       0       0       
      +0       0       0
  6976 ;;      Temps:          0       0       0       0       0       0       0       0       0       0       0       0       
      +0       0       0
  6977 ;;      Totals:         6       0       0       0       0       0       0       0       0       0       0       0       
      +0       0       0
  6978 ;;Total ram usage:        6 bytes
  6979 ;; Hardware stack levels used: 1
  6980 ;; This function calls:
  6981 ;;		Nothing
  6982 ;; This function is called by:
  6983 ;;		_vfpfcnvrt
  6984 ;; This function uses a non-reentrant model
  6985 ;;
  6986                           
  6987                           	psect	text25
  6988   003406                     __ptext25:
  6989                           	callstack 0
  6990   003406                     ___awmod:
  6991                           	callstack 27
  6992   003406  0E00               	movlw	0
  6993   003408  6E06               	movwf	___awmod@sign^0,c
  6994   00340A  BE02               	btfsc	(___awmod@dividend+1)^0,7,c
  6995   00340C  EF0C  F01A         	goto	u5490
  6996   003410  EF0A  F01A         	goto	u5491
  6997   003414                     u5491:
  6998   003414  EF12  F01A         	goto	l5103
  6999   003418                     u5490:
  7000   003418  6C01               	negf	___awmod@dividend^0,c
  7001   00341A  1E02               	comf	(___awmod@dividend+1)^0,f,c
  7002   00341C  B0D8               	btfsc	status,0,c
  7003   00341E  2A02               	incf	(___awmod@dividend+1)^0,f,c
  7004   003420  0E01               	movlw	1
  7005   003422  6E06               	movwf	___awmod@sign^0,c
  7006   003424                     l5103:
  7007   003424  BE04               	btfsc	(___awmod@divisor+1)^0,7,c
  7008   003426  EF19  F01A         	goto	u5500
  7009   00342A  EF17  F01A         	goto	u5501
  7010   00342E                     u5501:
  7011   00342E  EF1D  F01A         	goto	l5107
  7012   003432                     u5500:
  7013   003432  6C03               	negf	___awmod@divisor^0,c
  7014   003434  1E04               	comf	(___awmod@divisor+1)^0,f,c
  7015   003436  B0D8               	btfsc	status,0,c
  7016   003438  2A04               	incf	(___awmod@divisor+1)^0,f,c
  7017   00343A                     l5107:
  7018   00343A  5003               	movf	___awmod@divisor^0,w,c
  7019   00343C  1004               	iorwf	(___awmod@divisor+1)^0,w,c
  7020   00343E  B4D8               	btfsc	status,2,c
  7021   003440  EF24  F01A         	goto	u5511
  7022   003444  EF26  F01A         	goto	u5510
  7023   003448                     u5511:
  7024   003448  EF4A  F01A         	goto	l5123
  7025   00344C                     u5510:
  7026   00344C  0E01               	movlw	1
  7027   00344E  6E05               	movwf	___awmod@counter^0,c
  7028   003450  EF2E  F01A         	goto	l5113
  7029   003454                     l5111:
  7030   003454  90D8               	bcf	status,0,c
  7031   003456  3603               	rlcf	___awmod@divisor^0,f,c
  7032   003458  3604               	rlcf	(___awmod@divisor+1)^0,f,c
  7033   00345A  2A05               	incf	___awmod@counter^0,f,c
  7034   00345C                     l5113:
  7035   00345C  AE04               	btfss	(___awmod@divisor+1)^0,7,c
  7036   00345E  EF33  F01A         	goto	u5521
  7037   003462  EF35  F01A         	goto	u5520
  7038   003466                     u5521:
  7039   003466  EF2A  F01A         	goto	l5111
  7040   00346A                     u5520:
  7041   00346A                     l5115:
  7042   00346A  5003               	movf	___awmod@divisor^0,w,c
  7043   00346C  5C01               	subwf	___awmod@dividend^0,w,c
  7044   00346E  5004               	movf	(___awmod@divisor+1)^0,w,c
  7045   003470  5802               	subwfb	(___awmod@dividend+1)^0,w,c
  7046   003472  A0D8               	btfss	status,0,c
  7047   003474  EF3E  F01A         	goto	u5531
  7048   003478  EF40  F01A         	goto	u5530
  7049   00347C                     u5531:
  7050   00347C  EF44  F01A         	goto	l5119
  7051   003480                     u5530:
  7052   003480  5003               	movf	___awmod@divisor^0,w,c
  7053   003482  5E01               	subwf	___awmod@dividend^0,f,c
  7054   003484  5004               	movf	(___awmod@divisor+1)^0,w,c
  7055   003486  5A02               	subwfb	(___awmod@dividend+1)^0,f,c
  7056   003488                     l5119:
  7057   003488  90D8               	bcf	status,0,c
  7058   00348A  3204               	rrcf	(___awmod@divisor+1)^0,f,c
  7059   00348C  3203               	rrcf	___awmod@divisor^0,f,c
  7060   00348E  2E05               	decfsz	___awmod@counter^0,f,c
  7061   003490  EF35  F01A         	goto	l5115
  7062   003494                     l5123:
  7063   003494  5006               	movf	___awmod@sign^0,w,c
  7064   003496  B4D8               	btfsc	status,2,c
  7065   003498  EF50  F01A         	goto	u5541
  7066   00349C  EF52  F01A         	goto	u5540
  7067   0034A0                     u5541:
  7068   0034A0  EF56  F01A         	goto	l5127
  7069   0034A4                     u5540:
  7070   0034A4  6C01               	negf	___awmod@dividend^0,c
  7071   0034A6  1E02               	comf	(___awmod@dividend+1)^0,f,c
  7072   0034A8  B0D8               	btfsc	status,0,c
  7073   0034AA  2A02               	incf	(___awmod@dividend+1)^0,f,c
  7074   0034AC                     l5127:
  7075   0034AC  C001  F001         	movff	___awmod@dividend,?___awmod
  7076   0034B0  C002  F002         	movff	___awmod@dividend+1,?___awmod+1
  7077   0034B4  0012               	return		;funcret
  7078   0034B6                     __end_of___awmod:
  7079                           	callstack 0
  7080                           
  7081 ;; *************** function ___awdiv *****************
  7082 ;; Defined at:
  7083 ;;		line 7 in file "/opt/microchip/xc8/v2.45/pic/sources/c99/common/awdiv.c"
  7084 ;; Parameters:    Size  Location     Type
  7085 ;;  dividend        2    0[COMRAM] int 
  7086 ;;  divisor         2    2[COMRAM] int 
  7087 ;; Auto vars:     Size  Location     Type
  7088 ;;  quotient        2    6[COMRAM] int 
  7089 ;;  sign            1    5[COMRAM] unsigned char 
  7090 ;;  counter         1    4[COMRAM] unsigned char 
  7091 ;; Return value:  Size  Location     Type
  7092 ;;                  2    0[COMRAM] int 
  7093 ;; Registers used:
  7094 ;;		wreg, status,2, status,0
  7095 ;; Tracked objects:
  7096 ;;		On entry : 0/0
  7097 ;;		On exit  : 0/0
  7098 ;;		Unchanged: 0/0
  7099 ;; Data sizes:     COMRAM   BANK0   BANK1   BANK2   BANK3   BANK4   BANK5   BANK6   BANK7   BANK8   BANK9  BANK10  BANK1
      +1  BANK12  BANK14
  7100 ;;      Params:         4       0       0       0       0       0       0       0       0       0       0       0       
      +0       0       0
  7101 ;;      Locals:         4       0       0       0       0       0       0       0       0       0       0       0       
      +0       0       0
  7102 ;;      Temps:          0       0       0       0       0       0       0       0       0       0       0       0       
      +0       0       0
  7103 ;;      Totals:         8       0       0       0       0       0       0       0       0       0       0       0       
      +0       0       0
  7104 ;;Total ram usage:        8 bytes
  7105 ;; Hardware stack levels used: 1
  7106 ;; This function calls:
  7107 ;;		Nothing
  7108 ;; This function is called by:
  7109 ;;		_vfpfcnvrt
  7110 ;; This function uses a non-reentrant model
  7111 ;;
  7112                           
  7113                           	psect	text26
  7114   003288                     __ptext26:
  7115                           	callstack 0
  7116   003288                     ___awdiv:
  7117                           	callstack 27
  7118   003288  0E00               	movlw	0
  7119   00328A  6E06               	movwf	___awdiv@sign^0,c
  7120   00328C  BE04               	btfsc	(___awdiv@divisor+1)^0,7,c
  7121   00328E  EF4D  F019         	goto	u5430
  7122   003292  EF4B  F019         	goto	u5431
  7123   003296                     u5431:
  7124   003296  EF53  F019         	goto	l5059
  7125   00329A                     u5430:
  7126   00329A  6C03               	negf	___awdiv@divisor^0,c
  7127   00329C  1E04               	comf	(___awdiv@divisor+1)^0,f,c
  7128   00329E  B0D8               	btfsc	status,0,c
  7129   0032A0  2A04               	incf	(___awdiv@divisor+1)^0,f,c
  7130   0032A2  0E01               	movlw	1
  7131   0032A4  6E06               	movwf	___awdiv@sign^0,c
  7132   0032A6                     l5059:
  7133   0032A6  BE02               	btfsc	(___awdiv@dividend+1)^0,7,c
  7134   0032A8  EF5A  F019         	goto	u5440
  7135   0032AC  EF58  F019         	goto	u5441
  7136   0032B0                     u5441:
  7137   0032B0  EF60  F019         	goto	l5065
  7138   0032B4                     u5440:
  7139   0032B4  6C01               	negf	___awdiv@dividend^0,c
  7140   0032B6  1E02               	comf	(___awdiv@dividend+1)^0,f,c
  7141   0032B8  B0D8               	btfsc	status,0,c
  7142   0032BA  2A02               	incf	(___awdiv@dividend+1)^0,f,c
  7143   0032BC  0E01               	movlw	1
  7144   0032BE  1A06               	xorwf	___awdiv@sign^0,f,c
  7145   0032C0                     l5065:
  7146   0032C0  0E00               	movlw	0
  7147   0032C2  6E08               	movwf	(___awdiv@quotient+1)^0,c
  7148   0032C4  0E00               	movlw	0
  7149   0032C6  6E07               	movwf	___awdiv@quotient^0,c
  7150   0032C8  5003               	movf	___awdiv@divisor^0,w,c
  7151   0032CA  1004               	iorwf	(___awdiv@divisor+1)^0,w,c
  7152   0032CC  B4D8               	btfsc	status,2,c
  7153   0032CE  EF6B  F019         	goto	u5451
  7154   0032D2  EF6D  F019         	goto	u5450
  7155   0032D6                     u5451:
  7156   0032D6  EF95  F019         	goto	l5087
  7157   0032DA                     u5450:
  7158   0032DA  0E01               	movlw	1
  7159   0032DC  6E05               	movwf	___awdiv@counter^0,c
  7160   0032DE  EF75  F019         	goto	l5073
  7161   0032E2                     l5071:
  7162   0032E2  90D8               	bcf	status,0,c
  7163   0032E4  3603               	rlcf	___awdiv@divisor^0,f,c
  7164   0032E6  3604               	rlcf	(___awdiv@divisor+1)^0,f,c
  7165   0032E8  2A05               	incf	___awdiv@counter^0,f,c
  7166   0032EA                     l5073:
  7167   0032EA  AE04               	btfss	(___awdiv@divisor+1)^0,7,c
  7168   0032EC  EF7A  F019         	goto	u5461
  7169   0032F0  EF7C  F019         	goto	u5460
  7170   0032F4                     u5461:
  7171   0032F4  EF71  F019         	goto	l5071
  7172   0032F8                     u5460:
  7173   0032F8                     l5075:
  7174   0032F8  90D8               	bcf	status,0,c
  7175   0032FA  3607               	rlcf	___awdiv@quotient^0,f,c
  7176   0032FC  3608               	rlcf	(___awdiv@quotient+1)^0,f,c
  7177   0032FE  5003               	movf	___awdiv@divisor^0,w,c
  7178   003300  5C01               	subwf	___awdiv@dividend^0,w,c
  7179   003302  5004               	movf	(___awdiv@divisor+1)^0,w,c
  7180   003304  5802               	subwfb	(___awdiv@dividend+1)^0,w,c
  7181   003306  A0D8               	btfss	status,0,c
  7182   003308  EF88  F019         	goto	u5471
  7183   00330C  EF8A  F019         	goto	u5470
  7184   003310                     u5471:
  7185   003310  EF8F  F019         	goto	l5083
  7186   003314                     u5470:
  7187   003314  5003               	movf	___awdiv@divisor^0,w,c
  7188   003316  5E01               	subwf	___awdiv@dividend^0,f,c
  7189   003318  5004               	movf	(___awdiv@divisor+1)^0,w,c
  7190   00331A  5A02               	subwfb	(___awdiv@dividend+1)^0,f,c
  7191   00331C  8007               	bsf	___awdiv@quotient^0,0,c
  7192   00331E                     l5083:
  7193   00331E  90D8               	bcf	status,0,c
  7194   003320  3204               	rrcf	(___awdiv@divisor+1)^0,f,c
  7195   003322  3203               	rrcf	___awdiv@divisor^0,f,c
  7196   003324  2E05               	decfsz	___awdiv@counter^0,f,c
  7197   003326  EF7C  F019         	goto	l5075
  7198   00332A                     l5087:
  7199   00332A  5006               	movf	___awdiv@sign^0,w,c
  7200   00332C  B4D8               	btfsc	status,2,c
  7201   00332E  EF9B  F019         	goto	u5481
  7202   003332  EF9D  F019         	goto	u5480
  7203   003336                     u5481:
  7204   003336  EFA1  F019         	goto	l5091
  7205   00333A                     u5480:
  7206   00333A  6C07               	negf	___awdiv@quotient^0,c
  7207   00333C  1E08               	comf	(___awdiv@quotient+1)^0,f,c
  7208   00333E  B0D8               	btfsc	status,0,c
  7209   003340  2A08               	incf	(___awdiv@quotient+1)^0,f,c
  7210   003342                     l5091:
  7211   003342  C007  F001         	movff	___awdiv@quotient,?___awdiv
  7212   003346  C008  F002         	movff	___awdiv@quotient+1,?___awdiv+1
  7213   00334A  0012               	return		;funcret
  7214   00334C                     __end_of___awdiv:
  7215                           	callstack 0
  7216                           
  7217 ;; *************** function ___xxtofl *****************
  7218 ;; Defined at:
  7219 ;;		line 10 in file "/opt/microchip/xc8/v2.45/pic/sources/c99/common/xxtofl.c"
  7220 ;; Parameters:    Size  Location     Type
  7221 ;;  sign            1    wreg     unsigned char 
  7222 ;;  val             4    0[COMRAM] long 
  7223 ;; Auto vars:     Size  Location     Type
  7224 ;;  sign            1    8[COMRAM] unsigned char 
  7225 ;;  arg             4   10[COMRAM] unsigned long 
  7226 ;;  exp             1    9[COMRAM] unsigned char 
  7227 ;; Return value:  Size  Location     Type
  7228 ;;                  4    0[COMRAM] unsigned char 
  7229 ;; Registers used:
  7230 ;;		wreg, status,2, status,0
  7231 ;; Tracked objects:
  7232 ;;		On entry : 0/0
  7233 ;;		On exit  : 0/0
  7234 ;;		Unchanged: 0/0
  7235 ;; Data sizes:     COMRAM   BANK0   BANK1   BANK2   BANK3   BANK4   BANK5   BANK6   BANK7   BANK8   BANK9  BANK10  BANK1
      +1  BANK12  BANK14
  7236 ;;      Params:         4       0       0       0       0       0       0       0       0       0       0       0       
      +0       0       0
  7237 ;;      Locals:         6       0       0       0       0       0       0       0       0       0       0       0       
      +0       0       0
  7238 ;;      Temps:          4       0       0       0       0       0       0       0       0       0       0       0       
      +0       0       0
  7239 ;;      Totals:        14       0       0       0       0       0       0       0       0       0       0       0       
      +0       0       0
  7240 ;;Total ram usage:       14 bytes
  7241 ;; Hardware stack levels used: 1
  7242 ;; This function calls:
  7243 ;;		Nothing
  7244 ;; This function is called by:
  7245 ;;		_main
  7246 ;; This function uses a non-reentrant model
  7247 ;;
  7248                           
  7249                           	psect	text27
  7250   002DCC                     __ptext27:
  7251                           	callstack 0
  7252   002DCC                     ___xxtofl:
  7253                           	callstack 30
  7254                           
  7255                           ;incstack = 0
  7256                           ;___xxtofl@sign stored from wreg
  7257   002DCC  6E09               	movwf	___xxtofl@sign^0,c
  7258   002DCE  5009               	movf	___xxtofl@sign^0,w,c
  7259   002DD0  B4D8               	btfsc	status,2,c
  7260   002DD2  EFED  F016         	goto	u6021
  7261   002DD6  EFEF  F016         	goto	u6020
  7262   002DDA                     u6021:
  7263   002DDA  EF11  F017         	goto	l1172
  7264   002DDE                     u6020:
  7265   002DDE  BE04               	btfsc	(___xxtofl@val+3)^0,7,c
  7266   002DE0  EFF6  F016         	goto	u6030
  7267   002DE4  EFF4  F016         	goto	u6031
  7268   002DE8                     u6031:
  7269   002DE8  EF11  F017         	goto	l1172
  7270   002DEC                     u6030:
  7271   002DEC  C001  F005         	movff	___xxtofl@val,??___xxtofl
  7272   002DF0  C002  F006         	movff	___xxtofl@val+1,??___xxtofl+1
  7273   002DF4  C003  F007         	movff	___xxtofl@val+2,??___xxtofl+2
  7274   002DF8  C004  F008         	movff	___xxtofl@val+3,??___xxtofl+3
  7275   002DFC  1E05               	comf	??___xxtofl^0,f,c
  7276   002DFE  1E06               	comf	(??___xxtofl+1)^0,f,c
  7277   002E00  1E07               	comf	(??___xxtofl+2)^0,f,c
  7278   002E02  1E08               	comf	(??___xxtofl+3)^0,f,c
  7279   002E04  2A05               	incf	??___xxtofl^0,f,c
  7280   002E06  0E00               	movlw	0
  7281   002E08  2206               	addwfc	(??___xxtofl+1)^0,f,c
  7282   002E0A  2207               	addwfc	(??___xxtofl+2)^0,f,c
  7283   002E0C  2208               	addwfc	(??___xxtofl+3)^0,f,c
  7284   002E0E  C005  F00B         	movff	??___xxtofl,___xxtofl@arg
  7285   002E12  C006  F00C         	movff	??___xxtofl+1,___xxtofl@arg+1
  7286   002E16  C007  F00D         	movff	??___xxtofl+2,___xxtofl@arg+2
  7287   002E1A  C008  F00E         	movff	??___xxtofl+3,___xxtofl@arg+3
  7288   002E1E  EF19  F017         	goto	l5571
  7289   002E22                     l1172:
  7290   002E22  C001  F00B         	movff	___xxtofl@val,___xxtofl@arg
  7291   002E26  C002  F00C         	movff	___xxtofl@val+1,___xxtofl@arg+1
  7292   002E2A  C003  F00D         	movff	___xxtofl@val+2,___xxtofl@arg+2
  7293   002E2E  C004  F00E         	movff	___xxtofl@val+3,___xxtofl@arg+3
  7294   002E32                     l5571:
  7295   002E32  5001               	movf	___xxtofl@val^0,w,c
  7296   002E34  1002               	iorwf	(___xxtofl@val+1)^0,w,c
  7297   002E36  1003               	iorwf	(___xxtofl@val+2)^0,w,c
  7298   002E38  1004               	iorwf	(___xxtofl@val+3)^0,w,c
  7299   002E3A  A4D8               	btfss	status,2,c
  7300   002E3C  EF22  F017         	goto	u6041
  7301   002E40  EF24  F017         	goto	u6040
  7302   002E44                     u6041:
  7303   002E44  EF2E  F017         	goto	l5577
  7304   002E48                     u6040:
  7305   002E48  0E00               	movlw	0
  7306   002E4A  6E01               	movwf	?___xxtofl^0,c
  7307   002E4C  0E00               	movlw	0
  7308   002E4E  6E02               	movwf	(?___xxtofl+1)^0,c
  7309   002E50  0E00               	movlw	0
  7310   002E52  6E03               	movwf	(?___xxtofl+2)^0,c
  7311   002E54  0E00               	movlw	0
  7312   002E56  6E04               	movwf	(?___xxtofl+3)^0,c
  7313   002E58  EFBF  F017         	goto	l1175
  7314   002E5C                     l5577:
  7315   002E5C  0E96               	movlw	150
  7316   002E5E  6E0A               	movwf	___xxtofl@exp^0,c
  7317   002E60  EF38  F017         	goto	l5581
  7318   002E64                     l5579:
  7319   002E64  2A0A               	incf	___xxtofl@exp^0,f,c
  7320   002E66  90D8               	bcf	status,0,c
  7321   002E68  320E               	rrcf	(___xxtofl@arg+3)^0,f,c
  7322   002E6A  320D               	rrcf	(___xxtofl@arg+2)^0,f,c
  7323   002E6C  320C               	rrcf	(___xxtofl@arg+1)^0,f,c
  7324   002E6E  320B               	rrcf	___xxtofl@arg^0,f,c
  7325   002E70                     l5581:
  7326   002E70  0E00               	movlw	0
  7327   002E72  140B               	andwf	___xxtofl@arg^0,w,c
  7328   002E74  6E05               	movwf	??___xxtofl^0,c
  7329   002E76  0E00               	movlw	0
  7330   002E78  140C               	andwf	(___xxtofl@arg+1)^0,w,c
  7331   002E7A  6E06               	movwf	(??___xxtofl+1)^0,c
  7332   002E7C  0E00               	movlw	0
  7333   002E7E  140D               	andwf	(___xxtofl@arg+2)^0,w,c
  7334   002E80  6E07               	movwf	(??___xxtofl+2)^0,c
  7335   002E82  0EFE               	movlw	254
  7336   002E84  140E               	andwf	(___xxtofl@arg+3)^0,w,c
  7337   002E86  6E08               	movwf	(??___xxtofl+3)^0,c
  7338   002E88  5005               	movf	??___xxtofl^0,w,c
  7339   002E8A  1006               	iorwf	(??___xxtofl+1)^0,w,c
  7340   002E8C  1007               	iorwf	(??___xxtofl+2)^0,w,c
  7341   002E8E  1008               	iorwf	(??___xxtofl+3)^0,w,c
  7342   002E90  A4D8               	btfss	status,2,c
  7343   002E92  EF4D  F017         	goto	u6051
  7344   002E96  EF4F  F017         	goto	u6050
  7345   002E9A                     u6051:
  7346   002E9A  EF32  F017         	goto	l5579
  7347   002E9E                     u6050:
  7348   002E9E  EF5D  F017         	goto	l1179
  7349   002EA2                     l5583:
  7350   002EA2  2A0A               	incf	___xxtofl@exp^0,f,c
  7351   002EA4  0E01               	movlw	1
  7352   002EA6  260B               	addwf	___xxtofl@arg^0,f,c
  7353   002EA8  0E00               	movlw	0
  7354   002EAA  220C               	addwfc	(___xxtofl@arg+1)^0,f,c
  7355   002EAC  220D               	addwfc	(___xxtofl@arg+2)^0,f,c
  7356   002EAE  220E               	addwfc	(___xxtofl@arg+3)^0,f,c
  7357   002EB0  90D8               	bcf	status,0,c
  7358   002EB2  320E               	rrcf	(___xxtofl@arg+3)^0,f,c
  7359   002EB4  320D               	rrcf	(___xxtofl@arg+2)^0,f,c
  7360   002EB6  320C               	rrcf	(___xxtofl@arg+1)^0,f,c
  7361   002EB8  320B               	rrcf	___xxtofl@arg^0,f,c
  7362   002EBA                     l1179:
  7363   002EBA  0E00               	movlw	0
  7364   002EBC  140B               	andwf	___xxtofl@arg^0,w,c
  7365   002EBE  6E05               	movwf	??___xxtofl^0,c
  7366   002EC0  0E00               	movlw	0
  7367   002EC2  140C               	andwf	(___xxtofl@arg+1)^0,w,c
  7368   002EC4  6E06               	movwf	(??___xxtofl+1)^0,c
  7369   002EC6  0E00               	movlw	0
  7370   002EC8  140D               	andwf	(___xxtofl@arg+2)^0,w,c
  7371   002ECA  6E07               	movwf	(??___xxtofl+2)^0,c
  7372   002ECC  0EFF               	movlw	255
  7373   002ECE  140E               	andwf	(___xxtofl@arg+3)^0,w,c
  7374   002ED0  6E08               	movwf	(??___xxtofl+3)^0,c
  7375   002ED2  5005               	movf	??___xxtofl^0,w,c
  7376   002ED4  1006               	iorwf	(??___xxtofl+1)^0,w,c
  7377   002ED6  1007               	iorwf	(??___xxtofl+2)^0,w,c
  7378   002ED8  1008               	iorwf	(??___xxtofl+3)^0,w,c
  7379   002EDA  A4D8               	btfss	status,2,c
  7380   002EDC  EF72  F017         	goto	u6061
  7381   002EE0  EF74  F017         	goto	u6060
  7382   002EE4                     u6061:
  7383   002EE4  EF51  F017         	goto	l5583
  7384   002EE8                     u6060:
  7385   002EE8  EF7C  F017         	goto	l5591
  7386   002EEC                     l5589:
  7387   002EEC  060A               	decf	___xxtofl@exp^0,f,c
  7388   002EEE  90D8               	bcf	status,0,c
  7389   002EF0  360B               	rlcf	___xxtofl@arg^0,f,c
  7390   002EF2  360C               	rlcf	(___xxtofl@arg+1)^0,f,c
  7391   002EF4  360D               	rlcf	(___xxtofl@arg+2)^0,f,c
  7392   002EF6  360E               	rlcf	(___xxtofl@arg+3)^0,f,c
  7393   002EF8                     l5591:
  7394   002EF8  BE0D               	btfsc	(___xxtofl@arg+2)^0,7,c
  7395   002EFA  EF81  F017         	goto	u6071
  7396   002EFE  EF83  F017         	goto	u6070
  7397   002F02                     u6071:
  7398   002F02  EF8B  F017         	goto	l1186
  7399   002F06                     u6070:
  7400   002F06  0E02               	movlw	2
  7401   002F08  600A               	cpfslt	___xxtofl@exp^0,c
  7402   002F0A  EF89  F017         	goto	u6081
  7403   002F0E  EF8B  F017         	goto	u6080
  7404   002F12                     u6081:
  7405   002F12  EF76  F017         	goto	l5589
  7406   002F16                     u6080:
  7407   002F16                     l1186:
  7408   002F16  B00A               	btfsc	___xxtofl@exp^0,0,c
  7409   002F18  EF90  F017         	goto	u6091
  7410   002F1C  EF92  F017         	goto	u6090
  7411   002F20                     u6091:
  7412   002F20  EF93  F017         	goto	l5597
  7413   002F24                     u6090:
  7414   002F24  9E0D               	bcf	(___xxtofl@arg+2)^0,7,c
  7415   002F26                     l5597:
  7416   002F26  90D8               	bcf	status,0,c
  7417   002F28  320A               	rrcf	___xxtofl@exp^0,f,c
  7418   002F2A  C00A  F005         	movff	___xxtofl@exp,??___xxtofl
  7419   002F2E  6A06               	clrf	(??___xxtofl+1)^0,c
  7420   002F30  6A07               	clrf	(??___xxtofl+2)^0,c
  7421   002F32  6A08               	clrf	(??___xxtofl+3)^0,c
  7422   002F34  C005  F008         	movff	??___xxtofl,??___xxtofl+3
  7423   002F38  6A07               	clrf	(??___xxtofl+2)^0,c
  7424   002F3A  6A06               	clrf	(??___xxtofl+1)^0,c
  7425   002F3C  6A05               	clrf	??___xxtofl^0,c
  7426   002F3E  5005               	movf	??___xxtofl^0,w,c
  7427   002F40  120B               	iorwf	___xxtofl@arg^0,f,c
  7428   002F42  5006               	movf	(??___xxtofl+1)^0,w,c
  7429   002F44  120C               	iorwf	(___xxtofl@arg+1)^0,f,c
  7430   002F46  5007               	movf	(??___xxtofl+2)^0,w,c
  7431   002F48  120D               	iorwf	(___xxtofl@arg+2)^0,f,c
  7432   002F4A  5008               	movf	(??___xxtofl+3)^0,w,c
  7433   002F4C  120E               	iorwf	(___xxtofl@arg+3)^0,f,c
  7434   002F4E  5009               	movf	___xxtofl@sign^0,w,c
  7435   002F50  B4D8               	btfsc	status,2,c
  7436   002F52  EFAD  F017         	goto	u6101
  7437   002F56  EFAF  F017         	goto	u6100
  7438   002F5A                     u6101:
  7439   002F5A  EFB7  F017         	goto	l5607
  7440   002F5E                     u6100:
  7441   002F5E  BE04               	btfsc	(___xxtofl@val+3)^0,7,c
  7442   002F60  EFB6  F017         	goto	u6110
  7443   002F64  EFB4  F017         	goto	u6111
  7444   002F68                     u6111:
  7445   002F68  EFB7  F017         	goto	l5607
  7446   002F6C                     u6110:
  7447   002F6C  8E0E               	bsf	(___xxtofl@arg+3)^0,7,c
  7448   002F6E                     l5607:
  7449   002F6E  C00B  F001         	movff	___xxtofl@arg,?___xxtofl
  7450   002F72  C00C  F002         	movff	___xxtofl@arg+1,?___xxtofl+1
  7451   002F76  C00D  F003         	movff	___xxtofl@arg+2,?___xxtofl+2
  7452   002F7A  C00E  F004         	movff	___xxtofl@arg+3,?___xxtofl+3
  7453   002F7E                     l1175:
  7454   002F7E  0012               	return		;funcret
  7455   002F80                     __end_of___xxtofl:
  7456                           	callstack 0
  7457                           
  7458 ;; *************** function _TMR2_StartTimer *****************
  7459 ;; Defined at:
  7460 ;;		line 106 in file "mcc_generated_files/tmr2.c"
  7461 ;; Parameters:    Size  Location     Type
  7462 ;;		None
  7463 ;; Auto vars:     Size  Location     Type
  7464 ;;		None
  7465 ;; Return value:  Size  Location     Type
  7466 ;;                  1    wreg      void 
  7467 ;; Registers used:
  7468 ;;		cstack
  7469 ;; Tracked objects:
  7470 ;;		On entry : 0/0
  7471 ;;		On exit  : 0/0
  7472 ;;		Unchanged: 0/0
  7473 ;; Data sizes:     COMRAM   BANK0   BANK1   BANK2   BANK3   BANK4   BANK5   BANK6   BANK7   BANK8   BANK9  BANK10  BANK1
      +1  BANK12  BANK14
  7474 ;;      Params:         0       0       0       0       0       0       0       0       0       0       0       0       
      +0       0       0
  7475 ;;      Locals:         0       0       0       0       0       0       0       0       0       0       0       0       
      +0       0       0
  7476 ;;      Temps:          0       0       0       0       0       0       0       0       0       0       0       0       
      +0       0       0
  7477 ;;      Totals:         0       0       0       0       0       0       0       0       0       0       0       0       
      +0       0       0
  7478 ;;Total ram usage:        0 bytes
  7479 ;; Hardware stack levels used: 1
  7480 ;; Hardware stack levels required when called: 1
  7481 ;; This function calls:
  7482 ;;		_TMR2_Start
  7483 ;; This function is called by:
  7484 ;;		_main
  7485 ;; This function uses a non-reentrant model
  7486 ;;
  7487                           
  7488                           	psect	text28
  7489   003B20                     __ptext28:
  7490                           	callstack 0
  7491   003B20                     _TMR2_StartTimer:
  7492                           	callstack 29
  7493   003B20                     
  7494                           ;mcc_generated_files/tmr2.c: 108:     TMR2_Start();
  7495   003B20  EC96  F01D         	call	_TMR2_Start	;wreg free
  7496   003B24  0012               	return		;funcret
  7497   003B26                     __end_of_TMR2_StartTimer:
  7498                           	callstack 0
  7499                           
  7500 ;; *************** function _TMR2_Start *****************
  7501 ;; Defined at:
  7502 ;;		line 100 in file "mcc_generated_files/tmr2.c"
  7503 ;; Parameters:    Size  Location     Type
  7504 ;;		None
  7505 ;; Auto vars:     Size  Location     Type
  7506 ;;		None
  7507 ;; Return value:  Size  Location     Type
  7508 ;;                  1    wreg      void 
  7509 ;; Registers used:
  7510 ;;		None
  7511 ;; Tracked objects:
  7512 ;;		On entry : 0/0
  7513 ;;		On exit  : 0/0
  7514 ;;		Unchanged: 0/0
  7515 ;; Data sizes:     COMRAM   BANK0   BANK1   BANK2   BANK3   BANK4   BANK5   BANK6   BANK7   BANK8   BANK9  BANK10  BANK1
      +1  BANK12  BANK14
  7516 ;;      Params:         0       0       0       0       0       0       0       0       0       0       0       0       
      +0       0       0
  7517 ;;      Locals:         0       0       0       0       0       0       0       0       0       0       0       0       
      +0       0       0
  7518 ;;      Temps:          0       0       0       0       0       0       0       0       0       0       0       0       
      +0       0       0
  7519 ;;      Totals:         0       0       0       0       0       0       0       0       0       0       0       0       
      +0       0       0
  7520 ;;Total ram usage:        0 bytes
  7521 ;; Hardware stack levels used: 1
  7522 ;; This function calls:
  7523 ;;		Nothing
  7524 ;; This function is called by:
  7525 ;;		_TMR2_StartTimer
  7526 ;; This function uses a non-reentrant model
  7527 ;;
  7528                           
  7529                           	psect	text29
  7530   003B2C                     __ptext29:
  7531                           	callstack 0
  7532   003B2C                     _TMR2_Start:
  7533                           	callstack 29
  7534   003B2C                     
  7535                           ;mcc_generated_files/tmr2.c: 103:     T2CONbits.TMR2ON = 1;
  7536   003B2C  8EBC               	bsf	188,7,c	;volatile
  7537   003B2E  0012               	return		;funcret
  7538   003B30                     __end_of_TMR2_Start:
  7539                           	callstack 0
  7540                           
  7541 ;; *************** function _SYSTEM_Initialize *****************
  7542 ;; Defined at:
  7543 ;;		line 50 in file "mcc_generated_files/mcc.c"
  7544 ;; Parameters:    Size  Location     Type
  7545 ;;		None
  7546 ;; Auto vars:     Size  Location     Type
  7547 ;;		None
  7548 ;; Return value:  Size  Location     Type
  7549 ;;                  1    wreg      void 
  7550 ;; Registers used:
  7551 ;;		wreg, status,2, status,0, cstack
  7552 ;; Tracked objects:
  7553 ;;		On entry : 0/0
  7554 ;;		On exit  : 0/0
  7555 ;;		Unchanged: 0/0
  7556 ;; Data sizes:     COMRAM   BANK0   BANK1   BANK2   BANK3   BANK4   BANK5   BANK6   BANK7   BANK8   BANK9  BANK10  BANK1
      +1  BANK12  BANK14
  7557 ;;      Params:         0       0       0       0       0       0       0       0       0       0       0       0       
      +0       0       0
  7558 ;;      Locals:         0       0       0       0       0       0       0       0       0       0       0       0       
      +0       0       0
  7559 ;;      Temps:          0       0       0       0       0       0       0       0       0       0       0       0       
      +0       0       0
  7560 ;;      Totals:         0       0       0       0       0       0       0       0       0       0       0       0       
      +0       0       0
  7561 ;;Total ram usage:        0 bytes
  7562 ;; Hardware stack levels used: 1
  7563 ;; Hardware stack levels required when called: 2
  7564 ;; This function calls:
  7565 ;;		_ADCC_Initialize
  7566 ;;		_EUSART2_Initialize
  7567 ;;		_OSCILLATOR_Initialize
  7568 ;;		_PIN_MANAGER_Initialize
  7569 ;;		_PMD_Initialize
  7570 ;;		_PWM4_Initialize
  7571 ;;		_TMR2_Initialize
  7572 ;; This function is called by:
  7573 ;;		_main
  7574 ;; This function uses a non-reentrant model
  7575 ;;
  7576                           
  7577                           	psect	text30
  7578   003A12                     __ptext30:
  7579                           	callstack 0
  7580   003A12                     _SYSTEM_Initialize:
  7581                           	callstack 28
  7582   003A12                     
  7583                           ;mcc_generated_files/mcc.c: 52:     PMD_Initialize();
  7584   003A12  EC26  F01D         	call	_PMD_Initialize	;wreg free
  7585                           
  7586                           ;mcc_generated_files/mcc.c: 53:     PIN_MANAGER_Initialize();
  7587   003A16  ECB0  F01A         	call	_PIN_MANAGER_Initialize	;wreg free
  7588                           
  7589                           ;mcc_generated_files/mcc.c: 54:     OSCILLATOR_Initialize();
  7590   003A1A  EC4D  F01D         	call	_OSCILLATOR_Initialize	;wreg free
  7591                           
  7592                           ;mcc_generated_files/mcc.c: 55:     ADCC_Initialize();
  7593   003A1E  ECAB  F01B         	call	_ADCC_Initialize	;wreg free
  7594                           
  7595                           ;mcc_generated_files/mcc.c: 56:     PWM4_Initialize();
  7596   003A22  EC59  F01D         	call	_PWM4_Initialize	;wreg free
  7597                           
  7598                           ;mcc_generated_files/mcc.c: 57:     TMR2_Initialize();
  7599   003A26  EC18  F01D         	call	_TMR2_Initialize	;wreg free
  7600   003A2A                     
  7601                           ;mcc_generated_files/mcc.c: 58:     EUSART2_Initialize();
  7602   003A2A  ECD3  F01B         	call	_EUSART2_Initialize	;wreg free
  7603   003A2E  0012               	return		;funcret
  7604   003A30                     __end_of_SYSTEM_Initialize:
  7605                           	callstack 0
  7606                           
  7607 ;; *************** function _TMR2_Initialize *****************
  7608 ;; Defined at:
  7609 ;;		line 62 in file "mcc_generated_files/tmr2.c"
  7610 ;; Parameters:    Size  Location     Type
  7611 ;;		None
  7612 ;; Auto vars:     Size  Location     Type
  7613 ;;		None
  7614 ;; Return value:  Size  Location     Type
  7615 ;;                  1    wreg      void 
  7616 ;; Registers used:
  7617 ;;		wreg, status,2
  7618 ;; Tracked objects:
  7619 ;;		On entry : 0/0
  7620 ;;		On exit  : 0/0
  7621 ;;		Unchanged: 0/0
  7622 ;; Data sizes:     COMRAM   BANK0   BANK1   BANK2   BANK3   BANK4   BANK5   BANK6   BANK7   BANK8   BANK9  BANK10  BANK1
      +1  BANK12  BANK14
  7623 ;;      Params:         0       0       0       0       0       0       0       0       0       0       0       0       
      +0       0       0
  7624 ;;      Locals:         0       0       0       0       0       0       0       0       0       0       0       0       
      +0       0       0
  7625 ;;      Temps:          0       0       0       0       0       0       0       0       0       0       0       0       
      +0       0       0
  7626 ;;      Totals:         0       0       0       0       0       0       0       0       0       0       0       0       
      +0       0       0
  7627 ;;Total ram usage:        0 bytes
  7628 ;; Hardware stack levels used: 1
  7629 ;; This function calls:
  7630 ;;		Nothing
  7631 ;; This function is called by:
  7632 ;;		_SYSTEM_Initialize
  7633 ;; This function uses a non-reentrant model
  7634 ;;
  7635                           
  7636                           	psect	text31
  7637   003A30                     __ptext31:
  7638                           	callstack 0
  7639   003A30                     _TMR2_Initialize:
  7640                           	callstack 29
  7641   003A30                     
  7642                           ;mcc_generated_files/tmr2.c: 67:     T2CLKCON = 0x01;
  7643   003A30  0E01               	movlw	1
  7644   003A32  6EBE               	movwf	190,c	;volatile
  7645                           
  7646                           ;mcc_generated_files/tmr2.c: 70:     T2HLT = 0x00;
  7647   003A34  0E00               	movlw	0
  7648   003A36  6EBD               	movwf	189,c	;volatile
  7649                           
  7650                           ;mcc_generated_files/tmr2.c: 73:     T2RST = 0x00;
  7651   003A38  0E00               	movlw	0
  7652   003A3A  6EBF               	movwf	191,c	;volatile
  7653   003A3C                     
  7654                           ;mcc_generated_files/tmr2.c: 76:     T2PR = 0xFF;
  7655   003A3C  68BB               	setf	187,c	;volatile
  7656                           
  7657                           ;mcc_generated_files/tmr2.c: 79:     T2TMR = 0x00;
  7658   003A3E  0E00               	movlw	0
  7659   003A40  6EBA               	movwf	186,c	;volatile
  7660   003A42                     
  7661                           ;mcc_generated_files/tmr2.c: 82:     PIR4bits.TMR2IF = 0;
  7662   003A42  010E               	movlb	14	; () banked
  7663   003A44  93C9               	bcf	201,1,b	;volatile
  7664                           
  7665                           ;mcc_generated_files/tmr2.c: 85:     T2CON = 0xF0;
  7666   003A46  0EF0               	movlw	240
  7667   003A48  6EBC               	movwf	188,c	;volatile
  7668   003A4A                     
  7669                           ; BSR set to: 14
  7670   003A4A  0012               	return		;funcret
  7671   003A4C                     __end_of_TMR2_Initialize:
  7672                           	callstack 0
  7673                           
  7674 ;; *************** function _PWM4_Initialize *****************
  7675 ;; Defined at:
  7676 ;;		line 58 in file "mcc_generated_files/pwm4.c"
  7677 ;; Parameters:    Size  Location     Type
  7678 ;;		None
  7679 ;; Auto vars:     Size  Location     Type
  7680 ;;		None
  7681 ;; Return value:  Size  Location     Type
  7682 ;;                  1    wreg      void 
  7683 ;; Registers used:
  7684 ;;		wreg, status,2
  7685 ;; Tracked objects:
  7686 ;;		On entry : 0/0
  7687 ;;		On exit  : 0/0
  7688 ;;		Unchanged: 0/0
  7689 ;; Data sizes:     COMRAM   BANK0   BANK1   BANK2   BANK3   BANK4   BANK5   BANK6   BANK7   BANK8   BANK9  BANK10  BANK1
      +1  BANK12  BANK14
  7690 ;;      Params:         0       0       0       0       0       0       0       0       0       0       0       0       
      +0       0       0
  7691 ;;      Locals:         0       0       0       0       0       0       0       0       0       0       0       0       
      +0       0       0
  7692 ;;      Temps:          0       0       0       0       0       0       0       0       0       0       0       0       
      +0       0       0
  7693 ;;      Totals:         0       0       0       0       0       0       0       0       0       0       0       0       
      +0       0       0
  7694 ;;Total ram usage:        0 bytes
  7695 ;; Hardware stack levels used: 1
  7696 ;; This function calls:
  7697 ;;		Nothing
  7698 ;; This function is called by:
  7699 ;;		_main
  7700 ;;		_SYSTEM_Initialize
  7701 ;; This function uses a non-reentrant model
  7702 ;;
  7703                           
  7704                           	psect	text32
  7705   003AB2                     __ptext32:
  7706                           	callstack 0
  7707   003AB2                     _PWM4_Initialize:
  7708                           	callstack 29
  7709   003AB2                     
  7710                           ;mcc_generated_files/pwm4.c: 62:     PWM4CON = 0x80;
  7711   003AB2  0E80               	movlw	128
  7712   003AB4  6EA1               	movwf	161,c	;volatile
  7713                           
  7714                           ;mcc_generated_files/pwm4.c: 65:     PWM4DCH = 0x7F;
  7715   003AB6  0E7F               	movlw	127
  7716   003AB8  6EA0               	movwf	160,c	;volatile
  7717                           
  7718                           ;mcc_generated_files/pwm4.c: 68:     PWM4DCL = 0xC0;
  7719   003ABA  0EC0               	movlw	192
  7720   003ABC  6E9F               	movwf	159,c	;volatile
  7721                           
  7722                           ;mcc_generated_files/pwm4.c: 71:     CCPTMRSbits.P4TSEL = 1;
  7723   003ABE  50AD               	movf	173,w,c	;volatile
  7724   003AC0  0B3F               	andlw	-193
  7725   003AC2  0940               	iorlw	64
  7726   003AC4  6EAD               	movwf	173,c	;volatile
  7727   003AC6  0012               	return		;funcret
  7728   003AC8                     __end_of_PWM4_Initialize:
  7729                           	callstack 0
  7730                           
  7731 ;; *************** function _PMD_Initialize *****************
  7732 ;; Defined at:
  7733 ;;		line 75 in file "mcc_generated_files/mcc.c"
  7734 ;; Parameters:    Size  Location     Type
  7735 ;;		None
  7736 ;; Auto vars:     Size  Location     Type
  7737 ;;		None
  7738 ;; Return value:  Size  Location     Type
  7739 ;;                  1    wreg      void 
  7740 ;; Registers used:
  7741 ;;		wreg, status,2
  7742 ;; Tracked objects:
  7743 ;;		On entry : 0/0
  7744 ;;		On exit  : 0/0
  7745 ;;		Unchanged: 0/0
  7746 ;; Data sizes:     COMRAM   BANK0   BANK1   BANK2   BANK3   BANK4   BANK5   BANK6   BANK7   BANK8   BANK9  BANK10  BANK1
      +1  BANK12  BANK14
  7747 ;;      Params:         0       0       0       0       0       0       0       0       0       0       0       0       
      +0       0       0
  7748 ;;      Locals:         0       0       0       0       0       0       0       0       0       0       0       0       
      +0       0       0
  7749 ;;      Temps:          0       0       0       0       0       0       0       0       0       0       0       0       
      +0       0       0
  7750 ;;      Totals:         0       0       0       0       0       0       0       0       0       0       0       0       
      +0       0       0
  7751 ;;Total ram usage:        0 bytes
  7752 ;; Hardware stack levels used: 1
  7753 ;; This function calls:
  7754 ;;		Nothing
  7755 ;; This function is called by:
  7756 ;;		_SYSTEM_Initialize
  7757 ;; This function uses a non-reentrant model
  7758 ;;
  7759                           
  7760                           	psect	text33
  7761   003A4C                     __ptext33:
  7762                           	callstack 0
  7763   003A4C                     _PMD_Initialize:
  7764                           	callstack 29
  7765   003A4C                     
  7766                           ;mcc_generated_files/mcc.c: 78:     PMD0 = 0x00;
  7767   003A4C  0E00               	movlw	0
  7768   003A4E  010E               	movlb	14	; () banked
  7769   003A50  6FDC               	movwf	220,b	;volatile
  7770                           
  7771                           ;mcc_generated_files/mcc.c: 80:     PMD1 = 0x00;
  7772   003A52  0E00               	movlw	0
  7773   003A54  6FDD               	movwf	221,b	;volatile
  7774                           
  7775                           ;mcc_generated_files/mcc.c: 82:     PMD2 = 0x00;
  7776   003A56  0E00               	movlw	0
  7777   003A58  6FDE               	movwf	222,b	;volatile
  7778                           
  7779                           ;mcc_generated_files/mcc.c: 84:     PMD3 = 0x00;
  7780   003A5A  0E00               	movlw	0
  7781   003A5C  6FDF               	movwf	223,b	;volatile
  7782                           
  7783                           ;mcc_generated_files/mcc.c: 86:     PMD4 = 0x00;
  7784   003A5E  0E00               	movlw	0
  7785   003A60  6FE0               	movwf	224,b	;volatile
  7786                           
  7787                           ;mcc_generated_files/mcc.c: 88:     PMD5 = 0x00;
  7788   003A62  0E00               	movlw	0
  7789   003A64  6FE1               	movwf	225,b	;volatile
  7790   003A66                     
  7791                           ; BSR set to: 14
  7792   003A66  0012               	return		;funcret
  7793   003A68                     __end_of_PMD_Initialize:
  7794                           	callstack 0
  7795                           
  7796 ;; *************** function _PIN_MANAGER_Initialize *****************
  7797 ;; Defined at:
  7798 ;;		line 55 in file "mcc_generated_files/pin_manager.c"
  7799 ;; Parameters:    Size  Location     Type
  7800 ;;		None
  7801 ;; Auto vars:     Size  Location     Type
  7802 ;;		None
  7803 ;; Return value:  Size  Location     Type
  7804 ;;                  1    wreg      void 
  7805 ;; Registers used:
  7806 ;;		wreg, status,2
  7807 ;; Tracked objects:
  7808 ;;		On entry : 0/0
  7809 ;;		On exit  : 0/0
  7810 ;;		Unchanged: 0/0
  7811 ;; Data sizes:     COMRAM   BANK0   BANK1   BANK2   BANK3   BANK4   BANK5   BANK6   BANK7   BANK8   BANK9  BANK10  BANK1
      +1  BANK12  BANK14
  7812 ;;      Params:         0       0       0       0       0       0       0       0       0       0       0       0       
      +0       0       0
  7813 ;;      Locals:         0       0       0       0       0       0       0       0       0       0       0       0       
      +0       0       0
  7814 ;;      Temps:          0       0       0       0       0       0       0       0       0       0       0       0       
      +0       0       0
  7815 ;;      Totals:         0       0       0       0       0       0       0       0       0       0       0       0       
      +0       0       0
  7816 ;;Total ram usage:        0 bytes
  7817 ;; Hardware stack levels used: 1
  7818 ;; This function calls:
  7819 ;;		Nothing
  7820 ;; This function is called by:
  7821 ;;		_SYSTEM_Initialize
  7822 ;; This function uses a non-reentrant model
  7823 ;;
  7824                           
  7825                           	psect	text34
  7826   003560                     __ptext34:
  7827                           	callstack 0
  7828   003560                     _PIN_MANAGER_Initialize:
  7829                           	callstack 29
  7830   003560                     
  7831                           ;mcc_generated_files/pin_manager.c: 60:     LATE = 0x00;
  7832   003560  0E00               	movlw	0
  7833   003562  6E86               	movwf	134,c	;volatile
  7834                           
  7835                           ;mcc_generated_files/pin_manager.c: 61:     LATD = 0x00;
  7836   003564  0E00               	movlw	0
  7837   003566  6E85               	movwf	133,c	;volatile
  7838                           
  7839                           ;mcc_generated_files/pin_manager.c: 62:     LATA = 0x00;
  7840   003568  0E00               	movlw	0
  7841   00356A  6E82               	movwf	130,c	;volatile
  7842                           
  7843                           ;mcc_generated_files/pin_manager.c: 63:     LATB = 0x00;
  7844   00356C  0E00               	movlw	0
  7845   00356E  6E83               	movwf	131,c	;volatile
  7846                           
  7847                           ;mcc_generated_files/pin_manager.c: 64:     LATC = 0x00;
  7848   003570  0E00               	movlw	0
  7849   003572  6E84               	movwf	132,c	;volatile
  7850                           
  7851                           ;mcc_generated_files/pin_manager.c: 69:     TRISE = 0x07;
  7852   003574  0E07               	movlw	7
  7853   003576  6E8B               	movwf	139,c	;volatile
  7854                           
  7855                           ;mcc_generated_files/pin_manager.c: 70:     TRISA = 0xEF;
  7856   003578  0EEF               	movlw	239
  7857   00357A  6E87               	movwf	135,c	;volatile
  7858                           
  7859                           ;mcc_generated_files/pin_manager.c: 71:     TRISB = 0xBF;
  7860   00357C  0EBF               	movlw	191
  7861   00357E  6E88               	movwf	136,c	;volatile
  7862   003580                     
  7863                           ;mcc_generated_files/pin_manager.c: 72:     TRISC = 0xFF;
  7864   003580  6889               	setf	137,c	;volatile
  7865                           
  7866                           ;mcc_generated_files/pin_manager.c: 73:     TRISD = 0xFE;
  7867   003582  0EFE               	movlw	254
  7868   003584  6E8A               	movwf	138,c	;volatile
  7869                           
  7870                           ;mcc_generated_files/pin_manager.c: 78:     ANSELD = 0xFC;
  7871   003586  0EFC               	movlw	252
  7872   003588  010F               	movlb	15	; () banked
  7873   00358A  6F21               	movwf	33,b	;volatile
  7874   00358C                     
  7875                           ; BSR set to: 15
  7876                           ;mcc_generated_files/pin_manager.c: 79:     ANSELC = 0xFF;
  7877   00358C  691C               	setf	28,b	;volatile
  7878                           
  7879                           ;mcc_generated_files/pin_manager.c: 80:     ANSELB = 0xBF;
  7880   00358E  0EBF               	movlw	191
  7881   003590  6F14               	movwf	20,b	;volatile
  7882                           
  7883                           ;mcc_generated_files/pin_manager.c: 81:     ANSELE = 0x07;
  7884   003592  0E07               	movlw	7
  7885   003594  6F29               	movwf	41,b	;volatile
  7886                           
  7887                           ;mcc_generated_files/pin_manager.c: 82:     ANSELA = 0xEF;
  7888   003596  0EEF               	movlw	239
  7889   003598  6F0C               	movwf	12,b	;volatile
  7890                           
  7891                           ;mcc_generated_files/pin_manager.c: 87:     WPUD = 0x00;
  7892   00359A  0E00               	movlw	0
  7893   00359C  6F20               	movwf	32,b	;volatile
  7894                           
  7895                           ;mcc_generated_files/pin_manager.c: 88:     WPUE = 0x00;
  7896   00359E  0E00               	movlw	0
  7897   0035A0  6F28               	movwf	40,b	;volatile
  7898                           
  7899                           ;mcc_generated_files/pin_manager.c: 89:     WPUB = 0x00;
  7900   0035A2  0E00               	movlw	0
  7901   0035A4  6F13               	movwf	19,b	;volatile
  7902                           
  7903                           ;mcc_generated_files/pin_manager.c: 90:     WPUA = 0x00;
  7904   0035A6  0E00               	movlw	0
  7905   0035A8  6F0B               	movwf	11,b	;volatile
  7906                           
  7907                           ;mcc_generated_files/pin_manager.c: 91:     WPUC = 0x00;
  7908   0035AA  0E00               	movlw	0
  7909   0035AC  6F1B               	movwf	27,b	;volatile
  7910                           
  7911                           ;mcc_generated_files/pin_manager.c: 96:     ODCONE = 0x00;
  7912   0035AE  0E00               	movlw	0
  7913   0035B0  6F27               	movwf	39,b	;volatile
  7914                           
  7915                           ;mcc_generated_files/pin_manager.c: 97:     ODCONA = 0x00;
  7916   0035B2  0E00               	movlw	0
  7917   0035B4  6F0A               	movwf	10,b	;volatile
  7918                           
  7919                           ;mcc_generated_files/pin_manager.c: 98:     ODCONB = 0x00;
  7920   0035B6  0E00               	movlw	0
  7921   0035B8  6F12               	movwf	18,b	;volatile
  7922                           
  7923                           ;mcc_generated_files/pin_manager.c: 99:     ODCONC = 0x00;
  7924   0035BA  0E00               	movlw	0
  7925   0035BC  6F1A               	movwf	26,b	;volatile
  7926                           
  7927                           ;mcc_generated_files/pin_manager.c: 100:     ODCOND = 0x00;
  7928   0035BE  0E00               	movlw	0
  7929   0035C0  6F1F               	movwf	31,b	;volatile
  7930   0035C2                     
  7931                           ; BSR set to: 15
  7932                           ;mcc_generated_files/pin_manager.c: 105:     SLRCONA = 0xFF;
  7933   0035C2  6909               	setf	9,b	;volatile
  7934   0035C4                     
  7935                           ; BSR set to: 15
  7936                           ;mcc_generated_files/pin_manager.c: 106:     SLRCONB = 0xFF;
  7937   0035C4  6911               	setf	17,b	;volatile
  7938   0035C6                     
  7939                           ; BSR set to: 15
  7940                           ;mcc_generated_files/pin_manager.c: 107:     SLRCONC = 0xFF;
  7941   0035C6  6919               	setf	25,b	;volatile
  7942   0035C8                     
  7943                           ; BSR set to: 15
  7944                           ;mcc_generated_files/pin_manager.c: 108:     SLRCOND = 0xFF;
  7945   0035C8  691E               	setf	30,b	;volatile
  7946                           
  7947                           ;mcc_generated_files/pin_manager.c: 109:     SLRCONE = 0x07;
  7948   0035CA  0E07               	movlw	7
  7949   0035CC  6F26               	movwf	38,b	;volatile
  7950   0035CE                     
  7951                           ; BSR set to: 15
  7952                           ;mcc_generated_files/pin_manager.c: 114:     INLVLA = 0xFF;
  7953   0035CE  6908               	setf	8,b	;volatile
  7954   0035D0                     
  7955                           ; BSR set to: 15
  7956                           ;mcc_generated_files/pin_manager.c: 115:     INLVLB = 0xFF;
  7957   0035D0  6910               	setf	16,b	;volatile
  7958   0035D2                     
  7959                           ; BSR set to: 15
  7960                           ;mcc_generated_files/pin_manager.c: 116:     INLVLC = 0xFF;
  7961   0035D2  6918               	setf	24,b	;volatile
  7962   0035D4                     
  7963                           ; BSR set to: 15
  7964                           ;mcc_generated_files/pin_manager.c: 117:     INLVLD = 0xFF;
  7965   0035D4  691D               	setf	29,b	;volatile
  7966                           
  7967                           ;mcc_generated_files/pin_manager.c: 118:     INLVLE = 0x0F;
  7968   0035D6  0E0F               	movlw	15
  7969   0035D8  6F25               	movwf	37,b	;volatile
  7970                           
  7971                           ;mcc_generated_files/pin_manager.c: 127:     RA4PPS = 0x08;
  7972   0035DA  0E08               	movlw	8
  7973   0035DC  010E               	movlb	14	; () banked
  7974   0035DE  6FE6               	movwf	230,b	;volatile
  7975                           
  7976                           ;mcc_generated_files/pin_manager.c: 128:     RB6PPS = 0x0B;
  7977   0035E0  0E0B               	movlw	11
  7978   0035E2  6FF0               	movwf	240,b	;volatile
  7979                           
  7980                           ;mcc_generated_files/pin_manager.c: 129:     RD0PPS = 0x0B;
  7981   0035E4  0E0B               	movlw	11
  7982   0035E6  6FFA               	movwf	250,b	;volatile
  7983                           
  7984                           ;mcc_generated_files/pin_manager.c: 130:     RX2PPS = 0x19;
  7985   0035E8  0E19               	movlw	25
  7986   0035EA  6F88               	movwf	136,b	;volatile
  7987   0035EC                     
  7988                           ; BSR set to: 14
  7989   0035EC  0012               	return		;funcret
  7990   0035EE                     __end_of_PIN_MANAGER_Initialize:
  7991                           	callstack 0
  7992                           
  7993 ;; *************** function _OSCILLATOR_Initialize *****************
  7994 ;; Defined at:
  7995 ;;		line 61 in file "mcc_generated_files/mcc.c"
  7996 ;; Parameters:    Size  Location     Type
  7997 ;;		None
  7998 ;; Auto vars:     Size  Location     Type
  7999 ;;		None
  8000 ;; Return value:  Size  Location     Type
  8001 ;;                  1    wreg      void 
  8002 ;; Registers used:
  8003 ;;		wreg, status,2
  8004 ;; Tracked objects:
  8005 ;;		On entry : 0/0
  8006 ;;		On exit  : 0/0
  8007 ;;		Unchanged: 0/0
  8008 ;; Data sizes:     COMRAM   BANK0   BANK1   BANK2   BANK3   BANK4   BANK5   BANK6   BANK7   BANK8   BANK9  BANK10  BANK1
      +1  BANK12  BANK14
  8009 ;;      Params:         0       0       0       0       0       0       0       0       0       0       0       0       
      +0       0       0
  8010 ;;      Locals:         0       0       0       0       0       0       0       0       0       0       0       0       
      +0       0       0
  8011 ;;      Temps:          0       0       0       0       0       0       0       0       0       0       0       0       
      +0       0       0
  8012 ;;      Totals:         0       0       0       0       0       0       0       0       0       0       0       0       
      +0       0       0
  8013 ;;Total ram usage:        0 bytes
  8014 ;; Hardware stack levels used: 1
  8015 ;; This function calls:
  8016 ;;		Nothing
  8017 ;; This function is called by:
  8018 ;;		_SYSTEM_Initialize
  8019 ;; This function uses a non-reentrant model
  8020 ;;
  8021                           
  8022                           	psect	text35
  8023   003A9A                     __ptext35:
  8024                           	callstack 0
  8025   003A9A                     _OSCILLATOR_Initialize:
  8026                           	callstack 29
  8027   003A9A                     
  8028                           ;mcc_generated_files/mcc.c: 64:     OSCCON1 = 0x62;
  8029   003A9A  0E62               	movlw	98
  8030   003A9C  010E               	movlb	14	; () banked
  8031   003A9E  6FD3               	movwf	211,b	;volatile
  8032                           
  8033                           ;mcc_generated_files/mcc.c: 66:     OSCCON3 = 0x00;
  8034   003AA0  0E00               	movlw	0
  8035   003AA2  6FD5               	movwf	213,b	;volatile
  8036                           
  8037                           ;mcc_generated_files/mcc.c: 68:     OSCEN = 0x00;
  8038   003AA4  0E00               	movlw	0
  8039   003AA6  6FD7               	movwf	215,b	;volatile
  8040                           
  8041                           ;mcc_generated_files/mcc.c: 70:     OSCFRQ = 0x02;
  8042   003AA8  0E02               	movlw	2
  8043   003AAA  6FD9               	movwf	217,b	;volatile
  8044                           
  8045                           ;mcc_generated_files/mcc.c: 72:     OSCTUNE = 0x00;
  8046   003AAC  0E00               	movlw	0
  8047   003AAE  6FD8               	movwf	216,b	;volatile
  8048   003AB0                     
  8049                           ; BSR set to: 14
  8050   003AB0  0012               	return		;funcret
  8051   003AB2                     __end_of_OSCILLATOR_Initialize:
  8052                           	callstack 0
  8053                           
  8054 ;; *************** function _EUSART2_Initialize *****************
  8055 ;; Defined at:
  8056 ;;		line 66 in file "mcc_generated_files/eusart2.c"
  8057 ;; Parameters:    Size  Location     Type
  8058 ;;		None
  8059 ;; Auto vars:     Size  Location     Type
  8060 ;;		None
  8061 ;; Return value:  Size  Location     Type
  8062 ;;                  1    wreg      void 
  8063 ;; Registers used:
  8064 ;;		wreg, status,2, status,0, cstack
  8065 ;; Tracked objects:
  8066 ;;		On entry : 0/0
  8067 ;;		On exit  : 0/0
  8068 ;;		Unchanged: 0/0
  8069 ;; Data sizes:     COMRAM   BANK0   BANK1   BANK2   BANK3   BANK4   BANK5   BANK6   BANK7   BANK8   BANK9  BANK10  BANK1
      +1  BANK12  BANK14
  8070 ;;      Params:         0       0       0       0       0       0       0       0       0       0       0       0       
      +0       0       0
  8071 ;;      Locals:         0       0       0       0       0       0       0       0       0       0       0       0       
      +0       0       0
  8072 ;;      Temps:          0       0       0       0       0       0       0       0       0       0       0       0       
      +0       0       0
  8073 ;;      Totals:         0       0       0       0       0       0       0       0       0       0       0       0       
      +0       0       0
  8074 ;;Total ram usage:        0 bytes
  8075 ;; Hardware stack levels used: 1
  8076 ;; Hardware stack levels required when called: 1
  8077 ;; This function calls:
  8078 ;;		_EUSART2_SetErrorHandler
  8079 ;;		_EUSART2_SetFramingErrorHandler
  8080 ;;		_EUSART2_SetOverrunErrorHandler
  8081 ;; This function is called by:
  8082 ;;		_SYSTEM_Initialize
  8083 ;; This function uses a non-reentrant model
  8084 ;;
  8085                           
  8086                           	psect	text36
  8087   0037A6                     __ptext36:
  8088                           	callstack 0
  8089   0037A6                     _EUSART2_Initialize:
  8090                           	callstack 28
  8091   0037A6                     
  8092                           ;mcc_generated_files/eusart2.c: 71:     BAUD2CON = 0x08;
  8093   0037A6  0E08               	movlw	8
  8094   0037A8  010E               	movlb	14	; () banked
  8095   0037AA  6F9A               	movwf	154,b	;volatile
  8096                           
  8097                           ;mcc_generated_files/eusart2.c: 74:     RC2STA = 0x90;
  8098   0037AC  0E90               	movlw	144
  8099   0037AE  6F98               	movwf	152,b	;volatile
  8100                           
  8101                           ;mcc_generated_files/eusart2.c: 77:     TX2STA = 0x24;
  8102   0037B0  0E24               	movlw	36
  8103   0037B2  6F99               	movwf	153,b	;volatile
  8104                           
  8105                           ;mcc_generated_files/eusart2.c: 80:     SP2BRGL = 0x19;
  8106   0037B4  0E19               	movlw	25
  8107   0037B6  6F96               	movwf	150,b	;volatile
  8108                           
  8109                           ;mcc_generated_files/eusart2.c: 83:     SP2BRGH = 0x00;
  8110   0037B8  0E00               	movlw	0
  8111   0037BA  6F97               	movwf	151,b	;volatile
  8112   0037BC                     
  8113                           ; BSR set to: 14
  8114                           ;mcc_generated_files/eusart2.c: 86:     EUSART2_SetFramingErrorHandler(EUSART2_DefaultFr
      +                          amingErrorHandler);
  8115   0037BC  0E00               	movlw	0
  8116   0037BE  6E01               	movwf	EUSART2_SetFramingErrorHandler@interruptHandler^0,c
  8117   0037C0  0E00               	movlw	0
  8118   0037C2  6E02               	movwf	(EUSART2_SetFramingErrorHandler@interruptHandler+1)^0,c
  8119   0037C4  0E00               	movlw	0
  8120   0037C6  6E03               	movwf	(EUSART2_SetFramingErrorHandler@interruptHandler+2)^0,c
  8121   0037C8  EC76  F01D         	call	_EUSART2_SetFramingErrorHandler	;wreg free
  8122   0037CC                     
  8123                           ;mcc_generated_files/eusart2.c: 87:     EUSART2_SetOverrunErrorHandler(EUSART2_DefaultOv
      +                          errunErrorHandler);
  8124   0037CC  0E00               	movlw	0
  8125   0037CE  6E01               	movwf	EUSART2_SetOverrunErrorHandler@interruptHandler^0,c
  8126   0037D0  0E00               	movlw	0
  8127   0037D2  6E02               	movwf	(EUSART2_SetOverrunErrorHandler@interruptHandler+1)^0,c
  8128   0037D4  0E00               	movlw	0
  8129   0037D6  6E03               	movwf	(EUSART2_SetOverrunErrorHandler@interruptHandler+2)^0,c
  8130   0037D8  EC6F  F01D         	call	_EUSART2_SetOverrunErrorHandler	;wreg free
  8131   0037DC                     
  8132                           ;mcc_generated_files/eusart2.c: 88:     EUSART2_SetErrorHandler(EUSART2_DefaultErrorHand
      +                          ler);
  8133   0037DC  0E00               	movlw	0
  8134   0037DE  6E01               	movwf	EUSART2_SetErrorHandler@interruptHandler^0,c
  8135   0037E0  0E00               	movlw	0
  8136   0037E2  6E02               	movwf	(EUSART2_SetErrorHandler@interruptHandler+1)^0,c
  8137   0037E4  0E00               	movlw	0
  8138   0037E6  6E03               	movwf	(EUSART2_SetErrorHandler@interruptHandler+2)^0,c
  8139   0037E8  EC7D  F01D         	call	_EUSART2_SetErrorHandler	;wreg free
  8140   0037EC                     
  8141                           ;mcc_generated_files/eusart2.c: 90:     eusart2RxLastError.status = 0;
  8142   0037EC  0E00               	movlw	0
  8143   0037EE  0100               	movlb	0	; () banked
  8144   0037F0  6FB7               	movwf	_eusart2RxLastError& (0+255),b	;volatile
  8145   0037F2                     
  8146                           ; BSR set to: 0
  8147   0037F2  0012               	return		;funcret
  8148   0037F4                     __end_of_EUSART2_Initialize:
  8149                           	callstack 0
  8150                           
  8151 ;; *************** function _EUSART2_SetOverrunErrorHandler *****************
  8152 ;; Defined at:
  8153 ;;		line 170 in file "mcc_generated_files/eusart2.c"
  8154 ;; Parameters:    Size  Location     Type
  8155 ;;  interruptHan    3    0[COMRAM] PTR FTN()void 
  8156 ;;		 -> EUSART2_DefaultOverrunErrorHandler(1), 
  8157 ;; Auto vars:     Size  Location     Type
  8158 ;;		None
  8159 ;; Return value:  Size  Location     Type
  8160 ;;                  1    wreg      void 
  8161 ;; Registers used:
  8162 ;;		wreg, status,2, status,0
  8163 ;; Tracked objects:
  8164 ;;		On entry : 0/0
  8165 ;;		On exit  : 0/0
  8166 ;;		Unchanged: 0/0
  8167 ;; Data sizes:     COMRAM   BANK0   BANK1   BANK2   BANK3   BANK4   BANK5   BANK6   BANK7   BANK8   BANK9  BANK10  BANK1
      +1  BANK12  BANK14
  8168 ;;      Params:         3       0       0       0       0       0       0       0       0       0       0       0       
      +0       0       0
  8169 ;;      Locals:         0       0       0       0       0       0       0       0       0       0       0       0       
      +0       0       0
  8170 ;;      Temps:          0       0       0       0       0       0       0       0       0       0       0       0       
      +0       0       0
  8171 ;;      Totals:         3       0       0       0       0       0       0       0       0       0       0       0       
      +0       0       0
  8172 ;;Total ram usage:        3 bytes
  8173 ;; Hardware stack levels used: 1
  8174 ;; This function calls:
  8175 ;;		Nothing
  8176 ;; This function is called by:
  8177 ;;		_EUSART2_Initialize
  8178 ;; This function uses a non-reentrant model
  8179 ;;
  8180                           
  8181                           	psect	text37
  8182   003ADE                     __ptext37:
  8183                           	callstack 0
  8184   003ADE                     _EUSART2_SetOverrunErrorHandler:
  8185                           	callstack 28
  8186   003ADE                     
  8187                           ;mcc_generated_files/eusart2.c: 171:     EUSART2_OverrunErrorHandler = interruptHandler;
  8188   003ADE  C001  F1B6         	movff	EUSART2_SetOverrunErrorHandler@interruptHandler,_EUSART2_OverrunErrorHandler
  8189   003AE2  C002  F1B7         	movff	EUSART2_SetOverrunErrorHandler@interruptHandler+1,_EUSART2_OverrunErrorHandler+1
  8190   003AE6  C003  F1B8         	movff	EUSART2_SetOverrunErrorHandler@interruptHandler+2,_EUSART2_OverrunErrorHandler+2
  8191   003AEA  0012               	return		;funcret
  8192   003AEC                     __end_of_EUSART2_SetOverrunErrorHandler:
  8193                           	callstack 0
  8194                           
  8195 ;; *************** function _EUSART2_SetFramingErrorHandler *****************
  8196 ;; Defined at:
  8197 ;;		line 166 in file "mcc_generated_files/eusart2.c"
  8198 ;; Parameters:    Size  Location     Type
  8199 ;;  interruptHan    3    0[COMRAM] PTR FTN()void 
  8200 ;;		 -> EUSART2_DefaultFramingErrorHandler(1), 
  8201 ;; Auto vars:     Size  Location     Type
  8202 ;;		None
  8203 ;; Return value:  Size  Location     Type
  8204 ;;                  1    wreg      void 
  8205 ;; Registers used:
  8206 ;;		wreg, status,2, status,0
  8207 ;; Tracked objects:
  8208 ;;		On entry : 0/0
  8209 ;;		On exit  : 0/0
  8210 ;;		Unchanged: 0/0
  8211 ;; Data sizes:     COMRAM   BANK0   BANK1   BANK2   BANK3   BANK4   BANK5   BANK6   BANK7   BANK8   BANK9  BANK10  BANK1
      +1  BANK12  BANK14
  8212 ;;      Params:         3       0       0       0       0       0       0       0       0       0       0       0       
      +0       0       0
  8213 ;;      Locals:         0       0       0       0       0       0       0       0       0       0       0       0       
      +0       0       0
  8214 ;;      Temps:          0       0       0       0       0       0       0       0       0       0       0       0       
      +0       0       0
  8215 ;;      Totals:         3       0       0       0       0       0       0       0       0       0       0       0       
      +0       0       0
  8216 ;;Total ram usage:        3 bytes
  8217 ;; Hardware stack levels used: 1
  8218 ;; This function calls:
  8219 ;;		Nothing
  8220 ;; This function is called by:
  8221 ;;		_EUSART2_Initialize
  8222 ;; This function uses a non-reentrant model
  8223 ;;
  8224                           
  8225                           	psect	text38
  8226   003AEC                     __ptext38:
  8227                           	callstack 0
  8228   003AEC                     _EUSART2_SetFramingErrorHandler:
  8229                           	callstack 28
  8230   003AEC                     
  8231                           ;mcc_generated_files/eusart2.c: 167:     EUSART2_FramingErrorHandler = interruptHandler;
  8232   003AEC  C001  F1B9         	movff	EUSART2_SetFramingErrorHandler@interruptHandler,_EUSART2_FramingErrorHandler
  8233   003AF0  C002  F1BA         	movff	EUSART2_SetFramingErrorHandler@interruptHandler+1,_EUSART2_FramingErrorHandler+1
  8234   003AF4  C003  F1BB         	movff	EUSART2_SetFramingErrorHandler@interruptHandler+2,_EUSART2_FramingErrorHandler+2
  8235   003AF8  0012               	return		;funcret
  8236   003AFA                     __end_of_EUSART2_SetFramingErrorHandler:
  8237                           	callstack 0
  8238                           
  8239 ;; *************** function _EUSART2_SetErrorHandler *****************
  8240 ;; Defined at:
  8241 ;;		line 174 in file "mcc_generated_files/eusart2.c"
  8242 ;; Parameters:    Size  Location     Type
  8243 ;;  interruptHan    3    0[COMRAM] PTR FTN()void 
  8244 ;;		 -> EUSART2_DefaultErrorHandler(1), 
  8245 ;; Auto vars:     Size  Location     Type
  8246 ;;		None
  8247 ;; Return value:  Size  Location     Type
  8248 ;;                  1    wreg      void 
  8249 ;; Registers used:
  8250 ;;		wreg, status,2, status,0
  8251 ;; Tracked objects:
  8252 ;;		On entry : 0/0
  8253 ;;		On exit  : 0/0
  8254 ;;		Unchanged: 0/0
  8255 ;; Data sizes:     COMRAM   BANK0   BANK1   BANK2   BANK3   BANK4   BANK5   BANK6   BANK7   BANK8   BANK9  BANK10  BANK1
      +1  BANK12  BANK14
  8256 ;;      Params:         3       0       0       0       0       0       0       0       0       0       0       0       
      +0       0       0
  8257 ;;      Locals:         0       0       0       0       0       0       0       0       0       0       0       0       
      +0       0       0
  8258 ;;      Temps:          0       0       0       0       0       0       0       0       0       0       0       0       
      +0       0       0
  8259 ;;      Totals:         3       0       0       0       0       0       0       0       0       0       0       0       
      +0       0       0
  8260 ;;Total ram usage:        3 bytes
  8261 ;; Hardware stack levels used: 1
  8262 ;; This function calls:
  8263 ;;		Nothing
  8264 ;; This function is called by:
  8265 ;;		_EUSART2_Initialize
  8266 ;; This function uses a non-reentrant model
  8267 ;;
  8268                           
  8269                           	psect	text39
  8270   003AFA                     __ptext39:
  8271                           	callstack 0
  8272   003AFA                     _EUSART2_SetErrorHandler:
  8273                           	callstack 28
  8274   003AFA                     
  8275                           ;mcc_generated_files/eusart2.c: 175:     EUSART2_ErrorHandler = interruptHandler;
  8276   003AFA  C001  F1B3         	movff	EUSART2_SetErrorHandler@interruptHandler,_EUSART2_ErrorHandler
  8277   003AFE  C002  F1B4         	movff	EUSART2_SetErrorHandler@interruptHandler+1,_EUSART2_ErrorHandler+1
  8278   003B02  C003  F1B5         	movff	EUSART2_SetErrorHandler@interruptHandler+2,_EUSART2_ErrorHandler+2
  8279   003B06  0012               	return		;funcret
  8280   003B08                     __end_of_EUSART2_SetErrorHandler:
  8281                           	callstack 0
  8282                           
  8283 ;; *************** function _ADCC_Initialize *****************
  8284 ;; Defined at:
  8285 ;;		line 62 in file "mcc_generated_files/adcc.c"
  8286 ;; Parameters:    Size  Location     Type
  8287 ;;		None
  8288 ;; Auto vars:     Size  Location     Type
  8289 ;;		None
  8290 ;; Return value:  Size  Location     Type
  8291 ;;                  1    wreg      void 
  8292 ;; Registers used:
  8293 ;;		wreg, status,2
  8294 ;; Tracked objects:
  8295 ;;		On entry : 0/0
  8296 ;;		On exit  : 0/0
  8297 ;;		Unchanged: 0/0
  8298 ;; Data sizes:     COMRAM   BANK0   BANK1   BANK2   BANK3   BANK4   BANK5   BANK6   BANK7   BANK8   BANK9  BANK10  BANK1
      +1  BANK12  BANK14
  8299 ;;      Params:         0       0       0       0       0       0       0       0       0       0       0       0       
      +0       0       0
  8300 ;;      Locals:         0       0       0       0       0       0       0       0       0       0       0       0       
      +0       0       0
  8301 ;;      Temps:          0       0       0       0       0       0       0       0       0       0       0       0       
      +0       0       0
  8302 ;;      Totals:         0       0       0       0       0       0       0       0       0       0       0       0       
      +0       0       0
  8303 ;;Total ram usage:        0 bytes
  8304 ;; Hardware stack levels used: 1
  8305 ;; This function calls:
  8306 ;;		Nothing
  8307 ;; This function is called by:
  8308 ;;		_main
  8309 ;;		_SYSTEM_Initialize
  8310 ;; This function uses a non-reentrant model
  8311 ;;
  8312                           
  8313                           	psect	text40
  8314   003756                     __ptext40:
  8315                           	callstack 0
  8316   003756                     _ADCC_Initialize:
  8317                           	callstack 29
  8318   003756                     
  8319                           ;mcc_generated_files/adcc.c: 66:     ADLTHL = 0x00;
  8320   003756  0E00               	movlw	0
  8321   003758  6E65               	movwf	101,c	;volatile
  8322                           
  8323                           ;mcc_generated_files/adcc.c: 68:     ADLTHH = 0x00;
  8324   00375A  0E00               	movlw	0
  8325   00375C  6E66               	movwf	102,c	;volatile
  8326                           
  8327                           ;mcc_generated_files/adcc.c: 70:     ADUTHL = 0x00;
  8328   00375E  0E00               	movlw	0
  8329   003760  6E67               	movwf	103,c	;volatile
  8330                           
  8331                           ;mcc_generated_files/adcc.c: 72:     ADUTHH = 0x00;
  8332   003762  0E00               	movlw	0
  8333   003764  6E68               	movwf	104,c	;volatile
  8334                           
  8335                           ;mcc_generated_files/adcc.c: 74:     ADSTPTL = 0x00;
  8336   003766  0E00               	movlw	0
  8337   003768  6E63               	movwf	99,c	;volatile
  8338                           
  8339                           ;mcc_generated_files/adcc.c: 76:     ADSTPTH = 0x00;
  8340   00376A  0E00               	movlw	0
  8341   00376C  6E64               	movwf	100,c	;volatile
  8342                           
  8343                           ;mcc_generated_files/adcc.c: 78:     ADRPT = 0x00;
  8344   00376E  0E00               	movlw	0
  8345   003770  6E61               	movwf	97,c	;volatile
  8346                           
  8347                           ;mcc_generated_files/adcc.c: 80:     ADPCH = 0x00;
  8348   003772  0E00               	movlw	0
  8349   003774  010F               	movlb	15	; () banked
  8350   003776  6F5A               	movwf	90,b	;volatile
  8351                           
  8352                           ;mcc_generated_files/adcc.c: 82:     ADCAP = 0x00;
  8353   003778  0E00               	movlw	0
  8354   00377A  6F58               	movwf	88,b	;volatile
  8355                           
  8356                           ;mcc_generated_files/adcc.c: 84:     ADPRE = 0x00;
  8357   00377C  0E00               	movlw	0
  8358   00377E  6F59               	movwf	89,b	;volatile
  8359                           
  8360                           ;mcc_generated_files/adcc.c: 86:     ADCON1 = 0x00;
  8361   003780  0E00               	movlw	0
  8362   003782  6F54               	movwf	84,b	;volatile
  8363                           
  8364                           ;mcc_generated_files/adcc.c: 88:     ADCON2 = 0x10;
  8365   003784  0E10               	movlw	16
  8366   003786  6F55               	movwf	85,b	;volatile
  8367                           
  8368                           ;mcc_generated_files/adcc.c: 90:     ADCON3 = 0x00;
  8369   003788  0E00               	movlw	0
  8370   00378A  6F56               	movwf	86,b	;volatile
  8371                           
  8372                           ;mcc_generated_files/adcc.c: 92:     ADSTAT = 0x00;
  8373   00378C  0E00               	movlw	0
  8374   00378E  6E60               	movwf	96,c	;volatile
  8375                           
  8376                           ;mcc_generated_files/adcc.c: 94:     ADREF = 0x00;
  8377   003790  0E00               	movlw	0
  8378   003792  6F53               	movwf	83,b	;volatile
  8379                           
  8380                           ;mcc_generated_files/adcc.c: 96:     ADACT = 0x00;
  8381   003794  0E00               	movlw	0
  8382   003796  6F51               	movwf	81,b	;volatile
  8383                           
  8384                           ;mcc_generated_files/adcc.c: 98:     ADCLK = 0x00;
  8385   003798  0E00               	movlw	0
  8386   00379A  6F52               	movwf	82,b	;volatile
  8387                           
  8388                           ;mcc_generated_files/adcc.c: 100:     ADCON0 = 0x84;
  8389   00379C  0E84               	movlw	132
  8390   00379E  6F5B               	movwf	91,b	;volatile
  8391                           
  8392                           ;mcc_generated_files/adcc.c: 102:     ADACQ = 0x00;
  8393   0037A0  0E00               	movlw	0
  8394   0037A2  6F57               	movwf	87,b	;volatile
  8395   0037A4                     
  8396                           ; BSR set to: 15
  8397   0037A4  0012               	return		;funcret
  8398   0037A6                     __end_of_ADCC_Initialize:
  8399                           	callstack 0
  8400                           
  8401 ;; *************** function _PWM4_LoadDutyValue *****************
  8402 ;; Defined at:
  8403 ;;		line 74 in file "mcc_generated_files/pwm4.c"
  8404 ;; Parameters:    Size  Location     Type
  8405 ;;  dutyValue       2    0[COMRAM] unsigned short 
  8406 ;; Auto vars:     Size  Location     Type
  8407 ;;		None
  8408 ;; Return value:  Size  Location     Type
  8409 ;;                  1    wreg      void 
  8410 ;; Registers used:
  8411 ;;		wreg, status,2, status,0
  8412 ;; Tracked objects:
  8413 ;;		On entry : 0/0
  8414 ;;		On exit  : 0/0
  8415 ;;		Unchanged: 0/0
  8416 ;; Data sizes:     COMRAM   BANK0   BANK1   BANK2   BANK3   BANK4   BANK5   BANK6   BANK7   BANK8   BANK9  BANK10  BANK1
      +1  BANK12  BANK14
  8417 ;;      Params:         2       0       0       0       0       0       0       0       0       0       0       0       
      +0       0       0
  8418 ;;      Locals:         0       0       0       0       0       0       0       0       0       0       0       0       
      +0       0       0
  8419 ;;      Temps:          2       0       0       0       0       0       0       0       0       0       0       0       
      +0       0       0
  8420 ;;      Totals:         4       0       0       0       0       0       0       0       0       0       0       0       
      +0       0       0
  8421 ;;Total ram usage:        4 bytes
  8422 ;; Hardware stack levels used: 1
  8423 ;; This function calls:
  8424 ;;		Nothing
  8425 ;; This function is called by:
  8426 ;;		_main
  8427 ;; This function uses a non-reentrant model
  8428 ;;
  8429                           
  8430                           	psect	text41
  8431   0039DE                     __ptext41:
  8432                           	callstack 0
  8433   0039DE                     _PWM4_LoadDutyValue:
  8434                           	callstack 30
  8435   0039DE                     
  8436                           ;mcc_generated_files/pwm4.c: 74:  void PWM4_LoadDutyValue(uint16_t dutyValue);mcc_genera
      +                          ted_files/pwm4.c: 75:  {;mcc_generated_files/pwm4.c: 77:      PWM4DCH = (dutyValue & 0x0
      +                          3FC)>>2;
  8437   0039DE  C001  F003         	movff	PWM4_LoadDutyValue@dutyValue,??_PWM4_LoadDutyValue
  8438   0039E2  C002  F004         	movff	PWM4_LoadDutyValue@dutyValue+1,??_PWM4_LoadDutyValue+1
  8439   0039E6  90D8               	bcf	status,0,c
  8440   0039E8  3204               	rrcf	(??_PWM4_LoadDutyValue+1)^0,f,c
  8441   0039EA  3203               	rrcf	??_PWM4_LoadDutyValue^0,f,c
  8442   0039EC  90D8               	bcf	status,0,c
  8443   0039EE  3204               	rrcf	(??_PWM4_LoadDutyValue+1)^0,f,c
  8444   0039F0  3203               	rrcf	??_PWM4_LoadDutyValue^0,f,c
  8445   0039F2  5003               	movf	??_PWM4_LoadDutyValue^0,w,c
  8446   0039F4  6EA0               	movwf	160,c	;volatile
  8447                           
  8448                           ;mcc_generated_files/pwm4.c: 80:      PWM4DCL = (dutyValue & 0x0003)<<6;
  8449   0039F6  C001  F003         	movff	PWM4_LoadDutyValue@dutyValue,??_PWM4_LoadDutyValue
  8450   0039FA  0E03               	movlw	3
  8451   0039FC  1603               	andwf	??_PWM4_LoadDutyValue^0,f,c
  8452   0039FE  0E06               	movlw	6
  8453   003A00  6E04               	movwf	(??_PWM4_LoadDutyValue+1)^0,c
  8454   003A02                     u6005:
  8455   003A02  90D8               	bcf	status,0,c
  8456   003A04  3603               	rlcf	??_PWM4_LoadDutyValue^0,f,c
  8457   003A06  2E04               	decfsz	(??_PWM4_LoadDutyValue+1)^0,f,c
  8458   003A08  EF01  F01D         	goto	u6005
  8459   003A0C  5003               	movf	??_PWM4_LoadDutyValue^0,w,c
  8460   003A0E  6E9F               	movwf	159,c	;volatile
  8461   003A10  0012               	return		;funcret
  8462   003A12                     __end_of_PWM4_LoadDutyValue:
  8463                           	callstack 0
  8464                           
  8465 ;; *************** function _ADCC_StartConversion *****************
  8466 ;; Defined at:
  8467 ;;		line 107 in file "mcc_generated_files/adcc.c"
  8468 ;; Parameters:    Size  Location     Type
  8469 ;;  channel         1    wreg     enum E12912
  8470 ;; Auto vars:     Size  Location     Type
  8471 ;;  channel         1    0[COMRAM] enum E12912
  8472 ;; Return value:  Size  Location     Type
  8473 ;;                  1    wreg      void 
  8474 ;; Registers used:
  8475 ;;		wreg
  8476 ;; Tracked objects:
  8477 ;;		On entry : 0/0
  8478 ;;		On exit  : 0/0
  8479 ;;		Unchanged: 0/0
  8480 ;; Data sizes:     COMRAM   BANK0   BANK1   BANK2   BANK3   BANK4   BANK5   BANK6   BANK7   BANK8   BANK9  BANK10  BANK1
      +1  BANK12  BANK14
  8481 ;;      Params:         0       0       0       0       0       0       0       0       0       0       0       0       
      +0       0       0
  8482 ;;      Locals:         1       0       0       0       0       0       0       0       0       0       0       0       
      +0       0       0
  8483 ;;      Temps:          0       0       0       0       0       0       0       0       0       0       0       0       
      +0       0       0
  8484 ;;      Totals:         1       0       0       0       0       0       0       0       0       0       0       0       
      +0       0       0
  8485 ;;Total ram usage:        1 bytes
  8486 ;; Hardware stack levels used: 1
  8487 ;; This function calls:
  8488 ;;		Nothing
  8489 ;; This function is called by:
  8490 ;;		_main
  8491 ;; This function uses a non-reentrant model
  8492 ;;
  8493                           
  8494                           	psect	text42
  8495   003B08                     __ptext42:
  8496                           	callstack 0
  8497   003B08                     _ADCC_StartConversion:
  8498                           	callstack 30
  8499                           
  8500                           ;incstack = 0
  8501                           ;ADCC_StartConversion@channel stored from wreg
  8502   003B08  6E01               	movwf	ADCC_StartConversion@channel^0,c
  8503   003B0A                     
  8504                           ;mcc_generated_files/adcc.c: 107: void ADCC_StartConversion(adcc_channel_t channel);mcc_
      +                          generated_files/adcc.c: 108: {;mcc_generated_files/adcc.c: 110:     ADPCH = channel;
  8505   003B0A  C001  FF5A         	movff	ADCC_StartConversion@channel,3930	;volatile
  8506   003B0E                     
  8507                           ;mcc_generated_files/adcc.c: 113:     ADCON0bits.ADON = 1;
  8508   003B0E  010F               	movlb	15	; () banked
  8509   003B10  8F5B               	bsf	91,7,b	;volatile
  8510   003B12                     
  8511                           ; BSR set to: 15
  8512                           ;mcc_generated_files/adcc.c: 116:     ADCON0bits.ADGO = 1;
  8513   003B12  815B               	bsf	91,0,b	;volatile
  8514   003B14                     
  8515                           ; BSR set to: 15
  8516   003B14  0012               	return		;funcret
  8517   003B16                     __end_of_ADCC_StartConversion:
  8518                           	callstack 0
  8519                           
  8520 ;; *************** function _ADCC_GetConversionResult *****************
  8521 ;; Defined at:
  8522 ;;		line 125 in file "mcc_generated_files/adcc.c"
  8523 ;; Parameters:    Size  Location     Type
  8524 ;;		None
  8525 ;; Auto vars:     Size  Location     Type
  8526 ;;		None
  8527 ;; Return value:  Size  Location     Type
  8528 ;;                  2    0[COMRAM] unsigned short 
  8529 ;; Registers used:
  8530 ;;		wreg, status,2, status,0
  8531 ;; Tracked objects:
  8532 ;;		On entry : 0/0
  8533 ;;		On exit  : 0/0
  8534 ;;		Unchanged: 0/0
  8535 ;; Data sizes:     COMRAM   BANK0   BANK1   BANK2   BANK3   BANK4   BANK5   BANK6   BANK7   BANK8   BANK9  BANK10  BANK1
      +1  BANK12  BANK14
  8536 ;;      Params:         2       0       0       0       0       0       0       0       0       0       0       0       
      +0       0       0
  8537 ;;      Locals:         0       0       0       0       0       0       0       0       0       0       0       0       
      +0       0       0
  8538 ;;      Temps:          2       0       0       0       0       0       0       0       0       0       0       0       
      +0       0       0
  8539 ;;      Totals:         4       0       0       0       0       0       0       0       0       0       0       0       
      +0       0       0
  8540 ;;Total ram usage:        4 bytes
  8541 ;; Hardware stack levels used: 1
  8542 ;; This function calls:
  8543 ;;		Nothing
  8544 ;; This function is called by:
  8545 ;;		_main
  8546 ;; This function uses a non-reentrant model
  8547 ;;
  8548                           
  8549                           	psect	text43
  8550   003AC8                     __ptext43:
  8551                           	callstack 0
  8552   003AC8                     _ADCC_GetConversionResult:
  8553                           	callstack 30
  8554   003AC8                     
  8555                           ;mcc_generated_files/adcc.c: 128:     return ((adc_result_t)((ADRESH << 8) + ADRESL));
  8556   003AC8  010F               	movlb	15	; () banked
  8557   003ACA  515F               	movf	95,w,b	;volatile
  8558   003ACC  6E04               	movwf	(??_ADCC_GetConversionResult+1)^0,c
  8559   003ACE  6A03               	clrf	??_ADCC_GetConversionResult^0,c
  8560   003AD0  515E               	movf	94,w,b	;volatile
  8561   003AD2  2403               	addwf	??_ADCC_GetConversionResult^0,w,c
  8562   003AD4  6E01               	movwf	?_ADCC_GetConversionResult^0,c
  8563   003AD6  0E00               	movlw	0
  8564   003AD8  2004               	addwfc	(??_ADCC_GetConversionResult+1)^0,w,c
  8565   003ADA  6E02               	movwf	(?_ADCC_GetConversionResult+1)^0,c
  8566   003ADC                     
  8567                           ; BSR set to: 15
  8568   003ADC  0012               	return		;funcret
  8569   003ADE                     __end_of_ADCC_GetConversionResult:
  8570                           	callstack 0
  8571                           
  8572 ;; *************** function _ADCC_DisableContinuousConversion *****************
  8573 ;; Defined at:
  8574 ;;		line 267 in file "mcc_generated_files/adcc.c"
  8575 ;; Parameters:    Size  Location     Type
  8576 ;;		None
  8577 ;; Auto vars:     Size  Location     Type
  8578 ;;		None
  8579 ;; Return value:  Size  Location     Type
  8580 ;;                  1    wreg      void 
  8581 ;; Registers used:
  8582 ;;		None
  8583 ;; Tracked objects:
  8584 ;;		On entry : 0/0
  8585 ;;		On exit  : 0/0
  8586 ;;		Unchanged: 0/0
  8587 ;; Data sizes:     COMRAM   BANK0   BANK1   BANK2   BANK3   BANK4   BANK5   BANK6   BANK7   BANK8   BANK9  BANK10  BANK1
      +1  BANK12  BANK14
  8588 ;;      Params:         0       0       0       0       0       0       0       0       0       0       0       0       
      +0       0       0
  8589 ;;      Locals:         0       0       0       0       0       0       0       0       0       0       0       0       
      +0       0       0
  8590 ;;      Temps:          0       0       0       0       0       0       0       0       0       0       0       0       
      +0       0       0
  8591 ;;      Totals:         0       0       0       0       0       0       0       0       0       0       0       0       
      +0       0       0
  8592 ;;Total ram usage:        0 bytes
  8593 ;; Hardware stack levels used: 1
  8594 ;; This function calls:
  8595 ;;		Nothing
  8596 ;; This function is called by:
  8597 ;;		_main
  8598 ;; This function uses a non-reentrant model
  8599 ;;
  8600                           
  8601                           	psect	text44
  8602   003B26                     __ptext44:
  8603                           	callstack 0
  8604   003B26                     _ADCC_DisableContinuousConversion:
  8605                           	callstack 30
  8606   003B26                     
  8607                           ;mcc_generated_files/adcc.c: 270:     ADCON0bits.ADCONT = 0;
  8608   003B26  010F               	movlb	15	; () banked
  8609   003B28  9D5B               	bcf	91,6,b	;volatile
  8610   003B2A                     
  8611                           ; BSR set to: 15
  8612   003B2A  0012               	return		;funcret
  8613   003B2C                     __end_of_ADCC_DisableContinuousConversion:
  8614                           	callstack 0
  8615                           
  8616                           	psect	rparam
  8617   000000                     
  8618                           	psect	config
  8619                           
  8620                           ;Config register CONFIG1L @ 0x300000
  8621                           ;	External Oscillator mode Selection bits
  8622                           ;	FEXTOSC = OFF, Oscillator not enabled
  8623                           ;	Power-up default value for COSC bits
  8624                           ;	RSTOSC = HFINTOSC_1MHZ, HFINTOSC with HFFRQ = 4 MHz and CDIV = 4:1
  8625   300000                     	org	3145728
  8626   300000  EC                 	db	236
  8627                           
  8628                           ;Config register CONFIG1H @ 0x300001
  8629                           ;	Clock Out Enable bit
  8630                           ;	CLKOUTEN = OFF, CLKOUT function is disabled
  8631                           ;	Clock Switch Enable bit
  8632                           ;	CSWEN = ON, Writing to NOSC and NDIV is allowed
  8633                           ;	Fail-Safe Clock Monitor Enable bit
  8634                           ;	FCMEN = ON, Fail-Safe Clock Monitor enabled
  8635   300001                     	org	3145729
  8636   300001  FF                 	db	255
  8637                           
  8638                           ;Config register CONFIG2L @ 0x300002
  8639                           ;	Master Clear Enable bit
  8640                           ;	MCLRE = EXTMCLR, MCLR pin (RE3) is MCLR
  8641                           ;	Power-up Timer Enable bit
  8642                           ;	PWRTE = OFF, Power up timer disabled
  8643                           ;	Low-power BOR enable bit
  8644                           ;	LPBOREN = OFF, Low power BOR is disabled
  8645                           ;	Brown-out Reset Enable bits
  8646                           ;	BOREN = SBORDIS, Brown-out Reset enabled , SBOREN bit is ignored
  8647   300002                     	org	3145730
  8648   300002  FF                 	db	255
  8649                           
  8650                           ;Config register CONFIG2H @ 0x300003
  8651                           ;	Brown Out Reset Voltage selection bits
  8652                           ;	BORV = VBOR_190, Brown-out Reset Voltage (VBOR) set to 1.90V
  8653                           ;	ZCD Disable bit
  8654                           ;	ZCD = OFF, ZCD disabled. ZCD can be enabled by setting the ZCDSEN bit of ZCDCON
  8655                           ;	PPSLOCK bit One-Way Set Enable bit
  8656                           ;	PPS1WAY = ON, PPSLOCK bit can be cleared and set only once; PPS registers remain locke
      +                          d after one clear/set cycle
  8657                           ;	Stack Full/Underflow Reset Enable bit
  8658                           ;	STVREN = ON, Stack full/underflow will cause Reset
  8659                           ;	Extended Instruction Set Enable bit
  8660                           ;	XINST = OFF, Extended Instruction Set and Indexed Addressing Mode disabled
  8661   300003                     	org	3145731
  8662   300003  FF                 	db	255
  8663                           
  8664                           ;Config register CONFIG3L @ 0x300004
  8665                           ;	WDT Period Select bits
  8666                           ;	WDTCPS = WDTCPS_31, Divider ratio 1:65536; software control of WDTPS
  8667                           ;	WDT operating mode
  8668                           ;	WDTE = OFF, WDT Disabled
  8669   300004                     	org	3145732
  8670   300004  9F                 	db	159
  8671                           
  8672                           ;Config register CONFIG3H @ 0x300005
  8673                           ;	WDT Window Select bits
  8674                           ;	WDTCWS = WDTCWS_7, window always open (100%); software control; keyed access not requi
      +                          red
  8675                           ;	WDT input clock selector
  8676                           ;	WDTCCS = SC, Software Control
  8677   300005                     	org	3145733
  8678   300005  FF                 	db	255
  8679                           
  8680                           ;Config register CONFIG4L @ 0x300006
  8681                           ;	Write Protection Block 0
  8682                           ;	WRT0 = OFF, Block 0 (000800-003FFFh) not write-protected
  8683                           ;	Write Protection Block 1
  8684                           ;	WRT1 = OFF, Block 1 (004000-007FFFh) not write-protected
  8685                           ;	Write Protection Block 2
  8686                           ;	WRT2 = OFF, Block 2 (008000-00BFFFh) not write-protected
  8687                           ;	Write Protection Block 3
  8688                           ;	WRT3 = OFF, Block 3 (00C000-00FFFFh) not write-protected
  8689                           ;	Write Protection Block 4
  8690                           ;	WRT4 = 0x1, unprogrammed default
  8691                           ;	Write Protection Block 5
  8692                           ;	WRT5 = 0x1, unprogrammed default
  8693                           ;	Write Protection Block 6
  8694                           ;	WRT6 = 0x1, unprogrammed default
  8695                           ;	Write Protection Block 7
  8696                           ;	WRT7 = 0x1, unprogrammed default
  8697   300006                     	org	3145734
  8698   300006  FF                 	db	255
  8699                           
  8700                           ;Config register CONFIG4H @ 0x300007
  8701                           ;	Configuration Register Write Protection bit
  8702                           ;	WRTC = OFF, Configuration registers (300000-30000Bh) not write-protected
  8703                           ;	Boot Block Write Protection bit
  8704                           ;	WRTB = OFF, Boot Block (000000-0007FFh) not write-protected
  8705                           ;	Data EEPROM Write Protection bit
  8706                           ;	WRTD = OFF, Data EEPROM not write-protected
  8707                           ;	Scanner Enable bit
  8708                           ;	SCANE = ON, Scanner module is available for use, SCANMD bit can control the module
  8709                           ;	Low Voltage Programming Enable bit
  8710                           ;	LVP = ON, Low voltage programming enabled. MCLR/VPP pin function is MCLR. MCLRE config
      +                          uration bit is ignored
  8711   300007                     	org	3145735
  8712   300007  FF                 	db	255
  8713                           
  8714                           ;Config register CONFIG5L @ 0x300008
  8715                           ;	UserNVM Program Memory Code Protection bit
  8716                           ;	CP = OFF, UserNVM code protection disabled
  8717                           ;	DataNVM Memory Code Protection bit
  8718                           ;	CPD = OFF, DataNVM code protection disabled
  8719   300008                     	org	3145736
  8720   300008  FF                 	db	255
  8721                           
  8722                           ;Config register CONFIG5H @ 0x300009
  8723                           ;	unspecified, using default values
  8724   300009                     	org	3145737
  8725   300009  FF                 	db	255
  8726                           
  8727                           ;Config register CONFIG6L @ 0x30000A
  8728                           ;	Table Read Protection Block 0
  8729                           ;	EBTR0 = OFF, Block 0 (000800-003FFFh) not protected from table reads executed in other
      +                           blocks
  8730                           ;	Table Read Protection Block 1
  8731                           ;	EBTR1 = OFF, Block 1 (004000-007FFFh) not protected from table reads executed in other
      +                           blocks
  8732                           ;	Table Read Protection Block 2
  8733                           ;	EBTR2 = OFF, Block 2 (008000-00BFFFh) not protected from table reads executed in other
      +                           blocks
  8734                           ;	Table Read Protection Block 3
  8735                           ;	EBTR3 = OFF, Block 3 (00C000-00FFFFh) not protected from table reads executed in other
      +                           blocks
  8736                           ;	Table Read Protection Block 4
  8737                           ;	EBTR4 = 0x1, unprogrammed default
  8738                           ;	Table Read Protection Block 5
  8739                           ;	EBTR5 = 0x1, unprogrammed default
  8740                           ;	Table Read Protection Block 6
  8741                           ;	EBTR6 = 0x1, unprogrammed default
  8742                           ;	Table Read Protection Block 7
  8743                           ;	EBTR7 = 0x1, unprogrammed default
  8744   30000A                     	org	3145738
  8745   30000A  FF                 	db	255
  8746                           
  8747                           ;Config register CONFIG6H @ 0x30000B
  8748                           ;	Boot Block Table Read Protection bit
  8749                           ;	EBTRB = OFF, Boot Block (000000-0007FFh) not protected from table reads executed in ot
      +                          her blocks
  8750   30000B                     	org	3145739
  8751   30000B  FF                 	db	255
  8752                           tosu	equ	0xFFF
  8753                           tosh	equ	0xFFE
  8754                           tosl	equ	0xFFD
  8755                           stkptr	equ	0xFFC
  8756                           pclatu	equ	0xFFB
  8757                           pclath	equ	0xFFA
  8758                           pcl	equ	0xFF9
  8759                           tblptru	equ	0xFF8
  8760                           tblptrh	equ	0xFF7
  8761                           tblptrl	equ	0xFF6
  8762                           tablat	equ	0xFF5
  8763                           prodh	equ	0xFF4
  8764                           prodl	equ	0xFF3
  8765                           indf0	equ	0xFEF
  8766                           postinc0	equ	0xFEE
  8767                           postdec0	equ	0xFED
  8768                           preinc0	equ	0xFEC
  8769                           plusw0	equ	0xFEB
  8770                           fsr0h	equ	0xFEA
  8771                           fsr0l	equ	0xFE9
  8772                           wreg	equ	0xFE8
  8773                           indf1	equ	0xFE7
  8774                           postinc1	equ	0xFE6
  8775                           postdec1	equ	0xFE5
  8776                           preinc1	equ	0xFE4
  8777                           plusw1	equ	0xFE3
  8778                           fsr1h	equ	0xFE2
  8779                           fsr1l	equ	0xFE1
  8780                           bsr	equ	0xFE0
  8781                           indf2	equ	0xFDF
  8782                           postinc2	equ	0xFDE
  8783                           postdec2	equ	0xFDD
  8784                           preinc2	equ	0xFDC
  8785                           plusw2	equ	0xFDB
  8786                           fsr2h	equ	0xFDA
  8787                           fsr2l	equ	0xFD9
  8788                           status	equ	0xFD8

Data Sizes:
    Strings     14
    Constant    0
    Data        28
    BSS         94
    Persistent  9
    Stack       0

Auto Spaces:
    Space          Size  Autos    Used
    COMRAM           95     92      92
    BANK0           160     74      91
    BANK1           256     74     188
    BANK2           256      0       0
    BANK3           256      0       0
    BANK4           256      0       0
    BANK5           256      0       0
    BANK6           256      0       0
    BANK7           256      0       0
    BANK8           256      0       0
    BANK9           256      0       0
    BANK10          256      0       0
    BANK11          256      0       0
    BANK12          256      0       0
    BANK14           31      0       0

Pointer List with Targets:

    efgtoa@fp	PTR struct _IO_FILE size(1) Largest target is 12
		 -> sprintf@f(BANK0[12]), 

    EUSART2_ErrorHandler	PTR FTN()void  size(3) Largest target is 1
		 -> EUSART2_DefaultErrorHandler(), NULL(), 

    EUSART2_FramingErrorHandler	PTR FTN()void  size(3) Largest target is 1
		 -> EUSART2_DefaultFramingErrorHandler(), NULL(), 

    EUSART2_OverrunErrorHandler	PTR FTN()void  size(3) Largest target is 1
		 -> EUSART2_DefaultOverrunErrorHandler(), NULL(), 

    EUSART2_SetErrorHandler@interruptHandler	PTR FTN()void  size(3) Largest target is 1
		 -> EUSART2_DefaultErrorHandler(), 

    EUSART2_SetFramingErrorHandler@interruptHandler	PTR FTN()void  size(3) Largest target is 1
		 -> EUSART2_DefaultFramingErrorHandler(), 

    EUSART2_SetOverrunErrorHandler@interruptHandler	PTR FTN()void  size(3) Largest target is 1
		 -> EUSART2_DefaultOverrunErrorHandler(), 

    f$.$buffer	PTR unsigned char  size(2) Largest target is 0

    f$.$source	PTR const unsigned char  size(2) Largest target is 0

    fputc@fp	PTR struct _IO_FILE size(1) Largest target is 12
		 -> sprintf@f(BANK0[12]), 

    fputc@fp$.$buffer	PTR unsigned char  size(2) Largest target is 0

    fputc@fp$.$source	PTR const unsigned char  size(2) Largest target is 0

    fputs@fp	PTR struct _IO_FILE size(1) Largest target is 12
		 -> sprintf@f(BANK0[12]), 

    fputs@s	PTR const unsigned char  size(2) Largest target is 80
		 -> dbuf(BANK1[80]), 

    memcpy@d	PTR unsigned char  size(2) Largest target is 80
		 -> dbuf(BANK1[80]), 

    memcpy@d1	PTR void  size(2) Largest target is 80
		 -> dbuf(BANK1[80]), 

    memcpy@s	PTR const unsigned char  size(2) Largest target is 80
		 -> dbuf(BANK1[80]), 

    memcpy@s1	PTR const void  size(2) Largest target is 80
		 -> dbuf(BANK1[80]), 

    pad@buf	PTR unsigned char  size(2) Largest target is 80
		 -> dbuf(BANK1[80]), 

    pad@fp	PTR struct _IO_FILE size(1) Largest target is 12
		 -> sprintf@f(BANK0[12]), 

    S1341$buffer	PTR unsigned char  size(2) Largest target is 0

    S1341$source	PTR const unsigned char  size(2) Largest target is 0

    sp__memcpy	PTR void  size(2) Largest target is 80
		 -> dbuf(BANK1[80]), 

    sp__strcpy	PTR unsigned char  size(2) Largest target is 80
		 -> dbuf(BANK1[80]), 

    sprintf@ap	PTR void [1] size(1) Largest target is 2
		 -> ?_sprintf(BANK0[2]), 

    sprintf@fmt	PTR const unsigned char  size(1) Largest target is 3
		 -> STR_1(CODE[3]), STR_2(CODE[3]), 

    sprintf@s	PTR unsigned char  size(2) Largest target is 16
		 -> main@adc_val_rxData(BANK1[16]), main@adc_volt_rxData(BANK1[16]), 

    strcpy@d	PTR unsigned char  size(2) Largest target is 80
		 -> dbuf(BANK1[80]), 

    strcpy@dest	PTR unsigned char  size(2) Largest target is 80
		 -> dbuf(BANK1[80]), 

    strcpy@src	PTR const unsigned char  size(1) Largest target is 4
		 -> STR_3(CODE[4]), STR_6(CODE[4]), 

    strlen@a	PTR const unsigned char  size(2) Largest target is 16
		 -> main@adc_val_end_msg(BANK1[3]), main@adc_val_rxData(BANK1[16]), main@adc_val_start_msg(BANK1[6]), main@adc_volt_end_msg(BANK1[5]), 
		 -> main@adc_volt_rxData(BANK1[16]), main@adc_volt_start_msg(BANK1[14]), 

    strlen@s	PTR const unsigned char  size(2) Largest target is 16
		 -> main@adc_val_end_msg(BANK1[3]), main@adc_val_rxData(BANK1[16]), main@adc_val_start_msg(BANK1[6]), main@adc_volt_end_msg(BANK1[5]), 
		 -> main@adc_volt_rxData(BANK1[16]), main@adc_volt_start_msg(BANK1[14]), 

    vfpfcnvrt@ap	PTR PTR void  size(1) Largest target is 1
		 -> sprintf@ap(BANK0[1]), 

    vfpfcnvrt@cp	PTR unsigned char  size(1) Largest target is 3
		 -> STR_1(CODE[3]), STR_2(CODE[3]), 

    vfpfcnvrt@fmt	PTR PTR unsigned char  size(1) Largest target is 1
		 -> vfprintf@cfmt(COMRAM[1]), 

    vfpfcnvrt@fp	PTR struct _IO_FILE size(1) Largest target is 12
		 -> sprintf@f(BANK0[12]), 

    vfprintf@ap	PTR PTR void  size(1) Largest target is 1
		 -> sprintf@ap(BANK0[1]), 

    vfprintf@cfmt	PTR unsigned char  size(1) Largest target is 3
		 -> STR_1(CODE[3]), STR_2(CODE[3]), 

    vfprintf@fmt	PTR const unsigned char  size(1) Largest target is 3
		 -> STR_1(CODE[3]), STR_2(CODE[3]), 

    vfprintf@fp	PTR struct _IO_FILE size(1) Largest target is 12
		 -> sprintf@f(BANK0[12]), 


Critical Paths under _main in COMRAM

    _sprintf->_vfprintf
    _vfprintf->_vfpfcnvrt
    _vfpfcnvrt->_efgtoa
    _efgtoa->___flge
    _pad->_fputs
    _fputs->_fputc
    _fputc->_putch
    _putch->_EUSART2_Write
    _floorf->___fldiv
    ___flsub->___flmul
    ___flmul->___fldiv
    ___flge->___flmul
    ___fldiv->___xxtofl
    _abs->___awmod
    _EUSART2_Initialize->_EUSART2_SetErrorHandler
    _EUSART2_Initialize->_EUSART2_SetFramingErrorHandler
    _EUSART2_Initialize->_EUSART2_SetOverrunErrorHandler

Critical Paths under _main in BANK0

    _main->_sprintf
    _sprintf->_vfprintf
    _vfprintf->_vfpfcnvrt
    _vfpfcnvrt->_efgtoa

Critical Paths under _main in BANK1

    None.

Critical Paths under _main in BANK2

    None.

Critical Paths under _main in BANK3

    None.

Critical Paths under _main in BANK4

    None.

Critical Paths under _main in BANK5

    None.

Critical Paths under _main in BANK6

    None.

Critical Paths under _main in BANK7

    None.

Critical Paths under _main in BANK8

    None.

Critical Paths under _main in BANK9

    None.

Critical Paths under _main in BANK10

    None.

Critical Paths under _main in BANK11

    None.

Critical Paths under _main in BANK12

    None.

Critical Paths under _main in BANK14

    None.

Call Graph Tables:

 ---------------------------------------------------------------------------------
 (Depth) Function   	        Calls       Base Space   Used Autos Params    Refs
 ---------------------------------------------------------------------------------
 (0) _main                                                76    76      0   40973
                                             90 COMRAM     2     2      0
                                              0 BANK1     74    74      0
   _ADCC_DisableContinuousConversion
           _ADCC_GetConversionResult
                    _ADCC_Initialize
               _ADCC_StartConversion
                      _EUSART2_Write
                    _PWM4_Initialize
                 _PWM4_LoadDutyValue
                  _SYSTEM_Initialize
                    _TMR2_StartTimer
                            ___fldiv
                            ___flmul
                           ___xxtofl
                            _sprintf
                             _strlen
 ---------------------------------------------------------------------------------
 (1) _strlen                                               4     2      2     816
                                              0 COMRAM     4     2      2
 ---------------------------------------------------------------------------------
 (1) _sprintf                                             22    15      7   30982
                                             54 BANK0     20    13      7
                           _vfprintf
 ---------------------------------------------------------------------------------
 (2) _vfprintf                                             4     1      3   30304
                                             89 COMRAM     1     1      0
                                             51 BANK0      3     0      3
                          _vfpfcnvrt
 ---------------------------------------------------------------------------------
 (3) _vfpfcnvrt                                           12     9      3   29834
                                             84 COMRAM     5     2      3
                                             44 BANK0      7     7      0
                            ___awdiv
                            ___awmod
                                _abs
                             _efgtoa
                              _fputc
 ---------------------------------------------------------------------------------
 (4) _efgtoa                                              53    47      6   25858
                                             76 COMRAM     8     2      6
                                              0 BANK0     44    44      0
                            ___fladd
                            ___fldiv
                             ___fleq
                             ___flge
                            ___flmul
                            ___flneg
                            ___flsub
                            ___fltol
                      ___fpclassifyf
                             _floorf
                               _labs
                             _memcpy
                                _pad
                             _strcpy
 ---------------------------------------------------------------------------------
 (5) _strcpy                                               6     3      3     463
                                              0 COMRAM     6     3      3
 ---------------------------------------------------------------------------------
 (5) _pad                                                  8     3      5    3523
                                             16 COMRAM     8     3      5
                              _fputc
                              _fputs
 ---------------------------------------------------------------------------------
 (6) _fputs                                                6     3      3    1419
                                             10 COMRAM     6     3      3
                              _fputc
 ---------------------------------------------------------------------------------
 (4) _fputc                                                8     5      3    1099
                                              2 COMRAM     8     5      3
                              _putch
 ---------------------------------------------------------------------------------
 (5) _putch                                                1     1      0      62
                                              1 COMRAM     1     1      0
                      _EUSART2_Write
 ---------------------------------------------------------------------------------
 (6) _EUSART2_Write                                        1     1      0      31
                                              0 COMRAM     1     1      0
 ---------------------------------------------------------------------------------
 (5) _memcpy                                              11     5      6     478
                                              0 COMRAM    11     5      6
 ---------------------------------------------------------------------------------
 (5) _labs                                                 8     4      4     363
                                              0 COMRAM     8     4      4
 ---------------------------------------------------------------------------------
 (5) _floorf                                              20    16      4     669
                                             39 COMRAM    20    16      4
                            ___fldiv (ARG)
 ---------------------------------------------------------------------------------
 (5) ___fpclassifyf                                       14    10      4     375
                                              0 COMRAM    14    10      4
 ---------------------------------------------------------------------------------
 (5) ___fltol                                             10     6      4     607
                                              0 COMRAM    10     6      4
 ---------------------------------------------------------------------------------
 (5) ___flsub                                              8     0      8    4007
                                             64 COMRAM     8     0      8
                            ___fladd
                            ___flmul (ARG)
 ---------------------------------------------------------------------------------
 (6) ___fladd                                             16     8      8    3442
                                              0 COMRAM    16     8      8
 ---------------------------------------------------------------------------------
 (5) ___flneg                                              4     0      4     155
                                              0 COMRAM     4     0      4
 ---------------------------------------------------------------------------------
 (5) ___flmul                                             25    17      8    3593
                                             39 COMRAM    25    17      8
                            ___fldiv (ARG)
                           ___xxtofl (ARG)
 ---------------------------------------------------------------------------------
 (5) ___flge                                              12     4      8     986
                                             64 COMRAM    12     4      8
                            ___flmul (ARG)
 ---------------------------------------------------------------------------------
 (5) ___fleq                                              12     4      8     770
                                              0 COMRAM    12     4      8
 ---------------------------------------------------------------------------------
 (5) ___fldiv                                             25    17      8    2903
                                             14 COMRAM    25    17      8
                           ___xxtofl (ARG)
 ---------------------------------------------------------------------------------
 (4) _abs                                                  4     2      2     183
                                              6 COMRAM     4     2      2
                            ___awmod (ARG)
 ---------------------------------------------------------------------------------
 (4) ___awmod                                              6     2      4     613
                                              0 COMRAM     6     2      4
 ---------------------------------------------------------------------------------
 (4) ___awdiv                                              8     4      4     625
                                              0 COMRAM     8     4      4
 ---------------------------------------------------------------------------------
 (1) ___xxtofl                                            14    10      4     566
                                              0 COMRAM    14    10      4
 ---------------------------------------------------------------------------------
 (1) _TMR2_StartTimer                                      0     0      0       0
                         _TMR2_Start
 ---------------------------------------------------------------------------------
 (2) _TMR2_Start                                           0     0      0       0
 ---------------------------------------------------------------------------------
 (1) _SYSTEM_Initialize                                    0     0      0     363
                    _ADCC_Initialize
                 _EUSART2_Initialize
              _OSCILLATOR_Initialize
             _PIN_MANAGER_Initialize
                     _PMD_Initialize
                    _PWM4_Initialize
                    _TMR2_Initialize
 ---------------------------------------------------------------------------------
 (2) _TMR2_Initialize                                      0     0      0       0
 ---------------------------------------------------------------------------------
 (2) _PWM4_Initialize                                      0     0      0       0
 ---------------------------------------------------------------------------------
 (2) _PMD_Initialize                                       0     0      0       0
 ---------------------------------------------------------------------------------
 (2) _PIN_MANAGER_Initialize                               0     0      0       0
 ---------------------------------------------------------------------------------
 (2) _OSCILLATOR_Initialize                                0     0      0       0
 ---------------------------------------------------------------------------------
 (2) _EUSART2_Initialize                                   0     0      0     363
            _EUSART2_SetErrorHandler
     _EUSART2_SetFramingErrorHandler
     _EUSART2_SetOverrunErrorHandler
 ---------------------------------------------------------------------------------
 (3) _EUSART2_SetOverrunErrorHandler                       3     0      3     121
                                              0 COMRAM     3     0      3
 ---------------------------------------------------------------------------------
 (3) _EUSART2_SetFramingErrorHandler                       3     0      3     121
                                              0 COMRAM     3     0      3
 ---------------------------------------------------------------------------------
 (3) _EUSART2_SetErrorHandler                              3     0      3     121
                                              0 COMRAM     3     0      3
 ---------------------------------------------------------------------------------
 (2) _ADCC_Initialize                                      0     0      0       0
 ---------------------------------------------------------------------------------
 (1) _PWM4_LoadDutyValue                                   4     2      2     152
                                              0 COMRAM     4     2      2
 ---------------------------------------------------------------------------------
 (1) _ADCC_StartConversion                                 1     1      0      31
                                              0 COMRAM     1     1      0
 ---------------------------------------------------------------------------------
 (1) _ADCC_GetConversionResult                             4     2      2       0
                                              0 COMRAM     4     2      2
 ---------------------------------------------------------------------------------
 (1) _ADCC_DisableContinuousConversion                     0     0      0       0
 ---------------------------------------------------------------------------------
 Estimated maximum stack depth 6
 ---------------------------------------------------------------------------------

 Call Graph Graphs:

 _main (ROOT)
   _ADCC_DisableContinuousConversion
   _ADCC_GetConversionResult
   _ADCC_Initialize
   _ADCC_StartConversion
   _EUSART2_Write
   _PWM4_Initialize
   _PWM4_LoadDutyValue
   _SYSTEM_Initialize
     _ADCC_Initialize
     _EUSART2_Initialize
       _EUSART2_SetErrorHandler
       _EUSART2_SetFramingErrorHandler
       _EUSART2_SetOverrunErrorHandler
     _OSCILLATOR_Initialize
     _PIN_MANAGER_Initialize
     _PMD_Initialize
     _PWM4_Initialize
     _TMR2_Initialize
   _TMR2_StartTimer
     _TMR2_Start
   ___fldiv
     ___xxtofl (ARG)
   ___flmul
     ___fldiv (ARG)
     ___xxtofl (ARG)
   ___xxtofl
   _sprintf
     _vfprintf
       _vfpfcnvrt
         ___awdiv
         ___awmod
         _abs
           ___awmod (ARG)
         _efgtoa
           ___fladd
           ___fldiv
           ___fleq
           ___flge
             ___flmul (ARG)
           ___flmul
           ___flneg
           ___flsub
             ___fladd
             ___flmul (ARG)
           ___fltol
           ___fpclassifyf
           _floorf
             ___fldiv (ARG)
           _labs
           _memcpy
           _pad
             _fputc
               _putch
                 _EUSART2_Write
             _fputs
               _fputc
           _strcpy
         _fputc
   _strlen

 Address spaces:
Name               Size   Autos  Total    Cost      Usage
BIGRAM             CFF      0       0      55        0.0%
EEDATA             400      0       0       0        0.0%
BITBIGSFR          100      0       0      53        0.0%
BITBANK12          100      0       0      28        0.0%
BANK12             100      0       0      29        0.0%
BITBANK11          100      0       0      26        0.0%
BANK11             100      0       0      27        0.0%
BITBANK10          100      0       0      24        0.0%
BANK10             100      0       0      25        0.0%
BITBANK9           100      0       0      22        0.0%
BANK9              100      0       0      23        0.0%
BITBANK8           100      0       0      20        0.0%
BANK8              100      0       0      21        0.0%
BITBANK7           100      0       0      18        0.0%
BANK7              100      0       0      19        0.0%
BITBANK6           100      0       0      16        0.0%
BANK6              100      0       0      17        0.0%
BITBANK5           100      0       0      14        0.0%
BANK5              100      0       0      15        0.0%
BITBANK4           100      0       0      12        0.0%
BANK4              100      0       0      13        0.0%
BITBANK3           100      0       0      10        0.0%
BANK3              100      0       0      11        0.0%
BITBANK2           100      0       0       8        0.0%
BANK2              100      0       0       9        0.0%
BITBANK1           100      0       0       6        0.0%
BANK1              100     4A      BC       7       73.4%
BITBANK0            A0      0       0       4        0.0%
BANK0               A0     4A      5B       5       56.9%
BITBIGSFR_1llll     69      0       0      51        0.0%
BITCOMRAM           5F      0       0       0        0.0%
COMRAM              5F     5C      5C       1       96.8%
BITBIGSFR_1hhhh     40      0       0      32        0.0%
BITBIGSFR_1hl       2D      0       0      49        0.0%
BITBIGSFR_1hhll     27      0       0      37        0.0%
BITBANK14           1F      0       0      30        0.0%
BANK14              1F      0       0      31        0.0%
BIGRAM_1            1F      0       0      52        0.0%
BITBIGSFR_1hhll     13      0       0      36        0.0%
BITBIGSFR_1hhlh     13      0       0      35        0.0%
BITBIGSFR_1hhll      D      0       0      41        0.0%
BITBIGSFR_1hhhh      C      0       0      33        0.0%
BITBIGSFR_1llll      B      0       0      50        0.0%
BITBIGSFR_1hhhl      B      0       0      34        0.0%
BITBIGSFR_1hhll      9      0       0      42        0.0%
BITBIGSFR_1hhll      9      0       0      43        0.0%
BITBIGSFR_1hhll      9      0       0      48        0.0%
BITBIGSFR_1hhll      4      0       0      44        0.0%
BITBIGSFR_1hhll      3      0       0      40        0.0%
BITBIGSFR_1hhll      3      0       0      39        0.0%
BITBIGSFR_1hhll      3      0       0      38        0.0%
BITBIGSFR_1hhll      2      0       0      45        0.0%
BITBIGSFR_1hhll      1      0       0      46        0.0%
BITBIGSFR_1hhll      1      0       0      47        0.0%
BIGSFR_1             0      0       0     200        0.0%
BIGSFR               0      0       0     200        0.0%
BITSFR_3             0      0       0     200        0.0%
SFR_3                0      0       0     200        0.0%
BITSFR_2             0      0       0     200        0.0%
SFR_2                0      0       0     200        0.0%
BITSFR_1             0      0       0     200        0.0%
SFR_1                0      0       0     200        0.0%
BITSFR               0      0       0     200        0.0%
SFR                  0      0       0     200        0.0%
STACK                0      0       0       2        0.0%
NULL                 0      0       0       0        0.0%
ABS                  0      0     173      54        0.0%
DATA                 0      0     173       3        0.0%
CODE                 0      0       0       0        0.0%


Microchip Technology PIC18 Macro Assembler V2.45 build 20230818022343 
Symbol Table                                                                                   Thu Jan 25 12:58:10 2024

                                  ___fldiv@aexp 0027                                    ___fldiv@bexp 0026  
                                  ___fldiv@sign 001F                                              l43 37F2  
                                            l70 3A98                                              l91 3AEA  
                                            l67 3A84                                              l76 3B1E  
                                            l94 3B06                                              l88 3AF8  
                                  ___awdiv@sign 0006                                             l105 3AC6  
                                           l108 3A10                                             l320 3A4A  
                                           l332 3B24                                             l505 3B2A  
                                           l433 37A4                                             l329 3B2E  
                                           l442 3ADC                                             l290 3AB0  
                                           l436 3B14                                             l189 35EC  
                                           l293 3A66                                             l287 3A2E  
                                           l814 3084                                             l761 34B4  
                                           l748 334A                                             l782 3142  
                                           l791 3972                                             l776 355E  
                                           l787 3188                                             _PR2 0FBB  
        __end_of_EUSART2_SetFramingErrorHandler 3AFA                  _EUSART2_SetFramingErrorHandler 3AEC  
                                           _abs 39AA                                             _pad 35EE  
                                  ___awmod@sign 0006                                 _TMR2_Initialize 3A30  
                               _PWM4_Initialize 3AB2                                             wreg 0FE8  
                                   main@adc_val 0198                                    ___flmul@aexp 0035  
                                  ___flmul@bexp 003A                                    ___flmul@sign 0034  
                                  ___flmul@temp 003F                                    ___flmul@prod 003B  
                                  ___fltol@exp1 000A                                            l1101 23DA  
                                          l1110 2420                                            l1112 2498  
                                          l1104 239E                                            l1113 2486  
                                          l1131 1E7C                                            ?_abs 0007  
                                          l1140 20EA                                            l1141 20D8  
                                          l1045 1AE6                                            l1062 1C00  
                                          l1054 1DB6                                            l1046 1AD4  
                                          l1135 21E0                                            l1071 1CD0  
                                          l1047 1A9A                                            l1072 1CBE  
                                          l1224 3604                                            l1138 2072  
                                          l1242 1296                                            l1172 2E22  
                                          l1332 39C4                                            l1148 21A2  
                                          l1228 3652                                            l1244 10DC  
                                          l1341 2DCA                                            l1317 387C  
                                          l1175 2F7E                                            l1335 39DC  
                                          l1087 3838                                            l1327 3286  
                                          l1239 18F6                                            l1344 2D0E  
                                          l1272 16DE                                            l1361 3754  
                                          l1186 2F16                                            l1179 2EBA  
                                          l1099 257A                                            l1355 3704  
                                          l1195 38BC                                            l1373 3404  
                                          l1381 38FC                                            l1295 28C6  
                                          l5001 3906                                            l1393 39A8  
                                          l5011 2BBA                                            l5003 36B0  
                                          l1387 393A                                            l5101 3420  
                                          l5013 2BDA                                            l5005 36BE  
                                          l5111 3454                                            l5103 3424  
                                          l5031 2D82                                            l5023 2CC2  
                                          l5015 2C30                                            l5007 36D2  
                                          l5121 348E                                            l5113 345C  
                                          l5105 3432                                            l4401 1934  
                                          l5033 2DAA                                            l5025 2CFE  
                                          l5017 2C44                                            l5041 371A  
                                          l5201 1126                                            l5051 3288  
                                          l5115 346A                                            l5123 3494  
                                          l5107 343A                                            l4411 1964  
                                          l4403 1944                                            l5035 2DBA  
                                          l5019 2C52                                            l5027 2D32  
                                          l5043 3726                                            l5211 121C  
                                          l5203 1164                                            l5131 0F10  
                                          l5061 32B4                                            l5053 328C  
                                          l5125 34A4                                            l5117 3480  
                                          l5109 344C                                            l4501 1B36  
                                          l4421 198E                                            l4413 1976  
                                          l4405 1946                                            l5029 2D6E  
                                          l5045 372A                                            l5301 1712  
                                          l5221 12AE                                            l5213 1224  
                                          l5205 1196                                            l5141 0F5C  
                                          l5133 0F16                            _ADCC_StartConversion 3B08  
                                          l5071 32E2                                            l5063 32BC  
                                          l5055 329A                                            l5127 34AC  
                                          l5119 3488                                            l4511 1B64  
                                          l4503 1B44                                            l4423 199E  
                                          l4431 19C8                                            l4415 1978  
                                          l4407 194E                                            l5047 3736  
                                          l5039 3706                                            l5311 173A  
                                          l5303 1718                                            l5231 12E0  
                                          l5223 12BA                                            l5207 11D4  
                                          l5151 0F9A                                            l5143 0F66  
                                          l5135 0F26                                            l5081 331C  
                                          l5073 32EA                                            l5065 32C0  
                                          l5057 32A2                                            l4601 21E2  
                                          l4521 1BD0                                            l4513 1B6E  
                                          l4505 1B50                                            l4441 1A00  
                                          l4433 19D8                                            l4425 19AE  
                                          l4417 197E                                            l4409 195E  
                                          l5049 373A                                            l5321 176E  
                                          l5305 1720                                            l5313 1740  
                                          l5241 1328                                            l5233 12EE  
                                          l5225 12C2                                            l5209 11E8  
                                          l5217 1264                                            l5161 0FE2  
                                          l5153 0FA2                                            l5145 0F6E  
                                          l5137 0F34                                            l5401 270C  
                                          l5091 3342                                            l5083 331E  
                                          l5075 32F8                                            l5067 32C8  
                                          l5059 32A6                                            l4611 221E  
                                          l4603 21EE                                            l4523 1BE0  
                                          l4507 1B54                                            l4515 1B74  
                                          l4451 1A14                                            l4443 1A04  
                                          l4435 19EA                                            l4427 19BE  
                                          l4419 198C                                            l4371 3A84  
                                          l5331 1824                                            l5323 17C6  
                                          l5315 1752                                            l5307 1730  
                                          l5251 143C                                            l5243 1338  
                                          l5235 1306                                            l5227 12CA  
                                          l5219 129E                                            l5163 0FE8  
                                          l5147 0F7E                                            l5155 0FA6  
                                          l5139 0F38                                            l5411 2750  
                                          l5403 2722                                            l5501 3A4C  
                                          l5085 3324                                            l5077 32FE  
                                          l5069 32DA                                            l4701 2450  
                                          l4621 224E                                            l4613 222E  
                                          l4605 21FC                                            l4541 1C62  
                                          l4533 1C3A                                            l4517 1B9A  
                                          l4525 1BF0                                            l4509 1B62  
                                          l4461 1A28                                            l4453 1A18  
                                          l4445 1A08                                            l4437 19F8  
                                          l4429 19C0                                            l4373 3A94  
                                          l4381 336C                                            l5341 1894  
                                          l5333 1840                                            l5325 17FA  
                                          l5317 1764                                            l5309 1734  
                                          l5261 14DC                                            l5245 134C  
                                          l5253 1442                                            l5237 1318  
                                          l5229 12CE                                            l5181 106C  
                                          l5165 0FF0                                            l5157 0FCC  
                                          l5173 102A                                            l5149 0F8E  
                                          l5421 27D6                                            l5405 272C  
                                          ?_pad 0011                                            l5503 3A9A  
                                          l5511 3B2C                                            l5079 3314  
                                          l5087 332A                                            l5095 3406  
                                          l4711 24C2                                            l4703 247E  
                                          l4631 2284                                            l4623 2254  
                                          l4615 2230                                            l4607 21FE  
                                          l4543 1C6A                                            l4535 1C44  
                                          l4527 1C16                                            l4519 1BCE  
                                          l4551 1C8E                                            l4471 1A3C  
                                          l4463 1A2C                                            l4455 1A1C  
                                          l4447 1A0C                                            l4439 19FC  
                                          l4391 18F8                                            l4375 3B18  
                                          l4383 3376                                            l5343 18AC  
                                          l5335 1848                                            l5327 1802  
                                          l5319 1768                                            l5271 15B8  
                                          l5263 150E                                            l5255 1460  
                                          l5247 13B0                                            l5239 1320  
                                          l5183 1074                                            l5175 1050  
                                          l5191 108C                                            l5167 1004  
                                          l5159 0FDE                                            l5407 2742  
                                          l5415 2758                                            l5361 3AFA  
                                          l5505 3A30                                            l5601 2F4E  
                                          l5089 333A                                            l5097 340A  
                                          l5353 39AA                                            l4721 253A  
                                          l4713 24EC                                            l4641 22C4  
                                          l4633 2294                                            l4625 2262  
                                          l4609 220E                                            l4617 2238  
                                          l4801 1F4E                                            l4561 1CE0  
                                          l4553 1C92                                            l4545 1C6E  
                                          l4537 1C52                                            l4529 1C26  
                                          l4481 1AB4                                            l4473 1A66  
                                          l4465 1A30                                            l4457 1A20  
                                          l4449 1A10                                            l4393 1904  
                                          l4385 3392                                            l4377 334C  
                                          l5345 18BC                                            l5337 1856  
                                          l5329 1806                                            l5281 161A  
                                          l5273 15BE                                            l5265 151E  
                                          l5257 1494                                            l5249 1408  
                                          l5193 10A6                                            l5177 1062  
                                          l5169 100E                                            l5425 27FE  
                                          l5409 2748                                            l5417 278A  
                                          l5441 28A0                                            l5513 383A  
                                          l5531 3B26                                            l5523 39DE  
                                          l5507 3A3C                                            l5603 2F5E  
                                          l5099 3418                                            l5355 39B8  
                                          l4731 2570                                            l4723 2556  
                                          l4707 24A8                                            l4715 24F0  
                                          l4643 22D4                                            l4651 22F4  
                                          l4635 2296                                            l4627 2264  
                                          l4619 2248                                            l4811 1FB0  
                                          l4803 1F5E                                            l4571 1D46  
                                          l4563 1CEC                                            l4555 1CA0  
                                          l4547 1C7E                                            l4539 1C54  
                                          l4491 1AF4                                            l4483 1AB8  
                                          l4475 1A82                                            l4467 1A34  
                                          l4459 1A24                                            l4395 1912  
                                          l4387 33C4                                            l4379 335C  
                                          l5347 18D2                                            l5339 1886  
                                          l5291 16B4                                            l5283 1622  
                                          l5275 15F2                                            l5267 152E  
                                          l5259 14C6                                            l5179 1066  
                                          l5435 2864                                            l5427 2828  
                                          l5419 27AE                                            l5371 25BC  
                                          l5363 257C                                            l5515 3842  
                                          l5533 3B0A                                            l5357 3AEC  
                                          l5509 3A42                                            l5525 3A12  
                                          l5605 2F6C                                            l4725 255A  
                                          l4717 250A                                            l4709 24B4  
                                          l4661 2332                                            l4653 2304  
                                          l4645 22DC                                            l4629 2274  
                                          l4637 229E                                            l4901 3110  
                                          l4821 2058                                            l4813 1FCC  
                                          l4805 1F78                                            l4741 1DC4  
                                          l4581 1D8E                                            l4573 1D56  
                                          l4565 1CFA                                            l4557 1CB6  
                                          l4549 1C80                                            l4493 1B04  
                                          l4485 1AC6                                            l4477 1A92  
                                          l4469 1A38                                            l4397 1914  
                                          l5349 18DA                                            l5293 16D4  
                                          l5285 1628                                            l5277 1606  
                                          l5269 1562                                            l5197 10EC  
                                          l5429 2836                                            l5437 2894  
                                          l5381 2628                                            l5373 25C6  
                                          l5365 25A2                                            l5517 3852  
                                          l5535 3B0E                                            l5359 3ADE  
                                          l5471 37DC                                            l5527 3A2A  
                                          l5607 2F6E                                            l4727 2568  
                                          l4719 2520                                            l4671 237A  
                                          l4663 2342                                            l4655 2304  
                                          l4647 22E0                                            l4639 22AE  
                                          l4903 3122                                            l4831 2094  
                                          l4823 2062                                            l4815 1FF6  
                                          l4807 1F88                                            l4751 1E04  
                                          l4743 1DD2                                            l4583 1D90  
                                          l4575 1D76                                            l4567 1D34  
                                          l4487 1AC8                                            l4479 1AA8  
                                          l4399 1924                                            l5295 16F0  
                                          l5287 1630                                            l5279 160A  
                                          l5199 10F2                                            l5391 26B4  
                                          l5383 2640                                            l5375 25E6  
                                          l5367 25AA                                            l5519 3872  
                                          l5551 38AC                                            l5543 387E  
                                          l5537 3B12                                            l5473 37EC  
                                          l5465 37A6                                            l5481 358C  
                                          l5529 3B20                                            l4729 256E  
                                          l4681 23C8                                            l4673 238E  
                                          l4665 2352                                            l4905 3130  
                                          l4841 2106                                            l4833 20A2  
                                          l4825 2070                                            l4817 202C  
                                          l4809 1FA4                                            l4761 1E34  
                                          l4753 1E0A                                            l4745 1DD4  
                                          l4913 393C                                            l4585 1D96  
                                          l4577 1D7A                                            l4569 1D36  
                                          l4497 1B18                                            l4489 1AD2  
                                          l4921 2F80                                            l4593 38BE  
                                          l5297 16FE                                            l5289 163C  
                                          l5393 26C4                                            l5385 2674  
                                          l5377 2606                                            l5369 25B8  
                                          l5545 388C                                            l5801 28DC  
                                          l5539 3AC8                                            l5467 37BC  
                                          l5491 35CE                                            l5483 35C2  
                                          l5475 3AB2                                            l5571 2E32  
                                          l4691 2410                                            l4683 23D8  
                                          l4675 239C                                            l4667 2362  
                                          l4659 2318                                            l4907 3180  
                                          l4851 2170                                            l4843 2114  
                                          l4835 20D0                                            l4827 2082  
                                          l4819 203A                                            l4771 1E6C  
                                          l4763 1E36                                            l4755 1E1A  
                                          l4747 1DE4                                            l4739 1DB8  
                                          l4915 3952                                            l4587 1DA4  
                                          l4579 1D88                                            l4499 1B28  
                                          l4931 2FD6                                            l4923 2F96  
                                          l4595 38CA                                            l5299 170E  
                                          l5395 26D4                                            l5387 2690  
                                          l5379 261E                                            l5547 3894  
                                          l5811 2924                                            l5803 28EE  
                                          l5469 37CC                                            l5493 35D0  
                                          l5485 35C4                                            l5477 3560  
                                          l5581 2E70                                            l5573 2E48  
                                          l5565 2DCE                                            l4693 241E  
                                          l4685 23EA                                            l4677 23A8  
                                          l4669 236A                                            l4909 3186  
                                          l4861 21C6                                            l4853 218A  
                                          l4845 213E                                            l4829 2090  
                                          l4781 1EBC                                            l4773 1E8C  
                                          l4765 1E46                                            l4757 1E20  
                                          l4749 1DF4                                            l4917 3962  
                                          l4589 1DA6                                            l4933 2FE6  
                                          l4597 38D8                                            l5397 26EA  
                                          l5389 26A4                                            l5549 389C  
                                          l5821 29F4                                            l5813 2930  
                                          l5805 28FA                                            l5495 35D2  
                                          l5487 35C6                                            l5479 3580  
                                          l5591 2EF8                                            l5583 2EA2  
                                          l5567 2DDE                                            l4687 2400  
                                          l4695 2430                                            l4679 23C6  
                                          l4855 21A6                                            l4863 21CC  
                                          l4839 20FA                                            l4847 2142  
                                          l4791 1F0C                                            l4783 1EC6  
                                          l4775 1E9C                                            l4767 1E56  
                                          l4759 1E26                                            l4871 3804  
                                          l4943 3010                                            l4935 2FEA  
                                          l4927 2FAA                                            l4599 38DC  
                                          l5399 2708                                            l5831 2A4A  
                                          l5823 2A00                                            l5815 294A  
                                          l5807 290C                                            l5497 35D4  
                                          l5489 35C8                                            l5593 2F06  
                                          l5585 2EA4                                            l5577 2E5C  
                                          l5569 2DEC                                            l4697 243E  
                                          l4689 2406                                            l4881 3522  
                                          l4865 21D0                                            l4857 21B6  
                                          l4849 215C                                            l4793 1F18  
                                          l4785 1EDC                                            l4769 1E66  
                                          l4961 3074                                            l4953 3038  
                                          l4945 301A                                            l4937 2FF8  
                                          l4929 2FD4                                            l5841 2A9A  
                                          l5833 2A52                                            l5825 2A0A  
                                          l5817 29B4                                            l5809 291E  
                                          l5499 3756                                            l5595 2F24  
                                          l5587 2EB0                                            l5579 2E64  
                                          l4699 2442                                            l4883 3532  
                                          l4875 34B6                                            l4891 3086  
                                          l4859 21C4                                            l4795 1F26  
                                          l4787 1EE8                                            l4779 1EB0  
                                          l4955 3044                                            l4947 3024  
                                          l4971 3620                                            l5851 2AF4  
                                          l5843 2AAC                                            l5835 2A64  
                                          l5827 2A1C                                            l5819 29D6  
                                          l5597 2F26                                            l5589 2EEC  
                                          l4885 3556                                            l4877 34E4  
                                          l4893 30B4                                            l4797 1F32  
                                          l4789 1F00                                            l4869 37F4  
                                          l4957 3054                                            l4981 31E8  
                                          l4973 3624                                            l4965 35EE  
                                          l5781 3974                                            l5861 2B40  
                                          l5853 2AF8                                            l5845 2AB0  
                                          l5837 2A68                                            l5829 2A20  
                                          l5599 2F2A                                            l4887 355C  
                                          l4879 34F4                                            l4895 30C4  
                                          l4799 1F42                                            l4959 3064  
                                          l4991 323A                                            l4983 3210  
                                          l4975 3642                                            l4967 35FC  
                                          l5783 3980                                            l5863 2B6A  
                                          l5855 2B22                                            l5847 2ADA  
                                          l5839 2A92                                            l5791 28C8  
                                          l4897 30F2                                            l4985 321C  
                                          l4977 318A                                            l4969 3610  
                                          l5961 276C                                            l5785 3984  
                                          l5865 2B72                                            l5857 2B2A  
                                          l5849 2AE2                                            l5793 28CC  
                                          l4899 3102                                            l4995 327E  
                                          l4979 31AA                                            l5963 2812  
                                          l5787 399C                                            l5867 2B84  
                                          l5859 2B3C                                            l5795 28D0  
                                          l4989 3228                                            l5965 2886  
                                          l5869 2B88                                            l5797 28D4  
                                          l4999 38FE                                            l5799 28D8  
                                          STR_1 0F09                                            STR_2 0F0C  
                                          STR_3 0F01                                            STR_6 0F05  
                                          _LATA 0F82                                            _LATB 0F83  
                                          _LATC 0F84                                            _LATD 0F85  
                                          _LATE 0F86                                            u5000 20FA  
                                          u4200 336C                                            u5001 20F6  
                                          u4201 3368                                            u5010 2114  
                                          u4210 3392                                            _T2PR 0FBB  
                                          u5011 2110                                            u4211 338E  
                                          u5100 3110                                            u5020 215C  
                                          u4300 19EA                                            u4220 33C4  
                                          u5101 310C                                            u5021 2158  
                                          u4301 19E6                                            u4221 33C0  
                                          u5110 3130                                            u5030 218A  
                                          u4310 19F8                                            u4230 1912  
                                          u5111 312C                                            u5031 2186  
                                          u4311 19F4                                            u4231 190E  
                                          u5120 3180                                            u5040 21C4  
                                          u4400 1B36                                            u4320 1A66  
                                          u4240 1924                                            u5200 3064  
                                          u5121 317C                                            u5041 21C0  
                                          u4401 1B32                                            u4321 1A62  
                                          u4241 1920                                            u5201 3060  
                                          u5050 34E4                                            u5130 3952  
                                          u4410 1B44                                            u4330 1A7E  
                                          u4250 1934                                            u5210 35FC  
                                          u5051 34E0                                            u5131 394E  
                                          u4411 1B40                                            u4331 1A78  
                                          u4251 1930                                            u5211 35F8  
                                          u6100 2F5E                                            u6020 2DDE  
                                          u5060 3522                                            u4500 1C8E  
                                          u4420 1B62                                            u4340 1A80  
                                          u4260 1976                                            u5140 2F96  
                                          u4180 3A94                                            u5220 3642  
                                          u5300 393A                                            u6005 3A02  
                                          u6101 2F5A                                            u6021 2DDA  
                                          u5061 351E                                            u4501 1C8A  
                                          u4421 1B5E                                            u4261 1972  
                                          u5141 2F92                                            u4181 3A90  
                                          u5221 363E                                            u5301 3936  
                                          u6110 2F6C                                            u6030 2DEC  
                                          u5070 3556                                            u4510 1CA0  
                                          u4430 1B9A                                            u4350 1AA8  
                                          u4270 198C                                            u5150 2FCA  
                                          u5230 31CA                                            u5310 36BE  
                                          u4190 335C                                            u6111 2F68  
                                          u6031 2DE8                                            u5071 3552  
                                          u4511 1C9C                                            u4431 1B96  
                                          u4351 1AA4                                            u4271 1988  
                                          u5311 36BA                                            u4191 3358  
                                          u6040 2E48                                            u5080 30B4  
                                          u4600 1D88                                            u4520 1CB6  
                                          u4440 1BE0                                            u4360 1AC6  
                                          u4280 199E                                            u5160 2FF8  
                                          u5240 31E8                                            u5400 2D6E  
                                          u5320 2C02                                            u6041 2E44  
                                          u5081 30B0                                            u4601 1D84  
                                          u4521 1CB2                                            u4441 1BDC  
                                          u4361 1AC2                                            u4281 199A  
                                          u5161 2FF4                                            u5241 31E4  
                                          u5401 2D6A                                            u6050 2E9E  
                                          u5090 30F2                                            u4610 1DA4  
                                          u4530 1CCC                                            u4450 1C16  
                                          u4370 1AE6                                            u4290 19AE  
                                          u5170 300C                                            u5250 3210  
                                          u5410 2DAA                                            u5330 2C30  
                                          u6051 2E9A                                            u5091 30EE  
                                          u4611 1DA0                                            u4531 1CC8  
                                          u4451 1C12                                            u4371 1AE2  
                                          u4291 19AA                                            u5171 3008  
                                          u5155 2FC0                                            u5251 320C  
                                          u5235 31C0                                            u5411 2DA6  
                                          u5331 2C2C                                            u6060 2EE8  
                                          u5500 3432                                            u4700 2304  
                                          u4540 1CE0                                            u4460 1C26  
                                          u4380 1AF4                                            u5180 3034  
                                          u5260 323A                                            u5340 2C52  
                                          u5420 3754                                            u4620 38FC  
                                          u6220 399C                                            u6300 2B22  
                                          _PMD0 0EDC                                            u6061 2EE4  
                                          u5501 342E                                            u4701 2300  
                                          u4541 1CDC                                            u4461 1C22  
                                          u4381 1AF0                                            u5181 3030  
                                          u5261 3236                                            u5341 2C4E  
                                          u5325 2BF8                                            u5421 3750  
                                          u4621 38F8                                            u6221 3998  
                                          u6301 2B1E                                            _PMD1 0EDD  
                                          u6070 2F06                                            u5430 329A  
                                          u5510 344C                                            u4710 237A  
                                          u4630 21FC                                            u4550 1CFA  
                                          u4470 1C52                                            u4390 1B04  
                                          u5190 3054                                            u6310 2B6A  
                                          _PMD2 0EDE                                            u6071 2F02  
                                          u5431 3296                                            u5511 3448  
                                          u4711 2376                                            u4631 21F8  
                                          u4551 1CF6                                            u4471 1C4E  
                                          u4391 1B00                                            u5191 3050  
                                          u6311 2B66                                            u6231 28E6  
                                          _PMD3 0EDF                                            u6080 2F16  
                                          u5440 32B4                                            u5520 346A  
                                          u4800 2494                                            u4720 239C  
                                          u4640 220E                                            u4560 1D34  
                                          u4480 1C62                                            u5280 3274  
                                          u5360 2CBE                                            u5600 1050  
                                          u6320 2BB2                                            _PMD4 0EE0  
                                          u6081 2F12                                            u5441 32B0  
                                          u5521 3466                                            u4801 2490  
                                          u4721 2398                                            u4641 220A  
                                          u4561 1D30                                            u4481 1C5E  
                                          u5281 326E                                            u5361 2CBA  
                                          u5601 104C                                            u6321 2BAE  
                                          u6241 2904                                            _PMD5 0EE1  
                                          u6090 2F24                                            u5450 32DA  
                                          u5530 3480                                            u4810 24A8  
                                          u4730 23C6                                            u4650 221E  
                                          u4570 1D46                                            u4490 1C7E  
                                          u5290 3276                                            u5370 2CE2  
                                          u5610 1062                                            u6091 2F20  
                                          u5451 32D6                                            u5531 347C  
                                          u4811 24A4                                            u4731 23C2  
                                          u4651 221A                                            u4571 1D42  
                                          u4491 1C7A                                            u5275 324C  
                                          u5355 2C66                                            u5611 105E  
                                          u6251 2916                                            u5460 32F8  
                                          u5540 34A4                                            u4820 24C2  
                                          u4740 23EA                                            u4660 2262  
                                          u4900 1E46                                            u4580 1D56  
                                          u5380 2CFE                                            u5356 2C70  
                                          u5700 12EE                                            u5620 10D8  
                                          u5461 32F4                                            u5541 34A0  
                                          u4821 24BE                                            u4741 23E6  
                                          u4661 225E                                            u4901 1E42  
                                          u4581 1D52                                            u5381 2CFA  
                                          u5357 2C80                                            u5701 12EA  
                                          u5621 10D4                                            u5470 3314  
                                          u4830 250A                                            u4750 2400  
                                          u4670 2274                                            u4910 1E56  
                                          u4590 1D76                                            u5390 2D52  
                                          u5710 1318                                            u5630 1164  
                                          u5550 0F34                                            u6270 2A4A  
                                          u5471 3310                                            u4831 2506  
                                          u4751 23FC                                            u4671 2270  
                                          u4911 1E52                                            u4591 1D72  
                                          u5375 2CD8                                            u5711 1314  
                                          u5631 1160                                            u5551 0F30  
                                          u6271 2A46                                            u5480 333A  
                                          u4840 253A                                            u4760 241E  
                                          u4680 2284                                            u4920 1E8C  
                                          u5800 16FE                                            u5720 1460  
                                          u5640 1196                                            u5560 0F7E  
                                          u6280 2A92                                            u5481 3336  
                                          u4841 2536                                            u4761 241A  
                                          u4681 2280                                            u4921 1E88  
                                          u5801 16FA                                            u5721 145C  
                                          u5641 1192                                            u5561 0F7A  
                                          u6281 2A8E                                            u6265 29E0  
                                          u5490 3418                                            u4850 2568  
                                          u4770 243E                                            u4690 22C4  
                                          u4930 1E9C                                            u5810 1752  
                                          u5730 14C6                                            u5650 11D4  
                                          u5570 0F8E                                            u6290 2ADA  
                                          u5491 3414                                            u4851 2564  
                                          u4771 243A                                            u4691 22C0  
                                          u4931 1E98                                            u5395 2D48  
                                          u5811 174E                                            u5731 14C2  
                                          u5651 11D0                                            u5571 0F8A  
                                          u6291 2AD6                                            u4780 2450  
                                          u4940 2016                                            u4860 1DD2  
                                          u5820 1824                                            u5740 150E  
                                          u5660 1260                                            u5580 0FCC  
                                          u5900 2606                                            u4781 244C  
                                          u4861 1DCE                                            u5821 1820  
                                          u5741 150A                                            u5661 125C  
                                          u5581 0FC8                                            u5901 2602  
                                          u4790 247E                                            u4950 2070  
                                          u4870 1DE4                                            u5830 1840  
                                          u5750 151E                                            u5670 1296  
                                          u5590 0FDE                                            u5910 263C  
                                          u4791 247A                                            u4951 206C  
                                          u4871 1DE0                                            u5831 183C  
                                          u5751 151A                                            u5671 1292  
                                          u5591 0FDA                                            u5911 2636  
                                          u4960 2090                                            u4880 1DF4  
                                          u5840 18A6                                            u5760 15B8  
                                          u5680 12AE                                            u5920 263E  
                                          u4961 208C                                            u4945 200C  
                                          u4881 1DF0                                            u5841 18A0  
                                          u5761 15B4                                            u5681 12AA  
                                          u4970 20A2                                            u4890 1E34  
                                          u5850 18A8                                            u5770 1606  
                                          u5690 12E0                                            u5930 26A4  
                                          u4971 209E                                            u4891 1E30  
                                          u5771 1602                                            u5691 12DC  
                                          u5931 26A0                                            u4980 20D0  
                                          u5860 18BC                                            u5780 16B4  
                                          u5940 26B4                                            u4981 20CC  
                                          u5861 18B8                                            u5781 16B0  
                                          u5941 26B0                                            u5870 39B8  
                                          u4990 20E6                                            u5790 16F0  
                                          u5950 26C4                                            u5871 39B4  
                                          u4991 20E2                                            u5791 16EC  
                                          u5951 26C0                                            u5960 26D4  
                                          u5880 25A2                                            u5961 26D0  
                                          u5881 259E                                            u5970 271E  
                                          u5890 25E6                                            u5971 271A  
                                          u5891 25E2                                            u5980 27AA  
                                          u5981 27A6                                            u5990 3872  
                                          u5991 386E                                            _TMR2 0FBA  
                                          _WPUA 0F0B                                            _WPUB 0F13  
                                          _WPUC 0F1B                                            _WPUD 0F20  
                                          _WPUE 0F28                                   _EUSART2_Write 3A82  
                                          abs@a 0007                                            _dbuf 0100  
                                          _labs 36B0                                            _main 28C8  
                                          _prec 00B4                                            pad@i 0017  
                                          pad@p 0014                                            fsr1h 0FE2  
                                          fsr2h 0FDA                                            indf2 0FDF  
                                          fsr1l 0FE1                                            fsr2l 0FD9  
                                 ___fpclassifyf 318A                                            prodh 0FF4  
                                          prodl 0FF3                                            start 0000  
                               ___fldiv@new_exp 0020                                    main@adc_volt 018C  
                                  ___param_bank 0000                                           ??_abs 0009  
                                         ??_pad 0016                   __end_of_OSCILLATOR_Initialize 3AB2  
                                 ___fltol@sign1 0009                                           ?_labs 0001  
                                         _ADACQ 0F57                                           _ADCAP 0F58  
                                         _ADACT 0F51                                 __end_of___fladd 1DB8  
                                         ?_main 0001                                           _ADCLK 0F52  
                                         _ADCNT 0F62                                           _ADPCH 0F5A  
                               __end_of___fldiv 257C                                           _ADREF 0F53  
                               __end_of___awdiv 334C                                 __end_of___flneg 3974  
                                         _ADPRE 0F59                                 __end_of___awmod 34B6  
                                         _ADRPT 0F61                                 __end_of___flmul 21E2  
                               __end_of___flsub 383A                                 __end_of___fltol 3086  
                               ___awdiv@divisor 0003                                           _T2CON 0FBC  
                                         _T2HLT 0FBD                                           _T2TMR 0FBA  
                                         _T2RST 0FBF                                 ___awdiv@counter 0005  
                                         _OSCEN 0ED7                                    vfpfcnvrt@fmt 0056  
                            _PWM4_LoadDutyValue 39DE                                           _TRISA 0F87  
                                         _TRISB 0F88                                           _TRISC 0F89  
                                         _TRISD 0F8A                                           _TRISE 0F8B  
                                         _flags 00B6                                     ?_TMR2_Start 0001  
                         ?_ADCC_StartConversion 0001                                           _fputc 334C  
                                         _fputs 38BE                             ?_PWM4_LoadDutyValue 0001  
                                         labs@a 0001                                           pad@fp 0011  
                                         _width 00B2                                           _putch 3B16  
                                         main@i 0192                                  ?_EUSART2_Write 0001  
                                         tablat 0FF5                                           plusw1 0FE3  
                                         plusw2 0FDB                                           status 0FD8  
                               __end_of_sprintf 38BE                                  ?___fpclassifyf 0001  
                               _TMR2_StartTimer 3B20                                 __initialization 3654  
                                  __end_of_labs 3706                                    __end_of_main 2BBA  
                          ??_PWM4_LoadDutyValue 0003                         __end_of_PWM4_Initialize 3AC8  
                       __end_of_TMR2_Initialize 3A4C                                          ??_labs 0005  
                                        ??_main 005B                                   __activetblptr 0003  
                   _EUSART2_DefaultErrorHandler 0000                                          _ADACCH 0F6C  
                                        _ADACCL 0F6B                      __end_of_EUSART2_Initialize 37F4  
                                        _ADCON0 0F5B                                          _ADCON1 0F54  
                                        _ADCON2 0F55                                          _ADCON3 0F56  
                                        _ADERRH 0F6A                                          _ADERRL 0F69  
                                        ?_fputc 0003                                          _ADLTHH 0F66  
                                        _ADLTHL 0F65                                          ?_fputs 000B  
                                        _ADRESH 0F5F                                          _ADRESL 0F5E  
                                        _ADSTAT 0F60                                          _ADUTHH 0F68  
                              ___awdiv@dividend 0001                                          _ADUTHL 0F67  
                                        _ANSELA 0F0C                                          ?_putch 0001  
                                        _ANSELB 0F14                                          _ANSELC 0F1C  
                                        _ANSELD 0F21                                          _ANSELE 0F29  
                                        _RC2REG 0E94                                          _RA4PPS 0EE6  
                                        _RD0PPS 0EFA                                          _RC2STA 0E98  
                                        _RB6PPS 0EF0                                          _ODCONA 0F0A  
                                        _ODCONB 0F12                                          _ODCONC 0F1A  
                                        _ODCOND 0F1F                                          _ODCONE 0F27  
                                        _INLVLA 0F08                                          _INLVLB 0F10  
                                        _INLVLC 0F18                                          _INLVLD 0F1D  
                                        _INLVLE 0F25                                          _OSCFRQ 0ED9  
                                 vfpfcnvrt@done 008C                                          _RX2PPS 0E88  
                                        _TX2REG 0E95                                          _TX2STA 0E99  
                              __end_of___xxtofl 2F80                      ??_ADCC_GetConversionResult 0003  
                                  vfprintf@cfmt 005A                                          ___flge 3086  
                                        ___fleq 34B6                                       ??___fladd 0009  
                                     ??___fldiv 0017                                       ??___awdiv 0005  
                                     ??___flneg 0005                                       ??___awmod 0005  
                                     ??___flmul 0030                                       ??___flsub 0049  
                                     ??___fltol 0005                                          _efgtoa 0F10  
                                        _floorf 2BBA                                          _memcpy 3706  
                                        clear_0 3698                                          clear_1 36A4  
                              ___awdiv@quotient 0007                                 ___awmod@divisor 0003  
                                        isa$std 0001                     _EUSART2_FramingErrorHandler 01B9  
                               ___awmod@counter 0005                                          pad@buf 0012  
                                        _strcpy 38FE                                          _strlen 3974  
                               _ADCC_Initialize 3756                                          fputc@c 0003  
                                _PMD_Initialize 3A4C                                          fputs@c 000E  
                                        fputs@i 000F                                          fputs@s 000B  
                               ___fpclassifyf@e 0009                                 ___fpclassifyf@u 000B  
                               ___fpclassifyf@x 0001                                    __mediumconst 0000  
                                        tblptrh 0FF7                                          tblptrl 0FF6  
                                        tblptru 0FF8                          ??_ADCC_StartConversion 0001  
                              __end_of_vfprintf 387E                         __end_of_TMR2_StartTimer 3B26  
                               ??_EUSART2_Write 0001                                       ??_sprintf 005B  
                                    ___flge@ff1 0041                                      ___flge@ff2 0045  
                               ??___fpclassifyf 0005                                    ___xxtofl@arg 000B  
                                  ___xxtofl@exp 000A                               _SYSTEM_Initialize 3A12  
                                  ___xxtofl@val 0001                                      ___fleq@ff1 0001  
                                    ___fleq@ff2 0005                                      __accesstop 0060  
                       __end_of__initialization 36AA                                      ___flneg@f1 0001  
                            ?_SYSTEM_Initialize 0001                                   ___rparam_used 0001  
                                    ___fltol@f1 0001                                  __pcstackCOMRAM 0001  
                                  __pidataBANK0 3B30                                    __pidataBANK1 3A68  
                           ??_SYSTEM_Initialize 0004                                   __end_of_fputc 3406  
                                 __end_of_fputs 38FE                                   __end_of_putch 3B20  
                              ?_PWM4_Initialize 0001                                ?_TMR2_Initialize 0001  
                        __end_of_PMD_Initialize 3A68                     PWM4_LoadDutyValue@dutyValue 0001  
                      ?_EUSART2_SetErrorHandler 0001                     ADCC_StartConversion@channel 0001  
                                       ??_fputc 0006                       __end_of_SYSTEM_Initialize 3A30  
                                       ??_fputs 000E                                         ??_putch 0002  
                                    __pbssBANK0 00AA                                      __pbssBANK1 0100  
              ??_EUSART2_SetFramingErrorHandler 0004                 ?_EUSART2_SetFramingErrorHandler 0001  
                         main@adc_val_start_msg 017E                                         ?___flge 0041  
                                       ?___fleq 0001                         __end_of_ADCC_Initialize 37A6  
                                       ?_efgtoa 004D                                         _ADFLTRH 0F6E  
                                       ?_floorf 0028                                         _ADFLTRL 0F6D  
                                       ?_memcpy 0001                                         _ADPREVH 0F5D  
                                       _ADPREVL 0F5C                                         _ADSTPTH 0F64  
                                       _ADSTPTL 0F63                                 ?_PMD_Initialize 0001  
                                       ?_strcpy 0001                                         ?_strlen 0001  
                                     ?___xxtofl 0001                                         _SP2BRGH 0E97  
                                       _SP2BRGL 0E96                                         _OSCCON1 0ED3  
                                       _OSCCON3 0ED5                                         _OSCTUNE 0ED8  
                                       _PWM4DCH 0FA0                                         _PWM4DCL 0F9F  
                                       _PWM4CON 0FA1                                         _SLRCONA 0F09  
                                       _SLRCONB 0F11                                         _SLRCONC 0F19  
                                       _SLRCOND 0F1E                                         _SLRCONE 0F26  
                                  ??_TMR2_Start 0001                                ?_TMR2_StartTimer 0001  
                                       __Hparam 0000                                         __Lparam 0000  
                                       ___fladd 18F8                                         ___fldiv 21E2  
                                       ___awdiv 3288                                         ___flneg 393C  
                                       ___awmod 3406                                         ___flmul 1DB8  
                                       ___flsub 37F4                                         ___fltol 2F80  
                                     ?_vfprintf 0093                                    __psmallconst 0F00  
                            __end_of_TMR2_Start 3B30                                         __pcinit 3654  
               __end_of_EUSART2_SetErrorHandler 3B08                                         __ramtop 0F00  
                                       __ptext0 28C8                                         __ptext1 3974  
                                       __ptext2 387E                                         __ptext3 383A  
                                       __ptext4 257C                                         __ptext5 0F10  
                                       __ptext6 38FE                                         __ptext7 35EE  
                                       __ptext8 38BE                                         __ptext9 334C  
            _EUSART2_DefaultOverrunErrorHandler 0000                           _OSCILLATOR_Initialize 3A9A  
                                     _T2CONbits 0FBC                                      ??___xxtofl 0005  
                              ___awmod@dividend 0001                        ??_PIN_MANAGER_Initialize 0001  
                                     _T2HLTbits 0FBD                                         efgtoa@c 0052  
                                       efgtoa@d 006B                                         efgtoa@e 006F  
                                       efgtoa@f 004E                                         efgtoa@g 0082  
                                       efgtoa@h 0079                                         efgtoa@i 0077  
                                       efgtoa@l 007D                                         efgtoa@m 006D  
                                       efgtoa@n 0086                                         efgtoa@p 0062  
                                       efgtoa@t 0064                                         efgtoa@u 0088  
                                       efgtoa@w 0071                                         _sprintf 387E  
                          end_of_initialization 36AA                                         floorf@e 0036  
                                     _T2RSTbits 0FBF                                         floorf@m 0032  
                                       floorf@u 0038                                         floorf@x 0028  
                                       memcpy@d 0008                                         memcpy@n 0005  
                                       memcpy@s 000A                                         fputc@fp 0005  
                                       fputs@fp 000D                              _EUSART2_Initialize 37A6  
                             __end_of_vfpfcnvrt 28C8                                      efgtoa@mode 0069  
                                    efgtoa@sign 0081                                         postdec1 0FE5  
                                       postdec2 0FDD                                         postinc0 0FEE  
                                       postinc1 0FE6                                         postinc2 0FDE  
                              vfpfcnvrt@convarg 008D                                      main@F13551 019A  
                                    main@F13553 01AE                                      main@F13546 01A8  
                                    main@F13548 00B8                                ?_ADCC_Initialize 0001  
                                    ??_vfprintf 005A                             ?_EUSART2_Initialize 0001  
                                       strcpy@d 0005                                         strlen@a 0003  
                                       strlen@s 0001                                     ___fladd@grs 0010  
                                 ___xxtofl@sign 0009                                     ___fldiv@grs 0022  
                                   ___fldiv@rem 001B                            ??_EUSART2_Initialize 0004  
                                   ___flmul@grs 0036                                  __end_of___flge 318A  
                                __end_of___fleq 3560                                     vfpfcnvrt@ap 0057  
                                   vfpfcnvrt@cp 0091                                     vfpfcnvrt@fp 0055  
                                __end_of_efgtoa 18F8                                  __end_of_floorf 2DCC  
                                __end_of_memcpy 3756                          ?_OSCILLATOR_Initialize 0001  
                                    floorf@F521 00AA                       ?_ADCC_GetConversionResult 0001  
                                __end_of_strcpy 393C                                  __end_of_strlen 39AA  
                           start_initialization 3654                                     __end_of_abs 39DE  
                                   __end_of_pad 3654                                     putch@txData 0002  
                         __end_of_EUSART2_Write 3A9A                           __end_of___fpclassifyf 3288  
        __end_of_EUSART2_SetOverrunErrorHandler 3AEC                  _EUSART2_SetOverrunErrorHandler 3ADE  
                                   vfprintf@fmt 0094                                        ??___flge 0049  
                                      ??___fleq 0009                                ??_PMD_Initialize 0001  
                                   _CCPTMRSbits 0FAD                                        ??_efgtoa 0053  
                                   __pdataBANK0 00B8                                     __pdataBANK1 019A  
                                      ??_floorf 002C                                        ??_memcpy 0007  
                                      ??_strcpy 0004                                        ??_strlen 0003  
                                     ___fladd@a 0005                                       ___fladd@b 0001  
                                     ___fldiv@a 0013                                       ___fldiv@b 000F  
                                     ___flmul@a 002C                                       ___flmul@b 0028  
                                     ___flsub@a 0045                                       ___flsub@b 0041  
                                 __pcstackBANK0 0060                                   __pcstackBANK1 0150  
                           EUSART2_Write@txData 0001                              main@pwm_write_data 0190  
                                     __pnvBANK1 01B3        __end_of_ADCC_DisableContinuousConversion 3B2C  
            ??_ADCC_DisableContinuousConversion 0001               ?_ADCC_DisableContinuousConversion 0001  
              _ADCC_DisableContinuousConversion 3B26                                     _efgtoa$1472 0066  
                        _PIN_MANAGER_Initialize 3560                                        ?___fladd 0001  
                                      ?___fldiv 000F                                        ?___awdiv 0001  
                                      ?___flneg 0001                                        ?___awmod 0001  
                                      ?___flmul 0028                                        ?___flsub 0041  
                                      ?___fltol 0001                                        _BAUD2CON 0E9A  
                                   __smallconst 0F00                                        ?_sprintf 0096  
                                      _T2CLKCON 0FBE         EUSART2_SetErrorHandler@interruptHandler 0001  
                                      _PIR3bits 0EC8                                        _PIR4bits 0EC9  
                                     _vfpfcnvrt 257C                                      _ADCON0bits 0F5B  
                                    _ADCON1bits 0F54                                      _ADCON2bits 0F55  
                                     main@i_362 0193                                      _ADCON3bits 0F56  
                                     main@i_363 0194                                       main@i_364 0195  
                                     main@i_365 0196                                       main@i_366 0197  
                                    vfpfcnvrt@c 0092                                       copy_data0 3668  
                       _EUSART2_SetErrorHandler 3AFA                               ??_PWM4_Initialize 0001  
                             ??_TMR2_Initialize 0001                     _EUSART2_OverrunErrorHandler 01B6  
                                    _ADSTATbits 0F60                                        __Hrparam 0000  
              __end_of_ADCC_GetConversionResult 3ADE                      __end_of_PWM4_LoadDutyValue 3A12  
                                     memcpy@tmp 0007                                      vfprintf@ap 0095  
                                      __Lrparam 0000                                      vfprintf@fp 0093  
                       ??_OSCILLATOR_Initialize 0001                             main@adc_val_end_msg 0189  
                        main@adc_volt_start_msg 0150                                      ?_vfpfcnvrt 0055  
                            ___fpclassifyf@F465 00AE                                      sprintf@fmt 0098  
                                      ___xxtofl 2DCC                            _EUSART2_ErrorHandler 01B3  
                                      __ptext10 3B16                                        __ptext11 3A82  
                                      __ptext20 1DB8                                        __ptext12 3706  
                                      __ptext21 3086                                        __ptext13 36B0  
                                      __ptext30 3A12                                        __ptext22 34B6  
                                      __ptext14 2BBA                                        __ptext31 3A30  
                                      __ptext23 21E2                                        __ptext15 318A  
                                      __ptext40 3756                                        __ptext32 3AB2  
                                      __ptext24 39AA                                        __ptext16 2F80  
                                      __ptext41 39DE                                        __ptext33 3A4C  
                                      __ptext25 3406                                        __ptext17 37F4  
                                      __ptext42 3B08                                        __ptext34 3560  
                                      __ptext26 3288                                        __ptext18 18F8  
                                      __ptext43 3AC8                                        __ptext35 3A9A  
                                      __ptext27 2DCC                                        __ptext19 393C  
                                      __ptext44 3B26                                        __ptext36 37A6  
                                      __ptext28 3B20                                        __ptext37 3ADE  
                                      __ptext29 3B2C                                        __ptext38 3AEC  
                                      __ptext39 3AFA                                      strcpy@dest 0001  
            _EUSART2_DefaultFramingErrorHandler 0000                                        efgtoa@fp 004D  
                                      efgtoa@ne 0060                                        efgtoa@pp 0068  
                                      efgtoa@ou 0073                                      _RC2STAbits 0E98  
EUSART2_SetOverrunErrorHandler@interruptHandler 0001                                        isa$xinst 0000  
                  __end_of_ADCC_StartConversion 3B16                                        _vfprintf 383A  
                             ??_TMR2_StartTimer 0001                ??_EUSART2_SetOverrunErrorHandler 0004  
               ?_EUSART2_SetOverrunErrorHandler 0001                                        memcpy@d1 0001  
                                      memcpy@s1 0003                       ??_EUSART2_SetErrorHandler 0004  
                            main@adc_val_rxData 015E                                       sprintf@ap 009D  
                       ?_PIN_MANAGER_Initialize 0001                                       strcpy@src 0003  
                          main@adc_volt_end_msg 0184                                     efgtoa@nmode 006A  
EUSART2_SetFramingErrorHandler@interruptHandler 0001                        _ADCC_GetConversionResult 3AC8  
                                   ??_vfpfcnvrt 0058                                        sprintf@f 009E  
                                      sprintf@s 0096                             main@adc_volt_rxData 016E  
                                    _TMR2_Start 3B2C                                      _TX2STAbits 0E99  
                                 ___fladd@signs 000D                  __end_of_PIN_MANAGER_Initialize 35EE  
                             ??_ADCC_Initialize 0001                              _eusart2RxLastError 00B7  
                                  ___fladd@aexp 000E                                    ___fladd@bexp 000F  
