

Microchip MPLAB XC8 Assembler V2.45 build 20230818022343 
                                                                                               Thu Jan 25 12:51:49 2024

Microchip MPLAB XC8 C Compiler v2.45 (Free license) build 20230818022343 Og1 
     1                           	processor	18F47Q10
     2                           	fnconf	rparam,??,?,0
     3                           	pagewidth 120
     4                           	opt	flic
     5                           	psect	idataBANK0,global,class=CODE,delta=1,noexec
     6                           	psect	idataBANK1,global,class=CODE,delta=1,noexec
     7                           	psect	nvBANK0,global,class=BANK0,space=1,delta=1,lowdata,noexec
     8                           	psect	nvBANK1,global,class=BANK1,space=1,delta=1,lowdata,noexec
     9                           	psect	smallconst,global,reloc=2,class=SMALLCONST,delta=1,noexec
    10                           	psect	cinit,global,reloc=2,class=CODE,delta=1
    11                           	psect	bssCOMRAM,global,class=COMRAM,space=1,delta=1,lowdata,noexec
    12                           	psect	bssBANK0,global,class=BANK0,space=1,delta=1,lowdata,noexec
    13                           	psect	dataBANK0,global,class=BANK0,space=1,delta=1,lowdata,noexec
    14                           	psect	bssBANK1,global,class=BANK1,space=1,delta=1,lowdata,noexec
    15                           	psect	dataBANK1,global,class=BANK1,space=1,delta=1,lowdata,noexec
    16                           	psect	cstackBANK1,global,class=BANK1,space=1,delta=1,lowdata,noexec
    17                           	psect	cstackBANK0,global,class=BANK0,space=1,delta=1,lowdata,noexec
    18                           	psect	cstackCOMRAM,global,class=COMRAM,space=1,delta=1,lowdata,noexec
    19                           	psect	text0,global,reloc=2,class=CODE,delta=1
    20                           	psect	text1,global,reloc=2,class=CODE,delta=1,group=3
    21                           	psect	text2,global,reloc=2,class=CODE,delta=1,group=3
    22                           	psect	text3,global,reloc=2,class=CODE,delta=1,group=1
    23                           	psect	text4,global,reloc=2,class=CODE,delta=1,group=1
    24                           	psect	text5,global,reloc=2,class=CODE,delta=1,group=1
    25                           	psect	text6,global,reloc=2,class=CODE,delta=1,group=3
    26                           	psect	text7,global,reloc=2,class=CODE,delta=1,group=1
    27                           	psect	text8,global,reloc=2,class=CODE,delta=1,group=3
    28                           	psect	text9,global,reloc=2,class=CODE,delta=1,group=3
    29                           	psect	text10,global,reloc=2,class=CODE,delta=1
    30                           	psect	text11,global,reloc=2,class=CODE,delta=1
    31                           	psect	text12,global,reloc=2,class=CODE,delta=1,group=3
    32                           	psect	text13,global,reloc=2,class=CODE,delta=1,group=3
    33                           	psect	text14,global,reloc=2,class=CODE,delta=1,group=3
    34                           	psect	text15,global,reloc=2,class=CODE,delta=1,group=3
    35                           	psect	text16,global,reloc=2,class=CODE,delta=1,group=2
    36                           	psect	text17,global,reloc=2,class=CODE,delta=1,group=2
    37                           	psect	text18,global,reloc=2,class=CODE,delta=1,group=2
    38                           	psect	text19,global,reloc=2,class=CODE,delta=1,group=2
    39                           	psect	text20,global,reloc=2,class=CODE,delta=1,group=2
    40                           	psect	text21,global,reloc=2,class=CODE,delta=1,group=2
    41                           	psect	text22,global,reloc=2,class=CODE,delta=1,group=2
    42                           	psect	text23,global,reloc=2,class=CODE,delta=1,group=2
    43                           	psect	text24,global,reloc=2,class=CODE,delta=1,group=3
    44                           	psect	text25,global,reloc=2,class=CODE,delta=1,group=2
    45                           	psect	text26,global,reloc=2,class=CODE,delta=1,group=2
    46                           	psect	text27,global,reloc=2,class=CODE,delta=1,group=2
    47                           	psect	text28,global,reloc=2,class=CODE,delta=1,group=2
    48                           	psect	text29,global,reloc=2,class=CODE,delta=1
    49                           	psect	text30,global,reloc=2,class=CODE,delta=1
    50                           	psect	text31,global,reloc=2,class=CODE,delta=1
    51                           	psect	text32,global,reloc=2,class=CODE,delta=1
    52                           	psect	text33,global,reloc=2,class=CODE,delta=1
    53                           	psect	text34,global,reloc=2,class=CODE,delta=1
    54                           	psect	text35,global,reloc=2,class=CODE,delta=1
    55                           	psect	text36,global,reloc=2,class=CODE,delta=1
    56                           	psect	text37,global,reloc=2,class=CODE,delta=1
    57                           	psect	text38,global,reloc=2,class=CODE,delta=1
    58                           	psect	text39,global,reloc=2,class=CODE,delta=1
    59                           	psect	text40,global,reloc=2,class=CODE,delta=1
    60                           	psect	text41,global,reloc=2,class=CODE,delta=1
    61                           	psect	text42,global,reloc=2,class=CODE,delta=1
    62                           	psect	text43,global,reloc=2,class=CODE,delta=1
    63                           	psect	text44,global,reloc=2,class=CODE,delta=1
    64                           	psect	text45,global,reloc=2,class=CODE,delta=1
    65                           	psect	text46,global,reloc=2,class=CODE,delta=1
    66                           	psect	intsave_regs,global,class=BIGRAM,space=1,delta=1,noexec
    67                           	psect	rparam,global,class=COMRAM,space=1,delta=1,noexec
    68                           	psect	config,global,abs,ovrld,class=CONFIG,space=4,delta=1,noexec
    69   000000                     
    70                           ; Generated 18/07/2023 GMT
    71                           ; 
    72                           ; Copyright © 2023, Microchip Technology Inc. and its subsidiaries ("Microchip")
    73                           ; All rights reserved.
    74                           ; 
    75                           ; This software is developed by Microchip Technology Inc. and its subsidiaries ("Microch
      +                          ip").
    76                           ; 
    77                           ; Redistribution and use in source and binary forms, with or without modification, are
    78                           ; permitted provided that the following conditions are met:
    79                           ; 
    80                           ;     1. Redistributions of source code must retain the above copyright notice, this lis
      +                          t of
    81                           ;        conditions and the following disclaimer.
    82                           ; 
    83                           ;     2. Redistributions in binary form must reproduce the above copyright notice, this 
      +                          list
    84                           ;        of conditions and the following disclaimer in the documentation and/or other
    85                           ;        materials provided with the distribution. Publication is not required when
    86                           ;        this file is used in an embedded application.
    87                           ; 
    88                           ;     3. Microchip's name may not be used to endorse or promote products derived from th
      +                          is
    89                           ;        software without specific prior written permission.
    90                           ; 
    91                           ; THIS SOFTWARE IS PROVIDED BY MICROCHIP "AS IS" AND ANY EXPRESS OR IMPLIED WARRANTIES,
    92                           ; INCLUDING, BUT NOT LIMITED TO, THE IMPLIED WARRANTIES OF MERCHANTABILITY AND FITNESS F
      +                          OR
    93                           ; PURPOSE ARE DISCLAIMED.  IN NO EVENT SHALL MICROCHIP BE LIABLE FOR ANY DIRECT, INDIREC
      +                          T,
    94                           ; INCIDENTAL, SPECIAL, EXEMPLARY, OR CONSEQUENTIAL DAMAGES (INCLUDING BUT NOT LIMITED TO
    95                           ; PROCUREMENT OF SUBSTITUTE GOODS OR SERVICES; LOSS OF USE, DATA OR PROFITS; OR BUSINESS
    96                           ; INTERRUPTION) HOWSOEVER CAUSED AND ON ANY THEORY OF LIABILITY, WHETHER IN CONTRACT, ST
      +                          RICT
    97                           ; LIABILITY, OR TORT (INCLUDING NEGLIGENCE OR OTHERWISE) ARISING IN ANY WAY OUT OF THE U
      +                          SE OF
    98                           ; THIS SOFTWARE, EVEN IF ADVISED OF THE POSSIBILITY OF SUCH DAMAGE.
    99                           ; 
   100                           ; 
   101                           ; Code-generator required, PIC18F47Q10 Definitions
   102                           ; 
   103                           ; SFR Addresses
   104   000000                     
   105 ;; Function _EUSART2_DefaultFramingErrorHandler is unused but had its address taken
   106   000000                     
   107 ;; Function _EUSART2_DefaultOverrunErrorHandler is unused but had its address taken
   108   000000                     
   109 ;; Function _EUSART2_DefaultErrorHandler is unused but had its address taken
   110   000000                     
   111                           	psect	idataBANK0
   112   003B8C                     __pidataBANK0:
   113                           	callstack 0
   114                           
   115                           ;initializer for main@F13546
   116   003B8C  41                 	db	65
   117   003B8D  44                 	db	68
   118   003B8E  43                 	db	67
   119   003B8F  3A                 	db	58
   120   003B90  20                 	db	32
   121   003B91  00                 	db	0
   122                           
   123                           ;initializer for main@F13553
   124   003B92  0D                 	db	13
   125   003B93  0A                 	db	10
   126   003B94  0A                 	db	10
   127   003B95  0A                 	db	10
   128   003B96  00                 	db	0
   129                           
   130                           ;initializer for main@F13548
   131   003B97  0D                 	db	13
   132   003B98  0A                 	db	10
   133   003B99  00                 	db	0
   134                           
   135                           	psect	idataBANK1
   136   003B9A                     __pidataBANK1:
   137                           	callstack 0
   138                           
   139                           ;initializer for main@F13551
   140   003B9A  41                 	db	65
   141   003B9B  44                 	db	68
   142   003B9C  43                 	db	67
   143   003B9D  20                 	db	32
   144   003B9E  56                 	db	86
   145   003B9F  6F                 	db	111
   146   003BA0  6C                 	db	108
   147   003BA1  74                 	db	116
   148   003BA2  61                 	db	97
   149   003BA3  67                 	db	103
   150   003BA4  65                 	db	101
   151   003BA5  3A                 	db	58
   152   003BA6  20                 	db	32
   153   003BA7  00                 	db	0
   154   000000                     _ADERRL	set	3945
   155   000000                     _ADERRH	set	3946
   156   000000                     _ADPREVL	set	3932
   157   000000                     _ADPREVH	set	3933
   158   000000                     _ADFLTRL	set	3949
   159   000000                     _ADFLTRH	set	3950
   160   000000                     _ADACCL	set	3947
   161   000000                     _ADACCH	set	3948
   162   000000                     _ADCNT	set	3938
   163   000000                     _ADRESL	set	3934
   164   000000                     _ADRESH	set	3935
   165   000000                     _ADACQ	set	3927
   166   000000                     _ADCON0	set	3931
   167   000000                     _ADCLK	set	3922
   168   000000                     _ADSTAT	set	3936
   169   000000                     _ADCON3	set	3926
   170   000000                     _ADCON2	set	3925
   171   000000                     _ADPRE	set	3929
   172   000000                     _ADSTPTH	set	3940
   173   000000                     _ADUTHH	set	3944
   174   000000                     _ADUTHL	set	3943
   175   000000                     _ADLTHH	set	3942
   176   000000                     _T2CON	set	4028
   177   000000                     _OSCTUNE	set	3800
   178   000000                     _OSCFRQ	set	3801
   179   000000                     _INLVLD	set	3869
   180   000000                     _SLRCOND	set	3870
   181   000000                     _ODCOND	set	3871
   182   000000                     _WPUD	set	3872
   183   000000                     _TRISD	set	3978
   184   000000                     _TRISC	set	3977
   185   000000                     _TRISB	set	3976
   186   000000                     _TRISA	set	3975
   187   000000                     _TRISE	set	3979
   188   000000                     _LATC	set	3972
   189   000000                     _LATB	set	3971
   190   000000                     _TX2REG	set	3733
   191   000000                     _SP2BRGH	set	3735
   192   000000                     _TX2STA	set	3737
   193                           
   194                           	psect	nvBANK0
   195   0000B1                     __pnvBANK0:
   196                           	callstack 0
   197   0000B1                     _EUSART2_OverrunErrorHandler:
   198                           	callstack 0
   199   0000B1                     	ds	3
   200   0000B4                     _EUSART2_FramingErrorHandler:
   201                           	callstack 0
   202   0000B4                     	ds	3
   203                           
   204                           	psect	nvBANK1
   205   0001A8                     __pnvBANK1:
   206                           	callstack 0
   207   0001A8                     _EUSART2_ErrorHandler:
   208                           	callstack 0
   209   0001A8                     	ds	3
   210   000000                     _RC2STAbits	set	3736
   211   000000                     _TX2STAbits	set	3737
   212   000000                     _ADCON1bits	set	3924
   213   000000                     _ADCON2bits	set	3925
   214   000000                     _ADCON3bits	set	3926
   215   000000                     _ADCON0bits	set	3931
   216   000000                     _ADSTATbits	set	3936
   217   000000                     _PR2	set	4027
   218   000000                     _TMR2	set	4026
   219   000000                     _T2CONbits	set	4028
   220   000000                     _T2RSTbits	set	4031
   221   000000                     _T2HLTbits	set	4029
   222   000000                     _RX2PPS	set	3720
   223   000000                     _RC2REG	set	3732
   224   000000                     _SP2BRGL	set	3734
   225   000000                     _RC2STA	set	3736
   226   000000                     _BAUD2CON	set	3738
   227   000000                     _PIR3bits	set	3784
   228   000000                     _PIR4bits	set	3785
   229   000000                     _OSCCON1	set	3795
   230   000000                     _RA4PPS	set	3814
   231   000000                     _INLVLA	set	3848
   232   000000                     _SLRCONA	set	3849
   233   000000                     _ODCONA	set	3850
   234   000000                     _WPUA	set	3851
   235   000000                     _ANSELA	set	3852
   236   000000                     _ANSELB	set	3860
   237   000000                     _ANSELC	set	3868
   238   000000                     _ANSELD	set	3873
   239   000000                     _LATA	set	3970
   240   000000                     _LATD	set	3973
   241   000000                     _LATE	set	3974
   242   000000                     _PWM4DCL	set	3999
   243   000000                     _PWM4DCH	set	4000
   244   000000                     _PWM4CON	set	4001
   245   000000                     _CCPTMRSbits	set	4013
   246   000000                     _T2TMR	set	4026
   247   000000                     _T2PR	set	4027
   248   000000                     _T2HLT	set	4029
   249   000000                     _T2CLKCON	set	4030
   250   000000                     _INLVLE	set	3877
   251   000000                     _SLRCONE	set	3878
   252   000000                     _ODCONE	set	3879
   253   000000                     _WPUE	set	3880
   254   000000                     _ANSELE	set	3881
   255   000000                     _INLVLC	set	3864
   256   000000                     _SLRCONC	set	3865
   257   000000                     _ODCONC	set	3866
   258   000000                     _WPUC	set	3867
   259   000000                     _ADACT	set	3921
   260   000000                     _ADREF	set	3923
   261   000000                     _ADCON1	set	3924
   262   000000                     _ADCAP	set	3928
   263   000000                     _ADPCH	set	3930
   264   000000                     _ADRPT	set	3937
   265   000000                     _ADSTPTL	set	3939
   266   000000                     _ADLTHL	set	3941
   267   000000                     _INLVLB	set	3856
   268   000000                     _SLRCONB	set	3857
   269   000000                     _ODCONB	set	3858
   270   000000                     _WPUB	set	3859
   271   000000                     _RB6PPS	set	3824
   272   000000                     _RD0PPS	set	3834
   273   000000                     _OSCCON3	set	3797
   274   000000                     _OSCEN	set	3799
   275   000000                     _PMD0	set	3804
   276   000000                     _PMD5	set	3809
   277   000000                     _PMD4	set	3808
   278   000000                     _PMD3	set	3807
   279   000000                     _PMD2	set	3806
   280   000000                     _PMD1	set	3805
   281   000000                     _T2RST	set	4031
   282                           
   283                           	psect	smallconst
   284   000F00                     __psmallconst:
   285                           	callstack 0
   286   000F00  00                 	db	0
   287   000F01                     STR_2:
   288                           
   289                           ; BSR set to: 15
   290   000F01  25                 	db	37
   291   000F02  66                 	db	102	;'f'
   292   000F03  2E                 	db	46
   293   000F04  32                 	db	50	;'2'
   294   000F05  00                 	db	0
   295   000F06                     STR_3:
   296                           
   297                           ; BSR set to: 15
   298   000F06  69                 	db	105	;'i'
   299   000F07  6E                 	db	110	;'n'
   300   000F08  66                 	db	102	;'f'
   301   000F09  00                 	db	0
   302   000F0A                     STR_6:
   303                           
   304                           ; BSR set to: 15
   305   000F0A  6E                 	db	110	;'n'
   306   000F0B  61                 	db	97	;'a'
   307   000F0C  6E                 	db	110	;'n'
   308   000F0D  00                 	db	0
   309   000F0E                     STR_1:
   310                           
   311                           ; BSR set to: 15
   312   000F0E  25                 	db	37
   313   000F0F  64                 	db	100	;'d'
   314   000F10  00                 	db	0
   315   000F11  00                 	db	0	; dummy byte at the end
   316   000000                     
   317                           ; #config settings
   318                           
   319                           	psect	cinit
   320   003682                     __pcinit:
   321                           	callstack 0
   322   003682                     start_initialization:
   323                           	callstack 0
   324   003682                     __initialization:
   325                           	callstack 0
   326                           
   327                           ; Initialize objects allocated to BANK1 (14 bytes)
   328                           ; load TBLPTR registers with __pidataBANK1
   329   003682  0E9A               	movlw	low __pidataBANK1
   330   003684  6EF6               	movwf	tblptrl,c
   331   003686  0E3B               	movlw	high __pidataBANK1
   332   003688  6EF7               	movwf	tblptrh,c
   333   00368A  0E00               	movlw	low (__pidataBANK1 shr (0+16))
   334   00368C  6EF8               	movwf	tblptru,c
   335   00368E  EE01  F09A         	lfsr	0,__pdataBANK1
   336   003692  EE10 F00E          	lfsr	1,14
   337   003696                     copy_data0:
   338   003696  0009               	tblrd		*+
   339   003698  CFF5 FFEE          	movff	tablat,postinc0
   340   00369C  50E5               	movf	postdec1,w,c
   341   00369E  50E1               	movf	fsr1l,w,c
   342   0036A0  E1FA               	bnz	copy_data0
   343                           
   344                           ; Initialize objects allocated to BANK0 (14 bytes)
   345                           ; load TBLPTR registers with __pidataBANK0
   346   0036A2  0E8C               	movlw	low __pidataBANK0
   347   0036A4  6EF6               	movwf	tblptrl,c
   348   0036A6  0E3B               	movlw	high __pidataBANK0
   349   0036A8  6EF7               	movwf	tblptrh,c
   350   0036AA  0E00               	movlw	low (__pidataBANK0 shr (0+16))
   351   0036AC  6EF8               	movwf	tblptru,c
   352   0036AE  EE00  F09B         	lfsr	0,__pdataBANK0
   353   0036B2  EE10 F00E          	lfsr	1,14
   354   0036B6                     copy_data1:
   355   0036B6  0009               	tblrd		*+
   356   0036B8  CFF5 FFEE          	movff	tablat,postinc0
   357   0036BC  50E5               	movf	postdec1,w,c
   358   0036BE  50E1               	movf	fsr1l,w,c
   359   0036C0  E1FA               	bnz	copy_data1
   360                           
   361                           ; Clear objects allocated to BANK1 (80 bytes)
   362   0036C2  EE01  F000         	lfsr	0,__pbssBANK1
   363   0036C6  0E50               	movlw	80
   364   0036C8                     clear_0:
   365   0036C8  6AEE               	clrf	postinc0,c
   366   0036CA  06E8               	decf	wreg,f,c
   367   0036CC  E1FD               	bnz	clear_0
   368                           
   369                           ; Clear objects allocated to BANK0 (8 bytes)
   370   0036CE  EE00  F0A9         	lfsr	0,__pbssBANK0
   371   0036D2  0E08               	movlw	8
   372   0036D4                     clear_1:
   373   0036D4  6AEE               	clrf	postinc0,c
   374   0036D6  06E8               	decf	wreg,f,c
   375   0036D8  E1FD               	bnz	clear_1
   376                           
   377                           ; Clear objects allocated to COMRAM (6 bytes)
   378   0036DA  6A5F               	clrf	(__pbssCOMRAM+5)& (0+255),c
   379   0036DC  6A5E               	clrf	(__pbssCOMRAM+4)& (0+255),c
   380   0036DE  6A5D               	clrf	(__pbssCOMRAM+3)& (0+255),c
   381   0036E0  6A5C               	clrf	(__pbssCOMRAM+2)& (0+255),c
   382   0036E2  6A5B               	clrf	(__pbssCOMRAM+1)& (0+255),c
   383   0036E4  6A5A               	clrf	__pbssCOMRAM& (0+255),c
   384   0036E6                     end_of_initialization:
   385                           	callstack 0
   386   0036E6                     __end_of__initialization:
   387                           	callstack 0
   388   0036E6  0100               	movlb	0
   389   0036E8  EF63  F014         	goto	_main	;jump to C main() function
   390                           
   391                           	psect	bssCOMRAM
   392   00005A                     __pbssCOMRAM:
   393                           	callstack 0
   394   00005A                     _width:
   395                           	callstack 0
   396   00005A                     	ds	2
   397   00005C                     _prec:
   398                           	callstack 0
   399   00005C                     	ds	2
   400   00005E                     _flags:
   401                           	callstack 0
   402   00005E                     	ds	1
   403   00005F                     _eusart2RxLastError:
   404                           	callstack 0
   405   00005F                     	ds	1
   406                           
   407                           	psect	bssBANK0
   408   0000A9                     __pbssBANK0:
   409                           	callstack 0
   410   0000A9                     floorf@F521:
   411                           	callstack 0
   412   0000A9                     	ds	4
   413   0000AD                     ___fpclassifyf@F465:
   414                           	callstack 0
   415   0000AD                     	ds	4
   416                           
   417                           	psect	dataBANK0
   418   00009B                     __pdataBANK0:
   419                           	callstack 0
   420   00009B                     main@F13546:
   421                           	callstack 0
   422   00009B                     	ds	6
   423   0000A1                     main@F13553:
   424                           	callstack 0
   425   0000A1                     	ds	5
   426   0000A6                     main@F13548:
   427                           	callstack 0
   428   0000A6                     	ds	3
   429                           
   430                           	psect	bssBANK1
   431   000100                     __pbssBANK1:
   432                           	callstack 0
   433   000100                     _dbuf:
   434                           	callstack 0
   435   000100                     	ds	80
   436                           
   437                           	psect	dataBANK1
   438   00019A                     __pdataBANK1:
   439                           	callstack 0
   440   00019A                     main@F13551:
   441                           	callstack 0
   442   00019A                     	ds	14
   443                           
   444                           	psect	cstackBANK1
   445   000150                     __pcstackBANK1:
   446                           	callstack 0
   447   000150                     main@adc_volt_start_msg:
   448                           	callstack 0
   449                           
   450                           ; 14 bytes @ 0x0
   451   000150                     	ds	14
   452   00015E                     main@adc_val_rxData:
   453                           	callstack 0
   454                           
   455                           ; 16 bytes @ 0xE
   456   00015E                     	ds	16
   457   00016E                     main@adc_volt_rxData:
   458                           	callstack 0
   459                           
   460                           ; 16 bytes @ 0x1E
   461   00016E                     	ds	16
   462   00017E                     main@adc_val_start_msg:
   463                           	callstack 0
   464                           
   465                           ; 6 bytes @ 0x2E
   466   00017E                     	ds	6
   467   000184                     main@adc_volt_end_msg:
   468                           	callstack 0
   469                           
   470                           ; 5 bytes @ 0x34
   471   000184                     	ds	5
   472   000189                     main@adc_val_end_msg:
   473                           	callstack 0
   474                           
   475                           ; 3 bytes @ 0x39
   476   000189                     	ds	3
   477   00018C                     main@adc_volt:
   478                           	callstack 0
   479                           
   480                           ; 4 bytes @ 0x3C
   481   00018C                     	ds	4
   482   000190                     main@pwm_write_data:
   483                           	callstack 0
   484                           
   485                           ; 2 bytes @ 0x40
   486   000190                     	ds	2
   487   000192                     main@i:
   488                           	callstack 0
   489                           
   490                           ; 1 bytes @ 0x42
   491   000192                     	ds	1
   492   000193                     main@i_364:
   493                           	callstack 0
   494                           
   495                           ; 1 bytes @ 0x43
   496   000193                     	ds	1
   497   000194                     main@i_365:
   498                           	callstack 0
   499                           
   500                           ; 1 bytes @ 0x44
   501   000194                     	ds	1
   502   000195                     main@i_366:
   503                           	callstack 0
   504                           
   505                           ; 1 bytes @ 0x45
   506   000195                     	ds	1
   507   000196                     main@i_367:
   508                           	callstack 0
   509                           
   510                           ; 1 bytes @ 0x46
   511   000196                     	ds	1
   512   000197                     main@i_368:
   513                           	callstack 0
   514                           
   515                           ; 1 bytes @ 0x47
   516   000197                     	ds	1
   517   000198                     main@adc_val:
   518                           	callstack 0
   519                           
   520                           ; 2 bytes @ 0x48
   521   000198                     	ds	2
   522                           
   523                           	psect	cstackBANK0
   524   000060                     __pcstackBANK0:
   525                           	callstack 0
   526   000060                     efgtoa@ne:
   527                           	callstack 0
   528                           
   529                           ; 2 bytes @ 0x0
   530   000060                     	ds	2
   531   000062                     efgtoa@p:
   532                           	callstack 0
   533                           
   534                           ; 2 bytes @ 0x2
   535   000062                     	ds	2
   536   000064                     efgtoa@t:
   537                           	callstack 0
   538                           
   539                           ; 2 bytes @ 0x4
   540   000064                     	ds	2
   541   000066                     _efgtoa$1474:
   542                           	callstack 0
   543                           
   544                           ; 2 bytes @ 0x6
   545   000066                     	ds	2
   546   000068                     efgtoa@pp:
   547                           	callstack 0
   548                           
   549                           ; 1 bytes @ 0x8
   550   000068                     	ds	1
   551   000069                     efgtoa@mode:
   552                           	callstack 0
   553                           
   554                           ; 1 bytes @ 0x9
   555   000069                     	ds	1
   556   00006A                     efgtoa@nmode:
   557                           	callstack 0
   558                           
   559                           ; 1 bytes @ 0xA
   560   00006A                     	ds	1
   561   00006B                     efgtoa@d:
   562                           	callstack 0
   563                           
   564                           ; 2 bytes @ 0xB
   565   00006B                     	ds	2
   566   00006D                     efgtoa@m:
   567                           	callstack 0
   568                           
   569                           ; 2 bytes @ 0xD
   570   00006D                     	ds	2
   571   00006F                     efgtoa@e:
   572                           	callstack 0
   573                           
   574                           ; 2 bytes @ 0xF
   575   00006F                     	ds	2
   576   000071                     efgtoa@w:
   577                           	callstack 0
   578                           
   579                           ; 2 bytes @ 0x11
   580   000071                     	ds	2
   581   000073                     efgtoa@ou:
   582                           	callstack 0
   583                           
   584                           ; 4 bytes @ 0x13
   585   000073                     	ds	4
   586   000077                     efgtoa@i:
   587                           	callstack 0
   588                           
   589                           ; 2 bytes @ 0x17
   590   000077                     	ds	2
   591   000079                     efgtoa@h:
   592                           	callstack 0
   593                           
   594                           ; 4 bytes @ 0x19
   595   000079                     	ds	4
   596   00007D                     efgtoa@l:
   597                           	callstack 0
   598                           
   599                           ; 4 bytes @ 0x1D
   600   00007D                     	ds	4
   601   000081                     efgtoa@sign:
   602                           	callstack 0
   603                           
   604                           ; 1 bytes @ 0x21
   605   000081                     	ds	1
   606   000082                     efgtoa@g:
   607                           	callstack 0
   608                           
   609                           ; 4 bytes @ 0x22
   610   000082                     	ds	4
   611   000086                     efgtoa@n:
   612                           	callstack 0
   613                           
   614                           ; 2 bytes @ 0x26
   615   000086                     	ds	2
   616   000088                     efgtoa@u:
   617                           	callstack 0
   618                           
   619                           ; 4 bytes @ 0x28
   620   000088                     	ds	4
   621   00008C                     sprintf@ap:
   622                           	callstack 0
   623                           
   624                           ; 1 bytes @ 0x2C
   625   00008C                     	ds	1
   626   00008D                     sprintf@f:
   627                           	callstack 0
   628                           
   629                           ; 12 bytes @ 0x2D
   630   00008D                     	ds	12
   631   000099                     ??_main:
   632                           
   633                           ; 1 bytes @ 0x39
   634   000099                     	ds	2
   635                           
   636                           	psect	cstackCOMRAM
   637   000001                     __pcstackCOMRAM:
   638                           	callstack 0
   639   000001                     ?_ADCC_GetConversionResult:
   640                           	callstack 0
   641   000001                     ?_strlen:
   642                           	callstack 0
   643   000001                     ?___fpclassifyf:
   644                           	callstack 0
   645   000001                     ?___awdiv:
   646                           	callstack 0
   647   000001                     ?___awmod:
   648                           	callstack 0
   649   000001                     ?___lwdiv:
   650                           	callstack 0
   651   000001                     ?___fladd:
   652                           	callstack 0
   653   000001                     ?___fldiv:
   654                           	callstack 0
   655   000001                     ?_labs:
   656                           	callstack 0
   657   000001                     ?___flneg:
   658                           	callstack 0
   659   000001                     ?___fltol:
   660                           	callstack 0
   661   000001                     _EUSART2_is_tx_ready$182:
   662                           	callstack 0
   663   000001                     EUSART2_Write@txData:
   664                           	callstack 0
   665   000001                     ADCC_StartConversion@channel:
   666                           	callstack 0
   667   000001                     PWM4_LoadDutyValue@dutyValue:
   668                           	callstack 0
   669   000001                     ___awdiv@dividend:
   670                           	callstack 0
   671   000001                     ___awmod@dividend:
   672                           	callstack 0
   673   000001                     ___lwdiv@dividend:
   674                           	callstack 0
   675   000001                     memcpy@d1:
   676                           	callstack 0
   677   000001                     strcpy@dest:
   678                           	callstack 0
   679   000001                     strlen@s:
   680                           	callstack 0
   681   000001                     EUSART2_SetFramingErrorHandler@interruptHandler:
   682                           	callstack 0
   683   000001                     EUSART2_SetOverrunErrorHandler@interruptHandler:
   684                           	callstack 0
   685   000001                     EUSART2_SetErrorHandler@interruptHandler:
   686                           	callstack 0
   687   000001                     ___fleq@ff1:
   688                           	callstack 0
   689   000001                     ___flneg@f1:
   690                           	callstack 0
   691   000001                     ___fltol@f1:
   692                           	callstack 0
   693   000001                     ___fladd@b:
   694                           	callstack 0
   695   000001                     ___fldiv@b:
   696                           	callstack 0
   697   000001                     ___fpclassifyf@x:
   698                           	callstack 0
   699   000001                     labs@a:
   700                           	callstack 0
   701                           
   702                           ; 4 bytes @ 0x0
   703   000001                     	ds	1
   704   000002                     putch@txData:
   705                           	callstack 0
   706                           
   707                           ; 1 bytes @ 0x1
   708   000002                     	ds	1
   709   000003                     ??_ADCC_GetConversionResult:
   710   000003                     ??_PWM4_LoadDutyValue:
   711   000003                     strcpy@src:
   712                           	callstack 0
   713   000003                     ___awdiv@divisor:
   714                           	callstack 0
   715   000003                     ___awmod@divisor:
   716                           	callstack 0
   717   000003                     ___lwdiv@divisor:
   718                           	callstack 0
   719   000003                     memcpy@s1:
   720                           	callstack 0
   721   000003                     fputc@c:
   722                           	callstack 0
   723   000003                     strlen@a:
   724                           	callstack 0
   725                           
   726                           ; 2 bytes @ 0x2
   727   000003                     	ds	1
   728   000004                     ??_strcpy:
   729   000004                     
   730                           ; 1 bytes @ 0x3
   731   000004                     	ds	1
   732   000005                     ??___fpclassifyf:
   733   000005                     ??_labs:
   734   000005                     ??___fltol:
   735   000005                     ___awdiv@counter:
   736                           	callstack 0
   737   000005                     ___awmod@counter:
   738                           	callstack 0
   739   000005                     ___lwdiv@counter:
   740                           	callstack 0
   741   000005                     fputc@fp:
   742                           	callstack 0
   743   000005                     memcpy@n:
   744                           	callstack 0
   745   000005                     strcpy@d:
   746                           	callstack 0
   747   000005                     ___fleq@ff2:
   748                           	callstack 0
   749   000005                     ___fladd@a:
   750                           	callstack 0
   751   000005                     ___fldiv@a:
   752                           	callstack 0
   753                           
   754                           ; 4 bytes @ 0x4
   755   000005                     	ds	1
   756   000006                     ??_fputc:
   757   000006                     ___awdiv@sign:
   758                           	callstack 0
   759   000006                     ___awmod@sign:
   760                           	callstack 0
   761   000006                     ___lwdiv@quotient:
   762                           	callstack 0
   763                           
   764                           ; 2 bytes @ 0x5
   765   000006                     	ds	1
   766   000007                     ?_abs:
   767                           	callstack 0
   768   000007                     memcpy@tmp:
   769                           	callstack 0
   770   000007                     ___awdiv@quotient:
   771                           	callstack 0
   772   000007                     abs@a:
   773                           	callstack 0
   774                           
   775                           ; 2 bytes @ 0x6
   776   000007                     	ds	1
   777   000008                     ?___xxtofl:
   778                           	callstack 0
   779   000008                     memcpy@d:
   780                           	callstack 0
   781   000008                     ___xxtofl@val:
   782                           	callstack 0
   783                           
   784                           ; 4 bytes @ 0x7
   785   000008                     	ds	1
   786   000009                     ??___fladd:
   787   000009                     ??___fldiv:
   788   000009                     ??_abs:
   789   000009                     ??___fleq:
   790   000009                     ___fltol@sign1:
   791                           	callstack 0
   792   000009                     ___fpclassifyf@e:
   793                           	callstack 0
   794                           
   795                           ; 2 bytes @ 0x8
   796   000009                     	ds	1
   797   00000A                     ___fltol@exp1:
   798                           	callstack 0
   799   00000A                     memcpy@s:
   800                           	callstack 0
   801                           
   802                           ; 2 bytes @ 0x9
   803   00000A                     	ds	1
   804   00000B                     fputs@s:
   805                           	callstack 0
   806   00000B                     ___fpclassifyf@u:
   807                           	callstack 0
   808                           
   809                           ; 4 bytes @ 0xA
   810   00000B                     	ds	1
   811   00000C                     ??___xxtofl:
   812                           
   813                           ; 1 bytes @ 0xB
   814   00000C                     	ds	1
   815   00000D                     ___fladd@signs:
   816                           	callstack 0
   817   00000D                     fputs@fp:
   818                           	callstack 0
   819   00000D                     ___fldiv@rem:
   820                           	callstack 0
   821                           
   822                           ; 4 bytes @ 0xC
   823   00000D                     	ds	1
   824   00000E                     ___fladd@aexp:
   825                           	callstack 0
   826   00000E                     fputs@c:
   827                           	callstack 0
   828                           
   829                           ; 1 bytes @ 0xD
   830   00000E                     	ds	1
   831   00000F                     ___fladd@bexp:
   832                           	callstack 0
   833   00000F                     fputs@i:
   834                           	callstack 0
   835                           
   836                           ; 2 bytes @ 0xE
   837   00000F                     	ds	1
   838   000010                     ___fladd@grs:
   839                           	callstack 0
   840   000010                     ___xxtofl@sign:
   841                           	callstack 0
   842                           
   843                           ; 1 bytes @ 0xF
   844   000010                     	ds	1
   845   000011                     ___fldiv@sign:
   846                           	callstack 0
   847   000011                     ___xxtofl@exp:
   848                           	callstack 0
   849   000011                     pad@fp:
   850                           	callstack 0
   851                           
   852                           ; 1 bytes @ 0x10
   853   000011                     	ds	1
   854   000012                     ___fldiv@new_exp:
   855                           	callstack 0
   856   000012                     pad@buf:
   857                           	callstack 0
   858   000012                     ___xxtofl@arg:
   859                           	callstack 0
   860                           
   861                           ; 4 bytes @ 0x11
   862   000012                     	ds	2
   863   000014                     pad@p:
   864                           	callstack 0
   865   000014                     ___fldiv@grs:
   866                           	callstack 0
   867                           
   868                           ; 4 bytes @ 0x13
   869   000014                     	ds	2
   870   000016                     ??_pad:
   871   000016                     ?___flmul:
   872                           	callstack 0
   873   000016                     ___flmul@b:
   874                           	callstack 0
   875                           
   876                           ; 4 bytes @ 0x15
   877   000016                     	ds	1
   878   000017                     pad@i:
   879                           	callstack 0
   880                           
   881                           ; 2 bytes @ 0x16
   882   000017                     	ds	1
   883   000018                     ___fldiv@bexp:
   884                           	callstack 0
   885                           
   886                           ; 1 bytes @ 0x17
   887   000018                     	ds	1
   888   000019                     ___fldiv@aexp:
   889                           	callstack 0
   890                           
   891                           ; 1 bytes @ 0x18
   892   000019                     	ds	1
   893   00001A                     ?_floorf:
   894                           	callstack 0
   895   00001A                     ___flmul@a:
   896                           	callstack 0
   897   00001A                     floorf@x:
   898                           	callstack 0
   899                           
   900                           ; 4 bytes @ 0x19
   901   00001A                     	ds	4
   902   00001E                     ??___flmul:
   903   00001E                     ??_floorf:
   904                           
   905                           ; 1 bytes @ 0x1D
   906   00001E                     	ds	4
   907   000022                     ___flmul@sign:
   908                           	callstack 0
   909                           
   910                           ; 1 bytes @ 0x21
   911   000022                     	ds	1
   912   000023                     ___flmul@aexp:
   913                           	callstack 0
   914                           
   915                           ; 1 bytes @ 0x22
   916   000023                     	ds	1
   917   000024                     ___flmul@grs:
   918                           	callstack 0
   919   000024                     floorf@m:
   920                           	callstack 0
   921                           
   922                           ; 4 bytes @ 0x23
   923   000024                     	ds	4
   924   000028                     ___flmul@bexp:
   925                           	callstack 0
   926   000028                     floorf@e:
   927                           	callstack 0
   928                           
   929                           ; 2 bytes @ 0x27
   930   000028                     	ds	1
   931   000029                     ___flmul@prod:
   932                           	callstack 0
   933                           
   934                           ; 4 bytes @ 0x28
   935   000029                     	ds	1
   936   00002A                     floorf@u:
   937                           	callstack 0
   938                           
   939                           ; 4 bytes @ 0x29
   940   00002A                     	ds	3
   941   00002D                     ___flmul@temp:
   942                           	callstack 0
   943                           
   944                           ; 2 bytes @ 0x2C
   945   00002D                     	ds	2
   946   00002F                     ?___flsub:
   947                           	callstack 0
   948   00002F                     ___flge@ff1:
   949                           	callstack 0
   950   00002F                     ___flsub@b:
   951                           	callstack 0
   952                           
   953                           ; 4 bytes @ 0x2E
   954   00002F                     	ds	4
   955   000033                     ___flge@ff2:
   956                           	callstack 0
   957   000033                     ___flsub@a:
   958                           	callstack 0
   959                           
   960                           ; 4 bytes @ 0x32
   961   000033                     	ds	4
   962   000037                     ??___flge:
   963                           
   964                           ; 1 bytes @ 0x36
   965   000037                     	ds	4
   966   00003B                     efgtoa@fp:
   967                           	callstack 0
   968                           
   969                           ; 1 bytes @ 0x3A
   970   00003B                     	ds	1
   971   00003C                     efgtoa@f:
   972                           	callstack 0
   973                           
   974                           ; 4 bytes @ 0x3B
   975   00003C                     	ds	4
   976   000040                     efgtoa@c:
   977                           	callstack 0
   978                           
   979                           ; 1 bytes @ 0x3F
   980   000040                     	ds	1
   981   000041                     ??_efgtoa:
   982                           
   983                           ; 1 bytes @ 0x40
   984   000041                     	ds	2
   985   000043                     vfpfcnvrt@fp:
   986                           	callstack 0
   987                           
   988                           ; 1 bytes @ 0x42
   989   000043                     	ds	1
   990   000044                     vfpfcnvrt@fmt:
   991                           	callstack 0
   992                           
   993                           ; 1 bytes @ 0x43
   994   000044                     	ds	1
   995   000045                     vfpfcnvrt@ap:
   996                           	callstack 0
   997                           
   998                           ; 1 bytes @ 0x44
   999   000045                     	ds	1
  1000   000046                     ??_vfpfcnvrt:
  1001                           
  1002                           ; 1 bytes @ 0x45
  1003   000046                     	ds	2
  1004   000048                     vfpfcnvrt@done:
  1005                           	callstack 0
  1006                           
  1007                           ; 1 bytes @ 0x47
  1008   000048                     	ds	1
  1009   000049                     vfpfcnvrt@convarg:
  1010                           	callstack 0
  1011                           
  1012                           ; 4 bytes @ 0x48
  1013   000049                     	ds	4
  1014   00004D                     vfpfcnvrt@cp:
  1015                           	callstack 0
  1016                           
  1017                           ; 1 bytes @ 0x4C
  1018   00004D                     	ds	1
  1019   00004E                     vfpfcnvrt@c:
  1020                           	callstack 0
  1021                           
  1022                           ; 1 bytes @ 0x4D
  1023   00004E                     	ds	1
  1024   00004F                     ?_vfprintf:
  1025                           	callstack 0
  1026   00004F                     vfprintf@fp:
  1027                           	callstack 0
  1028                           
  1029                           ; 1 bytes @ 0x4E
  1030   00004F                     	ds	1
  1031   000050                     vfprintf@fmt:
  1032                           	callstack 0
  1033                           
  1034                           ; 1 bytes @ 0x4F
  1035   000050                     	ds	1
  1036   000051                     vfprintf@ap:
  1037                           	callstack 0
  1038                           
  1039                           ; 1 bytes @ 0x50
  1040   000051                     	ds	1
  1041   000052                     vfprintf@cfmt:
  1042                           	callstack 0
  1043                           
  1044                           ; 1 bytes @ 0x51
  1045   000052                     	ds	1
  1046   000053                     ?_sprintf:
  1047                           	callstack 0
  1048   000053                     sprintf@s:
  1049                           	callstack 0
  1050                           
  1051                           ; 2 bytes @ 0x52
  1052   000053                     	ds	2
  1053   000055                     sprintf@fmt:
  1054                           	callstack 0
  1055                           
  1056                           ; 1 bytes @ 0x54
  1057   000055                     	ds	5
  1058   00005A                     
  1059                           ; 1 bytes @ 0x59
  1060 ;;
  1061 ;;Main: autosize = 0, tempsize = 2, incstack = 0, save=0
  1062 ;;
  1063 ;; *************** function _main *****************
  1064 ;; Defined at:
  1065 ;;		line 50 in file "main.c"
  1066 ;; Parameters:    Size  Location     Type
  1067 ;;		None
  1068 ;; Auto vars:     Size  Location     Type
  1069 ;;  i               1   71[BANK1 ] unsigned char 
  1070 ;;  i               1   70[BANK1 ] unsigned char 
  1071 ;;  i               1   69[BANK1 ] unsigned char 
  1072 ;;  i               1   68[BANK1 ] unsigned char 
  1073 ;;  i               1   67[BANK1 ] unsigned char 
  1074 ;;  i               1   66[BANK1 ] unsigned char 
  1075 ;;  adc_volt_rxD   16   30[BANK1 ] unsigned char [16]
  1076 ;;  adc_val_rxDa   16   14[BANK1 ] unsigned char [16]
  1077 ;;  adc_volt_sta   14    0[BANK1 ] unsigned char [14]
  1078 ;;  adc_val_star    6   46[BANK1 ] unsigned char [6]
  1079 ;;  adc_volt_end    5   52[BANK1 ] unsigned char [5]
  1080 ;;  adc_volt        4   60[BANK1 ] float 
  1081 ;;  adc_val_end_    3   57[BANK1 ] unsigned char [3]
  1082 ;;  adc_val         2   72[BANK1 ] unsigned short 
  1083 ;;  pwm_write_da    2   64[BANK1 ] unsigned short 
  1084 ;; Return value:  Size  Location     Type
  1085 ;;                  1    wreg      void 
  1086 ;; Registers used:
  1087 ;;		wreg, fsr1l, fsr1h, fsr2l, fsr2h, status,2, status,0, tblptrl, tblptrh, tblptru, prodl, prodh, cstack
  1088 ;; Tracked objects:
  1089 ;;		On entry : 0/0
  1090 ;;		On exit  : 0/0
  1091 ;;		Unchanged: 0/0
  1092 ;; Data sizes:     COMRAM   BANK0   BANK1   BANK2   BANK3   BANK4   BANK5   BANK6   BANK7   BANK8   BANK9  BANK10  BANK1
      +1  BANK12  BANK14
  1093 ;;      Params:         0       0       0       0       0       0       0       0       0       0       0       0       
      +0       0       0
  1094 ;;      Locals:         0       0      74       0       0       0       0       0       0       0       0       0       
      +0       0       0
  1095 ;;      Temps:          0       2       0       0       0       0       0       0       0       0       0       0       
      +0       0       0
  1096 ;;      Totals:         0       2      74       0       0       0       0       0       0       0       0       0       
      +0       0       0
  1097 ;;Total ram usage:       76 bytes
  1098 ;; Hardware stack levels required when called: 9
  1099 ;; This function calls:
  1100 ;;		_ADCC_DisableContinuousConversion
  1101 ;;		_ADCC_GetConversionResult
  1102 ;;		_ADCC_Initialize
  1103 ;;		_ADCC_StartConversion
  1104 ;;		_EUSART2_Write
  1105 ;;		_EUSART2_is_tx_ready
  1106 ;;		_PWM4_Initialize
  1107 ;;		_PWM4_LoadDutyValue
  1108 ;;		_SYSTEM_Initialize
  1109 ;;		_TMR2_StartTimer
  1110 ;;		___flmul
  1111 ;;		___lwdiv
  1112 ;;		___xxtofl
  1113 ;;		_sprintf
  1114 ;;		_strlen
  1115 ;; This function is called by:
  1116 ;;		Startup code after reset
  1117 ;; This function uses a non-reentrant model
  1118 ;;
  1119                           
  1120                           	psect	text0
  1121   0028C6                     __ptext0:
  1122                           	callstack 0
  1123   0028C6                     _main:
  1124                           	callstack 22
  1125   0028C6                     
  1126                           ;main.c: 53:     SYSTEM_Initialize();
  1127   0028C6  EC6D  F01D         	call	_SYSTEM_Initialize	;wreg free
  1128   0028CA                     
  1129                           ;main.c: 71:     TMR2_StartTimer();
  1130   0028CA  ECF5  F01D         	call	_TMR2_StartTimer	;wreg free
  1131   0028CE                     
  1132                           ;main.c: 72:     PWM4_Initialize();
  1133   0028CE  ECB0  F01D         	call	_PWM4_Initialize	;wreg free
  1134   0028D2                     
  1135                           ;main.c: 73:     ADCC_Initialize();
  1136   0028D2  ECFC  F01B         	call	_ADCC_Initialize	;wreg free
  1137   0028D6                     
  1138                           ;main.c: 74:     ADCC_DisableContinuousConversion();
  1139   0028D6  ECF8  F01D         	call	_ADCC_DisableContinuousConversion	;wreg free
  1140   0028DA                     
  1141                           ;main.c: 76:     ADCC_StartConversion(channel_ANA2);
  1142   0028DA  0E02               	movlw	2
  1143   0028DC  ECE9  F01D         	call	_ADCC_StartConversion
  1144   0028E0                     
  1145                           ;main.c: 78:     adc_result_t adc_val;;main.c: 80:     float adc_volt;;main.c: 82:     c
      +                          har adc_val_start_msg[] = "ADC: ";
  1146   0028E0  EE20  F09B         	lfsr	2,main@F13546
  1147   0028E4  EE11  F07E         	lfsr	1,main@adc_val_start_msg
  1148   0028E8  0E05               	movlw	5
  1149   0028EA                     u6371:
  1150   0028EA  CFDB FFE3          	movff	plusw2,plusw1
  1151   0028EE  06E8               	decf	wreg,f,c
  1152   0028F0  E2FC               	bc	u6371
  1153   0028F2                     
  1154                           ;main.c: 83:     char adc_val_end_msg[] = "\r\n";
  1155   0028F2  C0A6  F189         	movff	main@F13548,main@adc_val_end_msg
  1156   0028F6  C0A7  F18A         	movff	main@F13548+1,main@adc_val_end_msg+1
  1157   0028FA  C0A8  F18B         	movff	main@F13548+2,main@adc_val_end_msg+2
  1158   0028FE                     
  1159                           ;main.c: 84:     char adc_val_rxData[16];;main.c: 86:     char adc_volt_start_msg[] = "A
      +                          DC Voltage: ";
  1160   0028FE  EE21  F09A         	lfsr	2,main@F13551
  1161   002902  EE11  F050         	lfsr	1,main@adc_volt_start_msg
  1162   002906  0E0D               	movlw	13
  1163   002908                     u6381:
  1164   002908  CFDB FFE3          	movff	plusw2,plusw1
  1165   00290C  06E8               	decf	wreg,f,c
  1166   00290E  E2FC               	bc	u6381
  1167   002910                     
  1168                           ;main.c: 87:     char adc_volt_end_msg[] = "\r\n\n\n";
  1169   002910  EE20  F0A1         	lfsr	2,main@F13553
  1170   002914  EE11  F084         	lfsr	1,main@adc_volt_end_msg
  1171   002918  0E04               	movlw	4
  1172   00291A                     u6391:
  1173   00291A  CFDB FFE3          	movff	plusw2,plusw1
  1174   00291E  06E8               	decf	wreg,f,c
  1175   002920  E2FC               	bc	u6391
  1176   002922                     l5786:
  1177                           
  1178                           ;main.c: 93:     {;main.c: 104:         if(EUSART2_is_tx_ready())
  1179   002922  EC58  F01D         	call	_EUSART2_is_tx_ready	;wreg free
  1180   002926  0900               	iorlw	0
  1181   002928  B4D8               	btfsc	status,2,c
  1182   00292A  EF99  F014         	goto	u6401
  1183   00292E  EF9B  F014         	goto	u6400
  1184   002932                     u6401:
  1185   002932  EF91  F014         	goto	l5786
  1186   002936                     u6400:
  1187   002936                     
  1188                           ;main.c: 105:         {;main.c: 107:             adc_val = ADCC_GetConversionResult();
  1189   002936  ECBB  F01D         	call	_ADCC_GetConversionResult	;wreg free
  1190   00293A  C001  F198         	movff	?_ADCC_GetConversionResult,main@adc_val
  1191   00293E  C002  F199         	movff	?_ADCC_GetConversionResult+1,main@adc_val+1
  1192   002942                     
  1193                           ;main.c: 109:             sprintf(adc_val_rxData, "%d", adc_val);
  1194   002942  0E5E               	movlw	low main@adc_val_rxData
  1195   002944  6E53               	movwf	sprintf@s^0,c
  1196   002946  0E01               	movlw	high main@adc_val_rxData
  1197   002948  6E54               	movwf	(sprintf@s+1)^0,c
  1198   00294A  0E0E               	movlw	low STR_1
  1199   00294C  6E55               	movwf	sprintf@fmt^0,c
  1200   00294E  C198  F056         	movff	main@adc_val,?_sprintf+3
  1201   002952  C199  F057         	movff	main@adc_val+1,?_sprintf+4
  1202   002956  EC8E  F01C         	call	_sprintf	;wreg free
  1203   00295A                     
  1204                           ;main.c: 111:             adc_volt = (adc_val / 1023) * 3.3;
  1205   00295A  0E03               	movlw	3
  1206   00295C  6E04               	movwf	(___lwdiv@divisor+1)^0,c
  1207   00295E  6803               	setf	___lwdiv@divisor^0,c
  1208   002960  C198  F001         	movff	main@adc_val,___lwdiv@dividend
  1209   002964  C199  F002         	movff	main@adc_val+1,___lwdiv@dividend+1
  1210   002968  EC07  F01B         	call	___lwdiv	;wreg free
  1211   00296C  C001  F008         	movff	?___lwdiv,___xxtofl@val
  1212   002970  C002  F009         	movff	?___lwdiv+1,___xxtofl@val+1
  1213   002974  6A0A               	clrf	(___xxtofl@val+2)^0,c
  1214   002976  6A0B               	clrf	(___xxtofl@val+3)^0,c
  1215   002978  0E00               	movlw	0
  1216   00297A  ECF6  F016         	call	___xxtofl
  1217   00297E  C008  F016         	movff	?___xxtofl,___flmul@b
  1218   002982  C009  F017         	movff	?___xxtofl+1,___flmul@b+1
  1219   002986  C00A  F018         	movff	?___xxtofl+2,___flmul@b+2
  1220   00298A  C00B  F019         	movff	?___xxtofl+3,___flmul@b+3
  1221   00298E  0E33               	movlw	51
  1222   002990  6E1A               	movwf	___flmul@a^0,c
  1223   002992  0E33               	movlw	51
  1224   002994  6E1B               	movwf	(___flmul@a+1)^0,c
  1225   002996  0E53               	movlw	83
  1226   002998  6E1C               	movwf	(___flmul@a+2)^0,c
  1227   00299A  0E40               	movlw	64
  1228   00299C  6E1D               	movwf	(___flmul@a+3)^0,c
  1229   00299E  ECDE  F00E         	call	___flmul	;wreg free
  1230   0029A2  C016  F18C         	movff	?___flmul,main@adc_volt
  1231   0029A6  C017  F18D         	movff	?___flmul+1,main@adc_volt+1
  1232   0029AA  C018  F18E         	movff	?___flmul+2,main@adc_volt+2
  1233   0029AE  C019  F18F         	movff	?___flmul+3,main@adc_volt+3
  1234   0029B2                     
  1235                           ;main.c: 112:             sprintf(adc_volt_rxData, "%f.2", adc_volt);
  1236   0029B2  0E6E               	movlw	low main@adc_volt_rxData
  1237   0029B4  6E53               	movwf	sprintf@s^0,c
  1238   0029B6  0E01               	movlw	high main@adc_volt_rxData
  1239   0029B8  6E54               	movwf	(sprintf@s+1)^0,c
  1240   0029BA  0E01               	movlw	low STR_2
  1241   0029BC  6E55               	movwf	sprintf@fmt^0,c
  1242   0029BE  C18C  F056         	movff	main@adc_volt,?_sprintf+3
  1243   0029C2  C18D  F057         	movff	main@adc_volt+1,?_sprintf+4
  1244   0029C6  C18E  F058         	movff	main@adc_volt+2,?_sprintf+5
  1245   0029CA  C18F  F059         	movff	main@adc_volt+3,?_sprintf+6
  1246   0029CE  EC8E  F01C         	call	_sprintf	;wreg free
  1247   0029D2                     
  1248                           ;main.c: 114:             pwm_write_data = adc_val << 6;
  1249   0029D2  C198  F099         	movff	main@adc_val,??_main
  1250   0029D6  C199  F09A         	movff	main@adc_val+1,??_main+1
  1251   0029DA  0E06               	movlw	6
  1252   0029DC                     u6415:
  1253   0029DC  90D8               	bcf	status,0,c
  1254   0029DE  0100               	movlb	0	; () banked
  1255   0029E0  3799               	rlcf	??_main& (0+255),f,b
  1256   0029E2  379A               	rlcf	(??_main+1)& (0+255),f,b
  1257   0029E4  2EE8               	decfsz	wreg,f,c
  1258   0029E6  EFEE  F014         	goto	u6415
  1259   0029EA  C099  F190         	movff	??_main,main@pwm_write_data
  1260   0029EE  C09A  F191         	movff	??_main+1,main@pwm_write_data+1
  1261   0029F2                     
  1262                           ; BSR set to: 0
  1263                           ;main.c: 116:             PWM4_LoadDutyValue(pwm_write_data);
  1264   0029F2  C190  F001         	movff	main@pwm_write_data,PWM4_LoadDutyValue@dutyValue
  1265   0029F6  C191  F002         	movff	main@pwm_write_data+1,PWM4_LoadDutyValue@dutyValue+1
  1266   0029FA  EC3E  F01D         	call	_PWM4_LoadDutyValue	;wreg free
  1267   0029FE                     
  1268                           ;main.c: 125:             for(uint8_t i = 0; i < strlen(adc_val_start_msg); i++)
  1269   0029FE  0E00               	movlw	0
  1270   002A00  0101               	movlb	1	; () banked
  1271   002A02  6F92               	movwf	main@i& (0+255),b
  1272   002A04  EF10  F015         	goto	l5806
  1273   002A08                     l5802:
  1274                           
  1275                           ; BSR set to: 0
  1276                           ;main.c: 126:             {;main.c: 127:                 EUSART2_Write(adc_val_start_msg
      +                          [i]);
  1277   002A08  0E7E               	movlw	low main@adc_val_start_msg
  1278   002A0A  0101               	movlb	1	; () banked
  1279   002A0C  2592               	addwf	main@i& (0+255),w,b
  1280   002A0E  6ED9               	movwf	fsr2l,c
  1281   002A10  6ADA               	clrf	fsr2h,c
  1282   002A12  0E01               	movlw	high main@adc_val_start_msg
  1283   002A14  22DA               	addwfc	fsr2h,f,c
  1284   002A16  50DF               	movf	indf2,w,c
  1285   002A18  EC98  F01D         	call	_EUSART2_Write
  1286   002A1C                     
  1287                           ;main.c: 128:             }
  1288   002A1C  0101               	movlb	1	; () banked
  1289   002A1E  2B92               	incf	main@i& (0+255),f,b
  1290   002A20                     l5806:
  1291                           
  1292                           ; BSR set to: 1
  1293   002A20  0E7E               	movlw	low main@adc_val_start_msg
  1294   002A22  6E01               	movwf	strlen@s^0,c
  1295   002A24  0E01               	movlw	high main@adc_val_start_msg
  1296   002A26  6E02               	movwf	(strlen@s+1)^0,c
  1297   002A28  EC09  F01D         	call	_strlen	;wreg free
  1298   002A2C  0101               	movlb	1	; () banked
  1299   002A2E  5192               	movf	main@i& (0+255),w,b
  1300   002A30  0100               	movlb	0	; () banked
  1301   002A32  6F99               	movwf	??_main& (0+255),b
  1302   002A34  6B9A               	clrf	(??_main+1)& (0+255),b
  1303   002A36  5001               	movf	?_strlen^0,w,c
  1304   002A38  5D99               	subwf	??_main& (0+255),w,b
  1305   002A3A  5002               	movf	(?_strlen+1)^0,w,c
  1306   002A3C  599A               	subwfb	(??_main+1)& (0+255),w,b
  1307   002A3E  A0D8               	btfss	status,0,c
  1308   002A40  EF24  F015         	goto	u6421
  1309   002A44  EF26  F015         	goto	u6420
  1310   002A48                     u6421:
  1311   002A48  EF04  F015         	goto	l5802
  1312   002A4C                     u6420:
  1313   002A4C                     
  1314                           ; BSR set to: 0
  1315                           ;main.c: 130:             for(uint8_t i = 0; i < strlen(adc_val_rxData); i++)
  1316   002A4C  0E00               	movlw	0
  1317   002A4E  0101               	movlb	1	; () banked
  1318   002A50  6F93               	movwf	main@i_364& (0+255),b
  1319   002A52  EF37  F015         	goto	l5814
  1320   002A56                     l5810:
  1321                           
  1322                           ; BSR set to: 0
  1323                           ;main.c: 131:             {;main.c: 132:                 EUSART2_Write(adc_val_rxData[i]
      +                          );
  1324   002A56  0E5E               	movlw	low main@adc_val_rxData
  1325   002A58  0101               	movlb	1	; () banked
  1326   002A5A  2593               	addwf	main@i_364& (0+255),w,b
  1327   002A5C  6ED9               	movwf	fsr2l,c
  1328   002A5E  6ADA               	clrf	fsr2h,c
  1329   002A60  0E01               	movlw	high main@adc_val_rxData
  1330   002A62  22DA               	addwfc	fsr2h,f,c
  1331   002A64  50DF               	movf	indf2,w,c
  1332   002A66  EC98  F01D         	call	_EUSART2_Write
  1333   002A6A                     
  1334                           ;main.c: 133:             }
  1335   002A6A  0101               	movlb	1	; () banked
  1336   002A6C  2B93               	incf	main@i_364& (0+255),f,b
  1337   002A6E                     l5814:
  1338                           
  1339                           ; BSR set to: 1
  1340   002A6E  0E5E               	movlw	low main@adc_val_rxData
  1341   002A70  6E01               	movwf	strlen@s^0,c
  1342   002A72  0E01               	movlw	high main@adc_val_rxData
  1343   002A74  6E02               	movwf	(strlen@s+1)^0,c
  1344   002A76  EC09  F01D         	call	_strlen	;wreg free
  1345   002A7A  0101               	movlb	1	; () banked
  1346   002A7C  5193               	movf	main@i_364& (0+255),w,b
  1347   002A7E  0100               	movlb	0	; () banked
  1348   002A80  6F99               	movwf	??_main& (0+255),b
  1349   002A82  6B9A               	clrf	(??_main+1)& (0+255),b
  1350   002A84  5001               	movf	?_strlen^0,w,c
  1351   002A86  5D99               	subwf	??_main& (0+255),w,b
  1352   002A88  5002               	movf	(?_strlen+1)^0,w,c
  1353   002A8A  599A               	subwfb	(??_main+1)& (0+255),w,b
  1354   002A8C  A0D8               	btfss	status,0,c
  1355   002A8E  EF4B  F015         	goto	u6431
  1356   002A92  EF4D  F015         	goto	u6430
  1357   002A96                     u6431:
  1358   002A96  EF2B  F015         	goto	l5810
  1359   002A9A                     u6430:
  1360   002A9A                     
  1361                           ; BSR set to: 0
  1362                           ;main.c: 135:             for(uint8_t i = 0; i < strlen(adc_val_end_msg); i++)
  1363   002A9A  0E00               	movlw	0
  1364   002A9C  0101               	movlb	1	; () banked
  1365   002A9E  6F94               	movwf	main@i_365& (0+255),b
  1366   002AA0  EF5E  F015         	goto	l5822
  1367   002AA4                     l5818:
  1368                           
  1369                           ; BSR set to: 0
  1370                           ;main.c: 136:             {;main.c: 137:                 EUSART2_Write(adc_val_end_msg[i
      +                          ]);
  1371   002AA4  0E89               	movlw	low main@adc_val_end_msg
  1372   002AA6  0101               	movlb	1	; () banked
  1373   002AA8  2594               	addwf	main@i_365& (0+255),w,b
  1374   002AAA  6ED9               	movwf	fsr2l,c
  1375   002AAC  6ADA               	clrf	fsr2h,c
  1376   002AAE  0E01               	movlw	high main@adc_val_end_msg
  1377   002AB0  22DA               	addwfc	fsr2h,f,c
  1378   002AB2  50DF               	movf	indf2,w,c
  1379   002AB4  EC98  F01D         	call	_EUSART2_Write
  1380   002AB8                     
  1381                           ;main.c: 138:             }
  1382   002AB8  0101               	movlb	1	; () banked
  1383   002ABA  2B94               	incf	main@i_365& (0+255),f,b
  1384   002ABC                     l5822:
  1385                           
  1386                           ; BSR set to: 1
  1387   002ABC  0E89               	movlw	low main@adc_val_end_msg
  1388   002ABE  6E01               	movwf	strlen@s^0,c
  1389   002AC0  0E01               	movlw	high main@adc_val_end_msg
  1390   002AC2  6E02               	movwf	(strlen@s+1)^0,c
  1391   002AC4  EC09  F01D         	call	_strlen	;wreg free
  1392   002AC8  0101               	movlb	1	; () banked
  1393   002ACA  5194               	movf	main@i_365& (0+255),w,b
  1394   002ACC  0100               	movlb	0	; () banked
  1395   002ACE  6F99               	movwf	??_main& (0+255),b
  1396   002AD0  6B9A               	clrf	(??_main+1)& (0+255),b
  1397   002AD2  5001               	movf	?_strlen^0,w,c
  1398   002AD4  5D99               	subwf	??_main& (0+255),w,b
  1399   002AD6  5002               	movf	(?_strlen+1)^0,w,c
  1400   002AD8  599A               	subwfb	(??_main+1)& (0+255),w,b
  1401   002ADA  A0D8               	btfss	status,0,c
  1402   002ADC  EF72  F015         	goto	u6441
  1403   002AE0  EF74  F015         	goto	u6440
  1404   002AE4                     u6441:
  1405   002AE4  EF52  F015         	goto	l5818
  1406   002AE8                     u6440:
  1407   002AE8                     
  1408                           ; BSR set to: 0
  1409                           ;main.c: 142:             for(uint8_t i = 0; i < strlen(adc_volt_start_msg); i++)
  1410   002AE8  0E00               	movlw	0
  1411   002AEA  0101               	movlb	1	; () banked
  1412   002AEC  6F95               	movwf	main@i_366& (0+255),b
  1413   002AEE  EF85  F015         	goto	l5830
  1414   002AF2                     l5826:
  1415                           
  1416                           ; BSR set to: 0
  1417                           ;main.c: 143:             {;main.c: 144:                 EUSART2_Write(adc_volt_start_ms
      +                          g[i]);
  1418   002AF2  0E50               	movlw	low main@adc_volt_start_msg
  1419   002AF4  0101               	movlb	1	; () banked
  1420   002AF6  2595               	addwf	main@i_366& (0+255),w,b
  1421   002AF8  6ED9               	movwf	fsr2l,c
  1422   002AFA  6ADA               	clrf	fsr2h,c
  1423   002AFC  0E01               	movlw	high main@adc_volt_start_msg
  1424   002AFE  22DA               	addwfc	fsr2h,f,c
  1425   002B00  50DF               	movf	indf2,w,c
  1426   002B02  EC98  F01D         	call	_EUSART2_Write
  1427   002B06                     
  1428                           ;main.c: 145:             }
  1429   002B06  0101               	movlb	1	; () banked
  1430   002B08  2B95               	incf	main@i_366& (0+255),f,b
  1431   002B0A                     l5830:
  1432                           
  1433                           ; BSR set to: 1
  1434   002B0A  0E50               	movlw	low main@adc_volt_start_msg
  1435   002B0C  6E01               	movwf	strlen@s^0,c
  1436   002B0E  0E01               	movlw	high main@adc_volt_start_msg
  1437   002B10  6E02               	movwf	(strlen@s+1)^0,c
  1438   002B12  EC09  F01D         	call	_strlen	;wreg free
  1439   002B16  0101               	movlb	1	; () banked
  1440   002B18  5195               	movf	main@i_366& (0+255),w,b
  1441   002B1A  0100               	movlb	0	; () banked
  1442   002B1C  6F99               	movwf	??_main& (0+255),b
  1443   002B1E  6B9A               	clrf	(??_main+1)& (0+255),b
  1444   002B20  5001               	movf	?_strlen^0,w,c
  1445   002B22  5D99               	subwf	??_main& (0+255),w,b
  1446   002B24  5002               	movf	(?_strlen+1)^0,w,c
  1447   002B26  599A               	subwfb	(??_main+1)& (0+255),w,b
  1448   002B28  A0D8               	btfss	status,0,c
  1449   002B2A  EF99  F015         	goto	u6451
  1450   002B2E  EF9B  F015         	goto	u6450
  1451   002B32                     u6451:
  1452   002B32  EF79  F015         	goto	l5826
  1453   002B36                     u6450:
  1454   002B36                     
  1455                           ; BSR set to: 0
  1456                           ;main.c: 147:             for(uint8_t i = 0; i < strlen(adc_volt_rxData); i++)
  1457   002B36  0E00               	movlw	0
  1458   002B38  0101               	movlb	1	; () banked
  1459   002B3A  6F96               	movwf	main@i_367& (0+255),b
  1460   002B3C  EFAC  F015         	goto	l5838
  1461   002B40                     l5834:
  1462                           
  1463                           ; BSR set to: 0
  1464                           ;main.c: 148:             {;main.c: 149:                 EUSART2_Write(adc_volt_rxData[i
      +                          ]);
  1465   002B40  0E6E               	movlw	low main@adc_volt_rxData
  1466   002B42  0101               	movlb	1	; () banked
  1467   002B44  2596               	addwf	main@i_367& (0+255),w,b
  1468   002B46  6ED9               	movwf	fsr2l,c
  1469   002B48  6ADA               	clrf	fsr2h,c
  1470   002B4A  0E01               	movlw	high main@adc_volt_rxData
  1471   002B4C  22DA               	addwfc	fsr2h,f,c
  1472   002B4E  50DF               	movf	indf2,w,c
  1473   002B50  EC98  F01D         	call	_EUSART2_Write
  1474   002B54                     
  1475                           ;main.c: 150:             }
  1476   002B54  0101               	movlb	1	; () banked
  1477   002B56  2B96               	incf	main@i_367& (0+255),f,b
  1478   002B58                     l5838:
  1479                           
  1480                           ; BSR set to: 1
  1481   002B58  0E6E               	movlw	low main@adc_volt_rxData
  1482   002B5A  6E01               	movwf	strlen@s^0,c
  1483   002B5C  0E01               	movlw	high main@adc_volt_rxData
  1484   002B5E  6E02               	movwf	(strlen@s+1)^0,c
  1485   002B60  EC09  F01D         	call	_strlen	;wreg free
  1486   002B64  0101               	movlb	1	; () banked
  1487   002B66  5196               	movf	main@i_367& (0+255),w,b
  1488   002B68  0100               	movlb	0	; () banked
  1489   002B6A  6F99               	movwf	??_main& (0+255),b
  1490   002B6C  6B9A               	clrf	(??_main+1)& (0+255),b
  1491   002B6E  5001               	movf	?_strlen^0,w,c
  1492   002B70  5D99               	subwf	??_main& (0+255),w,b
  1493   002B72  5002               	movf	(?_strlen+1)^0,w,c
  1494   002B74  599A               	subwfb	(??_main+1)& (0+255),w,b
  1495   002B76  A0D8               	btfss	status,0,c
  1496   002B78  EFC0  F015         	goto	u6461
  1497   002B7C  EFC2  F015         	goto	u6460
  1498   002B80                     u6461:
  1499   002B80  EFA0  F015         	goto	l5834
  1500   002B84                     u6460:
  1501   002B84                     
  1502                           ; BSR set to: 0
  1503                           ;main.c: 152:             for(uint8_t i = 0; i < strlen(adc_volt_end_msg); i++)
  1504   002B84  0E00               	movlw	0
  1505   002B86  0101               	movlb	1	; () banked
  1506   002B88  6F97               	movwf	main@i_368& (0+255),b
  1507   002B8A  EFD3  F015         	goto	l5846
  1508   002B8E                     l5842:
  1509                           
  1510                           ; BSR set to: 0
  1511                           ;main.c: 153:             {;main.c: 154:                 EUSART2_Write(adc_volt_end_msg[
      +                          i]);
  1512   002B8E  0E84               	movlw	low main@adc_volt_end_msg
  1513   002B90  0101               	movlb	1	; () banked
  1514   002B92  2597               	addwf	main@i_368& (0+255),w,b
  1515   002B94  6ED9               	movwf	fsr2l,c
  1516   002B96  6ADA               	clrf	fsr2h,c
  1517   002B98  0E01               	movlw	high main@adc_volt_end_msg
  1518   002B9A  22DA               	addwfc	fsr2h,f,c
  1519   002B9C  50DF               	movf	indf2,w,c
  1520   002B9E  EC98  F01D         	call	_EUSART2_Write
  1521   002BA2                     
  1522                           ;main.c: 155:             }
  1523   002BA2  0101               	movlb	1	; () banked
  1524   002BA4  2B97               	incf	main@i_368& (0+255),f,b
  1525   002BA6                     l5846:
  1526                           
  1527                           ; BSR set to: 1
  1528   002BA6  0E84               	movlw	low main@adc_volt_end_msg
  1529   002BA8  6E01               	movwf	strlen@s^0,c
  1530   002BAA  0E01               	movlw	high main@adc_volt_end_msg
  1531   002BAC  6E02               	movwf	(strlen@s+1)^0,c
  1532   002BAE  EC09  F01D         	call	_strlen	;wreg free
  1533   002BB2  0101               	movlb	1	; () banked
  1534   002BB4  5197               	movf	main@i_368& (0+255),w,b
  1535   002BB6  0100               	movlb	0	; () banked
  1536   002BB8  6F99               	movwf	??_main& (0+255),b
  1537   002BBA  6B9A               	clrf	(??_main+1)& (0+255),b
  1538   002BBC  5001               	movf	?_strlen^0,w,c
  1539   002BBE  5D99               	subwf	??_main& (0+255),w,b
  1540   002BC0  5002               	movf	(?_strlen+1)^0,w,c
  1541   002BC2  599A               	subwfb	(??_main+1)& (0+255),w,b
  1542   002BC4  A0D8               	btfss	status,0,c
  1543   002BC6  EFE7  F015         	goto	u6471
  1544   002BCA  EFE9  F015         	goto	u6470
  1545   002BCE                     u6471:
  1546   002BCE  EFC7  F015         	goto	l5842
  1547   002BD2                     u6470:
  1548   002BD2  EF91  F014         	goto	l5786
  1549   002BD6  EF00  F000         	goto	start
  1550   002BDA                     __end_of_main:
  1551                           	callstack 0
  1552                           
  1553 ;; *************** function _strlen *****************
  1554 ;; Defined at:
  1555 ;;		line 5 in file "/opt/microchip/xc8/v2.45/pic/sources/c99/common/strlen.c"
  1556 ;; Parameters:    Size  Location     Type
  1557 ;;  s               2    0[COMRAM] PTR const unsigned char 
  1558 ;;		 -> main@adc_volt_rxData(16), main@adc_val_rxData(16), main@adc_volt_end_msg(5), main@adc_volt_start_msg(14), 
  1559 ;;		 -> main@adc_val_end_msg(3), main@adc_val_start_msg(6), 
  1560 ;; Auto vars:     Size  Location     Type
  1561 ;;  a               2    2[COMRAM] PTR const unsigned char 
  1562 ;;		 -> main@adc_volt_rxData(16), main@adc_val_rxData(16), main@adc_volt_end_msg(5), main@adc_volt_start_msg(14), 
  1563 ;;		 -> main@adc_val_end_msg(3), main@adc_val_start_msg(6), 
  1564 ;; Return value:  Size  Location     Type
  1565 ;;                  2    0[COMRAM] unsigned int 
  1566 ;; Registers used:
  1567 ;;		wreg, fsr2l, fsr2h, status,2, status,0
  1568 ;; Tracked objects:
  1569 ;;		On entry : 0/0
  1570 ;;		On exit  : 0/0
  1571 ;;		Unchanged: 0/0
  1572 ;; Data sizes:     COMRAM   BANK0   BANK1   BANK2   BANK3   BANK4   BANK5   BANK6   BANK7   BANK8   BANK9  BANK10  BANK1
      +1  BANK12  BANK14
  1573 ;;      Params:         2       0       0       0       0       0       0       0       0       0       0       0       
      +0       0       0
  1574 ;;      Locals:         2       0       0       0       0       0       0       0       0       0       0       0       
      +0       0       0
  1575 ;;      Temps:          0       0       0       0       0       0       0       0       0       0       0       0       
      +0       0       0
  1576 ;;      Totals:         4       0       0       0       0       0       0       0       0       0       0       0       
      +0       0       0
  1577 ;;Total ram usage:        4 bytes
  1578 ;; Hardware stack levels used: 1
  1579 ;; This function calls:
  1580 ;;		Nothing
  1581 ;; This function is called by:
  1582 ;;		_main
  1583 ;; This function uses a non-reentrant model
  1584 ;;
  1585                           
  1586                           	psect	text1
  1587   003A12                     __ptext1:
  1588                           	callstack 0
  1589   003A12                     _strlen:
  1590                           	callstack 30
  1591   003A12  C001  F003         	movff	strlen@s,strlen@a
  1592   003A16  C002  F004         	movff	strlen@s+1,strlen@a+1
  1593   003A1A  EF11  F01D         	goto	l5760
  1594   003A1E                     l5758:
  1595   003A1E  4A01               	infsnz	strlen@s^0,f,c
  1596   003A20  2A02               	incf	(strlen@s+1)^0,f,c
  1597   003A22                     l5760:
  1598   003A22  C001  FFD9         	movff	strlen@s,fsr2l
  1599   003A26  C002  FFDA         	movff	strlen@s+1,fsr2h
  1600   003A2A  50DF               	movf	indf2,w,c
  1601   003A2C  A4D8               	btfss	status,2,c
  1602   003A2E  EF1B  F01D         	goto	u6361
  1603   003A32  EF1D  F01D         	goto	u6360
  1604   003A36                     u6361:
  1605   003A36  EF0F  F01D         	goto	l5758
  1606   003A3A                     u6360:
  1607   003A3A  5003               	movf	strlen@a^0,w,c
  1608   003A3C  5C01               	subwf	strlen@s^0,w,c
  1609   003A3E  6E01               	movwf	?_strlen^0,c
  1610   003A40  5004               	movf	(strlen@a+1)^0,w,c
  1611   003A42  5802               	subwfb	(strlen@s+1)^0,w,c
  1612   003A44  6E02               	movwf	(?_strlen+1)^0,c
  1613   003A46  0012               	return		;funcret
  1614   003A48                     __end_of_strlen:
  1615                           	callstack 0
  1616                           
  1617 ;; *************** function _sprintf *****************
  1618 ;; Defined at:
  1619 ;;		line 9 in file "/opt/microchip/xc8/v2.45/pic/sources/c99/common/nf_sprintf.c"
  1620 ;; Parameters:    Size  Location     Type
  1621 ;;  s               2   82[COMRAM] PTR unsigned char 
  1622 ;;		 -> main@adc_volt_rxData(16), main@adc_val_rxData(16), 
  1623 ;;  fmt             1   84[COMRAM] PTR const unsigned char 
  1624 ;;		 -> STR_2(5), STR_1(3), 
  1625 ;; Auto vars:     Size  Location     Type
  1626 ;;  f              12   45[BANK0 ] struct _IO_FILE
  1627 ;;  ret             2    0        int 
  1628 ;;  ap              1   44[BANK0 ] PTR void [1]
  1629 ;;		 -> ?_sprintf(2), 
  1630 ;; Return value:  Size  Location     Type
  1631 ;;                  2   82[COMRAM] int 
  1632 ;; Registers used:
  1633 ;;		wreg, fsr1l, fsr1h, fsr2l, fsr2h, status,2, status,0, tblptrl, tblptrh, tblptru, prodl, prodh, cstack
  1634 ;; Tracked objects:
  1635 ;;		On entry : 0/0
  1636 ;;		On exit  : 0/0
  1637 ;;		Unchanged: 0/0
  1638 ;; Data sizes:     COMRAM   BANK0   BANK1   BANK2   BANK3   BANK4   BANK5   BANK6   BANK7   BANK8   BANK9  BANK10  BANK1
      +1  BANK12  BANK14
  1639 ;;      Params:         7       0       0       0       0       0       0       0       0       0       0       0       
      +0       0       0
  1640 ;;      Locals:         0      13       0       0       0       0       0       0       0       0       0       0       
      +0       0       0
  1641 ;;      Temps:          0       0       0       0       0       0       0       0       0       0       0       0       
      +0       0       0
  1642 ;;      Totals:         7      13       0       0       0       0       0       0       0       0       0       0       
      +0       0       0
  1643 ;;Total ram usage:       20 bytes
  1644 ;; Hardware stack levels used: 1
  1645 ;; Hardware stack levels required when called: 8
  1646 ;; This function calls:
  1647 ;;		_vfprintf
  1648 ;; This function is called by:
  1649 ;;		_main
  1650 ;; This function uses a non-reentrant model
  1651 ;;
  1652                           
  1653                           	psect	text2
  1654   00391C                     __ptext2:
  1655                           	callstack 0
  1656   00391C                     _sprintf:
  1657                           	callstack 22
  1658   00391C  0E56               	movlw	low (?_sprintf+3)
  1659   00391E  0100               	movlb	0	; () banked
  1660   003920  6F8C               	movwf	sprintf@ap& (0+255),b
  1661   003922  C053  F08D         	movff	sprintf@s,sprintf@f
  1662   003926  C054  F08E         	movff	sprintf@s+1,sprintf@f+1
  1663   00392A                     
  1664                           ; BSR set to: 0
  1665   00392A  0E00               	movlw	0
  1666   00392C  6F91               	movwf	(sprintf@f+4)& (0+255),b
  1667   00392E  0E00               	movlw	0
  1668   003930  6F90               	movwf	(sprintf@f+3)& (0+255),b
  1669   003932                     
  1670                           ; BSR set to: 0
  1671   003932  0E00               	movlw	0
  1672   003934  6F98               	movwf	(sprintf@f+11)& (0+255),b
  1673   003936  0E00               	movlw	0
  1674   003938  6F97               	movwf	(sprintf@f+10)& (0+255),b
  1675   00393A                     
  1676                           ; BSR set to: 0
  1677   00393A  0E8D               	movlw	low sprintf@f
  1678   00393C  6E4F               	movwf	vfprintf@fp^0,c
  1679   00393E  C055  F050         	movff	sprintf@fmt,vfprintf@fmt
  1680   003942  0E8C               	movlw	low sprintf@ap
  1681   003944  6E51               	movwf	vfprintf@ap^0,c
  1682   003946  EC6D  F01C         	call	_vfprintf	;wreg free
  1683   00394A  0100               	movlb	0	; () banked
  1684   00394C  5190               	movf	(sprintf@f+3)& (0+255),w,b
  1685   00394E  2453               	addwf	sprintf@s^0,w,c
  1686   003950  6ED9               	movwf	fsr2l,c
  1687   003952  5191               	movf	(sprintf@f+4)& (0+255),w,b
  1688   003954  2054               	addwfc	(sprintf@s+1)^0,w,c
  1689   003956  6EDA               	movwf	fsr2h,c
  1690   003958  6ADF               	clrf	indf2,c
  1691   00395A                     
  1692                           ; BSR set to: 0
  1693   00395A  0012               	return		;funcret
  1694   00395C                     __end_of_sprintf:
  1695                           	callstack 0
  1696                           
  1697 ;; *************** function _vfprintf *****************
  1698 ;; Defined at:
  1699 ;;		line 1817 in file "/opt/microchip/xc8/v2.45/pic/sources/c99/common/doprnt.c"
  1700 ;; Parameters:    Size  Location     Type
  1701 ;;  fp              1   78[COMRAM] PTR struct _IO_FILE
  1702 ;;		 -> sprintf@f(12), 
  1703 ;;  fmt             1   79[COMRAM] PTR const unsigned char 
  1704 ;;		 -> STR_2(5), STR_1(3), 
  1705 ;;  ap              1   80[COMRAM] PTR PTR void 
  1706 ;;		 -> sprintf@ap(1), 
  1707 ;; Auto vars:     Size  Location     Type
  1708 ;;  cfmt            1   81[COMRAM] PTR unsigned char 
  1709 ;;		 -> STR_2(5), STR_1(3), 
  1710 ;; Return value:  Size  Location     Type
  1711 ;;                  2   78[COMRAM] int 
  1712 ;; Registers used:
  1713 ;;		wreg, fsr1l, fsr1h, fsr2l, fsr2h, status,2, status,0, tblptrl, tblptrh, tblptru, prodl, prodh, cstack
  1714 ;; Tracked objects:
  1715 ;;		On entry : 0/0
  1716 ;;		On exit  : 0/0
  1717 ;;		Unchanged: 0/0
  1718 ;; Data sizes:     COMRAM   BANK0   BANK1   BANK2   BANK3   BANK4   BANK5   BANK6   BANK7   BANK8   BANK9  BANK10  BANK1
      +1  BANK12  BANK14
  1719 ;;      Params:         3       0       0       0       0       0       0       0       0       0       0       0       
      +0       0       0
  1720 ;;      Locals:         1       0       0       0       0       0       0       0       0       0       0       0       
      +0       0       0
  1721 ;;      Temps:          0       0       0       0       0       0       0       0       0       0       0       0       
      +0       0       0
  1722 ;;      Totals:         4       0       0       0       0       0       0       0       0       0       0       0       
      +0       0       0
  1723 ;;Total ram usage:        4 bytes
  1724 ;; Hardware stack levels used: 1
  1725 ;; Hardware stack levels required when called: 7
  1726 ;; This function calls:
  1727 ;;		_vfpfcnvrt
  1728 ;; This function is called by:
  1729 ;;		_sprintf
  1730 ;; This function uses a non-reentrant model
  1731 ;;
  1732                           
  1733                           	psect	text3
  1734   0038DA                     __ptext3:
  1735                           	callstack 0
  1736   0038DA                     _vfprintf:
  1737                           	callstack 22
  1738   0038DA                     
  1739                           ;/opt/microchip/xc8/v2.45/pic/sources/c99/common/doprnt.c: 1817: int vfprintf(FILE *fp, 
      +                          const char *fmt, va_list ap);/opt/microchip/xc8/v2.45/pic/sources/c99/common/doprnt.c: 1
      +                          818: {;/opt/microchip/xc8/v2.45/pic/sources/c99/common/doprnt.c: 1820:     char *cfmt;;/
      +                          opt/microchip/xc8/v2.45/pic/sources/c99/common/doprnt.c: 1822:     cfmt = (char *)fmt;
  1740   0038DA  C050  F052         	movff	vfprintf@fmt,vfprintf@cfmt
  1741                           
  1742                           ;/opt/microchip/xc8/v2.45/pic/sources/c99/common/doprnt.c: 1826:     while (*cfmt) {
  1743   0038DE  EF79  F01C         	goto	l5488
  1744   0038E2                     l5486:
  1745                           
  1746                           ;/opt/microchip/xc8/v2.45/pic/sources/c99/common/doprnt.c: 1830:    vfpfcnvrt(fp, &cfmt,
      +                           ap);
  1747   0038E2  C04F  F043         	movff	vfprintf@fp,vfpfcnvrt@fp
  1748   0038E6  0E52               	movlw	low vfprintf@cfmt
  1749   0038E8  6E44               	movwf	vfpfcnvrt@fmt^0,c
  1750   0038EA  C051  F045         	movff	vfprintf@ap,vfpfcnvrt@ap
  1751   0038EE  ECC0  F012         	call	_vfpfcnvrt	;wreg free
  1752   0038F2                     l5488:
  1753                           
  1754                           ;/opt/microchip/xc8/v2.45/pic/sources/c99/common/doprnt.c: 1826:     while (*cfmt) {
  1755   0038F2  C052  FFF6         	movff	vfprintf@cfmt,tblptrl
  1756   0038F6                     	if	1	;There is more than 1 active tblptr byte
  1757   0038F6  0E0F               	movlw	high __smallconst
  1758   0038F8  6EF7               	movwf	tblptrh,c
  1759   0038FA                     	endif
  1760   0038FA                     	if	0	;tblptru may be non-zero
  1761   0038FA                     	endif
  1762   0038FA                     	if	1	;Program memory is > 0xFFFF, there are 3 active tblptr bytes
  1763   0038FA  0E00               	movlw	low (__smallconst shr (0+16))
  1764   0038FC  6EF8               	movwf	tblptru,c
  1765   0038FE                     	endif
  1766   0038FE  0008               	tblrd		*
  1767   003900  50F5               	movf	tablat,w,c
  1768   003902  0900               	iorlw	0
  1769   003904  A4D8               	btfss	status,2,c
  1770   003906  EF87  F01C         	goto	u6071
  1771   00390A  EF89  F01C         	goto	u6070
  1772   00390E                     u6071:
  1773   00390E  EF71  F01C         	goto	l5486
  1774   003912                     u6070:
  1775   003912                     
  1776                           ;/opt/microchip/xc8/v2.45/pic/sources/c99/common/doprnt.c: 1835:  return 0;
  1777   003912  0E00               	movlw	0
  1778   003914  6E50               	movwf	(?_vfprintf+1)^0,c
  1779   003916  0E00               	movlw	0
  1780   003918  6E4F               	movwf	?_vfprintf^0,c
  1781   00391A  0012               	return		;funcret
  1782   00391C                     __end_of_vfprintf:
  1783                           	callstack 0
  1784                           
  1785 ;; *************** function _vfpfcnvrt *****************
  1786 ;; Defined at:
  1787 ;;		line 1177 in file "/opt/microchip/xc8/v2.45/pic/sources/c99/common/doprnt.c"
  1788 ;; Parameters:    Size  Location     Type
  1789 ;;  fp              1   66[COMRAM] PTR struct _IO_FILE
  1790 ;;		 -> sprintf@f(12), 
  1791 ;;  fmt             1   67[COMRAM] PTR PTR unsigned char 
  1792 ;;		 -> vfprintf@cfmt(1), 
  1793 ;;  ap              1   68[COMRAM] PTR PTR void 
  1794 ;;		 -> sprintf@ap(1), 
  1795 ;; Auto vars:     Size  Location     Type
  1796 ;;  convarg         4   72[COMRAM] struct .
  1797 ;;  c               1   77[COMRAM] unsigned char 
  1798 ;;  cp              1   76[COMRAM] PTR unsigned char 
  1799 ;;		 -> STR_2(5), STR_1(3), 
  1800 ;;  done            1   71[COMRAM] _Bool 
  1801 ;; Return value:  Size  Location     Type
  1802 ;;                  1    wreg      void 
  1803 ;; Registers used:
  1804 ;;		wreg, fsr1l, fsr1h, fsr2l, fsr2h, status,2, status,0, tblptrl, tblptrh, tblptru, prodl, prodh, cstack
  1805 ;; Tracked objects:
  1806 ;;		On entry : 0/0
  1807 ;;		On exit  : 0/0
  1808 ;;		Unchanged: 0/0
  1809 ;; Data sizes:     COMRAM   BANK0   BANK1   BANK2   BANK3   BANK4   BANK5   BANK6   BANK7   BANK8   BANK9  BANK10  BANK1
      +1  BANK12  BANK14
  1810 ;;      Params:         3       0       0       0       0       0       0       0       0       0       0       0       
      +0       0       0
  1811 ;;      Locals:         7       0       0       0       0       0       0       0       0       0       0       0       
      +0       0       0
  1812 ;;      Temps:          2       0       0       0       0       0       0       0       0       0       0       0       
      +0       0       0
  1813 ;;      Totals:        12       0       0       0       0       0       0       0       0       0       0       0       
      +0       0       0
  1814 ;;Total ram usage:       12 bytes
  1815 ;; Hardware stack levels used: 1
  1816 ;; Hardware stack levels required when called: 6
  1817 ;; This function calls:
  1818 ;;		___awdiv
  1819 ;;		___awmod
  1820 ;;		_abs
  1821 ;;		_efgtoa
  1822 ;;		_fputc
  1823 ;; This function is called by:
  1824 ;;		_vfprintf
  1825 ;; This function uses a non-reentrant model
  1826 ;;
  1827                           
  1828                           	psect	text4
  1829   002580                     __ptext4:
  1830                           	callstack 0
  1831   002580                     _vfpfcnvrt:
  1832                           	callstack 22
  1833   002580                     
  1834                           ;/opt/microchip/xc8/v2.45/pic/sources/c99/common/doprnt.c: 1177: vfpfcnvrt(FILE *fp, cha
      +                          r *fmt[], va_list ap);/opt/microchip/xc8/v2.45/pic/sources/c99/common/doprnt.c: 1178: {;
      +                          /opt/microchip/xc8/v2.45/pic/sources/c99/common/doprnt.c: 1179:     char c, *cp;;/opt/mi
      +                          crochip/xc8/v2.45/pic/sources/c99/common/doprnt.c: 1180:     _Bool done;;/opt/microchip/
      +                          xc8/v2.45/pic/sources/c99/common/doprnt.c: 1188:  } convarg;;/opt/microchip/xc8/v2.45/pi
      +                          c/sources/c99/common/doprnt.c: 1201:     if ((*fmt)[0] == '%') {
  1835   002580  5044               	movf	vfpfcnvrt@fmt^0,w,c
  1836   002582  6ED9               	movwf	fsr2l,c
  1837   002584  6ADA               	clrf	fsr2h,c
  1838   002586  CFDF FFF6          	movff	indf2,tblptrl
  1839   00258A                     	if	1	;There is more than 1 active tblptr byte
  1840   00258A  0E0F               	movlw	high __smallconst
  1841   00258C  6EF7               	movwf	tblptrh,c
  1842   00258E                     	endif
  1843   00258E                     	if	0	;tblptru may be non-zero
  1844   00258E                     	endif
  1845   00258E                     	if	1	;Program memory is > 0xFFFF, there are 3 active tblptr bytes
  1846   00258E  0E00               	movlw	low (__smallconst shr (0+16))
  1847   002590  6EF8               	movwf	tblptru,c
  1848   002592                     	endif
  1849   002592  0008               	tblrd		*
  1850   002594  50F5               	movf	tablat,w,c
  1851   002596  0A25               	xorlw	37
  1852   002598  A4D8               	btfss	status,2,c
  1853   00259A  EFD1  F012         	goto	u5961
  1854   00259E  EFD3  F012         	goto	u5960
  1855   0025A2                     u5961:
  1856   0025A2  EF4F  F014         	goto	l5418
  1857   0025A6                     u5960:
  1858   0025A6                     
  1859                           ;/opt/microchip/xc8/v2.45/pic/sources/c99/common/doprnt.c: 1202:         ++*fmt;
  1860   0025A6  5044               	movf	vfpfcnvrt@fmt^0,w,c
  1861   0025A8  6ED9               	movwf	fsr2l,c
  1862   0025AA  6ADA               	clrf	fsr2h,c
  1863   0025AC  2ADF               	incf	indf2,f,c
  1864   0025AE                     
  1865                           ;/opt/microchip/xc8/v2.45/pic/sources/c99/common/doprnt.c: 1204:         flags = width =
      +                           0;
  1866   0025AE  0E00               	movlw	0
  1867   0025B0  6E5B               	movwf	(_width+1)^0,c
  1868   0025B2  0E00               	movlw	0
  1869   0025B4  6E5A               	movwf	_width^0,c
  1870   0025B6  C05A  F05E         	movff	_width,_flags
  1871   0025BA                     
  1872                           ;/opt/microchip/xc8/v2.45/pic/sources/c99/common/doprnt.c: 1205:         prec = -1;
  1873   0025BA  685C               	setf	_prec^0,c
  1874   0025BC  685D               	setf	(_prec+1)^0,c
  1875   0025BE                     
  1876                           ;/opt/microchip/xc8/v2.45/pic/sources/c99/common/doprnt.c: 1291:   cp = *fmt;
  1877   0025BE  5044               	movf	vfpfcnvrt@fmt^0,w,c
  1878   0025C0  6ED9               	movwf	fsr2l,c
  1879   0025C2  6ADA               	clrf	fsr2h,c
  1880   0025C4  50DF               	movf	indf2,w,c
  1881   0025C6  6E4D               	movwf	vfpfcnvrt@cp^0,c
  1882   0025C8                     
  1883                           ;/opt/microchip/xc8/v2.45/pic/sources/c99/common/doprnt.c: 1361:   if (*cp == 'd' || *cp
      +                           == 'i') {
  1884   0025C8  C04D  FFF6         	movff	vfpfcnvrt@cp,tblptrl
  1885   0025CC                     	if	1	;There is more than 1 active tblptr byte
  1886   0025CC  0E0F               	movlw	high __smallconst
  1887   0025CE  6EF7               	movwf	tblptrh,c
  1888   0025D0                     	endif
  1889   0025D0                     	if	0	;tblptru may be non-zero
  1890   0025D0                     	endif
  1891   0025D0                     	if	1	;Program memory is > 0xFFFF, there are 3 active tblptr bytes
  1892   0025D0  0E00               	movlw	low (__smallconst shr (0+16))
  1893   0025D2  6EF8               	movwf	tblptru,c
  1894   0025D4                     	endif
  1895   0025D4  0008               	tblrd		*
  1896   0025D6  50F5               	movf	tablat,w,c
  1897   0025D8  0A64               	xorlw	100
  1898   0025DA  B4D8               	btfsc	status,2,c
  1899   0025DC  EFF2  F012         	goto	u5971
  1900   0025E0  EFF4  F012         	goto	u5970
  1901   0025E4                     u5971:
  1902   0025E4  EF04  F013         	goto	l5354
  1903   0025E8                     u5970:
  1904   0025E8  C04D  FFF6         	movff	vfpfcnvrt@cp,tblptrl
  1905   0025EC                     	if	1	;There is more than 1 active tblptr byte
  1906   0025EC  0E0F               	movlw	high __smallconst
  1907   0025EE  6EF7               	movwf	tblptrh,c
  1908   0025F0                     	endif
  1909   0025F0                     	if	0	;tblptru may be non-zero
  1910   0025F0                     	endif
  1911   0025F0                     	if	1	;Program memory is > 0xFFFF, there are 3 active tblptr bytes
  1912   0025F0  0E00               	movlw	low (__smallconst shr (0+16))
  1913   0025F2  6EF8               	movwf	tblptru,c
  1914   0025F4                     	endif
  1915   0025F4  0008               	tblrd		*
  1916   0025F6  50F5               	movf	tablat,w,c
  1917   0025F8  0A69               	xorlw	105
  1918   0025FA  A4D8               	btfss	status,2,c
  1919   0025FC  EF02  F013         	goto	u5981
  1920   002600  EF04  F013         	goto	u5980
  1921   002604                     u5981:
  1922   002604  EF90  F013         	goto	l5380
  1923   002608                     u5980:
  1924   002608                     l5354:
  1925                           
  1926                           ;/opt/microchip/xc8/v2.45/pic/sources/c99/common/doprnt.c: 1404:    convarg.sint = (vfpf
      +                          _sint_t)(int)(*(int *)__va_arg(*(int **)ap, (int)0));
  1927   002608  5045               	movf	vfpfcnvrt@ap^0,w,c
  1928   00260A  6ED9               	movwf	fsr2l,c
  1929   00260C  6ADA               	clrf	fsr2h,c
  1930   00260E  0E02               	movlw	2
  1931   002610  26DF               	addwf	indf2,f,c
  1932   002612  5CDF               	subwf	indf2,w,c
  1933   002614  6ED9               	movwf	fsr2l,c
  1934   002616  6ADA               	clrf	fsr2h,c
  1935   002618  CFDE F049          	movff	postinc2,vfpfcnvrt@convarg
  1936   00261C  CFDE F04A          	movff	postinc2,vfpfcnvrt@convarg+1
  1937   002620                     
  1938                           ;/opt/microchip/xc8/v2.45/pic/sources/c99/common/doprnt.c: 1406:    *fmt = cp+1;
  1939   002620  5044               	movf	vfpfcnvrt@fmt^0,w,c
  1940   002622  6ED9               	movwf	fsr2l,c
  1941   002624  6ADA               	clrf	fsr2h,c
  1942   002626  284D               	incf	vfpfcnvrt@cp^0,w,c
  1943   002628  6EDF               	movwf	indf2,c
  1944   00262A                     
  1945                           ;/opt/microchip/xc8/v2.45/pic/sources/c99/common/doprnt.c: 1408:    c = sizeof(dbuf);
  1946   00262A  0E50               	movlw	80
  1947   00262C  6E4E               	movwf	vfpfcnvrt@c^0,c
  1948                           
  1949                           ;/opt/microchip/xc8/v2.45/pic/sources/c99/common/doprnt.c: 1409:    done = convarg.sint 
      +                          < 0;
  1950   00262E  BE4A               	btfsc	(vfpfcnvrt@convarg+1)^0,7,c
  1951   002630  EF1C  F013         	goto	u5991
  1952   002634  EF1F  F013         	goto	u5990
  1953   002638                     u5991:
  1954   002638  0E01               	movlw	1
  1955   00263A  EF20  F013         	goto	u6000
  1956   00263E                     u5990:
  1957   00263E  0E00               	movlw	0
  1958   002640                     u6000:
  1959   002640  6E48               	movwf	vfpfcnvrt@done^0,c
  1960   002642                     l5360:
  1961                           
  1962                           ;/opt/microchip/xc8/v2.45/pic/sources/c99/common/doprnt.c: 1411:     dbuf[--c] = abs(con
      +                          varg.sint % 10) + '0';
  1963   002642  064E               	decf	vfpfcnvrt@c^0,f,c
  1964   002644  0E00               	movlw	low _dbuf
  1965   002646  244E               	addwf	vfpfcnvrt@c^0,w,c
  1966   002648  6ED9               	movwf	fsr2l,c
  1967   00264A  6ADA               	clrf	fsr2h,c
  1968   00264C  0E01               	movlw	high _dbuf
  1969   00264E  22DA               	addwfc	fsr2h,f,c
  1970   002650  C049  F001         	movff	vfpfcnvrt@convarg,___awmod@dividend
  1971   002654  C04A  F002         	movff	vfpfcnvrt@convarg+1,___awmod@dividend+1
  1972   002658  0E00               	movlw	0
  1973   00265A  6E04               	movwf	(___awmod@divisor+1)^0,c
  1974   00265C  0E0A               	movlw	10
  1975   00265E  6E03               	movwf	___awmod@divisor^0,c
  1976   002660  EC13  F01A         	call	___awmod	;wreg free
  1977   002664  C001  F007         	movff	?___awmod,abs@a
  1978   002668  C002  F008         	movff	?___awmod+1,abs@a+1
  1979   00266C  EC24  F01D         	call	_abs	;wreg free
  1980   002670  5007               	movf	?_abs^0,w,c
  1981   002672  0F30               	addlw	48
  1982   002674  6EDF               	movwf	indf2,c
  1983   002676                     
  1984                           ;/opt/microchip/xc8/v2.45/pic/sources/c99/common/doprnt.c: 1412:     convarg.sint /= 10;
  1985   002676  C049  F001         	movff	vfpfcnvrt@convarg,___awdiv@dividend
  1986   00267A  C04A  F002         	movff	vfpfcnvrt@convarg+1,___awdiv@dividend+1
  1987   00267E  0E00               	movlw	0
  1988   002680  6E04               	movwf	(___awdiv@divisor+1)^0,c
  1989   002682  0E0A               	movlw	10
  1990   002684  6E03               	movwf	___awdiv@divisor^0,c
  1991   002686  EC54  F019         	call	___awdiv	;wreg free
  1992   00268A  C001  F049         	movff	?___awdiv,vfpfcnvrt@convarg
  1993   00268E  C002  F04A         	movff	?___awdiv+1,vfpfcnvrt@convarg+1
  1994   002692                     
  1995                           ;/opt/microchip/xc8/v2.45/pic/sources/c99/common/doprnt.c: 1416:    } while (convarg.sin
      +                          t != 0 && c != 0);
  1996   002692  5049               	movf	vfpfcnvrt@convarg^0,w,c
  1997   002694  104A               	iorwf	(vfpfcnvrt@convarg+1)^0,w,c
  1998   002696  B4D8               	btfsc	status,2,c
  1999   002698  EF50  F013         	goto	u6011
  2000   00269C  EF52  F013         	goto	u6010
  2001   0026A0                     u6011:
  2002   0026A0  EF5A  F013         	goto	l5368
  2003   0026A4                     u6010:
  2004   0026A4  504E               	movf	vfpfcnvrt@c^0,w,c
  2005   0026A6  A4D8               	btfss	status,2,c
  2006   0026A8  EF58  F013         	goto	u6021
  2007   0026AC  EF5A  F013         	goto	u6020
  2008   0026B0                     u6021:
  2009   0026B0  EF21  F013         	goto	l5360
  2010   0026B4                     u6020:
  2011   0026B4                     l5368:
  2012                           
  2013                           ;/opt/microchip/xc8/v2.45/pic/sources/c99/common/doprnt.c: 1417:    if (c != 0 && done) 
      +                          {
  2014   0026B4  504E               	movf	vfpfcnvrt@c^0,w,c
  2015   0026B6  B4D8               	btfsc	status,2,c
  2016   0026B8  EF60  F013         	goto	u6031
  2017   0026BC  EF62  F013         	goto	u6030
  2018   0026C0                     u6031:
  2019   0026C0  EF85  F013         	goto	l5378
  2020   0026C4                     u6030:
  2021   0026C4  5048               	movf	vfpfcnvrt@done^0,w,c
  2022   0026C6  B4D8               	btfsc	status,2,c
  2023   0026C8  EF68  F013         	goto	u6041
  2024   0026CC  EF6A  F013         	goto	u6040
  2025   0026D0                     u6041:
  2026   0026D0  EF85  F013         	goto	l5378
  2027   0026D4                     u6040:
  2028   0026D4                     
  2029                           ;/opt/microchip/xc8/v2.45/pic/sources/c99/common/doprnt.c: 1418:     dbuf[--c] = '-';
  2030   0026D4  064E               	decf	vfpfcnvrt@c^0,f,c
  2031   0026D6  0E00               	movlw	low _dbuf
  2032   0026D8  244E               	addwf	vfpfcnvrt@c^0,w,c
  2033   0026DA  6ED9               	movwf	fsr2l,c
  2034   0026DC  6ADA               	clrf	fsr2h,c
  2035   0026DE  0E01               	movlw	high _dbuf
  2036   0026E0  22DA               	addwfc	fsr2h,f,c
  2037   0026E2  0E2D               	movlw	45
  2038   0026E4  6EDF               	movwf	indf2,c
  2039   0026E6  EF85  F013         	goto	l5378
  2040   0026EA                     l5374:
  2041                           
  2042                           ;/opt/microchip/xc8/v2.45/pic/sources/c99/common/doprnt.c: 1424:     fputc(dbuf[c++], fp
      +                          );
  2043   0026EA  0E00               	movlw	low _dbuf
  2044   0026EC  244E               	addwf	vfpfcnvrt@c^0,w,c
  2045   0026EE  6ED9               	movwf	fsr2l,c
  2046   0026F0  6ADA               	clrf	fsr2h,c
  2047   0026F2  0E01               	movlw	high _dbuf
  2048   0026F4  22DA               	addwfc	fsr2h,f,c
  2049   0026F6  50DF               	movf	indf2,w,c
  2050   0026F8  6E46               	movwf	??_vfpfcnvrt^0,c
  2051   0026FA  5046               	movf	??_vfpfcnvrt^0,w,c
  2052   0026FC  6E03               	movwf	fputc@c^0,c
  2053   0026FE  6A04               	clrf	(fputc@c+1)^0,c
  2054   002700  C043  F005         	movff	vfpfcnvrt@fp,fputc@fp
  2055   002704  ECB6  F019         	call	_fputc	;wreg free
  2056   002708  2A4E               	incf	vfpfcnvrt@c^0,f,c
  2057   00270A                     l5378:
  2058                           
  2059                           ;/opt/microchip/xc8/v2.45/pic/sources/c99/common/doprnt.c: 1423:    while (c != sizeof(d
      +                          buf)) {
  2060   00270A  0E50               	movlw	80
  2061   00270C  184E               	xorwf	vfpfcnvrt@c^0,w,c
  2062   00270E  A4D8               	btfss	status,2,c
  2063   002710  EF8C  F013         	goto	u6051
  2064   002714  EF8E  F013         	goto	u6050
  2065   002718                     u6051:
  2066   002718  EF75  F013         	goto	l5374
  2067   00271C                     u6050:
  2068   00271C  EF62  F014         	goto	l1298
  2069   002720                     l5380:
  2070                           
  2071                           ;/opt/microchip/xc8/v2.45/pic/sources/c99/common/doprnt.c: 1689:   cp = *fmt;
  2072   002720  5044               	movf	vfpfcnvrt@fmt^0,w,c
  2073   002722  6ED9               	movwf	fsr2l,c
  2074   002724  6ADA               	clrf	fsr2h,c
  2075   002726  50DF               	movf	indf2,w,c
  2076   002728  6E4D               	movwf	vfpfcnvrt@cp^0,c
  2077   00272A                     
  2078                           ;/opt/microchip/xc8/v2.45/pic/sources/c99/common/doprnt.c: 1690:   c = *cp;
  2079   00272A  C04D  FFF6         	movff	vfpfcnvrt@cp,tblptrl
  2080   00272E                     	if	1	;There is more than 1 active tblptr byte
  2081   00272E  0E0F               	movlw	high __smallconst
  2082   002730  6EF7               	movwf	tblptrh,c
  2083   002732                     	endif
  2084   002732                     	if	0	;tblptru may be non-zero
  2085   002732                     	endif
  2086   002732                     	if	1	;Program memory is > 0xFFFF, there are 3 active tblptr bytes
  2087   002732  0E00               	movlw	low (__smallconst shr (0+16))
  2088   002734  6EF8               	movwf	tblptru,c
  2089   002736                     	endif
  2090   002736  0008               	tblrd		*
  2091   002738  CFF5 F04E          	movff	tablat,vfpfcnvrt@c
  2092                           
  2093                           ;/opt/microchip/xc8/v2.45/pic/sources/c99/common/doprnt.c: 1691:   switch(c) {
  2094   00273C  EFAB  F013         	goto	l5392
  2095   002740                     l5384:
  2096                           
  2097                           ;/opt/microchip/xc8/v2.45/pic/sources/c99/common/doprnt.c: 1695:     cp++;
  2098   002740  2A4D               	incf	vfpfcnvrt@cp^0,f,c
  2099                           
  2100                           ;/opt/microchip/xc8/v2.45/pic/sources/c99/common/doprnt.c: 1696:     break;
  2101   002742  EFC4  F013         	goto	l5394
  2102   002746                     l5386:
  2103                           
  2104                           ;/opt/microchip/xc8/v2.45/pic/sources/c99/common/doprnt.c: 1721:     c = 'l';
  2105   002746  0E6C               	movlw	108
  2106   002748  6E4E               	movwf	vfpfcnvrt@c^0,c
  2107                           
  2108                           ;/opt/microchip/xc8/v2.45/pic/sources/c99/common/doprnt.c: 1722:     break;
  2109   00274A  EFC4  F013         	goto	l5394
  2110   00274E                     l5388:
  2111                           
  2112                           ;/opt/microchip/xc8/v2.45/pic/sources/c99/common/doprnt.c: 1724:     c = 0;
  2113   00274E  0E00               	movlw	0
  2114   002750  6E4E               	movwf	vfpfcnvrt@c^0,c
  2115                           
  2116                           ;/opt/microchip/xc8/v2.45/pic/sources/c99/common/doprnt.c: 1725:     break;
  2117   002752  EFC4  F013         	goto	l5394
  2118   002756                     l5392:
  2119   002756  504E               	movf	vfpfcnvrt@c^0,w,c
  2120   002758  6E46               	movwf	??_vfpfcnvrt^0,c
  2121   00275A  6A47               	clrf	(??_vfpfcnvrt+1)^0,c
  2122                           
  2123                           ; Switch on 2 bytes has been partitioned into a top level switch of size 1, and 1 sub-sw
      +                          itches
  2124                           ; Switch size 1, requested type "simple"
  2125                           ; Number of cases is 1, Range of values is 0 to 0
  2126                           ; switch strategies available:
  2127                           ; Name         Instructions Cycles
  2128                           ; simple_byte            4     3 (average)
  2129                           ;	Chosen strategy is simple_byte
  2130   00275C  5047               	movf	(??_vfpfcnvrt+1)^0,w,c
  2131   00275E  0A00               	xorlw	0	; case 0
  2132   002760  B4D8               	btfsc	status,2,c
  2133   002762  EFB5  F013         	goto	l5908
  2134   002766  EFA7  F013         	goto	l5388
  2135   00276A                     l5908:
  2136                           
  2137                           ; Switch size 1, requested type "simple"
  2138                           ; Number of cases is 3, Range of values is 76 to 108
  2139                           ; switch strategies available:
  2140                           ; Name         Instructions Cycles
  2141                           ; simple_byte           10     6 (average)
  2142                           ;	Chosen strategy is simple_byte
  2143   00276A  5046               	movf	??_vfpfcnvrt^0,w,c
  2144   00276C  0A4C               	xorlw	76	; case 76
  2145   00276E  B4D8               	btfsc	status,2,c
  2146   002770  EFA0  F013         	goto	l5384
  2147   002774  0A2A               	xorlw	42	; case 102
  2148   002776  B4D8               	btfsc	status,2,c
  2149   002778  EFA3  F013         	goto	l5386
  2150   00277C  0A0A               	xorlw	10	; case 108
  2151   00277E  B4D8               	btfsc	status,2,c
  2152   002780  EFA0  F013         	goto	l5384
  2153   002784  EFA7  F013         	goto	l5388
  2154   002788                     l5394:
  2155   002788  C04D  FFF6         	movff	vfpfcnvrt@cp,tblptrl
  2156   00278C                     	if	1	;There is more than 1 active tblptr byte
  2157   00278C  0E0F               	movlw	high __smallconst
  2158   00278E  6EF7               	movwf	tblptrh,c
  2159   002790                     	endif
  2160   002790                     	if	0	;tblptru may be non-zero
  2161   002790                     	endif
  2162   002790                     	if	1	;Program memory is > 0xFFFF, there are 3 active tblptr bytes
  2163   002790  0E00               	movlw	low (__smallconst shr (0+16))
  2164   002792  6EF8               	movwf	tblptru,c
  2165   002794                     	endif
  2166   002794  0008               	tblrd		*
  2167   002796  50F5               	movf	tablat,w,c
  2168   002798  0A66               	xorlw	102
  2169   00279A  A4D8               	btfss	status,2,c
  2170   00279C  EFD2  F013         	goto	u6061
  2171   0027A0  EFD4  F013         	goto	u6060
  2172   0027A4                     u6061:
  2173   0027A4  EF49  F014         	goto	l5414
  2174   0027A8                     u6060:
  2175   0027A8  EFFE  F013         	goto	l5402
  2176   0027AC                     l5396:
  2177                           
  2178                           ;/opt/microchip/xc8/v2.45/pic/sources/c99/common/doprnt.c: 1756:      convarg.f = (long 
      +                          double)(*(double *)__va_arg(*(double **)ap, (double)0));
  2179   0027AC  5045               	movf	vfpfcnvrt@ap^0,w,c
  2180   0027AE  6ED9               	movwf	fsr2l,c
  2181   0027B0  6ADA               	clrf	fsr2h,c
  2182   0027B2  CFDF F046          	movff	indf2,??_vfpfcnvrt
  2183   0027B6  0E04               	movlw	4
  2184   0027B8  26DF               	addwf	indf2,f,c
  2185   0027BA  5046               	movf	??_vfpfcnvrt^0,w,c
  2186   0027BC  6ED9               	movwf	fsr2l,c
  2187   0027BE  6ADA               	clrf	fsr2h,c
  2188   0027C0  CFDE F049          	movff	postinc2,vfpfcnvrt@convarg
  2189   0027C4  CFDE F04A          	movff	postinc2,vfpfcnvrt@convarg+1
  2190   0027C8  CFDE F04B          	movff	postinc2,vfpfcnvrt@convarg+2
  2191   0027CC  CFDE F04C          	movff	postinc2,vfpfcnvrt@convarg+3
  2192                           
  2193                           ;/opt/microchip/xc8/v2.45/pic/sources/c99/common/doprnt.c: 1757:      break;
  2194   0027D0  EF13  F014         	goto	l5404
  2195   0027D4                     l5398:
  2196                           
  2197                           ;/opt/microchip/xc8/v2.45/pic/sources/c99/common/doprnt.c: 1759:      convarg.f = (long 
      +                          double)(*(long double *)__va_arg(*(long double **)ap, (long double)0));
  2198   0027D4  5045               	movf	vfpfcnvrt@ap^0,w,c
  2199   0027D6  6ED9               	movwf	fsr2l,c
  2200   0027D8  6ADA               	clrf	fsr2h,c
  2201   0027DA  CFDF F046          	movff	indf2,??_vfpfcnvrt
  2202   0027DE  0E04               	movlw	4
  2203   0027E0  26DF               	addwf	indf2,f,c
  2204   0027E2  5046               	movf	??_vfpfcnvrt^0,w,c
  2205   0027E4  6ED9               	movwf	fsr2l,c
  2206   0027E6  6ADA               	clrf	fsr2h,c
  2207   0027E8  CFDE F049          	movff	postinc2,vfpfcnvrt@convarg
  2208   0027EC  CFDE F04A          	movff	postinc2,vfpfcnvrt@convarg+1
  2209   0027F0  CFDE F04B          	movff	postinc2,vfpfcnvrt@convarg+2
  2210   0027F4  CFDE F04C          	movff	postinc2,vfpfcnvrt@convarg+3
  2211                           
  2212                           ;/opt/microchip/xc8/v2.45/pic/sources/c99/common/doprnt.c: 1760:      break;
  2213   0027F8  EF13  F014         	goto	l5404
  2214   0027FC                     l5402:
  2215   0027FC  504E               	movf	vfpfcnvrt@c^0,w,c
  2216   0027FE  6E46               	movwf	??_vfpfcnvrt^0,c
  2217   002800  6A47               	clrf	(??_vfpfcnvrt+1)^0,c
  2218                           
  2219                           ; Switch on 2 bytes has been partitioned into a top level switch of size 1, and 1 sub-sw
      +                          itches
  2220                           ; Switch size 1, requested type "simple"
  2221                           ; Number of cases is 1, Range of values is 0 to 0
  2222                           ; switch strategies available:
  2223                           ; Name         Instructions Cycles
  2224                           ; simple_byte            4     3 (average)
  2225                           ;	Chosen strategy is simple_byte
  2226   002802  5047               	movf	(??_vfpfcnvrt+1)^0,w,c
  2227   002804  0A00               	xorlw	0	; case 0
  2228   002806  B4D8               	btfsc	status,2,c
  2229   002808  EF08  F014         	goto	l5910
  2230   00280C  EF13  F014         	goto	l5404
  2231   002810                     l5910:
  2232                           
  2233                           ; Switch size 1, requested type "simple"
  2234                           ; Number of cases is 2, Range of values is 76 to 108
  2235                           ; switch strategies available:
  2236                           ; Name         Instructions Cycles
  2237                           ; simple_byte            7     4 (average)
  2238                           ;	Chosen strategy is simple_byte
  2239   002810  5046               	movf	??_vfpfcnvrt^0,w,c
  2240   002812  0A4C               	xorlw	76	; case 76
  2241   002814  B4D8               	btfsc	status,2,c
  2242   002816  EFEA  F013         	goto	l5398
  2243   00281A  0A20               	xorlw	32	; case 108
  2244   00281C  B4D8               	btfsc	status,2,c
  2245   00281E  EFD6  F013         	goto	l5396
  2246   002822  EF13  F014         	goto	l5404
  2247   002826                     l5404:
  2248                           
  2249                           ;/opt/microchip/xc8/v2.45/pic/sources/c99/common/doprnt.c: 1762:    *fmt = cp+1;
  2250   002826  5044               	movf	vfpfcnvrt@fmt^0,w,c
  2251   002828  6ED9               	movwf	fsr2l,c
  2252   00282A  6ADA               	clrf	fsr2h,c
  2253   00282C  284D               	incf	vfpfcnvrt@cp^0,w,c
  2254   00282E  6EDF               	movwf	indf2,c
  2255                           
  2256                           ;/opt/microchip/xc8/v2.45/pic/sources/c99/common/doprnt.c: 1763:    switch (*cp) {
  2257   002830  EF31  F014         	goto	l5412
  2258   002834                     l5406:
  2259                           
  2260                           ;/opt/microchip/xc8/v2.45/pic/sources/c99/common/doprnt.c: 1790:      return (void) efgt
      +                          oa(fp, convarg.f, *cp);;	Return value of _vfpfcnvrt is never used
  2261   002834  C043  F03B         	movff	vfpfcnvrt@fp,efgtoa@fp
  2262   002838  C049  F03C         	movff	vfpfcnvrt@convarg,efgtoa@f
  2263   00283C  C04A  F03D         	movff	vfpfcnvrt@convarg+1,efgtoa@f+1
  2264   002840  C04B  F03E         	movff	vfpfcnvrt@convarg+2,efgtoa@f+2
  2265   002844  C04C  F03F         	movff	vfpfcnvrt@convarg+3,efgtoa@f+3
  2266   002848  C04D  FFF6         	movff	vfpfcnvrt@cp,tblptrl
  2267   00284C                     	if	1	;There is more than 1 active tblptr byte
  2268   00284C  0E0F               	movlw	high __smallconst
  2269   00284E  6EF7               	movwf	tblptrh,c
  2270   002850                     	endif
  2271   002850                     	if	0	;tblptru may be non-zero
  2272   002850                     	endif
  2273   002850                     	if	1	;Program memory is > 0xFFFF, there are 3 active tblptr bytes
  2274   002850  0E00               	movlw	low (__smallconst shr (0+16))
  2275   002852  6EF8               	movwf	tblptru,c
  2276   002854                     	endif
  2277   002854  0008               	tblrd		*
  2278   002856  CFF5 F040          	movff	tablat,efgtoa@c
  2279   00285A  EC89  F007         	call	_efgtoa	;wreg free
  2280   00285E  EF62  F014         	goto	l1298
  2281   002862                     l5412:
  2282   002862  C04D  FFF6         	movff	vfpfcnvrt@cp,tblptrl
  2283   002866                     	if	1	;There is more than 1 active tblptr byte
  2284   002866  0E0F               	movlw	high __smallconst
  2285   002868  6EF7               	movwf	tblptrh,c
  2286   00286A                     	endif
  2287   00286A                     	if	0	;tblptru may be non-zero
  2288   00286A                     	endif
  2289   00286A                     	if	1	;Program memory is > 0xFFFF, there are 3 active tblptr bytes
  2290   00286A  0E00               	movlw	low (__smallconst shr (0+16))
  2291   00286C  6EF8               	movwf	tblptru,c
  2292   00286E                     	endif
  2293   00286E  0008               	tblrd		*
  2294   002870  50F5               	movf	tablat,w,c
  2295   002872  6E46               	movwf	??_vfpfcnvrt^0,c
  2296   002874  6A47               	clrf	(??_vfpfcnvrt+1)^0,c
  2297                           
  2298                           ; Switch on 2 bytes has been partitioned into a top level switch of size 1, and 1 sub-sw
      +                          itches
  2299                           ; Switch size 1, requested type "simple"
  2300                           ; Number of cases is 1, Range of values is 0 to 0
  2301                           ; switch strategies available:
  2302                           ; Name         Instructions Cycles
  2303                           ; simple_byte            4     3 (average)
  2304                           ;	Chosen strategy is simple_byte
  2305   002876  5047               	movf	(??_vfpfcnvrt+1)^0,w,c
  2306   002878  0A00               	xorlw	0	; case 0
  2307   00287A  B4D8               	btfsc	status,2,c
  2308   00287C  EF42  F014         	goto	l5912
  2309   002880  EF49  F014         	goto	l5414
  2310   002884                     l5912:
  2311                           
  2312                           ; Switch size 1, requested type "simple"
  2313                           ; Number of cases is 1, Range of values is 102 to 102
  2314                           ; switch strategies available:
  2315                           ; Name         Instructions Cycles
  2316                           ; simple_byte            4     3 (average)
  2317                           ;	Chosen strategy is simple_byte
  2318   002884  5046               	movf	??_vfpfcnvrt^0,w,c
  2319   002886  0A66               	xorlw	102	; case 102
  2320   002888  B4D8               	btfsc	status,2,c
  2321   00288A  EF1A  F014         	goto	l5406
  2322   00288E  EF49  F014         	goto	l5414
  2323   002892                     l5414:
  2324                           
  2325                           ;/opt/microchip/xc8/v2.45/pic/sources/c99/common/doprnt.c: 1806:         ++*fmt;
  2326   002892  5044               	movf	vfpfcnvrt@fmt^0,w,c
  2327   002894  6ED9               	movwf	fsr2l,c
  2328   002896  6ADA               	clrf	fsr2h,c
  2329   002898  2ADF               	incf	indf2,f,c
  2330   00289A  EF62  F014         	goto	l1298
  2331   00289E                     l5418:
  2332                           
  2333                           ;/opt/microchip/xc8/v2.45/pic/sources/c99/common/doprnt.c: 1811:     fputc((int)(*fmt)[0
      +                          ], fp);
  2334   00289E  5044               	movf	vfpfcnvrt@fmt^0,w,c
  2335   0028A0  6ED9               	movwf	fsr2l,c
  2336   0028A2  6ADA               	clrf	fsr2h,c
  2337   0028A4  CFDF FFF6          	movff	indf2,tblptrl
  2338   0028A8                     	if	1	;There is more than 1 active tblptr byte
  2339   0028A8  0E0F               	movlw	high __smallconst
  2340   0028AA  6EF7               	movwf	tblptrh,c
  2341   0028AC                     	endif
  2342   0028AC                     	if	0	;tblptru may be non-zero
  2343   0028AC                     	endif
  2344   0028AC                     	if	1	;Program memory is > 0xFFFF, there are 3 active tblptr bytes
  2345   0028AC  0E00               	movlw	low (__smallconst shr (0+16))
  2346   0028AE  6EF8               	movwf	tblptru,c
  2347   0028B0                     	endif
  2348   0028B0  0008               	tblrd		*
  2349   0028B2  50F5               	movf	tablat,w,c
  2350   0028B4  6E03               	movwf	fputc@c^0,c
  2351   0028B6  6A04               	clrf	(fputc@c+1)^0,c
  2352   0028B8  C043  F005         	movff	vfpfcnvrt@fp,fputc@fp
  2353   0028BC  ECB6  F019         	call	_fputc	;wreg free
  2354   0028C0  EF49  F014         	goto	l5414
  2355   0028C4                     l1298:
  2356   0028C4  0012               	return		;funcret
  2357   0028C6                     __end_of_vfpfcnvrt:
  2358                           	callstack 0
  2359                           
  2360 ;; *************** function _efgtoa *****************
  2361 ;; Defined at:
  2362 ;;		line 587 in file "/opt/microchip/xc8/v2.45/pic/sources/c99/common/doprnt.c"
  2363 ;; Parameters:    Size  Location     Type
  2364 ;;  fp              1   58[COMRAM] PTR struct _IO_FILE
  2365 ;;		 -> sprintf@f(12), 
  2366 ;;  f               4   59[COMRAM] PTR struct _IO_FILE
  2367 ;;  c               1   63[COMRAM] unsigned char 
  2368 ;; Auto vars:     Size  Location     Type
  2369 ;;  u               4   40[BANK0 ] struct flui
  2370 ;;  g               4   34[BANK0 ] struct flui
  2371 ;;  l               4   29[BANK0 ] struct flui
  2372 ;;  h               4   25[BANK0 ] struct flui
  2373 ;;  ou              4   19[BANK0 ] struct flui
  2374 ;;  n               2   38[BANK0 ] int 
  2375 ;;  i               2   23[BANK0 ] int 
  2376 ;;  w               2   17[BANK0 ] int 
  2377 ;;  e               2   15[BANK0 ] int 
  2378 ;;  m               2   13[BANK0 ] int 
  2379 ;;  d               2   11[BANK0 ] int 
  2380 ;;  t               2    4[BANK0 ] int 
  2381 ;;  p               2    2[BANK0 ] int 
  2382 ;;  ne              2    0[BANK0 ] int 
  2383 ;;  sign            1   33[BANK0 ] unsigned char 
  2384 ;;  nmode           1   10[BANK0 ] unsigned char 
  2385 ;;  mode            1    9[BANK0 ] unsigned char 
  2386 ;;  pp              1    8[BANK0 ] unsigned char 
  2387 ;;  esign           1    0        unsigned char 
  2388 ;; Return value:  Size  Location     Type
  2389 ;;                  1    wreg      void 
  2390 ;; Registers used:
  2391 ;;		wreg, fsr1l, fsr1h, fsr2l, fsr2h, status,2, status,0, tblptrl, tblptrh, tblptru, prodl, prodh, cstack
  2392 ;; Tracked objects:
  2393 ;;		On entry : 0/0
  2394 ;;		On exit  : 0/0
  2395 ;;		Unchanged: 0/0
  2396 ;; Data sizes:     COMRAM   BANK0   BANK1   BANK2   BANK3   BANK4   BANK5   BANK6   BANK7   BANK8   BANK9  BANK10  BANK1
      +1  BANK12  BANK14
  2397 ;;      Params:         6       0       0       0       0       0       0       0       0       0       0       0       
      +0       0       0
  2398 ;;      Locals:         0      44       0       0       0       0       0       0       0       0       0       0       
      +0       0       0
  2399 ;;      Temps:          2       0       0       0       0       0       0       0       0       0       0       0       
      +0       0       0
  2400 ;;      Totals:         8      44       0       0       0       0       0       0       0       0       0       0       
      +0       0       0
  2401 ;;Total ram usage:       52 bytes
  2402 ;; Hardware stack levels used: 1
  2403 ;; Hardware stack levels required when called: 5
  2404 ;; This function calls:
  2405 ;;		___fladd
  2406 ;;		___fldiv
  2407 ;;		___fleq
  2408 ;;		___flge
  2409 ;;		___flmul
  2410 ;;		___flneg
  2411 ;;		___flsub
  2412 ;;		___fltol
  2413 ;;		___fpclassifyf
  2414 ;;		_floorf
  2415 ;;		_labs
  2416 ;;		_memcpy
  2417 ;;		_pad
  2418 ;;		_strcpy
  2419 ;; This function is called by:
  2420 ;;		_vfpfcnvrt
  2421 ;; This function uses a non-reentrant model
  2422 ;;
  2423                           
  2424                           	psect	text5
  2425   000F12                     __ptext5:
  2426                           	callstack 0
  2427   000F12                     _efgtoa:
  2428                           	callstack 22
  2429   000F12                     
  2430                           ;/opt/microchip/xc8/v2.45/pic/sources/c99/common/doprnt.c: 587: static void efgtoa(FILE 
      +                          *fp, long double f, char c);/opt/microchip/xc8/v2.45/pic/sources/c99/common/doprnt.c: 58
      +                          8: {;/opt/microchip/xc8/v2.45/pic/sources/c99/common/doprnt.c: 589:     char mode, nmode
      +                          , pp, sign, esign;;/opt/microchip/xc8/v2.45/pic/sources/c99/common/doprnt.c: 590:     in
      +                          t d, e, i, m, n, ne, p, t, w;;/opt/microchip/xc8/v2.45/pic/sources/c99/common/doprnt.c: 
      +                          591:     long double h, l;;/opt/microchip/xc8/v2.45/pic/sources/c99/common/doprnt.c: 592
      +                          :  union flui g, u, ou;
  2431   000F12  0E00               	movlw	0
  2432   000F14  0100               	movlb	0	; () banked
  2433   000F16  6F81               	movwf	efgtoa@sign& (0+255),b
  2434   000F18                     
  2435                           ; BSR set to: 0
  2436                           ;/opt/microchip/xc8/v2.45/pic/sources/c99/common/doprnt.c: 596:     g.f = f;
  2437   000F18  C03C  F082         	movff	efgtoa@f,efgtoa@g
  2438   000F1C  C03D  F083         	movff	efgtoa@f+1,efgtoa@g+1
  2439   000F20  C03E  F084         	movff	efgtoa@f+2,efgtoa@g+2
  2440   000F24  C03F  F085         	movff	efgtoa@f+3,efgtoa@g+3
  2441   000F28                     
  2442                           ; BSR set to: 0
  2443                           ;/opt/microchip/xc8/v2.45/pic/sources/c99/common/doprnt.c: 597:     if (g.f < 0.0) {
  2444   000F28  BF85               	btfsc	(efgtoa@g+3)& (0+255),7,b
  2445   000F2A  EF9B  F007         	goto	u5630
  2446   000F2E  EF99  F007         	goto	u5631
  2447   000F32                     u5631:
  2448   000F32  EFAF  F007         	goto	l5118
  2449   000F36                     u5630:
  2450   000F36                     
  2451                           ; BSR set to: 0
  2452                           ;/opt/microchip/xc8/v2.45/pic/sources/c99/common/doprnt.c: 598:         sign = 1;
  2453   000F36  0E01               	movlw	1
  2454   000F38  6F81               	movwf	efgtoa@sign& (0+255),b
  2455   000F3A                     
  2456                           ; BSR set to: 0
  2457                           ;/opt/microchip/xc8/v2.45/pic/sources/c99/common/doprnt.c: 599:         g.f = -g.f;
  2458   000F3A  C082  F001         	movff	efgtoa@g,___flneg@f1
  2459   000F3E  C083  F002         	movff	efgtoa@g+1,___flneg@f1+1
  2460   000F42  C084  F003         	movff	efgtoa@g+2,___flneg@f1+2
  2461   000F46  C085  F004         	movff	efgtoa@g+3,___flneg@f1+3
  2462   000F4A  ECED  F01C         	call	___flneg	;wreg free
  2463   000F4E  C001  F082         	movff	?___flneg,efgtoa@g
  2464   000F52  C002  F083         	movff	?___flneg+1,efgtoa@g+1
  2465   000F56  C003  F084         	movff	?___flneg+2,efgtoa@g+2
  2466   000F5A  C004  F085         	movff	?___flneg+3,efgtoa@g+3
  2467   000F5E                     l5118:
  2468                           
  2469                           ;/opt/microchip/xc8/v2.45/pic/sources/c99/common/doprnt.c: 603:     n = 0;
  2470   000F5E  0E00               	movlw	0
  2471   000F60  0100               	movlb	0	; () banked
  2472   000F62  6F87               	movwf	(efgtoa@n+1)& (0+255),b
  2473   000F64  0E00               	movlw	0
  2474   000F66  6F86               	movwf	efgtoa@n& (0+255),b
  2475   000F68                     
  2476                           ; BSR set to: 0
  2477                           ;/opt/microchip/xc8/v2.45/pic/sources/c99/common/doprnt.c: 604:     w = width;
  2478   000F68  C05A  F071         	movff	_width,efgtoa@w
  2479   000F6C  C05B  F072         	movff	_width+1,efgtoa@w+1
  2480   000F70                     
  2481                           ; BSR set to: 0
  2482                           ;/opt/microchip/xc8/v2.45/pic/sources/c99/common/doprnt.c: 605:     if (sign
  2483   000F70  5181               	movf	efgtoa@sign& (0+255),w,b
  2484   000F72  B4D8               	btfsc	status,2,c
  2485   000F74  EFBE  F007         	goto	u5641
  2486   000F78  EFC0  F007         	goto	u5640
  2487   000F7C                     u5641:
  2488   000F7C  EFD4  F007         	goto	l5132
  2489   000F80                     u5640:
  2490   000F80                     
  2491                           ; BSR set to: 0
  2492                           ;/opt/microchip/xc8/v2.45/pic/sources/c99/common/doprnt.c: 609:    ) {;/opt/microchip/xc
      +                          8/v2.45/pic/sources/c99/common/doprnt.c: 610:   sign = sign ? '-' : '+';
  2493   000F80  5181               	movf	efgtoa@sign& (0+255),w,b
  2494   000F82  A4D8               	btfss	status,2,c
  2495   000F84  EFC6  F007         	goto	u5651
  2496   000F88  EFC8  F007         	goto	u5650
  2497   000F8C                     u5651:
  2498   000F8C  EFCE  F007         	goto	l5128
  2499   000F90                     u5650:
  2500   000F90                     
  2501                           ; BSR set to: 0
  2502   000F90  0E00               	movlw	0
  2503   000F92  6F67               	movwf	(_efgtoa$1474+1)& (0+255),b
  2504   000F94  0E2B               	movlw	43
  2505   000F96  6F66               	movwf	_efgtoa$1474& (0+255),b
  2506   000F98  EFD2  F007         	goto	l5130
  2507   000F9C                     l5128:
  2508                           
  2509                           ; BSR set to: 0
  2510   000F9C  0E00               	movlw	0
  2511   000F9E  6F67               	movwf	(_efgtoa$1474+1)& (0+255),b
  2512   000FA0  0E2D               	movlw	45
  2513   000FA2  6F66               	movwf	_efgtoa$1474& (0+255),b
  2514   000FA4                     l5130:
  2515                           
  2516                           ; BSR set to: 0
  2517   000FA4  C066  F081         	movff	_efgtoa$1474,efgtoa@sign
  2518   000FA8                     l5132:
  2519                           
  2520                           ; BSR set to: 0
  2521                           ;/opt/microchip/xc8/v2.45/pic/sources/c99/common/doprnt.c: 619:     if (( __fpclassifyf(
      +                          g.f) == 1 )) {
  2522   000FA8  C082  F001         	movff	efgtoa@g,___fpclassifyf@x
  2523   000FAC  C083  F002         	movff	efgtoa@g+1,___fpclassifyf@x+1
  2524   000FB0  C084  F003         	movff	efgtoa@g+2,___fpclassifyf@x+2
  2525   000FB4  C085  F004         	movff	efgtoa@g+3,___fpclassifyf@x+3
  2526   000FB8  ECD5  F018         	call	___fpclassifyf	;wreg free
  2527   000FBC  0401               	decf	?___fpclassifyf^0,w,c
  2528   000FBE  1002               	iorwf	(?___fpclassifyf+1)^0,w,c
  2529   000FC0  A4D8               	btfss	status,2,c
  2530   000FC2  EFE5  F007         	goto	u5661
  2531   000FC6  EFE7  F007         	goto	u5660
  2532   000FCA                     u5661:
  2533   000FCA  EF16  F008         	goto	l5150
  2534   000FCE                     u5660:
  2535   000FCE                     
  2536                           ;/opt/microchip/xc8/v2.45/pic/sources/c99/common/doprnt.c: 620:   if (sign) {
  2537   000FCE  0100               	movlb	0	; () banked
  2538   000FD0  5181               	movf	efgtoa@sign& (0+255),w,b
  2539   000FD2  B4D8               	btfsc	status,2,c
  2540   000FD4  EFEE  F007         	goto	u5671
  2541   000FD8  EFF0  F007         	goto	u5670
  2542   000FDC                     u5671:
  2543   000FDC  EFF9  F007         	goto	l5142
  2544   000FE0                     u5670:
  2545   000FE0                     
  2546                           ; BSR set to: 0
  2547                           ;/opt/microchip/xc8/v2.45/pic/sources/c99/common/doprnt.c: 621:    dbuf[0] = sign;
  2548   000FE0  C081  F100         	movff	efgtoa@sign,_dbuf
  2549   000FE4                     
  2550                           ; BSR set to: 0
  2551                           ;/opt/microchip/xc8/v2.45/pic/sources/c99/common/doprnt.c: 622:    w--;
  2552   000FE4  0771               	decf	efgtoa@w& (0+255),f,b
  2553   000FE6  A0D8               	btfss	status,0,c
  2554   000FE8  0772               	decf	(efgtoa@w+1)& (0+255),f,b
  2555   000FEA                     
  2556                           ; BSR set to: 0
  2557                           ;/opt/microchip/xc8/v2.45/pic/sources/c99/common/doprnt.c: 623:    n = 1;
  2558   000FEA  0E00               	movlw	0
  2559   000FEC  6F87               	movwf	(efgtoa@n+1)& (0+255),b
  2560   000FEE  0E01               	movlw	1
  2561   000FF0  6F86               	movwf	efgtoa@n& (0+255),b
  2562   000FF2                     l5142:
  2563                           
  2564                           ; BSR set to: 0
  2565                           ;/opt/microchip/xc8/v2.45/pic/sources/c99/common/doprnt.c: 631:   {;/opt/microchip/xc8/v
      +                          2.45/pic/sources/c99/common/doprnt.c: 632:             strcpy(&dbuf[n], "inf");
  2566   000FF2  0E00               	movlw	low _dbuf
  2567   000FF4  2586               	addwf	efgtoa@n& (0+255),w,b
  2568   000FF6  6E01               	movwf	strcpy@dest^0,c
  2569   000FF8  0E01               	movlw	high _dbuf
  2570   000FFA  2187               	addwfc	(efgtoa@n+1)& (0+255),w,b
  2571   000FFC  6E02               	movwf	(strcpy@dest+1)^0,c
  2572   000FFE  0E06               	movlw	low STR_3
  2573   001000  6E03               	movwf	strcpy@src^0,c
  2574   001002  ECCE  F01C         	call	_strcpy	;wreg free
  2575   001006                     l5144:
  2576                           
  2577                           ;/opt/microchip/xc8/v2.45/pic/sources/c99/common/doprnt.c: 633:         };/opt/microchip
      +                          /xc8/v2.45/pic/sources/c99/common/doprnt.c: 634:         w -= ((sizeof("inf")/sizeof("in
      +                          f"[0]))-1);
  2578   001006  0100               	movlb	0	; () banked
  2579   001008  0EFD               	movlw	253
  2580   00100A  2771               	addwf	efgtoa@w& (0+255),f,b
  2581   00100C  0EFF               	movlw	255
  2582   00100E  2372               	addwfc	(efgtoa@w+1)& (0+255),f,b
  2583   001010                     
  2584                           ; BSR set to: 0
  2585                           ;/opt/microchip/xc8/v2.45/pic/sources/c99/common/doprnt.c: 635:         return (void) pa
      +                          d(fp, &dbuf[0], w);
  2586   001010  C03B  F011         	movff	efgtoa@fp,pad@fp
  2587   001014  0E00               	movlw	low _dbuf
  2588   001016  6E12               	movwf	pad@buf^0,c
  2589   001018  0E01               	movlw	high _dbuf
  2590   00101A  6E13               	movwf	(pad@buf+1)^0,c
  2591   00101C  C071  F014         	movff	efgtoa@w,pad@p
  2592   001020  C072  F015         	movff	efgtoa@w+1,pad@p+1
  2593   001024  EC76  F01B         	call	_pad	;wreg free
  2594   001028  EF7D  F00C         	goto	l1242
  2595   00102C                     l5150:
  2596                           
  2597                           ;/opt/microchip/xc8/v2.45/pic/sources/c99/common/doprnt.c: 637:     if (( __fpclassifyf(
      +                          g.f) == 0 )) {
  2598   00102C  C082  F001         	movff	efgtoa@g,___fpclassifyf@x
  2599   001030  C083  F002         	movff	efgtoa@g+1,___fpclassifyf@x+1
  2600   001034  C084  F003         	movff	efgtoa@g+2,___fpclassifyf@x+2
  2601   001038  C085  F004         	movff	efgtoa@g+3,___fpclassifyf@x+3
  2602   00103C  ECD5  F018         	call	___fpclassifyf	;wreg free
  2603   001040  5001               	movf	?___fpclassifyf^0,w,c
  2604   001042  1002               	iorwf	(?___fpclassifyf+1)^0,w,c
  2605   001044  A4D8               	btfss	status,2,c
  2606   001046  EF27  F008         	goto	u5681
  2607   00104A  EF29  F008         	goto	u5680
  2608   00104E                     u5681:
  2609   00104E  EF47  F008         	goto	l5168
  2610   001052                     u5680:
  2611   001052                     
  2612                           ;/opt/microchip/xc8/v2.45/pic/sources/c99/common/doprnt.c: 638:   if (sign) {
  2613   001052  0100               	movlb	0	; () banked
  2614   001054  5181               	movf	efgtoa@sign& (0+255),w,b
  2615   001056  B4D8               	btfsc	status,2,c
  2616   001058  EF30  F008         	goto	u5691
  2617   00105C  EF32  F008         	goto	u5690
  2618   001060                     u5691:
  2619   001060  EF3B  F008         	goto	l5160
  2620   001064                     u5690:
  2621   001064                     
  2622                           ; BSR set to: 0
  2623                           ;/opt/microchip/xc8/v2.45/pic/sources/c99/common/doprnt.c: 639:    dbuf[0] = sign;
  2624   001064  C081  F100         	movff	efgtoa@sign,_dbuf
  2625   001068                     
  2626                           ; BSR set to: 0
  2627                           ;/opt/microchip/xc8/v2.45/pic/sources/c99/common/doprnt.c: 640:    w--;
  2628   001068  0771               	decf	efgtoa@w& (0+255),f,b
  2629   00106A  A0D8               	btfss	status,0,c
  2630   00106C  0772               	decf	(efgtoa@w+1)& (0+255),f,b
  2631   00106E                     
  2632                           ; BSR set to: 0
  2633                           ;/opt/microchip/xc8/v2.45/pic/sources/c99/common/doprnt.c: 641:    n = 1;
  2634   00106E  0E00               	movlw	0
  2635   001070  6F87               	movwf	(efgtoa@n+1)& (0+255),b
  2636   001072  0E01               	movlw	1
  2637   001074  6F86               	movwf	efgtoa@n& (0+255),b
  2638   001076                     l5160:
  2639                           
  2640                           ; BSR set to: 0
  2641                           ;/opt/microchip/xc8/v2.45/pic/sources/c99/common/doprnt.c: 649:   {;/opt/microchip/xc8/v
      +                          2.45/pic/sources/c99/common/doprnt.c: 650:             strcpy(&dbuf[n], "nan");
  2642   001076  0E00               	movlw	low _dbuf
  2643   001078  2586               	addwf	efgtoa@n& (0+255),w,b
  2644   00107A  6E01               	movwf	strcpy@dest^0,c
  2645   00107C  0E01               	movlw	high _dbuf
  2646   00107E  2187               	addwfc	(efgtoa@n+1)& (0+255),w,b
  2647   001080  6E02               	movwf	(strcpy@dest+1)^0,c
  2648   001082  0E0A               	movlw	low STR_6
  2649   001084  6E03               	movwf	strcpy@src^0,c
  2650   001086  ECCE  F01C         	call	_strcpy	;wreg free
  2651   00108A  EF03  F008         	goto	l5144
  2652   00108E                     l5168:
  2653                           
  2654                           ;/opt/microchip/xc8/v2.45/pic/sources/c99/common/doprnt.c: 657:     u.f = 1.0;
  2655   00108E  0E00               	movlw	0
  2656   001090  0100               	movlb	0	; () banked
  2657   001092  6F88               	movwf	efgtoa@u& (0+255),b
  2658   001094  0E00               	movlw	0
  2659   001096  6F89               	movwf	(efgtoa@u+1)& (0+255),b
  2660   001098  0E80               	movlw	128
  2661   00109A  6F8A               	movwf	(efgtoa@u+2)& (0+255),b
  2662   00109C  0E3F               	movlw	63
  2663   00109E  6F8B               	movwf	(efgtoa@u+3)& (0+255),b
  2664                           
  2665                           ;/opt/microchip/xc8/v2.45/pic/sources/c99/common/doprnt.c: 658:     e = 0;
  2666   0010A0  0E00               	movlw	0
  2667   0010A2  6F70               	movwf	(efgtoa@e+1)& (0+255),b
  2668   0010A4  0E00               	movlw	0
  2669   0010A6  6F6F               	movwf	efgtoa@e& (0+255),b
  2670   0010A8                     
  2671                           ; BSR set to: 0
  2672                           ;/opt/microchip/xc8/v2.45/pic/sources/c99/common/doprnt.c: 659:  if (!(g.f == 0.0)) {
  2673   0010A8  C082  F001         	movff	efgtoa@g,___fleq@ff1
  2674   0010AC  C083  F002         	movff	efgtoa@g+1,___fleq@ff1+1
  2675   0010B0  C084  F003         	movff	efgtoa@g+2,___fleq@ff1+2
  2676   0010B4  C085  F004         	movff	efgtoa@g+3,___fleq@ff1+3
  2677   0010B8  0E00               	movlw	0
  2678   0010BA  6E05               	movwf	___fleq@ff2^0,c
  2679   0010BC  0E00               	movlw	0
  2680   0010BE  6E06               	movwf	(___fleq@ff2+1)^0,c
  2681   0010C0  0E00               	movlw	0
  2682   0010C2  6E07               	movwf	(___fleq@ff2+2)^0,c
  2683   0010C4  0E00               	movlw	0
  2684   0010C6  6E08               	movwf	(___fleq@ff2+3)^0,c
  2685   0010C8  EC6B  F01A         	call	___fleq	;wreg free
  2686   0010CC  B0D8               	btfsc	status,0,c
  2687   0010CE  EF6B  F008         	goto	u5701
  2688   0010D2  EF6D  F008         	goto	u5700
  2689   0010D6                     u5701:
  2690   0010D6  EF4C  F009         	goto	l1245
  2691   0010DA                     u5700:
  2692   0010DA  EF7A  F008         	goto	l5176
  2693   0010DE                     l1247:
  2694                           
  2695                           ;/opt/microchip/xc8/v2.45/pic/sources/c99/common/doprnt.c: 661:    u = ou;
  2696   0010DE  C073  F088         	movff	efgtoa@ou,efgtoa@u
  2697   0010E2  C074  F089         	movff	efgtoa@ou+1,efgtoa@u+1
  2698   0010E6  C075  F08A         	movff	efgtoa@ou+2,efgtoa@u+2
  2699   0010EA  C076  F08B         	movff	efgtoa@ou+3,efgtoa@u+3
  2700   0010EE                     
  2701                           ;/opt/microchip/xc8/v2.45/pic/sources/c99/common/doprnt.c: 662:    ++e;
  2702   0010EE  0100               	movlb	0	; () banked
  2703   0010F0  4B6F               	infsnz	efgtoa@e& (0+255),f,b
  2704   0010F2  2B70               	incf	(efgtoa@e+1)& (0+255),f,b
  2705   0010F4                     l5176:
  2706                           
  2707                           ;/opt/microchip/xc8/v2.45/pic/sources/c99/common/doprnt.c: 660:   while ((labs((g).u-((o
      +                          u.f = u.f*10.0,ou)).u) <= 1) || g.f > ou.f) {
  2708   0010F4  C088  F016         	movff	efgtoa@u,___flmul@b
  2709   0010F8  C089  F017         	movff	efgtoa@u+1,___flmul@b+1
  2710   0010FC  C08A  F018         	movff	efgtoa@u+2,___flmul@b+2
  2711   001100  C08B  F019         	movff	efgtoa@u+3,___flmul@b+3
  2712   001104  0E00               	movlw	0
  2713   001106  6E1A               	movwf	___flmul@a^0,c
  2714   001108  0E00               	movlw	0
  2715   00110A  6E1B               	movwf	(___flmul@a+1)^0,c
  2716   00110C  0E20               	movlw	32
  2717   00110E  6E1C               	movwf	(___flmul@a+2)^0,c
  2718   001110  0E41               	movlw	65
  2719   001112  6E1D               	movwf	(___flmul@a+3)^0,c
  2720   001114  ECDE  F00E         	call	___flmul	;wreg free
  2721   001118  C016  F073         	movff	?___flmul,efgtoa@ou
  2722   00111C  C017  F074         	movff	?___flmul+1,efgtoa@ou+1
  2723   001120  C018  F075         	movff	?___flmul+2,efgtoa@ou+2
  2724   001124  C019  F076         	movff	?___flmul+3,efgtoa@ou+3
  2725   001128  0100               	movlb	0	; () banked
  2726   00112A  5173               	movf	efgtoa@ou& (0+255),w,b
  2727   00112C  5D82               	subwf	efgtoa@g& (0+255),w,b
  2728   00112E  6E01               	movwf	labs@a^0,c
  2729   001130  5174               	movf	(efgtoa@ou+1)& (0+255),w,b
  2730   001132  5983               	subwfb	(efgtoa@g+1)& (0+255),w,b
  2731   001134  6E02               	movwf	(labs@a+1)^0,c
  2732   001136  5175               	movf	(efgtoa@ou+2)& (0+255),w,b
  2733   001138  5984               	subwfb	(efgtoa@g+2)& (0+255),w,b
  2734   00113A  6E03               	movwf	(labs@a+2)^0,c
  2735   00113C  5176               	movf	(efgtoa@ou+3)& (0+255),w,b
  2736   00113E  5985               	subwfb	(efgtoa@g+3)& (0+255),w,b
  2737   001140  6E04               	movwf	(labs@a+3)^0,c
  2738   001142  ECA9  F01B         	call	_labs	;wreg free
  2739   001146  BE04               	btfsc	(?_labs+3)^0,7,c
  2740   001148  EFB1  F008         	goto	u5711
  2741   00114C  5004               	movf	(?_labs+3)^0,w,c
  2742   00114E  1003               	iorwf	(?_labs+2)^0,w,c
  2743   001150  1002               	iorwf	(?_labs+1)^0,w,c
  2744   001152  E109               	bnz	u5710
  2745   001154  0E02               	movlw	2
  2746   001156  5C01               	subwf	?_labs^0,w,c
  2747   001158  A0D8               	btfss	status,0,c
  2748   00115A  EFB1  F008         	goto	u5711
  2749   00115E  EFB3  F008         	goto	u5710
  2750   001162                     u5711:
  2751   001162  EF6F  F008         	goto	l1247
  2752   001166                     u5710:
  2753   001166  C073  F02F         	movff	efgtoa@ou,___flge@ff1
  2754   00116A  C074  F030         	movff	efgtoa@ou+1,___flge@ff1+1
  2755   00116E  C075  F031         	movff	efgtoa@ou+2,___flge@ff1+2
  2756   001172  C076  F032         	movff	efgtoa@ou+3,___flge@ff1+3
  2757   001176  C082  F033         	movff	efgtoa@g,___flge@ff2
  2758   00117A  C083  F034         	movff	efgtoa@g+1,___flge@ff2+1
  2759   00117E  C084  F035         	movff	efgtoa@g+2,___flge@ff2+2
  2760   001182  C085  F036         	movff	efgtoa@g+3,___flge@ff2+3
  2761   001186  EC53  F018         	call	___flge	;wreg free
  2762   00118A  A0D8               	btfss	status,0,c
  2763   00118C  EFCA  F008         	goto	u5721
  2764   001190  EFCC  F008         	goto	u5720
  2765   001194                     u5721:
  2766   001194  EF6F  F008         	goto	l1247
  2767   001198                     u5720:
  2768   001198                     
  2769                           ;/opt/microchip/xc8/v2.45/pic/sources/c99/common/doprnt.c: 664:   if ((labs((g).u-(u).u)
      +                           <= 1)) {
  2770   001198  0100               	movlb	0	; () banked
  2771   00119A  5188               	movf	efgtoa@u& (0+255),w,b
  2772   00119C  5D82               	subwf	efgtoa@g& (0+255),w,b
  2773   00119E  6E01               	movwf	labs@a^0,c
  2774   0011A0  5189               	movf	(efgtoa@u+1)& (0+255),w,b
  2775   0011A2  5983               	subwfb	(efgtoa@g+1)& (0+255),w,b
  2776   0011A4  6E02               	movwf	(labs@a+1)^0,c
  2777   0011A6  518A               	movf	(efgtoa@u+2)& (0+255),w,b
  2778   0011A8  5984               	subwfb	(efgtoa@g+2)& (0+255),w,b
  2779   0011AA  6E03               	movwf	(labs@a+2)^0,c
  2780   0011AC  518B               	movf	(efgtoa@u+3)& (0+255),w,b
  2781   0011AE  5985               	subwfb	(efgtoa@g+3)& (0+255),w,b
  2782   0011B0  6E04               	movwf	(labs@a+3)^0,c
  2783   0011B2  ECA9  F01B         	call	_labs	;wreg free
  2784   0011B6  BE04               	btfsc	(?_labs+3)^0,7,c
  2785   0011B8  EFEB  F008         	goto	u5730
  2786   0011BC  5004               	movf	(?_labs+3)^0,w,c
  2787   0011BE  1003               	iorwf	(?_labs+2)^0,w,c
  2788   0011C0  1002               	iorwf	(?_labs+1)^0,w,c
  2789   0011C2  E107               	bnz	u5731
  2790   0011C4  0E02               	movlw	2
  2791   0011C6  5C01               	subwf	?_labs^0,w,c
  2792   0011C8  B0D8               	btfsc	status,0,c
  2793   0011CA  EFE9  F008         	goto	u5731
  2794   0011CE  EFEB  F008         	goto	u5730
  2795   0011D2                     u5731:
  2796   0011D2  EF33  F009         	goto	l5194
  2797   0011D6                     u5730:
  2798   0011D6                     l5184:
  2799                           
  2800                           ;/opt/microchip/xc8/v2.45/pic/sources/c99/common/doprnt.c: 665:    g = u;
  2801   0011D6  C088  F082         	movff	efgtoa@u,efgtoa@g
  2802   0011DA  C089  F083         	movff	efgtoa@u+1,efgtoa@g+1
  2803   0011DE  C08A  F084         	movff	efgtoa@u+2,efgtoa@g+2
  2804   0011E2  C08B  F085         	movff	efgtoa@u+3,efgtoa@g+3
  2805                           
  2806                           ;/opt/microchip/xc8/v2.45/pic/sources/c99/common/doprnt.c: 666:   }
  2807   0011E6  EF4C  F009         	goto	l1245
  2808   0011EA                     l5186:
  2809                           
  2810                           ;/opt/microchip/xc8/v2.45/pic/sources/c99/common/doprnt.c: 669:     u.f = u.f/10.0;
  2811   0011EA  C088  F001         	movff	efgtoa@u,___fldiv@b
  2812   0011EE  C089  F002         	movff	efgtoa@u+1,___fldiv@b+1
  2813   0011F2  C08A  F003         	movff	efgtoa@u+2,___fldiv@b+2
  2814   0011F6  C08B  F004         	movff	efgtoa@u+3,___fldiv@b+3
  2815   0011FA  0E00               	movlw	0
  2816   0011FC  6E05               	movwf	___fldiv@a^0,c
  2817   0011FE  0E00               	movlw	0
  2818   001200  6E06               	movwf	(___fldiv@a+1)^0,c
  2819   001202  0E20               	movlw	32
  2820   001204  6E07               	movwf	(___fldiv@a+2)^0,c
  2821   001206  0E41               	movlw	65
  2822   001208  6E08               	movwf	(___fldiv@a+3)^0,c
  2823   00120A  ECF3  F010         	call	___fldiv	;wreg free
  2824   00120E  C001  F088         	movff	?___fldiv,efgtoa@u
  2825   001212  C002  F089         	movff	?___fldiv+1,efgtoa@u+1
  2826   001216  C003  F08A         	movff	?___fldiv+2,efgtoa@u+2
  2827   00121A  C004  F08B         	movff	?___fldiv+3,efgtoa@u+3
  2828   00121E                     
  2829                           ;/opt/microchip/xc8/v2.45/pic/sources/c99/common/doprnt.c: 670:     --e;
  2830   00121E  0100               	movlb	0	; () banked
  2831   001220  076F               	decf	efgtoa@e& (0+255),f,b
  2832   001222  A0D8               	btfss	status,0,c
  2833   001224  0770               	decf	(efgtoa@e+1)& (0+255),f,b
  2834   001226                     
  2835                           ; BSR set to: 0
  2836                           ;/opt/microchip/xc8/v2.45/pic/sources/c99/common/doprnt.c: 671:     if ((labs((g).u-(u).
      +                          u) <= 1)) {
  2837   001226  5188               	movf	efgtoa@u& (0+255),w,b
  2838   001228  5D82               	subwf	efgtoa@g& (0+255),w,b
  2839   00122A  6E01               	movwf	labs@a^0,c
  2840   00122C  5189               	movf	(efgtoa@u+1)& (0+255),w,b
  2841   00122E  5983               	subwfb	(efgtoa@g+1)& (0+255),w,b
  2842   001230  6E02               	movwf	(labs@a+1)^0,c
  2843   001232  518A               	movf	(efgtoa@u+2)& (0+255),w,b
  2844   001234  5984               	subwfb	(efgtoa@g+2)& (0+255),w,b
  2845   001236  6E03               	movwf	(labs@a+2)^0,c
  2846   001238  518B               	movf	(efgtoa@u+3)& (0+255),w,b
  2847   00123A  5985               	subwfb	(efgtoa@g+3)& (0+255),w,b
  2848   00123C  6E04               	movwf	(labs@a+3)^0,c
  2849   00123E  ECA9  F01B         	call	_labs	;wreg free
  2850   001242  BE04               	btfsc	(?_labs+3)^0,7,c
  2851   001244  EF31  F009         	goto	u5740
  2852   001248  5004               	movf	(?_labs+3)^0,w,c
  2853   00124A  1003               	iorwf	(?_labs+2)^0,w,c
  2854   00124C  1002               	iorwf	(?_labs+1)^0,w,c
  2855   00124E  E107               	bnz	u5741
  2856   001250  0E02               	movlw	2
  2857   001252  5C01               	subwf	?_labs^0,w,c
  2858   001254  B0D8               	btfsc	status,0,c
  2859   001256  EF2F  F009         	goto	u5741
  2860   00125A  EF31  F009         	goto	u5740
  2861   00125E                     u5741:
  2862   00125E  EF33  F009         	goto	l5194
  2863   001262                     u5740:
  2864   001262  EFEB  F008         	goto	l5184
  2865   001266                     l5194:
  2866                           
  2867                           ;/opt/microchip/xc8/v2.45/pic/sources/c99/common/doprnt.c: 668:    while (g.f < u.f) {
  2868   001266  C082  F02F         	movff	efgtoa@g,___flge@ff1
  2869   00126A  C083  F030         	movff	efgtoa@g+1,___flge@ff1+1
  2870   00126E  C084  F031         	movff	efgtoa@g+2,___flge@ff1+2
  2871   001272  C085  F032         	movff	efgtoa@g+3,___flge@ff1+3
  2872   001276  C088  F033         	movff	efgtoa@u,___flge@ff2
  2873   00127A  C089  F034         	movff	efgtoa@u+1,___flge@ff2+1
  2874   00127E  C08A  F035         	movff	efgtoa@u+2,___flge@ff2+2
  2875   001282  C08B  F036         	movff	efgtoa@u+3,___flge@ff2+3
  2876   001286  EC53  F018         	call	___flge	;wreg free
  2877   00128A  A0D8               	btfss	status,0,c
  2878   00128C  EF4A  F009         	goto	u5751
  2879   001290  EF4C  F009         	goto	u5750
  2880   001294                     u5751:
  2881   001294  EFF5  F008         	goto	l5186
  2882   001298                     u5750:
  2883   001298                     l1245:
  2884                           
  2885                           ;/opt/microchip/xc8/v2.45/pic/sources/c99/common/doprnt.c: 683:  mode = c;
  2886   001298  C040  F069         	movff	efgtoa@c,efgtoa@mode
  2887                           
  2888                           ;/opt/microchip/xc8/v2.45/pic/sources/c99/common/doprnt.c: 685:     nmode = mode;
  2889   00129C  C069  F06A         	movff	efgtoa@mode,efgtoa@nmode
  2890   0012A0                     
  2891                           ;/opt/microchip/xc8/v2.45/pic/sources/c99/common/doprnt.c: 695:  {;/opt/microchip/xc8/v2
      +                          .45/pic/sources/c99/common/doprnt.c: 696:         p = (prec < 0) ? 6 : prec;
  2892   0012A0  BE5D               	btfsc	(_prec+1)^0,7,c
  2893   0012A2  EF55  F009         	goto	u5761
  2894   0012A6  EF57  F009         	goto	u5760
  2895   0012AA                     u5761:
  2896   0012AA  EF5D  F009         	goto	l5200
  2897   0012AE                     u5760:
  2898   0012AE  C05C  F062         	movff	_prec,efgtoa@p
  2899   0012B2  C05D  F063         	movff	_prec+1,efgtoa@p+1
  2900   0012B6  EF62  F009         	goto	l5202
  2901   0012BA                     l5200:
  2902   0012BA  0E00               	movlw	0
  2903   0012BC  0100               	movlb	0	; () banked
  2904   0012BE  6F63               	movwf	(efgtoa@p+1)& (0+255),b
  2905   0012C0  0E06               	movlw	6
  2906   0012C2  6F62               	movwf	efgtoa@p& (0+255),b
  2907   0012C4                     l5202:
  2908                           
  2909                           ;/opt/microchip/xc8/v2.45/pic/sources/c99/common/doprnt.c: 697:     };/opt/microchip/xc8
      +                          /v2.45/pic/sources/c99/common/doprnt.c: 711:     m = p;
  2910   0012C4  C062  F06D         	movff	efgtoa@p,efgtoa@m
  2911   0012C8  C063  F06E         	movff	efgtoa@p+1,efgtoa@m+1
  2912   0012CC                     
  2913                           ;/opt/microchip/xc8/v2.45/pic/sources/c99/common/doprnt.c: 715:  {;/opt/microchip/xc8/v2
      +                          .45/pic/sources/c99/common/doprnt.c: 716:         ++m;
  2914   0012CC  0100               	movlb	0	; () banked
  2915   0012CE  4B6D               	infsnz	efgtoa@m& (0+255),f,b
  2916   0012D0  2B6E               	incf	(efgtoa@m+1)& (0+255),f,b
  2917   0012D2                     
  2918                           ; BSR set to: 0
  2919                           ;/opt/microchip/xc8/v2.45/pic/sources/c99/common/doprnt.c: 717:     };/opt/microchip/xc8
      +                          /v2.45/pic/sources/c99/common/doprnt.c: 721:     if (nmode == 'f') {
  2920   0012D2  0E66               	movlw	102
  2921   0012D4  196A               	xorwf	efgtoa@nmode& (0+255),w,b
  2922   0012D6  A4D8               	btfss	status,2,c
  2923   0012D8  EF70  F009         	goto	u5771
  2924   0012DC  EF72  F009         	goto	u5770
  2925   0012E0                     u5771:
  2926   0012E0  EF92  F009         	goto	l5216
  2927   0012E4                     u5770:
  2928   0012E4                     
  2929                           ; BSR set to: 0
  2930                           ;/opt/microchip/xc8/v2.45/pic/sources/c99/common/doprnt.c: 722:         if (e < 0) {
  2931   0012E4  BF70               	btfsc	(efgtoa@e+1)& (0+255),7,b
  2932   0012E6  EF79  F009         	goto	u5780
  2933   0012EA  EF77  F009         	goto	u5781
  2934   0012EE                     u5781:
  2935   0012EE  EF85  F009         	goto	l5212
  2936   0012F2                     u5780:
  2937   0012F2                     
  2938                           ; BSR set to: 0
  2939                           ;/opt/microchip/xc8/v2.45/pic/sources/c99/common/doprnt.c: 723:             u.f = 1.0;
  2940   0012F2  0E00               	movlw	0
  2941   0012F4  6F88               	movwf	efgtoa@u& (0+255),b
  2942   0012F6  0E00               	movlw	0
  2943   0012F8  6F89               	movwf	(efgtoa@u+1)& (0+255),b
  2944   0012FA  0E80               	movlw	128
  2945   0012FC  6F8A               	movwf	(efgtoa@u+2)& (0+255),b
  2946   0012FE  0E3F               	movlw	63
  2947   001300  6F8B               	movwf	(efgtoa@u+3)& (0+255),b
  2948                           
  2949                           ;/opt/microchip/xc8/v2.45/pic/sources/c99/common/doprnt.c: 724:             e = 0;
  2950   001302  0E00               	movlw	0
  2951   001304  6F70               	movwf	(efgtoa@e+1)& (0+255),b
  2952   001306  0E00               	movlw	0
  2953   001308  6F6F               	movwf	efgtoa@e& (0+255),b
  2954   00130A                     l5212:
  2955                           
  2956                           ; BSR set to: 0
  2957                           ;/opt/microchip/xc8/v2.45/pic/sources/c99/common/doprnt.c: 726:         if (!(mode == 'g
      +                          ')) {
  2958   00130A  0E67               	movlw	103
  2959   00130C  1969               	xorwf	efgtoa@mode& (0+255),w,b
  2960   00130E  B4D8               	btfsc	status,2,c
  2961   001310  EF8C  F009         	goto	u5791
  2962   001314  EF8E  F009         	goto	u5790
  2963   001318                     u5791:
  2964   001318  EF92  F009         	goto	l5216
  2965   00131C                     u5790:
  2966   00131C                     
  2967                           ; BSR set to: 0
  2968                           ;/opt/microchip/xc8/v2.45/pic/sources/c99/common/doprnt.c: 727:             m += e;
  2969   00131C  516F               	movf	efgtoa@e& (0+255),w,b
  2970   00131E  276D               	addwf	efgtoa@m& (0+255),f,b
  2971   001320  5170               	movf	(efgtoa@e+1)& (0+255),w,b
  2972   001322  236E               	addwfc	(efgtoa@m+1)& (0+255),f,b
  2973   001324                     l5216:
  2974                           
  2975                           ; BSR set to: 0
  2976                           ;/opt/microchip/xc8/v2.45/pic/sources/c99/common/doprnt.c: 733:     i = 0;
  2977   001324  0E00               	movlw	0
  2978   001326  6F78               	movwf	(efgtoa@i+1)& (0+255),b
  2979   001328  0E00               	movlw	0
  2980   00132A  6F77               	movwf	efgtoa@i& (0+255),b
  2981   00132C                     
  2982                           ; BSR set to: 0
  2983                           ;/opt/microchip/xc8/v2.45/pic/sources/c99/common/doprnt.c: 734:     h = g.f;
  2984   00132C  C082  F079         	movff	efgtoa@g,efgtoa@h
  2985   001330  C083  F07A         	movff	efgtoa@g+1,efgtoa@h+1
  2986   001334  C084  F07B         	movff	efgtoa@g+2,efgtoa@h+2
  2987   001338  C085  F07C         	movff	efgtoa@g+3,efgtoa@h+3
  2988   00133C                     
  2989                           ; BSR set to: 0
  2990                           ;/opt/microchip/xc8/v2.45/pic/sources/c99/common/doprnt.c: 735:     ou = u;
  2991   00133C  C088  F073         	movff	efgtoa@u,efgtoa@ou
  2992   001340  C089  F074         	movff	efgtoa@u+1,efgtoa@ou+1
  2993   001344  C08A  F075         	movff	efgtoa@u+2,efgtoa@ou+2
  2994   001348  C08B  F076         	movff	efgtoa@u+3,efgtoa@ou+3
  2995                           
  2996                           ;/opt/microchip/xc8/v2.45/pic/sources/c99/common/doprnt.c: 736:     while (i < m) {
  2997   00134C  EF23  F00A         	goto	l5230
  2998   001350                     l5222:
  2999                           
  3000                           ; BSR set to: 0
  3001                           ;/opt/microchip/xc8/v2.45/pic/sources/c99/common/doprnt.c: 737:         l = floorf(h/u.f
      +                          );
  3002   001350  C079  F001         	movff	efgtoa@h,___fldiv@b
  3003   001354  C07A  F002         	movff	efgtoa@h+1,___fldiv@b+1
  3004   001358  C07B  F003         	movff	efgtoa@h+2,___fldiv@b+2
  3005   00135C  C07C  F004         	movff	efgtoa@h+3,___fldiv@b+3
  3006   001360  C088  F005         	movff	efgtoa@u,___fldiv@a
  3007   001364  C089  F006         	movff	efgtoa@u+1,___fldiv@a+1
  3008   001368  C08A  F007         	movff	efgtoa@u+2,___fldiv@a+2
  3009   00136C  C08B  F008         	movff	efgtoa@u+3,___fldiv@a+3
  3010   001370  ECF3  F010         	call	___fldiv	;wreg free
  3011   001374  C001  F01A         	movff	?___fldiv,floorf@x
  3012   001378  C002  F01B         	movff	?___fldiv+1,floorf@x+1
  3013   00137C  C003  F01C         	movff	?___fldiv+2,floorf@x+2
  3014   001380  C004  F01D         	movff	?___fldiv+3,floorf@x+3
  3015   001384  ECED  F015         	call	_floorf	;wreg free
  3016   001388  C01A  F07D         	movff	?_floorf,efgtoa@l
  3017   00138C  C01B  F07E         	movff	?_floorf+1,efgtoa@l+1
  3018   001390  C01C  F07F         	movff	?_floorf+2,efgtoa@l+2
  3019   001394  C01D  F080         	movff	?_floorf+3,efgtoa@l+3
  3020                           
  3021                           ;/opt/microchip/xc8/v2.45/pic/sources/c99/common/doprnt.c: 738:         d = (int)l;
  3022   001398  C07D  F001         	movff	efgtoa@l,___fltol@f1
  3023   00139C  C07E  F002         	movff	efgtoa@l+1,___fltol@f1+1
  3024   0013A0  C07F  F003         	movff	efgtoa@l+2,___fltol@f1+2
  3025   0013A4  C080  F004         	movff	efgtoa@l+3,___fltol@f1+3
  3026   0013A8  ECD0  F017         	call	___fltol	;wreg free
  3027   0013AC  C001  F06B         	movff	?___fltol,efgtoa@d
  3028   0013B0  C002  F06C         	movff	?___fltol+1,efgtoa@d+1
  3029   0013B4                     
  3030                           ;/opt/microchip/xc8/v2.45/pic/sources/c99/common/doprnt.c: 739:         h -= l*u.f;
  3031   0013B4  C079  F02F         	movff	efgtoa@h,___flsub@b
  3032   0013B8  C07A  F030         	movff	efgtoa@h+1,___flsub@b+1
  3033   0013BC  C07B  F031         	movff	efgtoa@h+2,___flsub@b+2
  3034   0013C0  C07C  F032         	movff	efgtoa@h+3,___flsub@b+3
  3035   0013C4  C07D  F01A         	movff	efgtoa@l,___flmul@a
  3036   0013C8  C07E  F01B         	movff	efgtoa@l+1,___flmul@a+1
  3037   0013CC  C07F  F01C         	movff	efgtoa@l+2,___flmul@a+2
  3038   0013D0  C080  F01D         	movff	efgtoa@l+3,___flmul@a+3
  3039   0013D4  C088  F016         	movff	efgtoa@u,___flmul@b
  3040   0013D8  C089  F017         	movff	efgtoa@u+1,___flmul@b+1
  3041   0013DC  C08A  F018         	movff	efgtoa@u+2,___flmul@b+2
  3042   0013E0  C08B  F019         	movff	efgtoa@u+3,___flmul@b+3
  3043   0013E4  ECDE  F00E         	call	___flmul	;wreg free
  3044   0013E8  C016  F033         	movff	?___flmul,___flsub@a
  3045   0013EC  C017  F034         	movff	?___flmul+1,___flsub@a+1
  3046   0013F0  C018  F035         	movff	?___flmul+2,___flsub@a+2
  3047   0013F4  C019  F036         	movff	?___flmul+3,___flsub@a+3
  3048   0013F8  EC4A  F01C         	call	___flsub	;wreg free
  3049   0013FC  C02F  F079         	movff	?___flsub,efgtoa@h
  3050   001400  C030  F07A         	movff	?___flsub+1,efgtoa@h+1
  3051   001404  C031  F07B         	movff	?___flsub+2,efgtoa@h+2
  3052   001408  C032  F07C         	movff	?___flsub+3,efgtoa@h+3
  3053   00140C                     
  3054                           ;/opt/microchip/xc8/v2.45/pic/sources/c99/common/doprnt.c: 740:         u.f = u.f/10.0;
  3055   00140C  C088  F001         	movff	efgtoa@u,___fldiv@b
  3056   001410  C089  F002         	movff	efgtoa@u+1,___fldiv@b+1
  3057   001414  C08A  F003         	movff	efgtoa@u+2,___fldiv@b+2
  3058   001418  C08B  F004         	movff	efgtoa@u+3,___fldiv@b+3
  3059   00141C  0E00               	movlw	0
  3060   00141E  6E05               	movwf	___fldiv@a^0,c
  3061   001420  0E00               	movlw	0
  3062   001422  6E06               	movwf	(___fldiv@a+1)^0,c
  3063   001424  0E20               	movlw	32
  3064   001426  6E07               	movwf	(___fldiv@a+2)^0,c
  3065   001428  0E41               	movlw	65
  3066   00142A  6E08               	movwf	(___fldiv@a+3)^0,c
  3067   00142C  ECF3  F010         	call	___fldiv	;wreg free
  3068   001430  C001  F088         	movff	?___fldiv,efgtoa@u
  3069   001434  C002  F089         	movff	?___fldiv+1,efgtoa@u+1
  3070   001438  C003  F08A         	movff	?___fldiv+2,efgtoa@u+2
  3071   00143C  C004  F08B         	movff	?___fldiv+3,efgtoa@u+3
  3072   001440                     
  3073                           ;/opt/microchip/xc8/v2.45/pic/sources/c99/common/doprnt.c: 741:         ++i;
  3074   001440  0100               	movlb	0	; () banked
  3075   001442  4B77               	infsnz	efgtoa@i& (0+255),f,b
  3076   001444  2B78               	incf	(efgtoa@i+1)& (0+255),f,b
  3077   001446                     l5230:
  3078                           
  3079                           ; BSR set to: 0
  3080                           ;/opt/microchip/xc8/v2.45/pic/sources/c99/common/doprnt.c: 736:     while (i < m) {
  3081   001446  516D               	movf	efgtoa@m& (0+255),w,b
  3082   001448  5D77               	subwf	efgtoa@i& (0+255),w,b
  3083   00144A  5178               	movf	(efgtoa@i+1)& (0+255),w,b
  3084   00144C  0A80               	xorlw	128
  3085   00144E  6E41               	movwf	??_efgtoa^0,c
  3086   001450  516E               	movf	(efgtoa@m+1)& (0+255),w,b
  3087   001452  0A80               	xorlw	128
  3088   001454  5841               	subwfb	??_efgtoa^0,w,c
  3089   001456  A0D8               	btfss	status,0,c
  3090   001458  EF30  F00A         	goto	u5801
  3091   00145C  EF32  F00A         	goto	u5800
  3092   001460                     u5801:
  3093   001460  EFA8  F009         	goto	l5222
  3094   001464                     u5800:
  3095   001464                     
  3096                           ; BSR set to: 0
  3097                           ;/opt/microchip/xc8/v2.45/pic/sources/c99/common/doprnt.c: 745:     l = u.f*5.0;
  3098   001464  C088  F016         	movff	efgtoa@u,___flmul@b
  3099   001468  C089  F017         	movff	efgtoa@u+1,___flmul@b+1
  3100   00146C  C08A  F018         	movff	efgtoa@u+2,___flmul@b+2
  3101   001470  C08B  F019         	movff	efgtoa@u+3,___flmul@b+3
  3102   001474  0E00               	movlw	0
  3103   001476  6E1A               	movwf	___flmul@a^0,c
  3104   001478  0E00               	movlw	0
  3105   00147A  6E1B               	movwf	(___flmul@a+1)^0,c
  3106   00147C  0EA0               	movlw	160
  3107   00147E  6E1C               	movwf	(___flmul@a+2)^0,c
  3108   001480  0E40               	movlw	64
  3109   001482  6E1D               	movwf	(___flmul@a+3)^0,c
  3110   001484  ECDE  F00E         	call	___flmul	;wreg free
  3111   001488  C016  F07D         	movff	?___flmul,efgtoa@l
  3112   00148C  C017  F07E         	movff	?___flmul+1,efgtoa@l+1
  3113   001490  C018  F07F         	movff	?___flmul+2,efgtoa@l+2
  3114   001494  C019  F080         	movff	?___flmul+3,efgtoa@l+3
  3115   001498                     
  3116                           ;/opt/microchip/xc8/v2.45/pic/sources/c99/common/doprnt.c: 746:     if (h < l) {
  3117   001498  C079  F02F         	movff	efgtoa@h,___flge@ff1
  3118   00149C  C07A  F030         	movff	efgtoa@h+1,___flge@ff1+1
  3119   0014A0  C07B  F031         	movff	efgtoa@h+2,___flge@ff1+2
  3120   0014A4  C07C  F032         	movff	efgtoa@h+3,___flge@ff1+3
  3121   0014A8  C07D  F033         	movff	efgtoa@l,___flge@ff2
  3122   0014AC  C07E  F034         	movff	efgtoa@l+1,___flge@ff2+1
  3123   0014B0  C07F  F035         	movff	efgtoa@l+2,___flge@ff2+2
  3124   0014B4  C080  F036         	movff	efgtoa@l+3,___flge@ff2+3
  3125   0014B8  EC53  F018         	call	___flge	;wreg free
  3126   0014BC  B0D8               	btfsc	status,0,c
  3127   0014BE  EF63  F00A         	goto	u5811
  3128   0014C2  EF65  F00A         	goto	u5810
  3129   0014C6                     u5811:
  3130   0014C6  EF70  F00A         	goto	l5238
  3131   0014CA                     u5810:
  3132   0014CA                     
  3133                           ;/opt/microchip/xc8/v2.45/pic/sources/c99/common/doprnt.c: 747:         l = 0.0;
  3134   0014CA  0E00               	movlw	0
  3135   0014CC  0100               	movlb	0	; () banked
  3136   0014CE  6F7D               	movwf	efgtoa@l& (0+255),b
  3137   0014D0  0E00               	movlw	0
  3138   0014D2  6F7E               	movwf	(efgtoa@l+1)& (0+255),b
  3139   0014D4  0E00               	movlw	0
  3140   0014D6  6F7F               	movwf	(efgtoa@l+2)& (0+255),b
  3141   0014D8  0E00               	movlw	0
  3142   0014DA  6F80               	movwf	(efgtoa@l+3)& (0+255),b
  3143                           
  3144                           ;/opt/microchip/xc8/v2.45/pic/sources/c99/common/doprnt.c: 748:     } else {
  3145   0014DC  EF99  F00A         	goto	l5244
  3146   0014E0                     l5238:
  3147                           
  3148                           ;/opt/microchip/xc8/v2.45/pic/sources/c99/common/doprnt.c: 750:         if ((h == l) && 
      +                          !(d % 2)) {
  3149   0014E0  C079  F001         	movff	efgtoa@h,___fleq@ff1
  3150   0014E4  C07A  F002         	movff	efgtoa@h+1,___fleq@ff1+1
  3151   0014E8  C07B  F003         	movff	efgtoa@h+2,___fleq@ff1+2
  3152   0014EC  C07C  F004         	movff	efgtoa@h+3,___fleq@ff1+3
  3153   0014F0  C07D  F005         	movff	efgtoa@l,___fleq@ff2
  3154   0014F4  C07E  F006         	movff	efgtoa@l+1,___fleq@ff2+1
  3155   0014F8  C07F  F007         	movff	efgtoa@l+2,___fleq@ff2+2
  3156   0014FC  C080  F008         	movff	efgtoa@l+3,___fleq@ff2+3
  3157   001500  EC6B  F01A         	call	___fleq	;wreg free
  3158   001504  A0D8               	btfss	status,0,c
  3159   001506  EF87  F00A         	goto	u5821
  3160   00150A  EF89  F00A         	goto	u5820
  3161   00150E                     u5821:
  3162   00150E  EF99  F00A         	goto	l5244
  3163   001512                     u5820:
  3164   001512  0100               	movlb	0	; () banked
  3165   001514  B16B               	btfsc	efgtoa@d& (0+255),0,b
  3166   001516  EF8F  F00A         	goto	u5831
  3167   00151A  EF91  F00A         	goto	u5830
  3168   00151E                     u5831:
  3169   00151E  EF99  F00A         	goto	l5244
  3170   001522                     u5830:
  3171   001522                     
  3172                           ; BSR set to: 0
  3173                           ;/opt/microchip/xc8/v2.45/pic/sources/c99/common/doprnt.c: 751:             l = 0.0;
  3174   001522  0E00               	movlw	0
  3175   001524  6F7D               	movwf	efgtoa@l& (0+255),b
  3176   001526  0E00               	movlw	0
  3177   001528  6F7E               	movwf	(efgtoa@l+1)& (0+255),b
  3178   00152A  0E00               	movlw	0
  3179   00152C  6F7F               	movwf	(efgtoa@l+2)& (0+255),b
  3180   00152E  0E00               	movlw	0
  3181   001530  6F80               	movwf	(efgtoa@l+3)& (0+255),b
  3182   001532                     l5244:
  3183                           
  3184                           ;/opt/microchip/xc8/v2.45/pic/sources/c99/common/doprnt.c: 756:     h = g.f + l;
  3185   001532  C082  F001         	movff	efgtoa@g,___fladd@b
  3186   001536  C083  F002         	movff	efgtoa@g+1,___fladd@b+1
  3187   00153A  C084  F003         	movff	efgtoa@g+2,___fladd@b+2
  3188   00153E  C085  F004         	movff	efgtoa@g+3,___fladd@b+3
  3189   001542  C07D  F005         	movff	efgtoa@l,___fladd@a
  3190   001546  C07E  F006         	movff	efgtoa@l+1,___fladd@a+1
  3191   00154A  C07F  F007         	movff	efgtoa@l+2,___fladd@a+2
  3192   00154E  C080  F008         	movff	efgtoa@l+3,___fladd@a+3
  3193   001552  EC7E  F00C         	call	___fladd	;wreg free
  3194   001556  C001  F079         	movff	?___fladd,efgtoa@h
  3195   00155A  C002  F07A         	movff	?___fladd+1,efgtoa@h+1
  3196   00155E  C003  F07B         	movff	?___fladd+2,efgtoa@h+2
  3197   001562  C004  F07C         	movff	?___fladd+3,efgtoa@h+3
  3198   001566                     
  3199                           ;/opt/microchip/xc8/v2.45/pic/sources/c99/common/doprnt.c: 758:  if (h >= (ou.f*10.0)) {
  3200   001566  C079  F02F         	movff	efgtoa@h,___flge@ff1
  3201   00156A  C07A  F030         	movff	efgtoa@h+1,___flge@ff1+1
  3202   00156E  C07B  F031         	movff	efgtoa@h+2,___flge@ff1+2
  3203   001572  C07C  F032         	movff	efgtoa@h+3,___flge@ff1+3
  3204   001576  0E00               	movlw	0
  3205   001578  6E1A               	movwf	___flmul@a^0,c
  3206   00157A  0E00               	movlw	0
  3207   00157C  6E1B               	movwf	(___flmul@a+1)^0,c
  3208   00157E  0E20               	movlw	32
  3209   001580  6E1C               	movwf	(___flmul@a+2)^0,c
  3210   001582  0E41               	movlw	65
  3211   001584  6E1D               	movwf	(___flmul@a+3)^0,c
  3212   001586  C073  F016         	movff	efgtoa@ou,___flmul@b
  3213   00158A  C074  F017         	movff	efgtoa@ou+1,___flmul@b+1
  3214   00158E  C075  F018         	movff	efgtoa@ou+2,___flmul@b+2
  3215   001592  C076  F019         	movff	efgtoa@ou+3,___flmul@b+3
  3216   001596  ECDE  F00E         	call	___flmul	;wreg free
  3217   00159A  C016  F033         	movff	?___flmul,___flge@ff2
  3218   00159E  C017  F034         	movff	?___flmul+1,___flge@ff2+1
  3219   0015A2  C018  F035         	movff	?___flmul+2,___flge@ff2+2
  3220   0015A6  C019  F036         	movff	?___flmul+3,___flge@ff2+3
  3221   0015AA  EC53  F018         	call	___flge	;wreg free
  3222   0015AE  A0D8               	btfss	status,0,c
  3223   0015B0  EFDC  F00A         	goto	u5841
  3224   0015B4  EFDE  F00A         	goto	u5840
  3225   0015B8                     u5841:
  3226   0015B8  EF07  F00B         	goto	l5256
  3227   0015BC                     u5840:
  3228   0015BC                     
  3229                           ;/opt/microchip/xc8/v2.45/pic/sources/c99/common/doprnt.c: 759:   e++;
  3230   0015BC  0100               	movlb	0	; () banked
  3231   0015BE  4B6F               	infsnz	efgtoa@e& (0+255),f,b
  3232   0015C0  2B70               	incf	(efgtoa@e+1)& (0+255),f,b
  3233   0015C2                     
  3234                           ; BSR set to: 0
  3235                           ;/opt/microchip/xc8/v2.45/pic/sources/c99/common/doprnt.c: 760:   ou.f *= 10.0;
  3236   0015C2  C073  F016         	movff	efgtoa@ou,___flmul@b
  3237   0015C6  C074  F017         	movff	efgtoa@ou+1,___flmul@b+1
  3238   0015CA  C075  F018         	movff	efgtoa@ou+2,___flmul@b+2
  3239   0015CE  C076  F019         	movff	efgtoa@ou+3,___flmul@b+3
  3240   0015D2  0E00               	movlw	0
  3241   0015D4  6E1A               	movwf	___flmul@a^0,c
  3242   0015D6  0E00               	movlw	0
  3243   0015D8  6E1B               	movwf	(___flmul@a+1)^0,c
  3244   0015DA  0E20               	movlw	32
  3245   0015DC  6E1C               	movwf	(___flmul@a+2)^0,c
  3246   0015DE  0E41               	movlw	65
  3247   0015E0  6E1D               	movwf	(___flmul@a+3)^0,c
  3248   0015E2  ECDE  F00E         	call	___flmul	;wreg free
  3249   0015E6  C016  F073         	movff	?___flmul,efgtoa@ou
  3250   0015EA  C017  F074         	movff	?___flmul+1,efgtoa@ou+1
  3251   0015EE  C018  F075         	movff	?___flmul+2,efgtoa@ou+2
  3252   0015F2  C019  F076         	movff	?___flmul+3,efgtoa@ou+3
  3253   0015F6                     
  3254                           ;/opt/microchip/xc8/v2.45/pic/sources/c99/common/doprnt.c: 762:   if (nmode == 'f') {
  3255   0015F6  0E66               	movlw	102
  3256   0015F8  0100               	movlb	0	; () banked
  3257   0015FA  196A               	xorwf	efgtoa@nmode& (0+255),w,b
  3258   0015FC  A4D8               	btfss	status,2,c
  3259   0015FE  EF03  F00B         	goto	u5851
  3260   001602  EF05  F00B         	goto	u5850
  3261   001606                     u5851:
  3262   001606  EF07  F00B         	goto	l5256
  3263   00160A                     u5850:
  3264   00160A                     
  3265                           ; BSR set to: 0
  3266                           ;/opt/microchip/xc8/v2.45/pic/sources/c99/common/doprnt.c: 764:    m++;
  3267   00160A  4B6D               	infsnz	efgtoa@m& (0+255),f,b
  3268   00160C  2B6E               	incf	(efgtoa@m+1)& (0+255),f,b
  3269   00160E                     l5256:
  3270                           
  3271                           ;/opt/microchip/xc8/v2.45/pic/sources/c99/common/doprnt.c: 770:     u = ou;
  3272   00160E  C073  F088         	movff	efgtoa@ou,efgtoa@u
  3273   001612  C074  F089         	movff	efgtoa@ou+1,efgtoa@u+1
  3274   001616  C075  F08A         	movff	efgtoa@ou+2,efgtoa@u+2
  3275   00161A  C076  F08B         	movff	efgtoa@ou+3,efgtoa@u+3
  3276   00161E                     
  3277                           ;/opt/microchip/xc8/v2.45/pic/sources/c99/common/doprnt.c: 774:  ne = e;
  3278   00161E  C06F  F060         	movff	efgtoa@e,efgtoa@ne
  3279   001622  C070  F061         	movff	efgtoa@e+1,efgtoa@ne+1
  3280   001626                     
  3281                           ;/opt/microchip/xc8/v2.45/pic/sources/c99/common/doprnt.c: 776:     pp = 0;
  3282   001626  0E00               	movlw	0
  3283   001628  0100               	movlb	0	; () banked
  3284   00162A  6F68               	movwf	efgtoa@pp& (0+255),b
  3285   00162C                     
  3286                           ; BSR set to: 0
  3287                           ;/opt/microchip/xc8/v2.45/pic/sources/c99/common/doprnt.c: 777:     t = 0;
  3288   00162C  0E00               	movlw	0
  3289   00162E  6F65               	movwf	(efgtoa@t+1)& (0+255),b
  3290   001630  0E00               	movlw	0
  3291   001632  6F64               	movwf	efgtoa@t& (0+255),b
  3292   001634                     
  3293                           ; BSR set to: 0
  3294                           ;/opt/microchip/xc8/v2.45/pic/sources/c99/common/doprnt.c: 778:     i = 0;
  3295   001634  0E00               	movlw	0
  3296   001636  6F78               	movwf	(efgtoa@i+1)& (0+255),b
  3297   001638  0E00               	movlw	0
  3298   00163A  6F77               	movwf	efgtoa@i& (0+255),b
  3299                           
  3300                           ;/opt/microchip/xc8/v2.45/pic/sources/c99/common/doprnt.c: 779:     while ((i < m) && (n
      +                           < (80 - 5))) {
  3301   00163C  EF05  F00C         	goto	l5306
  3302   001640                     l5266:
  3303                           
  3304                           ; BSR set to: 0
  3305                           ;/opt/microchip/xc8/v2.45/pic/sources/c99/common/doprnt.c: 780:         l = floorf(h/u.f
      +                          );
  3306   001640  C079  F001         	movff	efgtoa@h,___fldiv@b
  3307   001644  C07A  F002         	movff	efgtoa@h+1,___fldiv@b+1
  3308   001648  C07B  F003         	movff	efgtoa@h+2,___fldiv@b+2
  3309   00164C  C07C  F004         	movff	efgtoa@h+3,___fldiv@b+3
  3310   001650  C088  F005         	movff	efgtoa@u,___fldiv@a
  3311   001654  C089  F006         	movff	efgtoa@u+1,___fldiv@a+1
  3312   001658  C08A  F007         	movff	efgtoa@u+2,___fldiv@a+2
  3313   00165C  C08B  F008         	movff	efgtoa@u+3,___fldiv@a+3
  3314   001660  ECF3  F010         	call	___fldiv	;wreg free
  3315   001664  C001  F01A         	movff	?___fldiv,floorf@x
  3316   001668  C002  F01B         	movff	?___fldiv+1,floorf@x+1
  3317   00166C  C003  F01C         	movff	?___fldiv+2,floorf@x+2
  3318   001670  C004  F01D         	movff	?___fldiv+3,floorf@x+3
  3319   001674  ECED  F015         	call	_floorf	;wreg free
  3320   001678  C01A  F07D         	movff	?_floorf,efgtoa@l
  3321   00167C  C01B  F07E         	movff	?_floorf+1,efgtoa@l+1
  3322   001680  C01C  F07F         	movff	?_floorf+2,efgtoa@l+2
  3323   001684  C01D  F080         	movff	?_floorf+3,efgtoa@l+3
  3324                           
  3325                           ;/opt/microchip/xc8/v2.45/pic/sources/c99/common/doprnt.c: 781:         d = (int)l > 9 ?
      +                           9 : (int)l;
  3326   001688  C07D  F001         	movff	efgtoa@l,___fltol@f1
  3327   00168C  C07E  F002         	movff	efgtoa@l+1,___fltol@f1+1
  3328   001690  C07F  F003         	movff	efgtoa@l+2,___fltol@f1+2
  3329   001694  C080  F004         	movff	efgtoa@l+3,___fltol@f1+3
  3330   001698  ECD0  F017         	call	___fltol	;wreg free
  3331   00169C  BE02               	btfsc	(?___fltol+1)^0,7,c
  3332   00169E  EF5C  F00B         	goto	u5860
  3333   0016A2  5002               	movf	(?___fltol+1)^0,w,c
  3334   0016A4  E107               	bnz	u5861
  3335   0016A6  0E0A               	movlw	10
  3336   0016A8  5C01               	subwf	?___fltol^0,w,c
  3337   0016AA  B0D8               	btfsc	status,0,c
  3338   0016AC  EF5A  F00B         	goto	u5861
  3339   0016B0  EF5C  F00B         	goto	u5860
  3340   0016B4                     u5861:
  3341   0016B4  EF6C  F00B         	goto	l5270
  3342   0016B8                     u5860:
  3343   0016B8  C07D  F001         	movff	efgtoa@l,___fltol@f1
  3344   0016BC  C07E  F002         	movff	efgtoa@l+1,___fltol@f1+1
  3345   0016C0  C07F  F003         	movff	efgtoa@l+2,___fltol@f1+2
  3346   0016C4  C080  F004         	movff	efgtoa@l+3,___fltol@f1+3
  3347   0016C8  ECD0  F017         	call	___fltol	;wreg free
  3348   0016CC  C001  F06B         	movff	?___fltol,efgtoa@d
  3349   0016D0  C002  F06C         	movff	?___fltol+1,efgtoa@d+1
  3350   0016D4  EF71  F00B         	goto	l1275
  3351   0016D8                     l5270:
  3352   0016D8  0E00               	movlw	0
  3353   0016DA  0100               	movlb	0	; () banked
  3354   0016DC  6F6C               	movwf	(efgtoa@d+1)& (0+255),b
  3355   0016DE  0E09               	movlw	9
  3356   0016E0  6F6B               	movwf	efgtoa@d& (0+255),b
  3357   0016E2                     l1275:
  3358                           
  3359                           ;/opt/microchip/xc8/v2.45/pic/sources/c99/common/doprnt.c: 792:   {;/opt/microchip/xc8/v
      +                          2.45/pic/sources/c99/common/doprnt.c: 793:             if (!pp && (ne < 0)) {
  3360   0016E2  0100               	movlb	0	; () banked
  3361   0016E4  5168               	movf	efgtoa@pp& (0+255),w,b
  3362   0016E6  A4D8               	btfss	status,2,c
  3363   0016E8  EF78  F00B         	goto	u5871
  3364   0016EC  EF7A  F00B         	goto	u5870
  3365   0016F0                     u5871:
  3366   0016F0  EFA2  F00B         	goto	l5290
  3367   0016F4                     u5870:
  3368   0016F4                     
  3369                           ; BSR set to: 0
  3370   0016F4  BF61               	btfsc	(efgtoa@ne+1)& (0+255),7,b
  3371   0016F6  EF81  F00B         	goto	u5880
  3372   0016FA  EF7F  F00B         	goto	u5881
  3373   0016FE                     u5881:
  3374   0016FE  EFA2  F00B         	goto	l5290
  3375   001702                     u5880:
  3376   001702                     
  3377                           ; BSR set to: 0
  3378                           ;/opt/microchip/xc8/v2.45/pic/sources/c99/common/doprnt.c: 794:                 dbuf[n++
      +                          ] = '.';
  3379   001702  0E00               	movlw	low _dbuf
  3380   001704  2586               	addwf	efgtoa@n& (0+255),w,b
  3381   001706  6ED9               	movwf	fsr2l,c
  3382   001708  0E01               	movlw	high _dbuf
  3383   00170A  2187               	addwfc	(efgtoa@n+1)& (0+255),w,b
  3384   00170C  6EDA               	movwf	fsr2h,c
  3385   00170E  0E2E               	movlw	46
  3386   001710  6EDF               	movwf	indf2,c
  3387   001712                     
  3388                           ; BSR set to: 0
  3389   001712  4B86               	infsnz	efgtoa@n& (0+255),f,b
  3390   001714  2B87               	incf	(efgtoa@n+1)& (0+255),f,b
  3391   001716                     
  3392                           ; BSR set to: 0
  3393                           ;/opt/microchip/xc8/v2.45/pic/sources/c99/common/doprnt.c: 795:                 --w;
  3394   001716  0771               	decf	efgtoa@w& (0+255),f,b
  3395   001718  A0D8               	btfss	status,0,c
  3396   00171A  0772               	decf	(efgtoa@w+1)& (0+255),f,b
  3397   00171C                     
  3398                           ; BSR set to: 0
  3399                           ;/opt/microchip/xc8/v2.45/pic/sources/c99/common/doprnt.c: 796:                 pp = 1;
  3400   00171C  0E01               	movlw	1
  3401   00171E  6F68               	movwf	efgtoa@pp& (0+255),b
  3402   001720  EFA2  F00B         	goto	l5290
  3403   001724                     l5282:
  3404                           
  3405                           ; BSR set to: 0
  3406                           ;/opt/microchip/xc8/v2.45/pic/sources/c99/common/doprnt.c: 799:                 dbuf[n++
      +                          ] = '0';
  3407   001724  0E00               	movlw	low _dbuf
  3408   001726  2586               	addwf	efgtoa@n& (0+255),w,b
  3409   001728  6ED9               	movwf	fsr2l,c
  3410   00172A  0E01               	movlw	high _dbuf
  3411   00172C  2187               	addwfc	(efgtoa@n+1)& (0+255),w,b
  3412   00172E  6EDA               	movwf	fsr2h,c
  3413   001730  0E30               	movlw	48
  3414   001732  6EDF               	movwf	indf2,c
  3415   001734                     
  3416                           ; BSR set to: 0
  3417   001734  4B86               	infsnz	efgtoa@n& (0+255),f,b
  3418   001736  2B87               	incf	(efgtoa@n+1)& (0+255),f,b
  3419   001738                     
  3420                           ; BSR set to: 0
  3421                           ;/opt/microchip/xc8/v2.45/pic/sources/c99/common/doprnt.c: 800:                 --w;
  3422   001738  0771               	decf	efgtoa@w& (0+255),f,b
  3423   00173A  A0D8               	btfss	status,0,c
  3424   00173C  0772               	decf	(efgtoa@w+1)& (0+255),f,b
  3425   00173E                     
  3426                           ; BSR set to: 0
  3427                           ;/opt/microchip/xc8/v2.45/pic/sources/c99/common/doprnt.c: 801:                 --t;
  3428   00173E  0764               	decf	efgtoa@t& (0+255),f,b
  3429   001740  A0D8               	btfss	status,0,c
  3430   001742  0765               	decf	(efgtoa@t+1)& (0+255),f,b
  3431   001744                     l5290:
  3432                           
  3433                           ; BSR set to: 0
  3434                           ;/opt/microchip/xc8/v2.45/pic/sources/c99/common/doprnt.c: 798:             while (t) {
  3435   001744  5164               	movf	efgtoa@t& (0+255),w,b
  3436   001746  1165               	iorwf	(efgtoa@t+1)& (0+255),w,b
  3437   001748  A4D8               	btfss	status,2,c
  3438   00174A  EFA9  F00B         	goto	u5891
  3439   00174E  EFAB  F00B         	goto	u5890
  3440   001752                     u5891:
  3441   001752  EF92  F00B         	goto	l5282
  3442   001756                     u5890:
  3443   001756                     
  3444                           ; BSR set to: 0
  3445                           ;/opt/microchip/xc8/v2.45/pic/sources/c99/common/doprnt.c: 803:             dbuf[n++] = 
      +                          (char)((int)'0' + d);
  3446   001756  0E00               	movlw	low _dbuf
  3447   001758  2586               	addwf	efgtoa@n& (0+255),w,b
  3448   00175A  6ED9               	movwf	fsr2l,c
  3449   00175C  0E01               	movlw	high _dbuf
  3450   00175E  2187               	addwfc	(efgtoa@n+1)& (0+255),w,b
  3451   001760  6EDA               	movwf	fsr2h,c
  3452   001762  516B               	movf	efgtoa@d& (0+255),w,b
  3453   001764  0F30               	addlw	48
  3454   001766  6EDF               	movwf	indf2,c
  3455   001768                     
  3456                           ; BSR set to: 0
  3457   001768  4B86               	infsnz	efgtoa@n& (0+255),f,b
  3458   00176A  2B87               	incf	(efgtoa@n+1)& (0+255),f,b
  3459   00176C                     
  3460                           ; BSR set to: 0
  3461                           ;/opt/microchip/xc8/v2.45/pic/sources/c99/common/doprnt.c: 804:             --w;
  3462   00176C  0771               	decf	efgtoa@w& (0+255),f,b
  3463   00176E  A0D8               	btfss	status,0,c
  3464   001770  0772               	decf	(efgtoa@w+1)& (0+255),f,b
  3465   001772                     
  3466                           ; BSR set to: 0
  3467                           ;/opt/microchip/xc8/v2.45/pic/sources/c99/common/doprnt.c: 805:         };/opt/microchip
      +                          /xc8/v2.45/pic/sources/c99/common/doprnt.c: 806:         h -= l*u.f;
  3468   001772  C079  F02F         	movff	efgtoa@h,___flsub@b
  3469   001776  C07A  F030         	movff	efgtoa@h+1,___flsub@b+1
  3470   00177A  C07B  F031         	movff	efgtoa@h+2,___flsub@b+2
  3471   00177E  C07C  F032         	movff	efgtoa@h+3,___flsub@b+3
  3472   001782  C07D  F01A         	movff	efgtoa@l,___flmul@a
  3473   001786  C07E  F01B         	movff	efgtoa@l+1,___flmul@a+1
  3474   00178A  C07F  F01C         	movff	efgtoa@l+2,___flmul@a+2
  3475   00178E  C080  F01D         	movff	efgtoa@l+3,___flmul@a+3
  3476   001792  C088  F016         	movff	efgtoa@u,___flmul@b
  3477   001796  C089  F017         	movff	efgtoa@u+1,___flmul@b+1
  3478   00179A  C08A  F018         	movff	efgtoa@u+2,___flmul@b+2
  3479   00179E  C08B  F019         	movff	efgtoa@u+3,___flmul@b+3
  3480   0017A2  ECDE  F00E         	call	___flmul	;wreg free
  3481   0017A6  C016  F033         	movff	?___flmul,___flsub@a
  3482   0017AA  C017  F034         	movff	?___flmul+1,___flsub@a+1
  3483   0017AE  C018  F035         	movff	?___flmul+2,___flsub@a+2
  3484   0017B2  C019  F036         	movff	?___flmul+3,___flsub@a+3
  3485   0017B6  EC4A  F01C         	call	___flsub	;wreg free
  3486   0017BA  C02F  F079         	movff	?___flsub,efgtoa@h
  3487   0017BE  C030  F07A         	movff	?___flsub+1,efgtoa@h+1
  3488   0017C2  C031  F07B         	movff	?___flsub+2,efgtoa@h+2
  3489   0017C6  C032  F07C         	movff	?___flsub+3,efgtoa@h+3
  3490   0017CA                     
  3491                           ;/opt/microchip/xc8/v2.45/pic/sources/c99/common/doprnt.c: 807:         u.f = u.f/10.0;
  3492   0017CA  C088  F001         	movff	efgtoa@u,___fldiv@b
  3493   0017CE  C089  F002         	movff	efgtoa@u+1,___fldiv@b+1
  3494   0017D2  C08A  F003         	movff	efgtoa@u+2,___fldiv@b+2
  3495   0017D6  C08B  F004         	movff	efgtoa@u+3,___fldiv@b+3
  3496   0017DA  0E00               	movlw	0
  3497   0017DC  6E05               	movwf	___fldiv@a^0,c
  3498   0017DE  0E00               	movlw	0
  3499   0017E0  6E06               	movwf	(___fldiv@a+1)^0,c
  3500   0017E2  0E20               	movlw	32
  3501   0017E4  6E07               	movwf	(___fldiv@a+2)^0,c
  3502   0017E6  0E41               	movlw	65
  3503   0017E8  6E08               	movwf	(___fldiv@a+3)^0,c
  3504   0017EA  ECF3  F010         	call	___fldiv	;wreg free
  3505   0017EE  C001  F088         	movff	?___fldiv,efgtoa@u
  3506   0017F2  C002  F089         	movff	?___fldiv+1,efgtoa@u+1
  3507   0017F6  C003  F08A         	movff	?___fldiv+2,efgtoa@u+2
  3508   0017FA  C004  F08B         	movff	?___fldiv+3,efgtoa@u+3
  3509   0017FE                     
  3510                           ;/opt/microchip/xc8/v2.45/pic/sources/c99/common/doprnt.c: 808:         --ne;
  3511   0017FE  0100               	movlb	0	; () banked
  3512   001800  0760               	decf	efgtoa@ne& (0+255),f,b
  3513   001802  A0D8               	btfss	status,0,c
  3514   001804  0761               	decf	(efgtoa@ne+1)& (0+255),f,b
  3515   001806                     
  3516                           ; BSR set to: 0
  3517                           ;/opt/microchip/xc8/v2.45/pic/sources/c99/common/doprnt.c: 809:         ++i;
  3518   001806  4B77               	infsnz	efgtoa@i& (0+255),f,b
  3519   001808  2B78               	incf	(efgtoa@i+1)& (0+255),f,b
  3520   00180A                     l5306:
  3521                           
  3522                           ; BSR set to: 0
  3523                           ;/opt/microchip/xc8/v2.45/pic/sources/c99/common/doprnt.c: 779:     while ((i < m) && (n
      +                           < (80 - 5))) {
  3524   00180A  516D               	movf	efgtoa@m& (0+255),w,b
  3525   00180C  5D77               	subwf	efgtoa@i& (0+255),w,b
  3526   00180E  5178               	movf	(efgtoa@i+1)& (0+255),w,b
  3527   001810  0A80               	xorlw	128
  3528   001812  6E41               	movwf	??_efgtoa^0,c
  3529   001814  516E               	movf	(efgtoa@m+1)& (0+255),w,b
  3530   001816  0A80               	xorlw	128
  3531   001818  5841               	subwfb	??_efgtoa^0,w,c
  3532   00181A  B0D8               	btfsc	status,0,c
  3533   00181C  EF12  F00C         	goto	u5901
  3534   001820  EF14  F00C         	goto	u5900
  3535   001824                     u5901:
  3536   001824  EF22  F00C         	goto	l5310
  3537   001828                     u5900:
  3538   001828                     
  3539                           ; BSR set to: 0
  3540   001828  BF87               	btfsc	(efgtoa@n+1)& (0+255),7,b
  3541   00182A  EF20  F00C         	goto	u5911
  3542   00182E  5187               	movf	(efgtoa@n+1)& (0+255),w,b
  3543   001830  E109               	bnz	u5910
  3544   001832  0E4B               	movlw	75
  3545   001834  5D86               	subwf	efgtoa@n& (0+255),w,b
  3546   001836  A0D8               	btfss	status,0,c
  3547   001838  EF20  F00C         	goto	u5911
  3548   00183C  EF22  F00C         	goto	u5910
  3549   001840                     u5911:
  3550   001840  EF20  F00B         	goto	l5266
  3551   001844                     u5910:
  3552   001844                     l5310:
  3553                           
  3554                           ; BSR set to: 0
  3555                           ;/opt/microchip/xc8/v2.45/pic/sources/c99/common/doprnt.c: 816:  i = sizeof(dbuf) - 1;
  3556   001844  0E00               	movlw	0
  3557   001846  6F78               	movwf	(efgtoa@i+1)& (0+255),b
  3558   001848  0E4F               	movlw	79
  3559   00184A  6F77               	movwf	efgtoa@i& (0+255),b
  3560   00184C                     
  3561                           ; BSR set to: 0
  3562                           ;/opt/microchip/xc8/v2.45/pic/sources/c99/common/doprnt.c: 817:     dbuf[i] = '\0';
  3563   00184C  0E00               	movlw	low _dbuf
  3564   00184E  2577               	addwf	efgtoa@i& (0+255),w,b
  3565   001850  6ED9               	movwf	fsr2l,c
  3566   001852  0E01               	movlw	high _dbuf
  3567   001854  2178               	addwfc	(efgtoa@i+1)& (0+255),w,b
  3568   001856  6EDA               	movwf	fsr2h,c
  3569   001858  6ADF               	clrf	indf2,c
  3570   00185A                     
  3571                           ; BSR set to: 0
  3572                           ;/opt/microchip/xc8/v2.45/pic/sources/c99/common/doprnt.c: 848:  memcpy(&dbuf[i-n], &dbu
      +                          f[0], (size_t)n);
  3573   00185A  0E00               	movlw	low _dbuf
  3574   00185C  6E41               	movwf	??_efgtoa^0,c
  3575   00185E  0E01               	movlw	high _dbuf
  3576   001860  6E42               	movwf	(??_efgtoa+1)^0,c
  3577   001862  5186               	movf	efgtoa@n& (0+255),w,b
  3578   001864  5E41               	subwf	??_efgtoa^0,f,c
  3579   001866  5187               	movf	(efgtoa@n+1)& (0+255),w,b
  3580   001868  5A42               	subwfb	(??_efgtoa+1)^0,f,c
  3581   00186A  5177               	movf	efgtoa@i& (0+255),w,b
  3582   00186C  2441               	addwf	??_efgtoa^0,w,c
  3583   00186E  6E01               	movwf	memcpy@d1^0,c
  3584   001870  5178               	movf	(efgtoa@i+1)& (0+255),w,b
  3585   001872  2042               	addwfc	(??_efgtoa+1)^0,w,c
  3586   001874  6E02               	movwf	(memcpy@d1+1)^0,c
  3587   001876  0E00               	movlw	low _dbuf
  3588   001878  6E03               	movwf	memcpy@s1^0,c
  3589   00187A  0E01               	movlw	high _dbuf
  3590   00187C  6E04               	movwf	(memcpy@s1+1)^0,c
  3591   00187E  C086  F005         	movff	efgtoa@n,memcpy@n
  3592   001882  C087  F006         	movff	efgtoa@n+1,memcpy@n+1
  3593   001886  ECD4  F01B         	call	_memcpy	;wreg free
  3594   00188A                     
  3595                           ;/opt/microchip/xc8/v2.45/pic/sources/c99/common/doprnt.c: 849:  n = i-n;
  3596   00188A  0100               	movlb	0	; () banked
  3597   00188C  5186               	movf	efgtoa@n& (0+255),w,b
  3598   00188E  5D77               	subwf	efgtoa@i& (0+255),w,b
  3599   001890  6F86               	movwf	efgtoa@n& (0+255),b
  3600   001892  5187               	movf	(efgtoa@n+1)& (0+255),w,b
  3601   001894  5978               	subwfb	(efgtoa@i+1)& (0+255),w,b
  3602   001896  6F87               	movwf	(efgtoa@n+1)& (0+255),b
  3603   001898                     
  3604                           ; BSR set to: 0
  3605                           ;/opt/microchip/xc8/v2.45/pic/sources/c99/common/doprnt.c: 850:  i = sign == 0 ? 0 : 1;
  3606   001898  5181               	movf	efgtoa@sign& (0+255),w,b
  3607   00189A  A4D8               	btfss	status,2,c
  3608   00189C  EF52  F00C         	goto	u5921
  3609   0018A0  EF55  F00C         	goto	u5920
  3610   0018A4                     u5921:
  3611   0018A4  0E01               	movlw	1
  3612   0018A6  EF56  F00C         	goto	u5930
  3613   0018AA                     u5920:
  3614   0018AA  0E00               	movlw	0
  3615   0018AC                     u5930:
  3616   0018AC  6F77               	movwf	efgtoa@i& (0+255),b
  3617   0018AE  6B78               	clrf	(efgtoa@i+1)& (0+255),b
  3618   0018B0                     
  3619                           ; BSR set to: 0
  3620                           ;/opt/microchip/xc8/v2.45/pic/sources/c99/common/doprnt.c: 861:  if (sign) {
  3621   0018B0  5181               	movf	efgtoa@sign& (0+255),w,b
  3622   0018B2  B4D8               	btfsc	status,2,c
  3623   0018B4  EF5E  F00C         	goto	u5941
  3624   0018B8  EF60  F00C         	goto	u5940
  3625   0018BC                     u5941:
  3626   0018BC  EF6B  F00C         	goto	l5324
  3627   0018C0                     u5940:
  3628   0018C0                     
  3629                           ; BSR set to: 0
  3630                           ;/opt/microchip/xc8/v2.45/pic/sources/c99/common/doprnt.c: 862:   dbuf[--n] = sign;
  3631   0018C0  0786               	decf	efgtoa@n& (0+255),f,b
  3632   0018C2  A0D8               	btfss	status,0,c
  3633   0018C4  0787               	decf	(efgtoa@n+1)& (0+255),f,b
  3634   0018C6  0E00               	movlw	low _dbuf
  3635   0018C8  2586               	addwf	efgtoa@n& (0+255),w,b
  3636   0018CA  6ED9               	movwf	fsr2l,c
  3637   0018CC  0E01               	movlw	high _dbuf
  3638   0018CE  2187               	addwfc	(efgtoa@n+1)& (0+255),w,b
  3639   0018D0  6EDA               	movwf	fsr2h,c
  3640   0018D2  C081  FFDF         	movff	efgtoa@sign,indf2
  3641   0018D6                     l5324:
  3642                           
  3643                           ; BSR set to: 0
  3644                           ;/opt/microchip/xc8/v2.45/pic/sources/c99/common/doprnt.c: 864:  w -= i;
  3645   0018D6  5177               	movf	efgtoa@i& (0+255),w,b
  3646   0018D8  5F71               	subwf	efgtoa@w& (0+255),f,b
  3647   0018DA  5178               	movf	(efgtoa@i+1)& (0+255),w,b
  3648   0018DC  5B72               	subwfb	(efgtoa@w+1)& (0+255),f,b
  3649   0018DE                     
  3650                           ; BSR set to: 0
  3651                           ;/opt/microchip/xc8/v2.45/pic/sources/c99/common/doprnt.c: 867:     return (void) pad(fp
      +                          , &dbuf[n], w);
  3652   0018DE  C03B  F011         	movff	efgtoa@fp,pad@fp
  3653   0018E2  0E00               	movlw	low _dbuf
  3654   0018E4  2586               	addwf	efgtoa@n& (0+255),w,b
  3655   0018E6  6E12               	movwf	pad@buf^0,c
  3656   0018E8  0E01               	movlw	high _dbuf
  3657   0018EA  2187               	addwfc	(efgtoa@n+1)& (0+255),w,b
  3658   0018EC  6E13               	movwf	(pad@buf+1)^0,c
  3659   0018EE  C071  F014         	movff	efgtoa@w,pad@p
  3660   0018F2  C072  F015         	movff	efgtoa@w+1,pad@p+1
  3661   0018F6  EC76  F01B         	call	_pad	;wreg free
  3662   0018FA                     l1242:
  3663   0018FA  0012               	return		;funcret
  3664   0018FC                     __end_of_efgtoa:
  3665                           	callstack 0
  3666                           
  3667 ;; *************** function _strcpy *****************
  3668 ;; Defined at:
  3669 ;;		line 3 in file "/opt/microchip/xc8/v2.45/pic/sources/c99/common/strcpy.c"
  3670 ;; Parameters:    Size  Location     Type
  3671 ;;  dest            2    0[COMRAM] PTR unsigned char 
  3672 ;;		 -> dbuf(80), 
  3673 ;;  src             1    2[COMRAM] PTR const unsigned char 
  3674 ;;		 -> STR_6(4), STR_3(4), 
  3675 ;; Auto vars:     Size  Location     Type
  3676 ;;  d               2    4[COMRAM] PTR unsigned char 
  3677 ;;		 -> dbuf(80), 
  3678 ;; Return value:  Size  Location     Type
  3679 ;;                  2    0[COMRAM] PTR unsigned char 
  3680 ;; Registers used:
  3681 ;;		wreg, fsr2l, fsr2h, status,2, status,0, tblptrl, tblptrh, tblptru
  3682 ;; Tracked objects:
  3683 ;;		On entry : 0/0
  3684 ;;		On exit  : 0/0
  3685 ;;		Unchanged: 0/0
  3686 ;; Data sizes:     COMRAM   BANK0   BANK1   BANK2   BANK3   BANK4   BANK5   BANK6   BANK7   BANK8   BANK9  BANK10  BANK1
      +1  BANK12  BANK14
  3687 ;;      Params:         3       0       0       0       0       0       0       0       0       0       0       0       
      +0       0       0
  3688 ;;      Locals:         2       0       0       0       0       0       0       0       0       0       0       0       
      +0       0       0
  3689 ;;      Temps:          1       0       0       0       0       0       0       0       0       0       0       0       
      +0       0       0
  3690 ;;      Totals:         6       0       0       0       0       0       0       0       0       0       0       0       
      +0       0       0
  3691 ;;Total ram usage:        6 bytes
  3692 ;; Hardware stack levels used: 1
  3693 ;; This function calls:
  3694 ;;		Nothing
  3695 ;; This function is called by:
  3696 ;;		_efgtoa
  3697 ;; This function uses a non-reentrant model
  3698 ;;
  3699                           
  3700                           	psect	text6
  3701   00399C                     __ptext6:
  3702                           	callstack 0
  3703   00399C                     _strcpy:
  3704                           	callstack 26
  3705   00399C  C001  F005         	movff	strcpy@dest,strcpy@d
  3706   0039A0  C002  F006         	movff	strcpy@dest+1,strcpy@d+1
  3707   0039A4                     l4978:
  3708   0039A4  2A03               	incf	strcpy@src^0,f,c
  3709   0039A6  0403               	decf	strcpy@src^0,w,c
  3710   0039A8  6E04               	movwf	??_strcpy^0,c
  3711   0039AA  C004  FFF6         	movff	??_strcpy,tblptrl
  3712   0039AE                     	if	1	;There is more than 1 active tblptr byte
  3713   0039AE  0E0F               	movlw	high __smallconst
  3714   0039B0  6EF7               	movwf	tblptrh,c
  3715   0039B2                     	endif
  3716   0039B2                     	if	0	;tblptru may be non-zero
  3717   0039B2                     	endif
  3718   0039B2                     	if	1	;Program memory is > 0xFFFF, there are 3 active tblptr bytes
  3719   0039B2  0E00               	movlw	low (__smallconst shr (0+16))
  3720   0039B4  6EF8               	movwf	tblptru,c
  3721   0039B6                     	endif
  3722   0039B6  C005  FFD9         	movff	strcpy@d,fsr2l
  3723   0039BA  C006  FFDA         	movff	strcpy@d+1,fsr2h
  3724   0039BE  4A05               	infsnz	strcpy@d^0,f,c
  3725   0039C0  2A06               	incf	(strcpy@d+1)^0,f,c
  3726   0039C2  0008               	tblrd		*
  3727   0039C4  CFF5 FFDF          	movff	tablat,indf2
  3728   0039C8  50DF               	movf	indf2,w,c
  3729   0039CA  A4D8               	btfss	status,2,c
  3730   0039CC  EFEA  F01C         	goto	u5381
  3731   0039D0  EFEC  F01C         	goto	u5380
  3732   0039D4                     u5381:
  3733   0039D4  EFD2  F01C         	goto	l4978
  3734   0039D8                     u5380:
  3735   0039D8  0012               	return		;funcret
  3736   0039DA                     __end_of_strcpy:
  3737                           	callstack 0
  3738                           
  3739 ;; *************** function _pad *****************
  3740 ;; Defined at:
  3741 ;;		line 193 in file "/opt/microchip/xc8/v2.45/pic/sources/c99/common/doprnt.c"
  3742 ;; Parameters:    Size  Location     Type
  3743 ;;  fp              1   16[COMRAM] PTR struct _IO_FILE
  3744 ;;		 -> sprintf@f(12), 
  3745 ;;  buf             2   17[COMRAM] PTR unsigned char 
  3746 ;;		 -> dbuf(80), 
  3747 ;;  p               2   19[COMRAM] int 
  3748 ;; Auto vars:     Size  Location     Type
  3749 ;;  i               2   22[COMRAM] int 
  3750 ;; Return value:  Size  Location     Type
  3751 ;;                  1    wreg      void 
  3752 ;; Registers used:
  3753 ;;		wreg, fsr1l, fsr1h, fsr2l, fsr2h, status,2, status,0, cstack
  3754 ;; Tracked objects:
  3755 ;;		On entry : 0/0
  3756 ;;		On exit  : 0/0
  3757 ;;		Unchanged: 0/0
  3758 ;; Data sizes:     COMRAM   BANK0   BANK1   BANK2   BANK3   BANK4   BANK5   BANK6   BANK7   BANK8   BANK9  BANK10  BANK1
      +1  BANK12  BANK14
  3759 ;;      Params:         5       0       0       0       0       0       0       0       0       0       0       0       
      +0       0       0
  3760 ;;      Locals:         2       0       0       0       0       0       0       0       0       0       0       0       
      +0       0       0
  3761 ;;      Temps:          1       0       0       0       0       0       0       0       0       0       0       0       
      +0       0       0
  3762 ;;      Totals:         8       0       0       0       0       0       0       0       0       0       0       0       
      +0       0       0
  3763 ;;Total ram usage:        8 bytes
  3764 ;; Hardware stack levels used: 1
  3765 ;; Hardware stack levels required when called: 4
  3766 ;; This function calls:
  3767 ;;		_fputc
  3768 ;;		_fputs
  3769 ;; This function is called by:
  3770 ;;		_efgtoa
  3771 ;; This function uses a non-reentrant model
  3772 ;;
  3773                           
  3774                           	psect	text7
  3775   0036EC                     __ptext7:
  3776                           	callstack 0
  3777   0036EC                     _pad:
  3778                           	callstack 22
  3779   0036EC                     
  3780                           ;/opt/microchip/xc8/v2.45/pic/sources/c99/common/doprnt.c: 193: static void pad(FILE *fp
      +                          , char *buf, int p);/opt/microchip/xc8/v2.45/pic/sources/c99/common/doprnt.c: 194: {;/op
      +                          t/microchip/xc8/v2.45/pic/sources/c99/common/doprnt.c: 195:     int i;;/opt/microchip/xc
      +                          8/v2.45/pic/sources/c99/common/doprnt.c: 205:  if (p < 0) {
  3781   0036EC  BE15               	btfsc	(pad@p+1)^0,7,c
  3782   0036EE  EF7D  F01B         	goto	u5290
  3783   0036F2  EF7B  F01B         	goto	u5291
  3784   0036F6                     u5291:
  3785   0036F6  EF81  F01B         	goto	l1227
  3786   0036FA                     u5290:
  3787   0036FA                     
  3788                           ;/opt/microchip/xc8/v2.45/pic/sources/c99/common/doprnt.c: 206:   p = 0;
  3789   0036FA  0E00               	movlw	0
  3790   0036FC  6E15               	movwf	(pad@p+1)^0,c
  3791   0036FE  0E00               	movlw	0
  3792   003700  6E14               	movwf	pad@p^0,c
  3793   003702                     l1227:
  3794                           
  3795                           ;/opt/microchip/xc8/v2.45/pic/sources/c99/common/doprnt.c: 208:     i = 0;
  3796   003702  0E00               	movlw	0
  3797   003704  6E18               	movwf	(pad@i+1)^0,c
  3798   003706  0E00               	movlw	0
  3799   003708  6E17               	movwf	pad@i^0,c
  3800                           
  3801                           ;/opt/microchip/xc8/v2.45/pic/sources/c99/common/doprnt.c: 209:     while (i < p) {
  3802   00370A  EF91  F01B         	goto	l4950
  3803   00370E                     l4946:
  3804                           
  3805                           ;/opt/microchip/xc8/v2.45/pic/sources/c99/common/doprnt.c: 210:         fputc(' ', fp);
  3806   00370E  0E00               	movlw	0
  3807   003710  6E04               	movwf	(fputc@c+1)^0,c
  3808   003712  0E20               	movlw	32
  3809   003714  6E03               	movwf	fputc@c^0,c
  3810   003716  C011  F005         	movff	pad@fp,fputc@fp
  3811   00371A  ECB6  F019         	call	_fputc	;wreg free
  3812   00371E                     
  3813                           ;/opt/microchip/xc8/v2.45/pic/sources/c99/common/doprnt.c: 211:         ++i;
  3814   00371E  4A17               	infsnz	pad@i^0,f,c
  3815   003720  2A18               	incf	(pad@i+1)^0,f,c
  3816   003722                     l4950:
  3817                           
  3818                           ;/opt/microchip/xc8/v2.45/pic/sources/c99/common/doprnt.c: 209:     while (i < p) {
  3819   003722  5014               	movf	pad@p^0,w,c
  3820   003724  5C17               	subwf	pad@i^0,w,c
  3821   003726  5018               	movf	(pad@i+1)^0,w,c
  3822   003728  0A80               	xorlw	128
  3823   00372A  6E16               	movwf	??_pad^0,c
  3824   00372C  5015               	movf	(pad@p+1)^0,w,c
  3825   00372E  0A80               	xorlw	128
  3826   003730  5816               	subwfb	??_pad^0,w,c
  3827   003732  A0D8               	btfss	status,0,c
  3828   003734  EF9E  F01B         	goto	u5301
  3829   003738  EFA0  F01B         	goto	u5300
  3830   00373C                     u5301:
  3831   00373C  EF87  F01B         	goto	l4946
  3832   003740                     u5300:
  3833   003740                     
  3834                           ;/opt/microchip/xc8/v2.45/pic/sources/c99/common/doprnt.c: 218:         fputs((const cha
      +                          r *)buf, fp);
  3835   003740  C012  F00B         	movff	pad@buf,fputs@s
  3836   003744  C013  F00C         	movff	pad@buf+1,fputs@s+1
  3837   003748  C011  F00D         	movff	pad@fp,fputs@fp
  3838   00374C  ECAE  F01C         	call	_fputs	;wreg free
  3839   003750  0012               	return		;funcret
  3840   003752                     __end_of_pad:
  3841                           	callstack 0
  3842                           
  3843 ;; *************** function _fputs *****************
  3844 ;; Defined at:
  3845 ;;		line 8 in file "/opt/microchip/xc8/v2.45/pic/sources/c99/common/nf_fputs.c"
  3846 ;; Parameters:    Size  Location     Type
  3847 ;;  s               2   10[COMRAM] PTR const unsigned char 
  3848 ;;		 -> dbuf(80), 
  3849 ;;  fp              1   12[COMRAM] PTR struct _IO_FILE
  3850 ;;		 -> sprintf@f(12), 
  3851 ;; Auto vars:     Size  Location     Type
  3852 ;;  i               2   14[COMRAM] int 
  3853 ;;  c               1   13[COMRAM] unsigned char 
  3854 ;; Return value:  Size  Location     Type
  3855 ;;                  2   10[COMRAM] int 
  3856 ;; Registers used:
  3857 ;;		wreg, fsr1l, fsr1h, fsr2l, fsr2h, status,2, status,0, cstack
  3858 ;; Tracked objects:
  3859 ;;		On entry : 0/0
  3860 ;;		On exit  : 0/0
  3861 ;;		Unchanged: 0/0
  3862 ;; Data sizes:     COMRAM   BANK0   BANK1   BANK2   BANK3   BANK4   BANK5   BANK6   BANK7   BANK8   BANK9  BANK10  BANK1
      +1  BANK12  BANK14
  3863 ;;      Params:         3       0       0       0       0       0       0       0       0       0       0       0       
      +0       0       0
  3864 ;;      Locals:         3       0       0       0       0       0       0       0       0       0       0       0       
      +0       0       0
  3865 ;;      Temps:          0       0       0       0       0       0       0       0       0       0       0       0       
      +0       0       0
  3866 ;;      Totals:         6       0       0       0       0       0       0       0       0       0       0       0       
      +0       0       0
  3867 ;;Total ram usage:        6 bytes
  3868 ;; Hardware stack levels used: 1
  3869 ;; Hardware stack levels required when called: 3
  3870 ;; This function calls:
  3871 ;;		_fputc
  3872 ;; This function is called by:
  3873 ;;		_pad
  3874 ;; This function uses a non-reentrant model
  3875 ;;
  3876                           
  3877                           	psect	text8
  3878   00395C                     __ptext8:
  3879                           	callstack 0
  3880   00395C                     _fputs:
  3881                           	callstack 22
  3882   00395C  0E00               	movlw	0
  3883   00395E  6E10               	movwf	(fputs@i+1)^0,c
  3884   003960  0E00               	movlw	0
  3885   003962  6E0F               	movwf	fputs@i^0,c
  3886   003964  EFBD  F01C         	goto	l4576
  3887   003968                     l4572:
  3888   003968  C00E  F003         	movff	fputs@c,fputc@c
  3889   00396C  6A04               	clrf	(fputc@c+1)^0,c
  3890   00396E  C00D  F005         	movff	fputs@fp,fputc@fp
  3891   003972  ECB6  F019         	call	_fputc	;wreg free
  3892   003976  4A0F               	infsnz	fputs@i^0,f,c
  3893   003978  2A10               	incf	(fputs@i+1)^0,f,c
  3894   00397A                     l4576:
  3895   00397A  500F               	movf	fputs@i^0,w,c
  3896   00397C  240B               	addwf	fputs@s^0,w,c
  3897   00397E  6ED9               	movwf	fsr2l,c
  3898   003980  5010               	movf	(fputs@i+1)^0,w,c
  3899   003982  200C               	addwfc	(fputs@s+1)^0,w,c
  3900   003984  6EDA               	movwf	fsr2h,c
  3901   003986  50DF               	movf	indf2,w,c
  3902   003988  6E0E               	movwf	fputs@c^0,c
  3903   00398A  500E               	movf	fputs@c^0,w,c
  3904   00398C  A4D8               	btfss	status,2,c
  3905   00398E  EFCB  F01C         	goto	u4701
  3906   003992  EFCD  F01C         	goto	u4700
  3907   003996                     u4701:
  3908   003996  EFB4  F01C         	goto	l4572
  3909   00399A                     u4700:
  3910   00399A  0012               	return		;funcret
  3911   00399C                     __end_of_fputs:
  3912                           	callstack 0
  3913                           
  3914 ;; *************** function _fputc *****************
  3915 ;; Defined at:
  3916 ;;		line 8 in file "/opt/microchip/xc8/v2.45/pic/sources/c99/common/nf_fputc.c"
  3917 ;; Parameters:    Size  Location     Type
  3918 ;;  c               2    2[COMRAM] int 
  3919 ;;  fp              1    4[COMRAM] PTR struct _IO_FILE
  3920 ;;		 -> sprintf@f(12), 
  3921 ;; Auto vars:     Size  Location     Type
  3922 ;;		None
  3923 ;; Return value:  Size  Location     Type
  3924 ;;                  2    2[COMRAM] int 
  3925 ;; Registers used:
  3926 ;;		wreg, fsr1l, fsr1h, fsr2l, fsr2h, status,2, status,0, cstack
  3927 ;; Tracked objects:
  3928 ;;		On entry : 0/0
  3929 ;;		On exit  : 0/0
  3930 ;;		Unchanged: 0/0
  3931 ;; Data sizes:     COMRAM   BANK0   BANK1   BANK2   BANK3   BANK4   BANK5   BANK6   BANK7   BANK8   BANK9  BANK10  BANK1
      +1  BANK12  BANK14
  3932 ;;      Params:         3       0       0       0       0       0       0       0       0       0       0       0       
      +0       0       0
  3933 ;;      Locals:         0       0       0       0       0       0       0       0       0       0       0       0       
      +0       0       0
  3934 ;;      Temps:          5       0       0       0       0       0       0       0       0       0       0       0       
      +0       0       0
  3935 ;;      Totals:         8       0       0       0       0       0       0       0       0       0       0       0       
      +0       0       0
  3936 ;;Total ram usage:        8 bytes
  3937 ;; Hardware stack levels used: 1
  3938 ;; Hardware stack levels required when called: 2
  3939 ;; This function calls:
  3940 ;;		_putch
  3941 ;; This function is called by:
  3942 ;;		_pad
  3943 ;;		_vfpfcnvrt
  3944 ;;		_fputs
  3945 ;; This function uses a non-reentrant model
  3946 ;;
  3947                           
  3948                           	psect	text9
  3949   00336C                     __ptext9:
  3950                           	callstack 0
  3951   00336C                     _fputc:
  3952                           	callstack 25
  3953   00336C  5005               	movf	fputc@fp^0,w,c
  3954   00336E  B4D8               	btfsc	status,2,c
  3955   003370  EFBC  F019         	goto	u4271
  3956   003374  EFBE  F019         	goto	u4270
  3957   003378                     u4271:
  3958   003378  EFC6  F019         	goto	l4358
  3959   00337C                     u4270:
  3960   00337C  5005               	movf	fputc@fp^0,w,c
  3961   00337E  A4D8               	btfss	status,2,c
  3962   003380  EFC4  F019         	goto	u4281
  3963   003384  EFC6  F019         	goto	u4280
  3964   003388                     u4281:
  3965   003388  EFCB  F019         	goto	l4360
  3966   00338C                     u4280:
  3967   00338C                     l4358:
  3968   00338C  5003               	movf	fputc@c^0,w,c
  3969   00338E  ECF0  F01D         	call	_putch
  3970   003392  EF12  F01A         	goto	l1376
  3971   003396                     l4360:
  3972   003396  5005               	movf	fputc@fp^0,w,c
  3973   003398  6ED9               	movwf	fsr2l,c
  3974   00339A  6ADA               	clrf	fsr2h,c
  3975   00339C  0E0A               	movlw	10
  3976   00339E  26D9               	addwf	fsr2l,f,c
  3977   0033A0  50DE               	movf	postinc2,w,c
  3978   0033A2  10DE               	iorwf	postinc2,w,c
  3979   0033A4  B4D8               	btfsc	status,2,c
  3980   0033A6  EFD7  F019         	goto	u4291
  3981   0033AA  EFD9  F019         	goto	u4290
  3982   0033AE                     u4291:
  3983   0033AE  EFF2  F019         	goto	l4364
  3984   0033B2                     u4290:
  3985   0033B2  5005               	movf	fputc@fp^0,w,c
  3986   0033B4  6ED9               	movwf	fsr2l,c
  3987   0033B6  6ADA               	clrf	fsr2h,c
  3988   0033B8  0E0A               	movlw	10
  3989   0033BA  26D9               	addwf	fsr2l,f,c
  3990   0033BC  5005               	movf	fputc@fp^0,w,c
  3991   0033BE  6EE1               	movwf	fsr1l,c
  3992   0033C0  6AE2               	clrf	fsr1h,c
  3993   0033C2  0E03               	movlw	3
  3994   0033C4  26E1               	addwf	fsr1l,f,c
  3995   0033C6  50DE               	movf	postinc2,w,c
  3996   0033C8  5CE6               	subwf	postinc1,w,c
  3997   0033CA  50E6               	movf	postinc1,w,c
  3998   0033CC  0A80               	xorlw	128
  3999   0033CE  6E0A               	movwf	(??_fputc+4)^0,c
  4000   0033D0  50DE               	movf	postinc2,w,c
  4001   0033D2  0A80               	xorlw	128
  4002   0033D4  580A               	subwfb	(??_fputc+4)^0,w,c
  4003   0033D6  B0D8               	btfsc	status,0,c
  4004   0033D8  EFF0  F019         	goto	u4301
  4005   0033DC  EFF2  F019         	goto	u4300
  4006   0033E0                     u4301:
  4007   0033E0  EF12  F01A         	goto	l1376
  4008   0033E4                     u4300:
  4009   0033E4                     l4364:
  4010   0033E4  5005               	movf	fputc@fp^0,w,c
  4011   0033E6  6ED9               	movwf	fsr2l,c
  4012   0033E8  6ADA               	clrf	fsr2h,c
  4013   0033EA  0E03               	movlw	3
  4014   0033EC  26D9               	addwf	fsr2l,f,c
  4015   0033EE  CFDE F006          	movff	postinc2,??_fputc
  4016   0033F2  CFDD F007          	movff	postdec2,??_fputc+1
  4017   0033F6  5005               	movf	fputc@fp^0,w,c
  4018   0033F8  6ED9               	movwf	fsr2l,c
  4019   0033FA  6ADA               	clrf	fsr2h,c
  4020   0033FC  CFDE F008          	movff	postinc2,??_fputc+2
  4021   003400  CFDD F009          	movff	postdec2,??_fputc+3
  4022   003404  5006               	movf	??_fputc^0,w,c
  4023   003406  2408               	addwf	(??_fputc+2)^0,w,c
  4024   003408  6ED9               	movwf	fsr2l,c
  4025   00340A  5007               	movf	(??_fputc+1)^0,w,c
  4026   00340C  2009               	addwfc	(??_fputc+3)^0,w,c
  4027   00340E  6EDA               	movwf	fsr2h,c
  4028   003410  C003  FFDF         	movff	fputc@c,indf2
  4029   003414  5005               	movf	fputc@fp^0,w,c
  4030   003416  6ED9               	movwf	fsr2l,c
  4031   003418  6ADA               	clrf	fsr2h,c
  4032   00341A  0E03               	movlw	3
  4033   00341C  26D9               	addwf	fsr2l,f,c
  4034   00341E  2ADE               	incf	postinc2,f,c
  4035   003420  0E00               	movlw	0
  4036   003422  22DD               	addwfc	postdec2,f,c
  4037   003424                     l1376:
  4038   003424  0012               	return		;funcret
  4039   003426                     __end_of_fputc:
  4040                           	callstack 0
  4041                           
  4042 ;; *************** function _putch *****************
  4043 ;; Defined at:
  4044 ;;		line 146 in file "mcc_generated_files/eusart2.c"
  4045 ;; Parameters:    Size  Location     Type
  4046 ;;  txData          1    wreg     unsigned char 
  4047 ;; Auto vars:     Size  Location     Type
  4048 ;;  txData          1    1[COMRAM] unsigned char 
  4049 ;; Return value:  Size  Location     Type
  4050 ;;                  1    wreg      void 
  4051 ;; Registers used:
  4052 ;;		wreg, status,2, cstack
  4053 ;; Tracked objects:
  4054 ;;		On entry : 0/0
  4055 ;;		On exit  : 0/0
  4056 ;;		Unchanged: 0/0
  4057 ;; Data sizes:     COMRAM   BANK0   BANK1   BANK2   BANK3   BANK4   BANK5   BANK6   BANK7   BANK8   BANK9  BANK10  BANK1
      +1  BANK12  BANK14
  4058 ;;      Params:         0       0       0       0       0       0       0       0       0       0       0       0       
      +0       0       0
  4059 ;;      Locals:         1       0       0       0       0       0       0       0       0       0       0       0       
      +0       0       0
  4060 ;;      Temps:          0       0       0       0       0       0       0       0       0       0       0       0       
      +0       0       0
  4061 ;;      Totals:         1       0       0       0       0       0       0       0       0       0       0       0       
      +0       0       0
  4062 ;;Total ram usage:        1 bytes
  4063 ;; Hardware stack levels used: 1
  4064 ;; Hardware stack levels required when called: 1
  4065 ;; This function calls:
  4066 ;;		_EUSART2_Write
  4067 ;; This function is called by:
  4068 ;;		_fputc
  4069 ;; This function uses a non-reentrant model
  4070 ;;
  4071                           
  4072                           	psect	text10
  4073   003BE0                     __ptext10:
  4074                           	callstack 0
  4075   003BE0                     _putch:
  4076                           	callstack 25
  4077                           
  4078                           ;incstack = 0
  4079                           ;putch@txData stored from wreg
  4080   003BE0  6E02               	movwf	putch@txData^0,c
  4081   003BE2                     
  4082                           ;mcc_generated_files/eusart2.c: 146: void putch(char txData);mcc_generated_files/eusart2
      +                          .c: 147: {;mcc_generated_files/eusart2.c: 148:     EUSART2_Write(txData);
  4083   003BE2  5002               	movf	putch@txData^0,w,c
  4084   003BE4  EC98  F01D         	call	_EUSART2_Write
  4085   003BE8  0012               	return		;funcret
  4086   003BEA                     __end_of_putch:
  4087                           	callstack 0
  4088                           
  4089 ;; *************** function _EUSART2_Write *****************
  4090 ;; Defined at:
  4091 ;;		line 132 in file "mcc_generated_files/eusart2.c"
  4092 ;; Parameters:    Size  Location     Type
  4093 ;;  txData          1    wreg     unsigned char 
  4094 ;; Auto vars:     Size  Location     Type
  4095 ;;  txData          1    0[COMRAM] unsigned char 
  4096 ;; Return value:  Size  Location     Type
  4097 ;;                  1    wreg      void 
  4098 ;; Registers used:
  4099 ;;		wreg
  4100 ;; Tracked objects:
  4101 ;;		On entry : 0/0
  4102 ;;		On exit  : 0/0
  4103 ;;		Unchanged: 0/0
  4104 ;; Data sizes:     COMRAM   BANK0   BANK1   BANK2   BANK3   BANK4   BANK5   BANK6   BANK7   BANK8   BANK9  BANK10  BANK1
      +1  BANK12  BANK14
  4105 ;;      Params:         0       0       0       0       0       0       0       0       0       0       0       0       
      +0       0       0
  4106 ;;      Locals:         1       0       0       0       0       0       0       0       0       0       0       0       
      +0       0       0
  4107 ;;      Temps:          0       0       0       0       0       0       0       0       0       0       0       0       
      +0       0       0
  4108 ;;      Totals:         1       0       0       0       0       0       0       0       0       0       0       0       
      +0       0       0
  4109 ;;Total ram usage:        1 bytes
  4110 ;; Hardware stack levels used: 1
  4111 ;; This function calls:
  4112 ;;		Nothing
  4113 ;; This function is called by:
  4114 ;;		_putch
  4115 ;;		_main
  4116 ;; This function uses a non-reentrant model
  4117 ;;
  4118                           
  4119                           	psect	text11
  4120   003B30                     __ptext11:
  4121                           	callstack 0
  4122   003B30                     _EUSART2_Write:
  4123                           	callstack 25
  4124                           
  4125                           ;incstack = 0
  4126                           ;EUSART2_Write@txData stored from wreg
  4127   003B30  6E01               	movwf	EUSART2_Write@txData^0,c
  4128   003B32                     l67:
  4129                           
  4130                           ;mcc_generated_files/eusart2.c: 134:     while(0 == PIR3bits.TX2IF)
  4131   003B32  010E               	movlb	14	; () banked
  4132   003B34  ADC8               	btfss	200,6,b	;volatile
  4133   003B36  EF9F  F01D         	goto	u4261
  4134   003B3A  EFA1  F01D         	goto	u4260
  4135   003B3E                     u4261:
  4136   003B3E  EF99  F01D         	goto	l67
  4137   003B42                     u4260:
  4138   003B42                     
  4139                           ; BSR set to: 14
  4140                           ;mcc_generated_files/eusart2.c: 138:     TX2REG = txData;
  4141   003B42  C001  FE95         	movff	EUSART2_Write@txData,3733	;volatile
  4142   003B46                     
  4143                           ; BSR set to: 14
  4144   003B46  0012               	return		;funcret
  4145   003B48                     __end_of_EUSART2_Write:
  4146                           	callstack 0
  4147                           
  4148 ;; *************** function _memcpy *****************
  4149 ;; Defined at:
  4150 ;;		line 4 in file "/opt/microchip/xc8/v2.45/pic/sources/c99/common/memcpy.c"
  4151 ;; Parameters:    Size  Location     Type
  4152 ;;  d1              2    0[COMRAM] PTR void 
  4153 ;;		 -> dbuf(80), 
  4154 ;;  s1              2    2[COMRAM] PTR const void 
  4155 ;;		 -> dbuf(80), 
  4156 ;;  n               2    4[COMRAM] unsigned int 
  4157 ;; Auto vars:     Size  Location     Type
  4158 ;;  s               2    9[COMRAM] PTR const unsigned char 
  4159 ;;		 -> dbuf(80), 
  4160 ;;  d               2    7[COMRAM] PTR unsigned char 
  4161 ;;		 -> dbuf(80), 
  4162 ;;  tmp             1    6[COMRAM] unsigned char 
  4163 ;; Return value:  Size  Location     Type
  4164 ;;                  2    0[COMRAM] PTR void 
  4165 ;; Registers used:
  4166 ;;		wreg, fsr2l, fsr2h, status,2, status,0
  4167 ;; Tracked objects:
  4168 ;;		On entry : 0/0
  4169 ;;		On exit  : 0/0
  4170 ;;		Unchanged: 0/0
  4171 ;; Data sizes:     COMRAM   BANK0   BANK1   BANK2   BANK3   BANK4   BANK5   BANK6   BANK7   BANK8   BANK9  BANK10  BANK1
      +1  BANK12  BANK14
  4172 ;;      Params:         6       0       0       0       0       0       0       0       0       0       0       0       
      +0       0       0
  4173 ;;      Locals:         5       0       0       0       0       0       0       0       0       0       0       0       
      +0       0       0
  4174 ;;      Temps:          0       0       0       0       0       0       0       0       0       0       0       0       
      +0       0       0
  4175 ;;      Totals:        11       0       0       0       0       0       0       0       0       0       0       0       
      +0       0       0
  4176 ;;Total ram usage:       11 bytes
  4177 ;; Hardware stack levels used: 1
  4178 ;; This function calls:
  4179 ;;		Nothing
  4180 ;; This function is called by:
  4181 ;;		_efgtoa
  4182 ;; This function uses a non-reentrant model
  4183 ;;
  4184                           
  4185                           	psect	text12
  4186   0037A8                     __ptext12:
  4187                           	callstack 0
  4188   0037A8                     _memcpy:
  4189                           	callstack 26
  4190   0037A8  C003  F00A         	movff	memcpy@s1,memcpy@s
  4191   0037AC  C004  F00B         	movff	memcpy@s1+1,memcpy@s+1
  4192   0037B0  C001  F008         	movff	memcpy@d1,memcpy@d
  4193   0037B4  C002  F009         	movff	memcpy@d1+1,memcpy@d+1
  4194   0037B8  EFEE  F01B         	goto	l5026
  4195   0037BC                     l5018:
  4196   0037BC  C00A  FFD9         	movff	memcpy@s,fsr2l
  4197   0037C0  C00B  FFDA         	movff	memcpy@s+1,fsr2h
  4198   0037C4  50DF               	movf	indf2,w,c
  4199   0037C6  6E07               	movwf	memcpy@tmp^0,c
  4200   0037C8  4A0A               	infsnz	memcpy@s^0,f,c
  4201   0037CA  2A0B               	incf	(memcpy@s+1)^0,f,c
  4202   0037CC  C008  FFD9         	movff	memcpy@d,fsr2l
  4203   0037D0  C009  FFDA         	movff	memcpy@d+1,fsr2h
  4204   0037D4  C007  FFDF         	movff	memcpy@tmp,indf2
  4205   0037D8  4A08               	infsnz	memcpy@d^0,f,c
  4206   0037DA  2A09               	incf	(memcpy@d+1)^0,f,c
  4207   0037DC                     l5026:
  4208   0037DC  0605               	decf	memcpy@n^0,f,c
  4209   0037DE  A0D8               	btfss	status,0,c
  4210   0037E0  0606               	decf	(memcpy@n+1)^0,f,c
  4211   0037E2  2805               	incf	memcpy@n^0,w,c
  4212   0037E4  E106               	bnz	u5501
  4213   0037E6  2806               	incf	(memcpy@n+1)^0,w,c
  4214   0037E8  A4D8               	btfss	status,2,c
  4215   0037EA  EFF9  F01B         	goto	u5501
  4216   0037EE  EFFB  F01B         	goto	u5500
  4217   0037F2                     u5501:
  4218   0037F2  EFDE  F01B         	goto	l5018
  4219   0037F6                     u5500:
  4220   0037F6  0012               	return		;funcret
  4221   0037F8                     __end_of_memcpy:
  4222                           	callstack 0
  4223                           
  4224 ;; *************** function _labs *****************
  4225 ;; Defined at:
  4226 ;;		line 1 in file "/opt/microchip/xc8/v2.45/pic/sources/c99/common/labs.c"
  4227 ;; Parameters:    Size  Location     Type
  4228 ;;  a               4    0[COMRAM] long 
  4229 ;; Auto vars:     Size  Location     Type
  4230 ;;		None
  4231 ;; Return value:  Size  Location     Type
  4232 ;;                  4    0[COMRAM] long 
  4233 ;; Registers used:
  4234 ;;		wreg, status,2, status,0
  4235 ;; Tracked objects:
  4236 ;;		On entry : 0/0
  4237 ;;		On exit  : 0/0
  4238 ;;		Unchanged: 0/0
  4239 ;; Data sizes:     COMRAM   BANK0   BANK1   BANK2   BANK3   BANK4   BANK5   BANK6   BANK7   BANK8   BANK9  BANK10  BANK1
      +1  BANK12  BANK14
  4240 ;;      Params:         4       0       0       0       0       0       0       0       0       0       0       0       
      +0       0       0
  4241 ;;      Locals:         0       0       0       0       0       0       0       0       0       0       0       0       
      +0       0       0
  4242 ;;      Temps:          4       0       0       0       0       0       0       0       0       0       0       0       
      +0       0       0
  4243 ;;      Totals:         8       0       0       0       0       0       0       0       0       0       0       0       
      +0       0       0
  4244 ;;Total ram usage:        8 bytes
  4245 ;; Hardware stack levels used: 1
  4246 ;; This function calls:
  4247 ;;		Nothing
  4248 ;; This function is called by:
  4249 ;;		_efgtoa
  4250 ;; This function uses a non-reentrant model
  4251 ;;
  4252                           
  4253                           	psect	text13
  4254   003752                     __ptext13:
  4255                           	callstack 0
  4256   003752                     _labs:
  4257                           	callstack 26
  4258   003752  BE04               	btfsc	(labs@a+3)^0,7,c
  4259   003754  EFAE  F01B         	goto	u5391
  4260   003758  EFB0  F01B         	goto	u5390
  4261   00375C                     u5391:
  4262   00375C  EFBA  F01B         	goto	l4984
  4263   003760                     u5390:
  4264   003760  C001  F001         	movff	labs@a,?_labs
  4265   003764  C002  F002         	movff	labs@a+1,?_labs+1
  4266   003768  C003  F003         	movff	labs@a+2,?_labs+2
  4267   00376C  C004  F004         	movff	labs@a+3,?_labs+3
  4268   003770  EFD3  F01B         	goto	l1358
  4269   003774                     l4984:
  4270   003774  C001  F005         	movff	labs@a,??_labs
  4271   003778  C002  F006         	movff	labs@a+1,??_labs+1
  4272   00377C  C003  F007         	movff	labs@a+2,??_labs+2
  4273   003780  C004  F008         	movff	labs@a+3,??_labs+3
  4274   003784  1E05               	comf	??_labs^0,f,c
  4275   003786  1E06               	comf	(??_labs+1)^0,f,c
  4276   003788  1E07               	comf	(??_labs+2)^0,f,c
  4277   00378A  1E08               	comf	(??_labs+3)^0,f,c
  4278   00378C  2A05               	incf	??_labs^0,f,c
  4279   00378E  0E00               	movlw	0
  4280   003790  2206               	addwfc	(??_labs+1)^0,f,c
  4281   003792  2207               	addwfc	(??_labs+2)^0,f,c
  4282   003794  2208               	addwfc	(??_labs+3)^0,f,c
  4283   003796  C005  F001         	movff	??_labs,?_labs
  4284   00379A  C006  F002         	movff	??_labs+1,?_labs+1
  4285   00379E  C007  F003         	movff	??_labs+2,?_labs+2
  4286   0037A2  C008  F004         	movff	??_labs+3,?_labs+3
  4287   0037A6                     l1358:
  4288   0037A6  0012               	return		;funcret
  4289   0037A8                     __end_of_labs:
  4290                           	callstack 0
  4291                           
  4292 ;; *************** function _floorf *****************
  4293 ;; Defined at:
  4294 ;;		line 3 in file "/opt/microchip/xc8/v2.45/pic/sources/c99/common/floorf.c"
  4295 ;; Parameters:    Size  Location     Type
  4296 ;;  x               4   25[COMRAM] float 
  4297 ;; Auto vars:     Size  Location     Type
  4298 ;;  u               4   41[COMRAM] struct .
  4299 ;;  m               4   35[COMRAM] unsigned long 
  4300 ;;  e               2   39[COMRAM] int 
  4301 ;; Return value:  Size  Location     Type
  4302 ;;                  4   25[COMRAM] float 
  4303 ;; Registers used:
  4304 ;;		wreg, status,2, status,0
  4305 ;; Tracked objects:
  4306 ;;		On entry : 0/0
  4307 ;;		On exit  : 0/0
  4308 ;;		Unchanged: 0/0
  4309 ;; Data sizes:     COMRAM   BANK0   BANK1   BANK2   BANK3   BANK4   BANK5   BANK6   BANK7   BANK8   BANK9  BANK10  BANK1
      +1  BANK12  BANK14
  4310 ;;      Params:         4       0       0       0       0       0       0       0       0       0       0       0       
      +0       0       0
  4311 ;;      Locals:        10       0       0       0       0       0       0       0       0       0       0       0       
      +0       0       0
  4312 ;;      Temps:          6       0       0       0       0       0       0       0       0       0       0       0       
      +0       0       0
  4313 ;;      Totals:        20       0       0       0       0       0       0       0       0       0       0       0       
      +0       0       0
  4314 ;;Total ram usage:       20 bytes
  4315 ;; Hardware stack levels used: 1
  4316 ;; This function calls:
  4317 ;;		Nothing
  4318 ;; This function is called by:
  4319 ;;		_efgtoa
  4320 ;; This function uses a non-reentrant model
  4321 ;;
  4322                           
  4323                           	psect	text14
  4324   002BDA                     __ptext14:
  4325                           	callstack 0
  4326   002BDA                     _floorf:
  4327                           	callstack 26
  4328   002BDA  C0A9  F02A         	movff	floorf@F521,floorf@u
  4329   002BDE  C0AA  F02B         	movff	floorf@F521+1,floorf@u+1
  4330   002BE2  C0AB  F02C         	movff	floorf@F521+2,floorf@u+2
  4331   002BE6  C0AC  F02D         	movff	floorf@F521+3,floorf@u+3
  4332   002BEA  C01A  F02A         	movff	floorf@x,floorf@u
  4333   002BEE  C01B  F02B         	movff	floorf@x+1,floorf@u+1
  4334   002BF2  C01C  F02C         	movff	floorf@x+2,floorf@u+2
  4335   002BF6  C01D  F02D         	movff	floorf@x+3,floorf@u+3
  4336   002BFA  0E81               	movlw	129
  4337   002BFC  6E1E               	movwf	??_floorf^0,c
  4338   002BFE  0EFF               	movlw	255
  4339   002C00  6E1F               	movwf	(??_floorf+1)^0,c
  4340   002C02  C02A  F020         	movff	floorf@u,??_floorf+2
  4341   002C06  C02B  F021         	movff	floorf@u+1,??_floorf+3
  4342   002C0A  C02C  F022         	movff	floorf@u+2,??_floorf+4
  4343   002C0E  C02D  F023         	movff	floorf@u+3,??_floorf+5
  4344   002C12  0E18               	movlw	24
  4345   002C14  EF11  F016         	goto	u5400
  4346   002C18                     u5405:
  4347   002C18  90D8               	bcf	status,0,c
  4348   002C1A  3223               	rrcf	(??_floorf+5)^0,f,c
  4349   002C1C  3222               	rrcf	(??_floorf+4)^0,f,c
  4350   002C1E  3221               	rrcf	(??_floorf+3)^0,f,c
  4351   002C20  3220               	rrcf	(??_floorf+2)^0,f,c
  4352   002C22                     u5400:
  4353   002C22  2EE8               	decfsz	wreg,f,c
  4354   002C24  EF0C  F016         	goto	u5405
  4355   002C28  5020               	movf	(??_floorf+2)^0,w,c
  4356   002C2A  241E               	addwf	??_floorf^0,w,c
  4357   002C2C  6E28               	movwf	floorf@e^0,c
  4358   002C2E  0E00               	movlw	0
  4359   002C30  201F               	addwfc	(??_floorf+1)^0,w,c
  4360   002C32  6E29               	movwf	(floorf@e+1)^0,c
  4361   002C34  BE29               	btfsc	(floorf@e+1)^0,7,c
  4362   002C36  EF26  F016         	goto	u5411
  4363   002C3A  5029               	movf	(floorf@e+1)^0,w,c
  4364   002C3C  E109               	bnz	u5410
  4365   002C3E  0E17               	movlw	23
  4366   002C40  5C28               	subwf	floorf@e^0,w,c
  4367   002C42  A0D8               	btfss	status,0,c
  4368   002C44  EF26  F016         	goto	u5411
  4369   002C48  EF28  F016         	goto	u5410
  4370   002C4C                     u5411:
  4371   002C4C  EF32  F016         	goto	l4994
  4372   002C50                     u5410:
  4373   002C50                     l4992:
  4374   002C50  C01A  F01A         	movff	floorf@x,?_floorf
  4375   002C54  C01B  F01B         	movff	floorf@x+1,?_floorf+1
  4376   002C58  C01C  F01C         	movff	floorf@x+2,?_floorf+2
  4377   002C5C  C01D  F01D         	movff	floorf@x+3,?_floorf+3
  4378   002C60  EFF5  F016         	goto	l1344
  4379   002C64                     l4994:
  4380   002C64  BE29               	btfsc	(floorf@e+1)^0,7,c
  4381   002C66  EF37  F016         	goto	u5421
  4382   002C6A  EF39  F016         	goto	u5420
  4383   002C6E                     u5421:
  4384   002C6E  EFA9  F016         	goto	l5004
  4385   002C72                     u5420:
  4386   002C72  C028  F01E         	movff	floorf@e,??_floorf
  4387   002C76  0EFF               	movlw	255
  4388   002C78  6E1F               	movwf	(??_floorf+1)^0,c
  4389   002C7A  0EFF               	movlw	255
  4390   002C7C  6E20               	movwf	(??_floorf+2)^0,c
  4391   002C7E  0E7F               	movlw	127
  4392   002C80  6E21               	movwf	(??_floorf+3)^0,c
  4393   002C82  0E00               	movlw	0
  4394   002C84  6E22               	movwf	(??_floorf+4)^0,c
  4395   002C86                     u5435:
  4396   002C86  661E               	tstfsz	??_floorf^0,c
  4397   002C88  EF48  F016         	goto	u5436
  4398   002C8C  EF50  F016         	goto	u5437
  4399   002C90                     u5436:
  4400   002C90  3422               	rlcf	(??_floorf+4)^0,w,c
  4401   002C92  3222               	rrcf	(??_floorf+4)^0,f,c
  4402   002C94  3221               	rrcf	(??_floorf+3)^0,f,c
  4403   002C96  3220               	rrcf	(??_floorf+2)^0,f,c
  4404   002C98  321F               	rrcf	(??_floorf+1)^0,f,c
  4405   002C9A  2E1E               	decfsz	??_floorf^0,f,c
  4406   002C9C  EF43  F016         	goto	u5435
  4407   002CA0                     u5437:
  4408   002CA0  C01F  F024         	movff	??_floorf+1,floorf@m
  4409   002CA4  C020  F025         	movff	??_floorf+2,floorf@m+1
  4410   002CA8  C021  F026         	movff	??_floorf+3,floorf@m+2
  4411   002CAC  C022  F027         	movff	??_floorf+4,floorf@m+3
  4412   002CB0  5024               	movf	floorf@m^0,w,c
  4413   002CB2  142A               	andwf	floorf@u^0,w,c
  4414   002CB4  6E1E               	movwf	??_floorf^0,c
  4415   002CB6  5025               	movf	(floorf@m+1)^0,w,c
  4416   002CB8  142B               	andwf	(floorf@u+1)^0,w,c
  4417   002CBA  6E1F               	movwf	(??_floorf+1)^0,c
  4418   002CBC  5026               	movf	(floorf@m+2)^0,w,c
  4419   002CBE  142C               	andwf	(floorf@u+2)^0,w,c
  4420   002CC0  6E20               	movwf	(??_floorf+2)^0,c
  4421   002CC2  5027               	movf	(floorf@m+3)^0,w,c
  4422   002CC4  142D               	andwf	(floorf@u+3)^0,w,c
  4423   002CC6  6E21               	movwf	(??_floorf+3)^0,c
  4424   002CC8  501E               	movf	??_floorf^0,w,c
  4425   002CCA  101F               	iorwf	(??_floorf+1)^0,w,c
  4426   002CCC  1020               	iorwf	(??_floorf+2)^0,w,c
  4427   002CCE  1021               	iorwf	(??_floorf+3)^0,w,c
  4428   002CD0  A4D8               	btfss	status,2,c
  4429   002CD2  EF6D  F016         	goto	u5441
  4430   002CD6  EF6F  F016         	goto	u5440
  4431   002CDA                     u5441:
  4432   002CDA  EF71  F016         	goto	l5000
  4433   002CDE                     u5440:
  4434   002CDE  EF28  F016         	goto	l4992
  4435   002CE2                     l5000:
  4436   002CE2  C02A  F01E         	movff	floorf@u,??_floorf
  4437   002CE6  C02B  F01F         	movff	floorf@u+1,??_floorf+1
  4438   002CEA  C02C  F020         	movff	floorf@u+2,??_floorf+2
  4439   002CEE  C02D  F021         	movff	floorf@u+3,??_floorf+3
  4440   002CF2  0E20               	movlw	32
  4441   002CF4  EF81  F016         	goto	u5450
  4442   002CF8                     u5455:
  4443   002CF8  90D8               	bcf	status,0,c
  4444   002CFA  3221               	rrcf	(??_floorf+3)^0,f,c
  4445   002CFC  3220               	rrcf	(??_floorf+2)^0,f,c
  4446   002CFE  321F               	rrcf	(??_floorf+1)^0,f,c
  4447   002D00  321E               	rrcf	??_floorf^0,f,c
  4448   002D02                     u5450:
  4449   002D02  2EE8               	decfsz	wreg,f,c
  4450   002D04  EF7C  F016         	goto	u5455
  4451   002D08  501E               	movf	??_floorf^0,w,c
  4452   002D0A  101F               	iorwf	(??_floorf+1)^0,w,c
  4453   002D0C  1020               	iorwf	(??_floorf+2)^0,w,c
  4454   002D0E  1021               	iorwf	(??_floorf+3)^0,w,c
  4455   002D10  B4D8               	btfsc	status,2,c
  4456   002D12  EF8D  F016         	goto	u5461
  4457   002D16  EF8F  F016         	goto	u5460
  4458   002D1A                     u5461:
  4459   002D1A  EF97  F016         	goto	l1347
  4460   002D1E                     u5460:
  4461   002D1E  5024               	movf	floorf@m^0,w,c
  4462   002D20  262A               	addwf	floorf@u^0,f,c
  4463   002D22  5025               	movf	(floorf@m+1)^0,w,c
  4464   002D24  222B               	addwfc	(floorf@u+1)^0,f,c
  4465   002D26  5026               	movf	(floorf@m+2)^0,w,c
  4466   002D28  222C               	addwfc	(floorf@u+2)^0,f,c
  4467   002D2A  5027               	movf	(floorf@m+3)^0,w,c
  4468   002D2C  222D               	addwfc	(floorf@u+3)^0,f,c
  4469   002D2E                     l1347:
  4470   002D2E  1C24               	comf	floorf@m^0,w,c
  4471   002D30  6E1E               	movwf	??_floorf^0,c
  4472   002D32  1C25               	comf	(floorf@m+1)^0,w,c
  4473   002D34  6E1F               	movwf	(??_floorf+1)^0,c
  4474   002D36  1C26               	comf	(floorf@m+2)^0,w,c
  4475   002D38  6E20               	movwf	(??_floorf+2)^0,c
  4476   002D3A  1C27               	comf	(floorf@m+3)^0,w,c
  4477   002D3C  6E21               	movwf	(??_floorf+3)^0,c
  4478   002D3E  501E               	movf	??_floorf^0,w,c
  4479   002D40  162A               	andwf	floorf@u^0,f,c
  4480   002D42  501F               	movf	(??_floorf+1)^0,w,c
  4481   002D44  162B               	andwf	(floorf@u+1)^0,f,c
  4482   002D46  5020               	movf	(??_floorf+2)^0,w,c
  4483   002D48  162C               	andwf	(floorf@u+2)^0,f,c
  4484   002D4A  5021               	movf	(??_floorf+3)^0,w,c
  4485   002D4C  162D               	andwf	(floorf@u+3)^0,f,c
  4486   002D4E  EFED  F016         	goto	l5012
  4487   002D52                     l5004:
  4488   002D52  C02A  F01E         	movff	floorf@u,??_floorf
  4489   002D56  C02B  F01F         	movff	floorf@u+1,??_floorf+1
  4490   002D5A  C02C  F020         	movff	floorf@u+2,??_floorf+2
  4491   002D5E  C02D  F021         	movff	floorf@u+3,??_floorf+3
  4492   002D62  0E20               	movlw	32
  4493   002D64  EFB9  F016         	goto	u5470
  4494   002D68                     u5475:
  4495   002D68  90D8               	bcf	status,0,c
  4496   002D6A  3221               	rrcf	(??_floorf+3)^0,f,c
  4497   002D6C  3220               	rrcf	(??_floorf+2)^0,f,c
  4498   002D6E  321F               	rrcf	(??_floorf+1)^0,f,c
  4499   002D70  321E               	rrcf	??_floorf^0,f,c
  4500   002D72                     u5470:
  4501   002D72  2EE8               	decfsz	wreg,f,c
  4502   002D74  EFB4  F016         	goto	u5475
  4503   002D78  501E               	movf	??_floorf^0,w,c
  4504   002D7A  101F               	iorwf	(??_floorf+1)^0,w,c
  4505   002D7C  1020               	iorwf	(??_floorf+2)^0,w,c
  4506   002D7E  1021               	iorwf	(??_floorf+3)^0,w,c
  4507   002D80  A4D8               	btfss	status,2,c
  4508   002D82  EFC5  F016         	goto	u5481
  4509   002D86  EFC7  F016         	goto	u5480
  4510   002D8A                     u5481:
  4511   002D8A  EFD1  F016         	goto	l5008
  4512   002D8E                     u5480:
  4513   002D8E  0E00               	movlw	0
  4514   002D90  6E2A               	movwf	floorf@u^0,c
  4515   002D92  0E00               	movlw	0
  4516   002D94  6E2B               	movwf	(floorf@u+1)^0,c
  4517   002D96  0E00               	movlw	0
  4518   002D98  6E2C               	movwf	(floorf@u+2)^0,c
  4519   002D9A  0E00               	movlw	0
  4520   002D9C  6E2D               	movwf	(floorf@u+3)^0,c
  4521   002D9E  EFED  F016         	goto	l5012
  4522   002DA2                     l5008:
  4523   002DA2  90D8               	bcf	status,0,c
  4524   002DA4  342A               	rlcf	floorf@u^0,w,c
  4525   002DA6  6E1E               	movwf	??_floorf^0,c
  4526   002DA8  342B               	rlcf	(floorf@u+1)^0,w,c
  4527   002DAA  6E1F               	movwf	(??_floorf+1)^0,c
  4528   002DAC  342C               	rlcf	(floorf@u+2)^0,w,c
  4529   002DAE  6E20               	movwf	(??_floorf+2)^0,c
  4530   002DB0  342D               	rlcf	(floorf@u+3)^0,w,c
  4531   002DB2  6E21               	movwf	(??_floorf+3)^0,c
  4532   002DB4  501E               	movf	??_floorf^0,w,c
  4533   002DB6  101F               	iorwf	(??_floorf+1)^0,w,c
  4534   002DB8  1020               	iorwf	(??_floorf+2)^0,w,c
  4535   002DBA  1021               	iorwf	(??_floorf+3)^0,w,c
  4536   002DBC  B4D8               	btfsc	status,2,c
  4537   002DBE  EFE3  F016         	goto	u5491
  4538   002DC2  EFE5  F016         	goto	u5490
  4539   002DC6                     u5491:
  4540   002DC6  EFED  F016         	goto	l5012
  4541   002DCA                     u5490:
  4542   002DCA  0E00               	movlw	0
  4543   002DCC  6E2A               	movwf	floorf@u^0,c
  4544   002DCE  0E00               	movlw	0
  4545   002DD0  6E2B               	movwf	(floorf@u+1)^0,c
  4546   002DD2  0E80               	movlw	128
  4547   002DD4  6E2C               	movwf	(floorf@u+2)^0,c
  4548   002DD6  0EBF               	movlw	191
  4549   002DD8  6E2D               	movwf	(floorf@u+3)^0,c
  4550   002DDA                     l5012:
  4551   002DDA  C02A  F01A         	movff	floorf@u,?_floorf
  4552   002DDE  C02B  F01B         	movff	floorf@u+1,?_floorf+1
  4553   002DE2  C02C  F01C         	movff	floorf@u+2,?_floorf+2
  4554   002DE6  C02D  F01D         	movff	floorf@u+3,?_floorf+3
  4555   002DEA                     l1344:
  4556   002DEA  0012               	return		;funcret
  4557   002DEC                     __end_of_floorf:
  4558                           	callstack 0
  4559                           
  4560 ;; *************** function ___fpclassifyf *****************
  4561 ;; Defined at:
  4562 ;;		line 4 in file "/opt/microchip/xc8/v2.45/pic/sources/c99/common/__fpclassifyf.c"
  4563 ;; Parameters:    Size  Location     Type
  4564 ;;  x               4    0[COMRAM] float 
  4565 ;; Auto vars:     Size  Location     Type
  4566 ;;  u               4   10[COMRAM] struct .
  4567 ;;  e               2    8[COMRAM] int 
  4568 ;; Return value:  Size  Location     Type
  4569 ;;                  2    0[COMRAM] int 
  4570 ;; Registers used:
  4571 ;;		wreg, status,2, status,0
  4572 ;; Tracked objects:
  4573 ;;		On entry : 0/0
  4574 ;;		On exit  : 0/0
  4575 ;;		Unchanged: 0/0
  4576 ;; Data sizes:     COMRAM   BANK0   BANK1   BANK2   BANK3   BANK4   BANK5   BANK6   BANK7   BANK8   BANK9  BANK10  BANK1
      +1  BANK12  BANK14
  4577 ;;      Params:         4       0       0       0       0       0       0       0       0       0       0       0       
      +0       0       0
  4578 ;;      Locals:         6       0       0       0       0       0       0       0       0       0       0       0       
      +0       0       0
  4579 ;;      Temps:          4       0       0       0       0       0       0       0       0       0       0       0       
      +0       0       0
  4580 ;;      Totals:        14       0       0       0       0       0       0       0       0       0       0       0       
      +0       0       0
  4581 ;;Total ram usage:       14 bytes
  4582 ;; Hardware stack levels used: 1
  4583 ;; This function calls:
  4584 ;;		Nothing
  4585 ;; This function is called by:
  4586 ;;		_efgtoa
  4587 ;; This function uses a non-reentrant model
  4588 ;;
  4589                           
  4590                           	psect	text15
  4591   0031AA                     __ptext15:
  4592                           	callstack 0
  4593   0031AA                     ___fpclassifyf:
  4594                           	callstack 26
  4595   0031AA  C0AD  F00B         	movff	___fpclassifyf@F465,___fpclassifyf@u
  4596   0031AE  C0AE  F00C         	movff	___fpclassifyf@F465+1,___fpclassifyf@u+1
  4597   0031B2  C0AF  F00D         	movff	___fpclassifyf@F465+2,___fpclassifyf@u+2
  4598   0031B6  C0B0  F00E         	movff	___fpclassifyf@F465+3,___fpclassifyf@u+3
  4599   0031BA  C001  F00B         	movff	___fpclassifyf@x,___fpclassifyf@u
  4600   0031BE  C002  F00C         	movff	___fpclassifyf@x+1,___fpclassifyf@u+1
  4601   0031C2  C003  F00D         	movff	___fpclassifyf@x+2,___fpclassifyf@u+2
  4602   0031C6  C004  F00E         	movff	___fpclassifyf@x+3,___fpclassifyf@u+3
  4603   0031CA  C00B  F005         	movff	___fpclassifyf@u,??___fpclassifyf
  4604   0031CE  C00C  F006         	movff	___fpclassifyf@u+1,??___fpclassifyf+1
  4605   0031D2  C00D  F007         	movff	___fpclassifyf@u+2,??___fpclassifyf+2
  4606   0031D6  C00E  F008         	movff	___fpclassifyf@u+3,??___fpclassifyf+3
  4607   0031DA  0E18               	movlw	24
  4608   0031DC  EFF5  F018         	goto	u5310
  4609   0031E0                     u5315:
  4610   0031E0  90D8               	bcf	status,0,c
  4611   0031E2  3208               	rrcf	(??___fpclassifyf+3)^0,f,c
  4612   0031E4  3207               	rrcf	(??___fpclassifyf+2)^0,f,c
  4613   0031E6  3206               	rrcf	(??___fpclassifyf+1)^0,f,c
  4614   0031E8  3205               	rrcf	??___fpclassifyf^0,f,c
  4615   0031EA                     u5310:
  4616   0031EA  2EE8               	decfsz	wreg,f,c
  4617   0031EC  EFF0  F018         	goto	u5315
  4618   0031F0  5005               	movf	??___fpclassifyf^0,w,c
  4619   0031F2  6E09               	movwf	___fpclassifyf@e^0,c
  4620   0031F4  6A0A               	clrf	(___fpclassifyf@e+1)^0,c
  4621   0031F6  5009               	movf	___fpclassifyf@e^0,w,c
  4622   0031F8  100A               	iorwf	(___fpclassifyf@e+1)^0,w,c
  4623   0031FA  A4D8               	btfss	status,2,c
  4624   0031FC  EF02  F019         	goto	u5321
  4625   003200  EF04  F019         	goto	u5320
  4626   003204                     u5321:
  4627   003204  EF24  F019         	goto	l4966
  4628   003208                     u5320:
  4629   003208  90D8               	bcf	status,0,c
  4630   00320A  340B               	rlcf	___fpclassifyf@u^0,w,c
  4631   00320C  6E05               	movwf	??___fpclassifyf^0,c
  4632   00320E  340C               	rlcf	(___fpclassifyf@u+1)^0,w,c
  4633   003210  6E06               	movwf	(??___fpclassifyf+1)^0,c
  4634   003212  340D               	rlcf	(___fpclassifyf@u+2)^0,w,c
  4635   003214  6E07               	movwf	(??___fpclassifyf+2)^0,c
  4636   003216  340E               	rlcf	(___fpclassifyf@u+3)^0,w,c
  4637   003218  6E08               	movwf	(??___fpclassifyf+3)^0,c
  4638   00321A  5005               	movf	??___fpclassifyf^0,w,c
  4639   00321C  1006               	iorwf	(??___fpclassifyf+1)^0,w,c
  4640   00321E  1007               	iorwf	(??___fpclassifyf+2)^0,w,c
  4641   003220  1008               	iorwf	(??___fpclassifyf+3)^0,w,c
  4642   003222  A4D8               	btfss	status,2,c
  4643   003224  EF16  F019         	goto	u5331
  4644   003228  EF18  F019         	goto	u5330
  4645   00322C                     u5331:
  4646   00322C  EF1E  F019         	goto	l4962
  4647   003230                     u5330:
  4648   003230  0E00               	movlw	0
  4649   003232  6E02               	movwf	(?___fpclassifyf+1)^0,c
  4650   003234  0E02               	movlw	2
  4651   003236  6E01               	movwf	?___fpclassifyf^0,c
  4652   003238  EF53  F019         	goto	l1330
  4653   00323C                     l4962:
  4654   00323C  0E00               	movlw	0
  4655   00323E  6E02               	movwf	(?___fpclassifyf+1)^0,c
  4656   003240  0E03               	movlw	3
  4657   003242  6E01               	movwf	?___fpclassifyf^0,c
  4658   003244  EF53  F019         	goto	l1330
  4659   003248                     l4966:
  4660   003248  2809               	incf	___fpclassifyf@e^0,w,c
  4661   00324A  100A               	iorwf	(___fpclassifyf@e+1)^0,w,c
  4662   00324C  A4D8               	btfss	status,2,c
  4663   00324E  EF2B  F019         	goto	u5341
  4664   003252  EF2D  F019         	goto	u5340
  4665   003256                     u5341:
  4666   003256  EF4F  F019         	goto	l4972
  4667   00325A                     u5340:
  4668   00325A  C00B  F005         	movff	___fpclassifyf@u,??___fpclassifyf
  4669   00325E  C00C  F006         	movff	___fpclassifyf@u+1,??___fpclassifyf+1
  4670   003262  C00D  F007         	movff	___fpclassifyf@u+2,??___fpclassifyf+2
  4671   003266  C00E  F008         	movff	___fpclassifyf@u+3,??___fpclassifyf+3
  4672   00326A  0E09               	movlw	9
  4673   00326C                     u5355:
  4674   00326C  90D8               	bcf	status,0,c
  4675   00326E  3605               	rlcf	??___fpclassifyf^0,f,c
  4676   003270  3606               	rlcf	(??___fpclassifyf+1)^0,f,c
  4677   003272  3607               	rlcf	(??___fpclassifyf+2)^0,f,c
  4678   003274  3608               	rlcf	(??___fpclassifyf+3)^0,f,c
  4679   003276  2EE8               	decfsz	wreg,f,c
  4680   003278  EF36  F019         	goto	u5355
  4681   00327C  5005               	movf	??___fpclassifyf^0,w,c
  4682   00327E  1006               	iorwf	(??___fpclassifyf+1)^0,w,c
  4683   003280  1007               	iorwf	(??___fpclassifyf+2)^0,w,c
  4684   003282  1008               	iorwf	(??___fpclassifyf+3)^0,w,c
  4685   003284  B4D8               	btfsc	status,2,c
  4686   003286  EF47  F019         	goto	u5361
  4687   00328A  EF4A  F019         	goto	u5360
  4688   00328E                     u5361:
  4689   00328E  0E01               	movlw	1
  4690   003290  EF4B  F019         	goto	u5370
  4691   003294                     u5360:
  4692   003294  0E00               	movlw	0
  4693   003296                     u5370:
  4694   003296  6E01               	movwf	?___fpclassifyf^0,c
  4695   003298  6A02               	clrf	(?___fpclassifyf+1)^0,c
  4696   00329A  EF53  F019         	goto	l1330
  4697   00329E                     l4972:
  4698   00329E  0E00               	movlw	0
  4699   0032A0  6E02               	movwf	(?___fpclassifyf+1)^0,c
  4700   0032A2  0E04               	movlw	4
  4701   0032A4  6E01               	movwf	?___fpclassifyf^0,c
  4702   0032A6                     l1330:
  4703   0032A6  0012               	return		;funcret
  4704   0032A8                     __end_of___fpclassifyf:
  4705                           	callstack 0
  4706                           
  4707 ;; *************** function ___fltol *****************
  4708 ;; Defined at:
  4709 ;;		line 43 in file "/opt/microchip/xc8/v2.45/pic/sources/c99/common/fltol.c"
  4710 ;; Parameters:    Size  Location     Type
  4711 ;;  f1              4    0[COMRAM] int 
  4712 ;; Auto vars:     Size  Location     Type
  4713 ;;  exp1            1    9[COMRAM] unsigned char 
  4714 ;;  sign1           1    8[COMRAM] unsigned char 
  4715 ;; Return value:  Size  Location     Type
  4716 ;;                  4    0[COMRAM] long 
  4717 ;; Registers used:
  4718 ;;		wreg, status,2, status,0
  4719 ;; Tracked objects:
  4720 ;;		On entry : 0/0
  4721 ;;		On exit  : 0/0
  4722 ;;		Unchanged: 0/0
  4723 ;; Data sizes:     COMRAM   BANK0   BANK1   BANK2   BANK3   BANK4   BANK5   BANK6   BANK7   BANK8   BANK9  BANK10  BANK1
      +1  BANK12  BANK14
  4724 ;;      Params:         4       0       0       0       0       0       0       0       0       0       0       0       
      +0       0       0
  4725 ;;      Locals:         2       0       0       0       0       0       0       0       0       0       0       0       
      +0       0       0
  4726 ;;      Temps:          4       0       0       0       0       0       0       0       0       0       0       0       
      +0       0       0
  4727 ;;      Totals:        10       0       0       0       0       0       0       0       0       0       0       0       
      +0       0       0
  4728 ;;Total ram usage:       10 bytes
  4729 ;; Hardware stack levels used: 1
  4730 ;; This function calls:
  4731 ;;		Nothing
  4732 ;; This function is called by:
  4733 ;;		_efgtoa
  4734 ;; This function uses a non-reentrant model
  4735 ;;
  4736                           
  4737                           	psect	text16
  4738   002FA0                     __ptext16:
  4739                           	callstack 0
  4740   002FA0                     ___fltol:
  4741                           	callstack 26
  4742   002FA0  3403               	rlcf	(___fltol@f1+2)^0,w,c
  4743   002FA2  3404               	rlcf	(___fltol@f1+3)^0,w,c
  4744   002FA4  6E0A               	movwf	___fltol@exp1^0,c
  4745   002FA6  500A               	movf	___fltol@exp1^0,w,c
  4746   002FA8  A4D8               	btfss	status,2,c
  4747   002FAA  EFD9  F017         	goto	u5221
  4748   002FAE  EFDB  F017         	goto	u5220
  4749   002FB2                     u5221:
  4750   002FB2  EFE5  F017         	goto	l4904
  4751   002FB6                     u5220:
  4752   002FB6                     l4900:
  4753   002FB6  0E00               	movlw	0
  4754   002FB8  6E01               	movwf	?___fltol^0,c
  4755   002FBA  0E00               	movlw	0
  4756   002FBC  6E02               	movwf	(?___fltol+1)^0,c
  4757   002FBE  0E00               	movlw	0
  4758   002FC0  6E03               	movwf	(?___fltol+2)^0,c
  4759   002FC2  0E00               	movlw	0
  4760   002FC4  6E04               	movwf	(?___fltol+3)^0,c
  4761   002FC6  EF52  F018         	goto	l817
  4762   002FCA                     l4904:
  4763   002FCA  C001  F005         	movff	___fltol@f1,??___fltol
  4764   002FCE  C002  F006         	movff	___fltol@f1+1,??___fltol+1
  4765   002FD2  C003  F007         	movff	___fltol@f1+2,??___fltol+2
  4766   002FD6  C004  F008         	movff	___fltol@f1+3,??___fltol+3
  4767   002FDA  0E20               	movlw	32
  4768   002FDC  EFF5  F017         	goto	u5230
  4769   002FE0                     u5235:
  4770   002FE0  90D8               	bcf	status,0,c
  4771   002FE2  3208               	rrcf	(??___fltol+3)^0,f,c
  4772   002FE4  3207               	rrcf	(??___fltol+2)^0,f,c
  4773   002FE6  3206               	rrcf	(??___fltol+1)^0,f,c
  4774   002FE8  3205               	rrcf	??___fltol^0,f,c
  4775   002FEA                     u5230:
  4776   002FEA  2EE8               	decfsz	wreg,f,c
  4777   002FEC  EFF0  F017         	goto	u5235
  4778   002FF0  5005               	movf	??___fltol^0,w,c
  4779   002FF2  6E09               	movwf	___fltol@sign1^0,c
  4780   002FF4  8E03               	bsf	(___fltol@f1+2)^0,7,c
  4781   002FF6  0EFF               	movlw	255
  4782   002FF8  1601               	andwf	___fltol@f1^0,f,c
  4783   002FFA  0EFF               	movlw	255
  4784   002FFC  1602               	andwf	(___fltol@f1+1)^0,f,c
  4785   002FFE  0EFF               	movlw	255
  4786   003000  1603               	andwf	(___fltol@f1+2)^0,f,c
  4787   003002  0E00               	movlw	0
  4788   003004  1604               	andwf	(___fltol@f1+3)^0,f,c
  4789   003006  0E96               	movlw	150
  4790   003008  5E0A               	subwf	___fltol@exp1^0,f,c
  4791   00300A  BE0A               	btfsc	___fltol@exp1^0,7,c
  4792   00300C  EF0C  F018         	goto	u5240
  4793   003010  EF0A  F018         	goto	u5241
  4794   003014                     u5241:
  4795   003014  EF22  F018         	goto	l4924
  4796   003018                     u5240:
  4797   003018  500A               	movf	___fltol@exp1^0,w,c
  4798   00301A  0A80               	xorlw	128
  4799   00301C  0F97               	addlw	151
  4800   00301E  B0D8               	btfsc	status,0,c
  4801   003020  EF14  F018         	goto	u5251
  4802   003024  EF16  F018         	goto	u5250
  4803   003028                     u5251:
  4804   003028  EF18  F018         	goto	l4920
  4805   00302C                     u5250:
  4806   00302C  EFDB  F017         	goto	l4900
  4807   003030                     l4920:
  4808   003030  90D8               	bcf	status,0,c
  4809   003032  3204               	rrcf	(___fltol@f1+3)^0,f,c
  4810   003034  3203               	rrcf	(___fltol@f1+2)^0,f,c
  4811   003036  3202               	rrcf	(___fltol@f1+1)^0,f,c
  4812   003038  3201               	rrcf	___fltol@f1^0,f,c
  4813   00303A  3E0A               	incfsz	___fltol@exp1^0,f,c
  4814   00303C  EF18  F018         	goto	l4920
  4815   003040  EF3A  F018         	goto	l4934
  4816   003044                     l4924:
  4817   003044  0E1F               	movlw	31
  4818   003046  640A               	cpfsgt	___fltol@exp1^0,c
  4819   003048  EF28  F018         	goto	u5261
  4820   00304C  EF2A  F018         	goto	u5260
  4821   003050                     u5261:
  4822   003050  EF32  F018         	goto	l4932
  4823   003054                     u5260:
  4824   003054  EFDB  F017         	goto	l4900
  4825   003058                     l4930:
  4826   003058  90D8               	bcf	status,0,c
  4827   00305A  3601               	rlcf	___fltol@f1^0,f,c
  4828   00305C  3602               	rlcf	(___fltol@f1+1)^0,f,c
  4829   00305E  3603               	rlcf	(___fltol@f1+2)^0,f,c
  4830   003060  3604               	rlcf	(___fltol@f1+3)^0,f,c
  4831   003062  060A               	decf	___fltol@exp1^0,f,c
  4832   003064                     l4932:
  4833   003064  500A               	movf	___fltol@exp1^0,w,c
  4834   003066  A4D8               	btfss	status,2,c
  4835   003068  EF38  F018         	goto	u5271
  4836   00306C  EF3A  F018         	goto	u5270
  4837   003070                     u5271:
  4838   003070  EF2C  F018         	goto	l4930
  4839   003074                     u5270:
  4840   003074                     l4934:
  4841   003074  5009               	movf	___fltol@sign1^0,w,c
  4842   003076  B4D8               	btfsc	status,2,c
  4843   003078  EF40  F018         	goto	u5281
  4844   00307C  EF42  F018         	goto	u5280
  4845   003080                     u5281:
  4846   003080  EF4A  F018         	goto	l4938
  4847   003084                     u5280:
  4848   003084  1E04               	comf	(___fltol@f1+3)^0,f,c
  4849   003086  1E03               	comf	(___fltol@f1+2)^0,f,c
  4850   003088  1E02               	comf	(___fltol@f1+1)^0,f,c
  4851   00308A  6C01               	negf	___fltol@f1^0,c
  4852   00308C  0E00               	movlw	0
  4853   00308E  2202               	addwfc	(___fltol@f1+1)^0,f,c
  4854   003090  2203               	addwfc	(___fltol@f1+2)^0,f,c
  4855   003092  2204               	addwfc	(___fltol@f1+3)^0,f,c
  4856   003094                     l4938:
  4857   003094  C001  F001         	movff	___fltol@f1,?___fltol
  4858   003098  C002  F002         	movff	___fltol@f1+1,?___fltol+1
  4859   00309C  C003  F003         	movff	___fltol@f1+2,?___fltol+2
  4860   0030A0  C004  F004         	movff	___fltol@f1+3,?___fltol+3
  4861   0030A4                     l817:
  4862   0030A4  0012               	return		;funcret
  4863   0030A6                     __end_of___fltol:
  4864                           	callstack 0
  4865                           
  4866 ;; *************** function ___flsub *****************
  4867 ;; Defined at:
  4868 ;;		line 245 in file "/opt/microchip/xc8/v2.45/pic/sources/c99/common/sprcadd.c"
  4869 ;; Parameters:    Size  Location     Type
  4870 ;;  b               4   46[COMRAM] long 
  4871 ;;  a               4   50[COMRAM] long 
  4872 ;; Auto vars:     Size  Location     Type
  4873 ;;		None
  4874 ;; Return value:  Size  Location     Type
  4875 ;;                  4   46[COMRAM] long 
  4876 ;; Registers used:
  4877 ;;		wreg, status,2, status,0, cstack
  4878 ;; Tracked objects:
  4879 ;;		On entry : 0/0
  4880 ;;		On exit  : 0/0
  4881 ;;		Unchanged: 0/0
  4882 ;; Data sizes:     COMRAM   BANK0   BANK1   BANK2   BANK3   BANK4   BANK5   BANK6   BANK7   BANK8   BANK9  BANK10  BANK1
      +1  BANK12  BANK14
  4883 ;;      Params:         8       0       0       0       0       0       0       0       0       0       0       0       
      +0       0       0
  4884 ;;      Locals:         0       0       0       0       0       0       0       0       0       0       0       0       
      +0       0       0
  4885 ;;      Temps:          0       0       0       0       0       0       0       0       0       0       0       0       
      +0       0       0
  4886 ;;      Totals:         8       0       0       0       0       0       0       0       0       0       0       0       
      +0       0       0
  4887 ;;Total ram usage:        8 bytes
  4888 ;; Hardware stack levels used: 1
  4889 ;; Hardware stack levels required when called: 1
  4890 ;; This function calls:
  4891 ;;		___fladd
  4892 ;; This function is called by:
  4893 ;;		_efgtoa
  4894 ;; This function uses a non-reentrant model
  4895 ;;
  4896                           
  4897                           	psect	text17
  4898   003894                     __ptext17:
  4899                           	callstack 0
  4900   003894                     ___flsub:
  4901                           	callstack 25
  4902   003894  0E00               	movlw	0
  4903   003896  1A33               	xorwf	___flsub@a^0,f,c
  4904   003898  0E00               	movlw	0
  4905   00389A  1A34               	xorwf	(___flsub@a+1)^0,f,c
  4906   00389C  0E00               	movlw	0
  4907   00389E  1A35               	xorwf	(___flsub@a+2)^0,f,c
  4908   0038A0  0E80               	movlw	128
  4909   0038A2  1A36               	xorwf	(___flsub@a+3)^0,f,c
  4910   0038A4  C02F  F001         	movff	___flsub@b,___fladd@b
  4911   0038A8  C030  F002         	movff	___flsub@b+1,___fladd@b+1
  4912   0038AC  C031  F003         	movff	___flsub@b+2,___fladd@b+2
  4913   0038B0  C032  F004         	movff	___flsub@b+3,___fladd@b+3
  4914   0038B4  C033  F005         	movff	___flsub@a,___fladd@a
  4915   0038B8  C034  F006         	movff	___flsub@a+1,___fladd@a+1
  4916   0038BC  C035  F007         	movff	___flsub@a+2,___fladd@a+2
  4917   0038C0  C036  F008         	movff	___flsub@a+3,___fladd@a+3
  4918   0038C4  EC7E  F00C         	call	___fladd	;wreg free
  4919   0038C8  C001  F02F         	movff	?___fladd,?___flsub
  4920   0038CC  C002  F030         	movff	?___fladd+1,?___flsub+1
  4921   0038D0  C003  F031         	movff	?___fladd+2,?___flsub+2
  4922   0038D4  C004  F032         	movff	?___fladd+3,?___flsub+3
  4923   0038D8  0012               	return		;funcret
  4924   0038DA                     __end_of___flsub:
  4925                           	callstack 0
  4926                           
  4927 ;; *************** function ___fladd *****************
  4928 ;; Defined at:
  4929 ;;		line 10 in file "/opt/microchip/xc8/v2.45/pic/sources/c99/common/sprcadd.c"
  4930 ;; Parameters:    Size  Location     Type
  4931 ;;  b               4    0[COMRAM] long 
  4932 ;;  a               4    4[COMRAM] long 
  4933 ;; Auto vars:     Size  Location     Type
  4934 ;;  grs             1   15[COMRAM] unsigned char 
  4935 ;;  bexp            1   14[COMRAM] unsigned char 
  4936 ;;  aexp            1   13[COMRAM] unsigned char 
  4937 ;;  signs           1   12[COMRAM] unsigned char 
  4938 ;; Return value:  Size  Location     Type
  4939 ;;                  4    0[COMRAM] unsigned char 
  4940 ;; Registers used:
  4941 ;;		wreg, status,2, status,0
  4942 ;; Tracked objects:
  4943 ;;		On entry : 0/0
  4944 ;;		On exit  : 0/0
  4945 ;;		Unchanged: 0/0
  4946 ;; Data sizes:     COMRAM   BANK0   BANK1   BANK2   BANK3   BANK4   BANK5   BANK6   BANK7   BANK8   BANK9  BANK10  BANK1
      +1  BANK12  BANK14
  4947 ;;      Params:         8       0       0       0       0       0       0       0       0       0       0       0       
      +0       0       0
  4948 ;;      Locals:         4       0       0       0       0       0       0       0       0       0       0       0       
      +0       0       0
  4949 ;;      Temps:          4       0       0       0       0       0       0       0       0       0       0       0       
      +0       0       0
  4950 ;;      Totals:        16       0       0       0       0       0       0       0       0       0       0       0       
      +0       0       0
  4951 ;;Total ram usage:       16 bytes
  4952 ;; Hardware stack levels used: 1
  4953 ;; This function calls:
  4954 ;;		Nothing
  4955 ;; This function is called by:
  4956 ;;		___flsub
  4957 ;;		_efgtoa
  4958 ;; This function uses a non-reentrant model
  4959 ;;
  4960                           
  4961                           	psect	text18
  4962   0018FC                     __ptext18:
  4963                           	callstack 0
  4964   0018FC                     ___fladd:
  4965                           	callstack 25
  4966   0018FC  5004               	movf	(___fladd@b+3)^0,w,c
  4967   0018FE  0B80               	andlw	128
  4968   001900  6E0D               	movwf	___fladd@signs^0,c
  4969   001902  5004               	movf	(___fladd@b+3)^0,w,c
  4970   001904  2404               	addwf	(___fladd@b+3)^0,w,c
  4971   001906  6E0F               	movwf	___fladd@bexp^0,c
  4972   001908  AE03               	btfss	(___fladd@b+2)^0,7,c
  4973   00190A  EF89  F00C         	goto	u4311
  4974   00190E  EF8B  F00C         	goto	u4310
  4975   001912                     u4311:
  4976   001912  EF8C  F00C         	goto	l4374
  4977   001916                     u4310:
  4978   001916  800F               	bsf	___fladd@bexp^0,0,c
  4979   001918                     l4374:
  4980   001918  500F               	movf	___fladd@bexp^0,w,c
  4981   00191A  B4D8               	btfsc	status,2,c
  4982   00191C  EF92  F00C         	goto	u4321
  4983   001920  EF94  F00C         	goto	u4320
  4984   001924                     u4321:
  4985   001924  EFA9  F00C         	goto	l4384
  4986   001928                     u4320:
  4987   001928  280F               	incf	___fladd@bexp^0,w,c
  4988   00192A  A4D8               	btfss	status,2,c
  4989   00192C  EF9A  F00C         	goto	u4331
  4990   001930  EF9C  F00C         	goto	u4330
  4991   001934                     u4331:
  4992   001934  EFA4  F00C         	goto	l4380
  4993   001938                     u4330:
  4994   001938  0E00               	movlw	0
  4995   00193A  6E01               	movwf	___fladd@b^0,c
  4996   00193C  0E00               	movlw	0
  4997   00193E  6E02               	movwf	(___fladd@b+1)^0,c
  4998   001940  0E00               	movlw	0
  4999   001942  6E03               	movwf	(___fladd@b+2)^0,c
  5000   001944  0E00               	movlw	0
  5001   001946  6E04               	movwf	(___fladd@b+3)^0,c
  5002   001948                     l4380:
  5003   001948  8E03               	bsf	(___fladd@b+2)^0,7,c
  5004   00194A  0E00               	movlw	0
  5005   00194C  6E04               	movwf	(___fladd@b+3)^0,c
  5006   00194E  EFB1  F00C         	goto	l4386
  5007   001952                     l4384:
  5008   001952  0E00               	movlw	0
  5009   001954  6E01               	movwf	___fladd@b^0,c
  5010   001956  0E00               	movlw	0
  5011   001958  6E02               	movwf	(___fladd@b+1)^0,c
  5012   00195A  0E00               	movlw	0
  5013   00195C  6E03               	movwf	(___fladd@b+2)^0,c
  5014   00195E  0E00               	movlw	0
  5015   001960  6E04               	movwf	(___fladd@b+3)^0,c
  5016   001962                     l4386:
  5017   001962  5008               	movf	(___fladd@a+3)^0,w,c
  5018   001964  0B80               	andlw	128
  5019   001966  6E0E               	movwf	___fladd@aexp^0,c
  5020   001968  500D               	movf	___fladd@signs^0,w,c
  5021   00196A  180E               	xorwf	___fladd@aexp^0,w,c
  5022   00196C  B4D8               	btfsc	status,2,c
  5023   00196E  EFBB  F00C         	goto	u4341
  5024   001972  EFBD  F00C         	goto	u4340
  5025   001976                     u4341:
  5026   001976  EFBE  F00C         	goto	l4392
  5027   00197A                     u4340:
  5028   00197A  8C0D               	bsf	___fladd@signs^0,6,c
  5029   00197C                     l4392:
  5030   00197C  5008               	movf	(___fladd@a+3)^0,w,c
  5031   00197E  2408               	addwf	(___fladd@a+3)^0,w,c
  5032   001980  6E0E               	movwf	___fladd@aexp^0,c
  5033   001982  AE07               	btfss	(___fladd@a+2)^0,7,c
  5034   001984  EFC6  F00C         	goto	u4351
  5035   001988  EFC8  F00C         	goto	u4350
  5036   00198C                     u4351:
  5037   00198C  EFC9  F00C         	goto	l4398
  5038   001990                     u4350:
  5039   001990  800E               	bsf	___fladd@aexp^0,0,c
  5040   001992                     l4398:
  5041   001992  500E               	movf	___fladd@aexp^0,w,c
  5042   001994  B4D8               	btfsc	status,2,c
  5043   001996  EFCF  F00C         	goto	u4361
  5044   00199A  EFD1  F00C         	goto	u4360
  5045   00199E                     u4361:
  5046   00199E  EFE6  F00C         	goto	l4408
  5047   0019A2                     u4360:
  5048   0019A2  280E               	incf	___fladd@aexp^0,w,c
  5049   0019A4  A4D8               	btfss	status,2,c
  5050   0019A6  EFD7  F00C         	goto	u4371
  5051   0019AA  EFD9  F00C         	goto	u4370
  5052   0019AE                     u4371:
  5053   0019AE  EFE1  F00C         	goto	l4404
  5054   0019B2                     u4370:
  5055   0019B2  0E00               	movlw	0
  5056   0019B4  6E05               	movwf	___fladd@a^0,c
  5057   0019B6  0E00               	movlw	0
  5058   0019B8  6E06               	movwf	(___fladd@a+1)^0,c
  5059   0019BA  0E00               	movlw	0
  5060   0019BC  6E07               	movwf	(___fladd@a+2)^0,c
  5061   0019BE  0E00               	movlw	0
  5062   0019C0  6E08               	movwf	(___fladd@a+3)^0,c
  5063   0019C2                     l4404:
  5064   0019C2  8E07               	bsf	(___fladd@a+2)^0,7,c
  5065   0019C4  0E00               	movlw	0
  5066   0019C6  6E08               	movwf	(___fladd@a+3)^0,c
  5067   0019C8  EFEE  F00C         	goto	l4410
  5068   0019CC                     l4408:
  5069   0019CC  0E00               	movlw	0
  5070   0019CE  6E05               	movwf	___fladd@a^0,c
  5071   0019D0  0E00               	movlw	0
  5072   0019D2  6E06               	movwf	(___fladd@a+1)^0,c
  5073   0019D4  0E00               	movlw	0
  5074   0019D6  6E07               	movwf	(___fladd@a+2)^0,c
  5075   0019D8  0E00               	movlw	0
  5076   0019DA  6E08               	movwf	(___fladd@a+3)^0,c
  5077   0019DC                     l4410:
  5078   0019DC  500F               	movf	___fladd@bexp^0,w,c
  5079   0019DE  5C0E               	subwf	___fladd@aexp^0,w,c
  5080   0019E0  B0D8               	btfsc	status,0,c
  5081   0019E2  EFF5  F00C         	goto	u4381
  5082   0019E6  EFF7  F00C         	goto	u4380
  5083   0019EA                     u4381:
  5084   0019EA  EF1E  F00D         	goto	l4446
  5085   0019EE                     u4380:
  5086   0019EE  AC0D               	btfss	___fladd@signs^0,6,c
  5087   0019F0  EFFC  F00C         	goto	u4391
  5088   0019F4  EFFE  F00C         	goto	u4390
  5089   0019F8                     u4391:
  5090   0019F8  EF00  F00D         	goto	l4416
  5091   0019FC                     u4390:
  5092   0019FC  0E80               	movlw	128
  5093   0019FE  1A0D               	xorwf	___fladd@signs^0,f,c
  5094   001A00                     l4416:
  5095   001A00  C00F  F010         	movff	___fladd@bexp,___fladd@grs
  5096   001A04  C00E  F00F         	movff	___fladd@aexp,___fladd@bexp
  5097   001A08  C010  F00E         	movff	___fladd@grs,___fladd@aexp
  5098   001A0C  C001  F010         	movff	___fladd@b,___fladd@grs
  5099   001A10  C005  F001         	movff	___fladd@a,___fladd@b
  5100   001A14  C010  F005         	movff	___fladd@grs,___fladd@a
  5101   001A18  C002  F010         	movff	___fladd@b+1,___fladd@grs
  5102   001A1C  C006  F002         	movff	___fladd@a+1,___fladd@b+1
  5103   001A20  C010  F006         	movff	___fladd@grs,___fladd@a+1
  5104   001A24  C003  F010         	movff	___fladd@b+2,___fladd@grs
  5105   001A28  C007  F003         	movff	___fladd@a+2,___fladd@b+2
  5106   001A2C  C010  F007         	movff	___fladd@grs,___fladd@a+2
  5107   001A30  C004  F010         	movff	___fladd@b+3,___fladd@grs
  5108   001A34  C008  F004         	movff	___fladd@a+3,___fladd@b+3
  5109   001A38  C010  F008         	movff	___fladd@grs,___fladd@a+3
  5110   001A3C                     l4446:
  5111   001A3C  0E00               	movlw	0
  5112   001A3E  6E10               	movwf	___fladd@grs^0,c
  5113   001A40  500F               	movf	___fladd@bexp^0,w,c
  5114   001A42  C00E  F009         	movff	___fladd@aexp,??___fladd
  5115   001A46  6A0A               	clrf	(??___fladd+1)^0,c
  5116   001A48  5E09               	subwf	??___fladd^0,f,c
  5117   001A4A  0E00               	movlw	0
  5118   001A4C  5A0A               	subwfb	(??___fladd+1)^0,f,c
  5119   001A4E  BE0A               	btfsc	(??___fladd+1)^0,7,c
  5120   001A50  EF33  F00D         	goto	u4401
  5121   001A54  500A               	movf	(??___fladd+1)^0,w,c
  5122   001A56  E109               	bnz	u4400
  5123   001A58  0E1A               	movlw	26
  5124   001A5A  5C09               	subwf	??___fladd^0,w,c
  5125   001A5C  A0D8               	btfss	status,0,c
  5126   001A5E  EF33  F00D         	goto	u4401
  5127   001A62  EF35  F00D         	goto	u4400
  5128   001A66                     u4401:
  5129   001A66  EF6C  F00D         	goto	l1049
  5130   001A6A                     u4400:
  5131   001A6A  5001               	movf	___fladd@b^0,w,c
  5132   001A6C  1002               	iorwf	(___fladd@b+1)^0,w,c
  5133   001A6E  1003               	iorwf	(___fladd@b+2)^0,w,c
  5134   001A70  1004               	iorwf	(___fladd@b+3)^0,w,c
  5135   001A72  A4D8               	btfss	status,2,c
  5136   001A74  EF3E  F00D         	goto	u4411
  5137   001A78  EF41  F00D         	goto	u4410
  5138   001A7C                     u4411:
  5139   001A7C  0E01               	movlw	1
  5140   001A7E  EF42  F00D         	goto	u4420
  5141   001A82                     u4410:
  5142   001A82  0E00               	movlw	0
  5143   001A84                     u4420:
  5144   001A84  6E10               	movwf	___fladd@grs^0,c
  5145   001A86  0E00               	movlw	0
  5146   001A88  6E01               	movwf	___fladd@b^0,c
  5147   001A8A  0E00               	movlw	0
  5148   001A8C  6E02               	movwf	(___fladd@b+1)^0,c
  5149   001A8E  0E00               	movlw	0
  5150   001A90  6E03               	movwf	(___fladd@b+2)^0,c
  5151   001A92  0E00               	movlw	0
  5152   001A94  6E04               	movwf	(___fladd@b+3)^0,c
  5153   001A96  C00E  F00F         	movff	___fladd@aexp,___fladd@bexp
  5154   001A9A  EF75  F00D         	goto	l1048
  5155   001A9E                     l1050:
  5156   001A9E  A010               	btfss	___fladd@grs^0,0,c
  5157   001AA0  EF54  F00D         	goto	u4431
  5158   001AA4  EF56  F00D         	goto	u4430
  5159   001AA8                     u4431:
  5160   001AA8  EF5C  F00D         	goto	l4458
  5161   001AAC                     u4430:
  5162   001AAC  90D8               	bcf	status,0,c
  5163   001AAE  3010               	rrcf	___fladd@grs^0,w,c
  5164   001AB0  0901               	iorlw	1
  5165   001AB2  6E10               	movwf	___fladd@grs^0,c
  5166   001AB4  EF5E  F00D         	goto	l4460
  5167   001AB8                     l4458:
  5168   001AB8  90D8               	bcf	status,0,c
  5169   001ABA  3210               	rrcf	___fladd@grs^0,f,c
  5170   001ABC                     l4460:
  5171   001ABC  A001               	btfss	___fladd@b^0,0,c
  5172   001ABE  EF63  F00D         	goto	u4441
  5173   001AC2  EF65  F00D         	goto	u4440
  5174   001AC6                     u4441:
  5175   001AC6  EF66  F00D         	goto	l4464
  5176   001ACA                     u4440:
  5177   001ACA  8E10               	bsf	___fladd@grs^0,7,c
  5178   001ACC                     l4464:
  5179   001ACC  3404               	rlcf	(___fladd@b+3)^0,w,c
  5180   001ACE  3204               	rrcf	(___fladd@b+3)^0,f,c
  5181   001AD0  3203               	rrcf	(___fladd@b+2)^0,f,c
  5182   001AD2  3202               	rrcf	(___fladd@b+1)^0,f,c
  5183   001AD4  3201               	rrcf	___fladd@b^0,f,c
  5184   001AD6  2A0F               	incf	___fladd@bexp^0,f,c
  5185   001AD8                     l1049:
  5186   001AD8  500E               	movf	___fladd@aexp^0,w,c
  5187   001ADA  5C0F               	subwf	___fladd@bexp^0,w,c
  5188   001ADC  A0D8               	btfss	status,0,c
  5189   001ADE  EF73  F00D         	goto	u4451
  5190   001AE2  EF75  F00D         	goto	u4450
  5191   001AE6                     u4451:
  5192   001AE6  EF4F  F00D         	goto	l1050
  5193   001AEA                     u4450:
  5194   001AEA                     l1048:
  5195   001AEA  BC0D               	btfsc	___fladd@signs^0,6,c
  5196   001AEC  EF7A  F00D         	goto	u4461
  5197   001AF0  EF7C  F00D         	goto	u4460
  5198   001AF4                     u4461:
  5199   001AF4  EFBC  F00D         	goto	l4492
  5200   001AF8                     u4460:
  5201   001AF8  500F               	movf	___fladd@bexp^0,w,c
  5202   001AFA  A4D8               	btfss	status,2,c
  5203   001AFC  EF82  F00D         	goto	u4471
  5204   001B00  EF84  F00D         	goto	u4470
  5205   001B04                     u4471:
  5206   001B04  EF8E  F00D         	goto	l4474
  5207   001B08                     u4470:
  5208   001B08  0E00               	movlw	0
  5209   001B0A  6E01               	movwf	?___fladd^0,c
  5210   001B0C  0E00               	movlw	0
  5211   001B0E  6E02               	movwf	(?___fladd+1)^0,c
  5212   001B10  0E00               	movlw	0
  5213   001B12  6E03               	movwf	(?___fladd+2)^0,c
  5214   001B14  0E00               	movlw	0
  5215   001B16  6E04               	movwf	(?___fladd+3)^0,c
  5216   001B18  EFDD  F00E         	goto	l1057
  5217   001B1C                     l4474:
  5218   001B1C  5005               	movf	___fladd@a^0,w,c
  5219   001B1E  2601               	addwf	___fladd@b^0,f,c
  5220   001B20  5006               	movf	(___fladd@a+1)^0,w,c
  5221   001B22  2202               	addwfc	(___fladd@b+1)^0,f,c
  5222   001B24  5007               	movf	(___fladd@a+2)^0,w,c
  5223   001B26  2203               	addwfc	(___fladd@b+2)^0,f,c
  5224   001B28  5008               	movf	(___fladd@a+3)^0,w,c
  5225   001B2A  2204               	addwfc	(___fladd@b+3)^0,f,c
  5226   001B2C  A004               	btfss	(___fladd@b+3)^0,0,c
  5227   001B2E  EF9B  F00D         	goto	u4481
  5228   001B32  EF9D  F00D         	goto	u4480
  5229   001B36                     u4481:
  5230   001B36  EF49  F00E         	goto	l4528
  5231   001B3A                     u4480:
  5232   001B3A  A010               	btfss	___fladd@grs^0,0,c
  5233   001B3C  EFA2  F00D         	goto	u4491
  5234   001B40  EFA4  F00D         	goto	u4490
  5235   001B44                     u4491:
  5236   001B44  EFAA  F00D         	goto	l4482
  5237   001B48                     u4490:
  5238   001B48  90D8               	bcf	status,0,c
  5239   001B4A  3010               	rrcf	___fladd@grs^0,w,c
  5240   001B4C  0901               	iorlw	1
  5241   001B4E  6E10               	movwf	___fladd@grs^0,c
  5242   001B50  EFAC  F00D         	goto	l4484
  5243   001B54                     l4482:
  5244   001B54  90D8               	bcf	status,0,c
  5245   001B56  3210               	rrcf	___fladd@grs^0,f,c
  5246   001B58                     l4484:
  5247   001B58  A001               	btfss	___fladd@b^0,0,c
  5248   001B5A  EFB1  F00D         	goto	u4501
  5249   001B5E  EFB3  F00D         	goto	u4500
  5250   001B62                     u4501:
  5251   001B62  EFB4  F00D         	goto	l4488
  5252   001B66                     u4500:
  5253   001B66  8E10               	bsf	___fladd@grs^0,7,c
  5254   001B68                     l4488:
  5255   001B68  3404               	rlcf	(___fladd@b+3)^0,w,c
  5256   001B6A  3204               	rrcf	(___fladd@b+3)^0,f,c
  5257   001B6C  3203               	rrcf	(___fladd@b+2)^0,f,c
  5258   001B6E  3202               	rrcf	(___fladd@b+1)^0,f,c
  5259   001B70  3201               	rrcf	___fladd@b^0,f,c
  5260   001B72  2A0F               	incf	___fladd@bexp^0,f,c
  5261   001B74  EF49  F00E         	goto	l4528
  5262   001B78                     l4492:
  5263   001B78  5005               	movf	___fladd@a^0,w,c
  5264   001B7A  5C01               	subwf	___fladd@b^0,w,c
  5265   001B7C  5006               	movf	(___fladd@a+1)^0,w,c
  5266   001B7E  5802               	subwfb	(___fladd@b+1)^0,w,c
  5267   001B80  5007               	movf	(___fladd@a+2)^0,w,c
  5268   001B82  5803               	subwfb	(___fladd@b+2)^0,w,c
  5269   001B84  5004               	movf	(___fladd@b+3)^0,w,c
  5270   001B86  0A80               	xorlw	128
  5271   001B88  6E09               	movwf	??___fladd^0,c
  5272   001B8A  5008               	movf	(___fladd@a+3)^0,w,c
  5273   001B8C  0A80               	xorlw	128
  5274   001B8E  5809               	subwfb	??___fladd^0,w,c
  5275   001B90  B0D8               	btfsc	status,0,c
  5276   001B92  EFCD  F00D         	goto	u4511
  5277   001B96  EFCF  F00D         	goto	u4510
  5278   001B9A                     u4511:
  5279   001B9A  EFFA  F00D         	goto	l4502
  5280   001B9E                     u4510:
  5281   001B9E  5001               	movf	___fladd@b^0,w,c
  5282   001BA0  5C05               	subwf	___fladd@a^0,w,c
  5283   001BA2  6E09               	movwf	??___fladd^0,c
  5284   001BA4  5002               	movf	(___fladd@b+1)^0,w,c
  5285   001BA6  5806               	subwfb	(___fladd@a+1)^0,w,c
  5286   001BA8  6E0A               	movwf	(??___fladd+1)^0,c
  5287   001BAA  5003               	movf	(___fladd@b+2)^0,w,c
  5288   001BAC  5807               	subwfb	(___fladd@a+2)^0,w,c
  5289   001BAE  6E0B               	movwf	(??___fladd+2)^0,c
  5290   001BB0  5004               	movf	(___fladd@b+3)^0,w,c
  5291   001BB2  5808               	subwfb	(___fladd@a+3)^0,w,c
  5292   001BB4  6E0C               	movwf	(??___fladd+3)^0,c
  5293   001BB6  0EFF               	movlw	255
  5294   001BB8  2409               	addwf	??___fladd^0,w,c
  5295   001BBA  6E01               	movwf	___fladd@b^0,c
  5296   001BBC  0EFF               	movlw	255
  5297   001BBE  200A               	addwfc	(??___fladd+1)^0,w,c
  5298   001BC0  6E02               	movwf	(___fladd@b+1)^0,c
  5299   001BC2  0EFF               	movlw	255
  5300   001BC4  200B               	addwfc	(??___fladd+2)^0,w,c
  5301   001BC6  6E03               	movwf	(___fladd@b+2)^0,c
  5302   001BC8  0EFF               	movlw	255
  5303   001BCA  200C               	addwfc	(??___fladd+3)^0,w,c
  5304   001BCC  6E04               	movwf	(___fladd@b+3)^0,c
  5305   001BCE  0E80               	movlw	128
  5306   001BD0  1A0D               	xorwf	___fladd@signs^0,f,c
  5307   001BD2  6C10               	negf	___fladd@grs^0,c
  5308   001BD4  5010               	movf	___fladd@grs^0,w,c
  5309   001BD6  A4D8               	btfss	status,2,c
  5310   001BD8  EFF0  F00D         	goto	u4521
  5311   001BDC  EFF2  F00D         	goto	u4520
  5312   001BE0                     u4521:
  5313   001BE0  EF02  F00E         	goto	l1065
  5314   001BE4                     u4520:
  5315   001BE4  0E01               	movlw	1
  5316   001BE6  2601               	addwf	___fladd@b^0,f,c
  5317   001BE8  0E00               	movlw	0
  5318   001BEA  2202               	addwfc	(___fladd@b+1)^0,f,c
  5319   001BEC  2203               	addwfc	(___fladd@b+2)^0,f,c
  5320   001BEE  2204               	addwfc	(___fladd@b+3)^0,f,c
  5321   001BF0  EF02  F00E         	goto	l1065
  5322   001BF4                     l4502:
  5323   001BF4  5005               	movf	___fladd@a^0,w,c
  5324   001BF6  5E01               	subwf	___fladd@b^0,f,c
  5325   001BF8  5006               	movf	(___fladd@a+1)^0,w,c
  5326   001BFA  5A02               	subwfb	(___fladd@b+1)^0,f,c
  5327   001BFC  5007               	movf	(___fladd@a+2)^0,w,c
  5328   001BFE  5A03               	subwfb	(___fladd@b+2)^0,f,c
  5329   001C00  5008               	movf	(___fladd@a+3)^0,w,c
  5330   001C02  5A04               	subwfb	(___fladd@b+3)^0,f,c
  5331   001C04                     l1065:
  5332   001C04  5001               	movf	___fladd@b^0,w,c
  5333   001C06  1002               	iorwf	(___fladd@b+1)^0,w,c
  5334   001C08  1003               	iorwf	(___fladd@b+2)^0,w,c
  5335   001C0A  1004               	iorwf	(___fladd@b+3)^0,w,c
  5336   001C0C  A4D8               	btfss	status,2,c
  5337   001C0E  EF0B  F00E         	goto	u4531
  5338   001C12  EF0D  F00E         	goto	u4530
  5339   001C16                     u4531:
  5340   001C16  EF42  F00E         	goto	l4526
  5341   001C1A                     u4530:
  5342   001C1A  5010               	movf	___fladd@grs^0,w,c
  5343   001C1C  A4D8               	btfss	status,2,c
  5344   001C1E  EF13  F00E         	goto	u4541
  5345   001C22  EF15  F00E         	goto	u4540
  5346   001C26                     u4541:
  5347   001C26  EF42  F00E         	goto	l4526
  5348   001C2A                     u4540:
  5349   001C2A  0E00               	movlw	0
  5350   001C2C  6E01               	movwf	?___fladd^0,c
  5351   001C2E  0E00               	movlw	0
  5352   001C30  6E02               	movwf	(?___fladd+1)^0,c
  5353   001C32  0E00               	movlw	0
  5354   001C34  6E03               	movwf	(?___fladd+2)^0,c
  5355   001C36  0E00               	movlw	0
  5356   001C38  6E04               	movwf	(?___fladd+3)^0,c
  5357   001C3A  EFDD  F00E         	goto	l1057
  5358   001C3E                     l4510:
  5359   001C3E  90D8               	bcf	status,0,c
  5360   001C40  3601               	rlcf	___fladd@b^0,f,c
  5361   001C42  3602               	rlcf	(___fladd@b+1)^0,f,c
  5362   001C44  3603               	rlcf	(___fladd@b+2)^0,f,c
  5363   001C46  3604               	rlcf	(___fladd@b+3)^0,f,c
  5364   001C48  AE10               	btfss	___fladd@grs^0,7,c
  5365   001C4A  EF29  F00E         	goto	u4551
  5366   001C4E  EF2B  F00E         	goto	u4550
  5367   001C52                     u4551:
  5368   001C52  EF2C  F00E         	goto	l4516
  5369   001C56                     u4550:
  5370   001C56  8001               	bsf	___fladd@b^0,0,c
  5371   001C58                     l4516:
  5372   001C58  A010               	btfss	___fladd@grs^0,0,c
  5373   001C5A  EF31  F00E         	goto	u4561
  5374   001C5E  EF33  F00E         	goto	u4560
  5375   001C62                     u4561:
  5376   001C62  EF37  F00E         	goto	l4520
  5377   001C66                     u4560:
  5378   001C66  80D8               	bsf	status,0,c
  5379   001C68  3610               	rlcf	___fladd@grs^0,f,c
  5380   001C6A  EF39  F00E         	goto	l4522
  5381   001C6E                     l4520:
  5382   001C6E  90D8               	bcf	status,0,c
  5383   001C70  3610               	rlcf	___fladd@grs^0,f,c
  5384   001C72                     l4522:
  5385   001C72  500F               	movf	___fladd@bexp^0,w,c
  5386   001C74  B4D8               	btfsc	status,2,c
  5387   001C76  EF3F  F00E         	goto	u4571
  5388   001C7A  EF41  F00E         	goto	u4570
  5389   001C7E                     u4571:
  5390   001C7E  EF42  F00E         	goto	l4526
  5391   001C82                     u4570:
  5392   001C82  060F               	decf	___fladd@bexp^0,f,c
  5393   001C84                     l4526:
  5394   001C84  AE03               	btfss	(___fladd@b+2)^0,7,c
  5395   001C86  EF47  F00E         	goto	u4581
  5396   001C8A  EF49  F00E         	goto	u4580
  5397   001C8E                     u4581:
  5398   001C8E  EF1F  F00E         	goto	l4510
  5399   001C92                     u4580:
  5400   001C92                     l4528:
  5401   001C92  0E00               	movlw	0
  5402   001C94  6E0E               	movwf	___fladd@aexp^0,c
  5403   001C96  AE10               	btfss	___fladd@grs^0,7,c
  5404   001C98  EF50  F00E         	goto	u4591
  5405   001C9C  EF52  F00E         	goto	u4590
  5406   001CA0                     u4591:
  5407   001CA0  EF6A  F00E         	goto	l1074
  5408   001CA4                     u4590:
  5409   001CA4  C010  F009         	movff	___fladd@grs,??___fladd
  5410   001CA8  0E7F               	movlw	127
  5411   001CAA  1609               	andwf	??___fladd^0,f,c
  5412   001CAC  B4D8               	btfsc	status,2,c
  5413   001CAE  EF5B  F00E         	goto	u4601
  5414   001CB2  EF5D  F00E         	goto	u4600
  5415   001CB6                     u4601:
  5416   001CB6  EF61  F00E         	goto	l1075
  5417   001CBA                     u4600:
  5418   001CBA                     l4534:
  5419   001CBA  0E01               	movlw	1
  5420   001CBC  6E0E               	movwf	___fladd@aexp^0,c
  5421   001CBE  EF6A  F00E         	goto	l1074
  5422   001CC2                     l1075:
  5423   001CC2  A001               	btfss	___fladd@b^0,0,c
  5424   001CC4  EF66  F00E         	goto	u4611
  5425   001CC8  EF68  F00E         	goto	u4610
  5426   001CCC                     u4611:
  5427   001CCC  EF6A  F00E         	goto	l1074
  5428   001CD0                     u4610:
  5429   001CD0  EF5D  F00E         	goto	l4534
  5430   001CD4                     l1074:
  5431   001CD4  500E               	movf	___fladd@aexp^0,w,c
  5432   001CD6  B4D8               	btfsc	status,2,c
  5433   001CD8  EF70  F00E         	goto	u4621
  5434   001CDC  EF72  F00E         	goto	u4620
  5435   001CE0                     u4621:
  5436   001CE0  EF9D  F00E         	goto	l4546
  5437   001CE4                     u4620:
  5438   001CE4  0E01               	movlw	1
  5439   001CE6  2601               	addwf	___fladd@b^0,f,c
  5440   001CE8  0E00               	movlw	0
  5441   001CEA  2202               	addwfc	(___fladd@b+1)^0,f,c
  5442   001CEC  2203               	addwfc	(___fladd@b+2)^0,f,c
  5443   001CEE  2204               	addwfc	(___fladd@b+3)^0,f,c
  5444   001CF0  A004               	btfss	(___fladd@b+3)^0,0,c
  5445   001CF2  EF7D  F00E         	goto	u4631
  5446   001CF6  EF7F  F00E         	goto	u4630
  5447   001CFA                     u4631:
  5448   001CFA  EF9D  F00E         	goto	l4546
  5449   001CFE                     u4630:
  5450   001CFE  C001  F009         	movff	___fladd@b,??___fladd
  5451   001D02  C002  F00A         	movff	___fladd@b+1,??___fladd+1
  5452   001D06  C003  F00B         	movff	___fladd@b+2,??___fladd+2
  5453   001D0A  C004  F00C         	movff	___fladd@b+3,??___fladd+3
  5454   001D0E  340C               	rlcf	(??___fladd+3)^0,w,c
  5455   001D10  320C               	rrcf	(??___fladd+3)^0,f,c
  5456   001D12  320B               	rrcf	(??___fladd+2)^0,f,c
  5457   001D14  320A               	rrcf	(??___fladd+1)^0,f,c
  5458   001D16  3209               	rrcf	??___fladd^0,f,c
  5459   001D18  C009  F001         	movff	??___fladd,___fladd@b
  5460   001D1C  C00A  F002         	movff	??___fladd+1,___fladd@b+1
  5461   001D20  C00B  F003         	movff	??___fladd+2,___fladd@b+2
  5462   001D24  C00C  F004         	movff	??___fladd+3,___fladd@b+3
  5463   001D28  280F               	incf	___fladd@bexp^0,w,c
  5464   001D2A  B4D8               	btfsc	status,2,c
  5465   001D2C  EF9A  F00E         	goto	u4641
  5466   001D30  EF9C  F00E         	goto	u4640
  5467   001D34                     u4641:
  5468   001D34  EF9D  F00E         	goto	l4546
  5469   001D38                     u4640:
  5470   001D38  2A0F               	incf	___fladd@bexp^0,f,c
  5471   001D3A                     l4546:
  5472   001D3A  280F               	incf	___fladd@bexp^0,w,c
  5473   001D3C  B4D8               	btfsc	status,2,c
  5474   001D3E  EFA3  F00E         	goto	u4651
  5475   001D42  EFA5  F00E         	goto	u4650
  5476   001D46                     u4651:
  5477   001D46  EFAD  F00E         	goto	l4550
  5478   001D4A                     u4650:
  5479   001D4A  500F               	movf	___fladd@bexp^0,w,c
  5480   001D4C  A4D8               	btfss	status,2,c
  5481   001D4E  EFAB  F00E         	goto	u4661
  5482   001D52  EFAD  F00E         	goto	u4660
  5483   001D56                     u4661:
  5484   001D56  EFBF  F00E         	goto	l4554
  5485   001D5A                     u4660:
  5486   001D5A                     l4550:
  5487   001D5A  0E00               	movlw	0
  5488   001D5C  6E01               	movwf	___fladd@b^0,c
  5489   001D5E  0E00               	movlw	0
  5490   001D60  6E02               	movwf	(___fladd@b+1)^0,c
  5491   001D62  0E00               	movlw	0
  5492   001D64  6E03               	movwf	(___fladd@b+2)^0,c
  5493   001D66  0E00               	movlw	0
  5494   001D68  6E04               	movwf	(___fladd@b+3)^0,c
  5495   001D6A  500F               	movf	___fladd@bexp^0,w,c
  5496   001D6C  A4D8               	btfss	status,2,c
  5497   001D6E  EFBB  F00E         	goto	u4671
  5498   001D72  EFBD  F00E         	goto	u4670
  5499   001D76                     u4671:
  5500   001D76  EFBF  F00E         	goto	l4554
  5501   001D7A                     u4670:
  5502   001D7A  0E00               	movlw	0
  5503   001D7C  6E0D               	movwf	___fladd@signs^0,c
  5504   001D7E                     l4554:
  5505   001D7E  A00F               	btfss	___fladd@bexp^0,0,c
  5506   001D80  EFC4  F00E         	goto	u4681
  5507   001D84  EFC6  F00E         	goto	u4680
  5508   001D88                     u4681:
  5509   001D88  EFC9  F00E         	goto	l4558
  5510   001D8C                     u4680:
  5511   001D8C  8E03               	bsf	(___fladd@b+2)^0,7,c
  5512   001D8E  EFCA  F00E         	goto	l4560
  5513   001D92                     l4558:
  5514   001D92  9E03               	bcf	(___fladd@b+2)^0,7,c
  5515   001D94                     l4560:
  5516   001D94  90D8               	bcf	status,0,c
  5517   001D96  300F               	rrcf	___fladd@bexp^0,w,c
  5518   001D98  6E04               	movwf	(___fladd@b+3)^0,c
  5519   001D9A  AE0D               	btfss	___fladd@signs^0,7,c
  5520   001D9C  EFD2  F00E         	goto	u4691
  5521   001DA0  EFD4  F00E         	goto	u4690
  5522   001DA4                     u4691:
  5523   001DA4  EFD5  F00E         	goto	l4566
  5524   001DA8                     u4690:
  5525   001DA8  8E04               	bsf	(___fladd@b+3)^0,7,c
  5526   001DAA                     l4566:
  5527   001DAA  C001  F001         	movff	___fladd@b,?___fladd
  5528   001DAE  C002  F002         	movff	___fladd@b+1,?___fladd+1
  5529   001DB2  C003  F003         	movff	___fladd@b+2,?___fladd+2
  5530   001DB6  C004  F004         	movff	___fladd@b+3,?___fladd+3
  5531   001DBA                     l1057:
  5532   001DBA  0012               	return		;funcret
  5533   001DBC                     __end_of___fladd:
  5534                           	callstack 0
  5535                           
  5536 ;; *************** function ___flneg *****************
  5537 ;; Defined at:
  5538 ;;		line 15 in file "/opt/microchip/xc8/v2.45/pic/sources/c99/common/flneg.c"
  5539 ;; Parameters:    Size  Location     Type
  5540 ;;  f1              4    0[COMRAM] unsigned char 
  5541 ;; Auto vars:     Size  Location     Type
  5542 ;;		None
  5543 ;; Return value:  Size  Location     Type
  5544 ;;                  4    0[COMRAM] unsigned char 
  5545 ;; Registers used:
  5546 ;;		wreg, status,2, status,0
  5547 ;; Tracked objects:
  5548 ;;		On entry : 0/0
  5549 ;;		On exit  : 0/0
  5550 ;;		Unchanged: 0/0
  5551 ;; Data sizes:     COMRAM   BANK0   BANK1   BANK2   BANK3   BANK4   BANK5   BANK6   BANK7   BANK8   BANK9  BANK10  BANK1
      +1  BANK12  BANK14
  5552 ;;      Params:         4       0       0       0       0       0       0       0       0       0       0       0       
      +0       0       0
  5553 ;;      Locals:         0       0       0       0       0       0       0       0       0       0       0       0       
      +0       0       0
  5554 ;;      Temps:          0       0       0       0       0       0       0       0       0       0       0       0       
      +0       0       0
  5555 ;;      Totals:         4       0       0       0       0       0       0       0       0       0       0       0       
      +0       0       0
  5556 ;;Total ram usage:        4 bytes
  5557 ;; Hardware stack levels used: 1
  5558 ;; This function calls:
  5559 ;;		Nothing
  5560 ;; This function is called by:
  5561 ;;		_efgtoa
  5562 ;; This function uses a non-reentrant model
  5563 ;;
  5564                           
  5565                           	psect	text19
  5566   0039DA                     __ptext19:
  5567                           	callstack 0
  5568   0039DA                     ___flneg:
  5569                           	callstack 26
  5570   0039DA  5001               	movf	___flneg@f1^0,w,c
  5571   0039DC  1002               	iorwf	(___flneg@f1+1)^0,w,c
  5572   0039DE  1003               	iorwf	(___flneg@f1+2)^0,w,c
  5573   0039E0  1004               	iorwf	(___flneg@f1+3)^0,w,c
  5574   0039E2  B4D8               	btfsc	status,2,c
  5575   0039E4  EFF6  F01C         	goto	u5211
  5576   0039E8  EFF8  F01C         	goto	u5210
  5577   0039EC                     u5211:
  5578   0039EC  EF00  F01D         	goto	l4894
  5579   0039F0                     u5210:
  5580   0039F0  0E00               	movlw	0
  5581   0039F2  1A01               	xorwf	___flneg@f1^0,f,c
  5582   0039F4  0E00               	movlw	0
  5583   0039F6  1A02               	xorwf	(___flneg@f1+1)^0,f,c
  5584   0039F8  0E00               	movlw	0
  5585   0039FA  1A03               	xorwf	(___flneg@f1+2)^0,f,c
  5586   0039FC  0E80               	movlw	128
  5587   0039FE  1A04               	xorwf	(___flneg@f1+3)^0,f,c
  5588   003A00                     l4894:
  5589   003A00  C001  F001         	movff	___flneg@f1,?___flneg
  5590   003A04  C002  F002         	movff	___flneg@f1+1,?___flneg+1
  5591   003A08  C003  F003         	movff	___flneg@f1+2,?___flneg+2
  5592   003A0C  C004  F004         	movff	___flneg@f1+3,?___flneg+3
  5593   003A10  0012               	return		;funcret
  5594   003A12                     __end_of___flneg:
  5595                           	callstack 0
  5596                           
  5597 ;; *************** function ___flmul *****************
  5598 ;; Defined at:
  5599 ;;		line 8 in file "/opt/microchip/xc8/v2.45/pic/sources/c99/common/sprcmul.c"
  5600 ;; Parameters:    Size  Location     Type
  5601 ;;  b               4   21[COMRAM] unsigned char 
  5602 ;;  a               4   25[COMRAM] unsigned char 
  5603 ;; Auto vars:     Size  Location     Type
  5604 ;;  prod            4   40[COMRAM] struct .
  5605 ;;  grs             4   35[COMRAM] unsigned long 
  5606 ;;  temp            2   44[COMRAM] struct .
  5607 ;;  bexp            1   39[COMRAM] unsigned char 
  5608 ;;  aexp            1   34[COMRAM] unsigned char 
  5609 ;;  sign            1   33[COMRAM] unsigned char 
  5610 ;; Return value:  Size  Location     Type
  5611 ;;                  4   21[COMRAM] unsigned char 
  5612 ;; Registers used:
  5613 ;;		wreg, status,2, status,0, prodl, prodh
  5614 ;; Tracked objects:
  5615 ;;		On entry : 0/0
  5616 ;;		On exit  : 0/0
  5617 ;;		Unchanged: 0/0
  5618 ;; Data sizes:     COMRAM   BANK0   BANK1   BANK2   BANK3   BANK4   BANK5   BANK6   BANK7   BANK8   BANK9  BANK10  BANK1
      +1  BANK12  BANK14
  5619 ;;      Params:         8       0       0       0       0       0       0       0       0       0       0       0       
      +0       0       0
  5620 ;;      Locals:        13       0       0       0       0       0       0       0       0       0       0       0       
      +0       0       0
  5621 ;;      Temps:          4       0       0       0       0       0       0       0       0       0       0       0       
      +0       0       0
  5622 ;;      Totals:        25       0       0       0       0       0       0       0       0       0       0       0       
      +0       0       0
  5623 ;;Total ram usage:       25 bytes
  5624 ;; Hardware stack levels used: 1
  5625 ;; This function calls:
  5626 ;;		Nothing
  5627 ;; This function is called by:
  5628 ;;		_main
  5629 ;;		_efgtoa
  5630 ;; This function uses a non-reentrant model
  5631 ;;
  5632                           
  5633                           	psect	text20
  5634   001DBC                     __ptext20:
  5635                           	callstack 0
  5636   001DBC                     ___flmul:
  5637                           	callstack 26
  5638   001DBC  5019               	movf	(___flmul@b+3)^0,w,c
  5639   001DBE  0B80               	andlw	128
  5640   001DC0  6E22               	movwf	___flmul@sign^0,c
  5641   001DC2  5019               	movf	(___flmul@b+3)^0,w,c
  5642   001DC4  2419               	addwf	(___flmul@b+3)^0,w,c
  5643   001DC6  6E28               	movwf	___flmul@bexp^0,c
  5644   001DC8  AE18               	btfss	(___flmul@b+2)^0,7,c
  5645   001DCA  EFE9  F00E         	goto	u4941
  5646   001DCE  EFEB  F00E         	goto	u4940
  5647   001DD2                     u4941:
  5648   001DD2  EFEC  F00E         	goto	l4722
  5649   001DD6                     u4940:
  5650   001DD6  8028               	bsf	___flmul@bexp^0,0,c
  5651   001DD8                     l4722:
  5652   001DD8  5028               	movf	___flmul@bexp^0,w,c
  5653   001DDA  B4D8               	btfsc	status,2,c
  5654   001DDC  EFF2  F00E         	goto	u4951
  5655   001DE0  EFF4  F00E         	goto	u4950
  5656   001DE4                     u4951:
  5657   001DE4  EF07  F00F         	goto	l4730
  5658   001DE8                     u4950:
  5659   001DE8  2828               	incf	___flmul@bexp^0,w,c
  5660   001DEA  A4D8               	btfss	status,2,c
  5661   001DEC  EFFA  F00E         	goto	u4961
  5662   001DF0  EFFC  F00E         	goto	u4960
  5663   001DF4                     u4961:
  5664   001DF4  EF04  F00F         	goto	l4728
  5665   001DF8                     u4960:
  5666   001DF8  0E00               	movlw	0
  5667   001DFA  6E16               	movwf	___flmul@b^0,c
  5668   001DFC  0E00               	movlw	0
  5669   001DFE  6E17               	movwf	(___flmul@b+1)^0,c
  5670   001E00  0E00               	movlw	0
  5671   001E02  6E18               	movwf	(___flmul@b+2)^0,c
  5672   001E04  0E00               	movlw	0
  5673   001E06  6E19               	movwf	(___flmul@b+3)^0,c
  5674   001E08                     l4728:
  5675   001E08  8E18               	bsf	(___flmul@b+2)^0,7,c
  5676   001E0A  EF0F  F00F         	goto	l4732
  5677   001E0E                     l4730:
  5678   001E0E  0E00               	movlw	0
  5679   001E10  6E16               	movwf	___flmul@b^0,c
  5680   001E12  0E00               	movlw	0
  5681   001E14  6E17               	movwf	(___flmul@b+1)^0,c
  5682   001E16  0E00               	movlw	0
  5683   001E18  6E18               	movwf	(___flmul@b+2)^0,c
  5684   001E1A  0E00               	movlw	0
  5685   001E1C  6E19               	movwf	(___flmul@b+3)^0,c
  5686   001E1E                     l4732:
  5687   001E1E  501D               	movf	(___flmul@a+3)^0,w,c
  5688   001E20  0B80               	andlw	128
  5689   001E22  1A22               	xorwf	___flmul@sign^0,f,c
  5690   001E24  501D               	movf	(___flmul@a+3)^0,w,c
  5691   001E26  241D               	addwf	(___flmul@a+3)^0,w,c
  5692   001E28  6E23               	movwf	___flmul@aexp^0,c
  5693   001E2A  AE1C               	btfss	(___flmul@a+2)^0,7,c
  5694   001E2C  EF1A  F00F         	goto	u4971
  5695   001E30  EF1C  F00F         	goto	u4970
  5696   001E34                     u4971:
  5697   001E34  EF1D  F00F         	goto	l4740
  5698   001E38                     u4970:
  5699   001E38  8023               	bsf	___flmul@aexp^0,0,c
  5700   001E3A                     l4740:
  5701   001E3A  5023               	movf	___flmul@aexp^0,w,c
  5702   001E3C  B4D8               	btfsc	status,2,c
  5703   001E3E  EF23  F00F         	goto	u4981
  5704   001E42  EF25  F00F         	goto	u4980
  5705   001E46                     u4981:
  5706   001E46  EF38  F00F         	goto	l4748
  5707   001E4A                     u4980:
  5708   001E4A  2823               	incf	___flmul@aexp^0,w,c
  5709   001E4C  A4D8               	btfss	status,2,c
  5710   001E4E  EF2B  F00F         	goto	u4991
  5711   001E52  EF2D  F00F         	goto	u4990
  5712   001E56                     u4991:
  5713   001E56  EF35  F00F         	goto	l4746
  5714   001E5A                     u4990:
  5715   001E5A  0E00               	movlw	0
  5716   001E5C  6E1A               	movwf	___flmul@a^0,c
  5717   001E5E  0E00               	movlw	0
  5718   001E60  6E1B               	movwf	(___flmul@a+1)^0,c
  5719   001E62  0E00               	movlw	0
  5720   001E64  6E1C               	movwf	(___flmul@a+2)^0,c
  5721   001E66  0E00               	movlw	0
  5722   001E68  6E1D               	movwf	(___flmul@a+3)^0,c
  5723   001E6A                     l4746:
  5724   001E6A  8E1C               	bsf	(___flmul@a+2)^0,7,c
  5725   001E6C  EF40  F00F         	goto	l1134
  5726   001E70                     l4748:
  5727   001E70  0E00               	movlw	0
  5728   001E72  6E1A               	movwf	___flmul@a^0,c
  5729   001E74  0E00               	movlw	0
  5730   001E76  6E1B               	movwf	(___flmul@a+1)^0,c
  5731   001E78  0E00               	movlw	0
  5732   001E7A  6E1C               	movwf	(___flmul@a+2)^0,c
  5733   001E7C  0E00               	movlw	0
  5734   001E7E  6E1D               	movwf	(___flmul@a+3)^0,c
  5735   001E80                     l1134:
  5736   001E80  5023               	movf	___flmul@aexp^0,w,c
  5737   001E82  B4D8               	btfsc	status,2,c
  5738   001E84  EF46  F00F         	goto	u5001
  5739   001E88  EF48  F00F         	goto	u5000
  5740   001E8C                     u5001:
  5741   001E8C  EF50  F00F         	goto	l4752
  5742   001E90                     u5000:
  5743   001E90  5028               	movf	___flmul@bexp^0,w,c
  5744   001E92  A4D8               	btfss	status,2,c
  5745   001E94  EF4E  F00F         	goto	u5011
  5746   001E98  EF50  F00F         	goto	u5010
  5747   001E9C                     u5011:
  5748   001E9C  EF5A  F00F         	goto	l4756
  5749   001EA0                     u5010:
  5750   001EA0                     l4752:
  5751   001EA0  0E00               	movlw	0
  5752   001EA2  6E16               	movwf	?___flmul^0,c
  5753   001EA4  0E00               	movlw	0
  5754   001EA6  6E17               	movwf	(?___flmul+1)^0,c
  5755   001EA8  0E00               	movlw	0
  5756   001EAA  6E18               	movwf	(?___flmul+2)^0,c
  5757   001EAC  0E00               	movlw	0
  5758   001EAE  6E19               	movwf	(?___flmul+3)^0,c
  5759   001EB0  EFF2  F010         	goto	l1138
  5760   001EB4                     l4756:
  5761   001EB4  501C               	movf	(___flmul@a+2)^0,w,c
  5762   001EB6  0216               	mulwf	___flmul@b^0,c
  5763   001EB8  CFF3 F02D          	movff	prodl,___flmul@temp
  5764   001EBC  CFF4 F02E          	movff	prodh,___flmul@temp+1
  5765   001EC0  502D               	movf	___flmul@temp^0,w,c
  5766   001EC2  6E24               	movwf	___flmul@grs^0,c
  5767   001EC4  6A25               	clrf	(___flmul@grs+1)^0,c
  5768   001EC6  6A26               	clrf	(___flmul@grs+2)^0,c
  5769   001EC8  6A27               	clrf	(___flmul@grs+3)^0,c
  5770   001ECA  502E               	movf	(___flmul@temp+1)^0,w,c
  5771   001ECC  6E29               	movwf	___flmul@prod^0,c
  5772   001ECE  6A2A               	clrf	(___flmul@prod+1)^0,c
  5773   001ED0  6A2B               	clrf	(___flmul@prod+2)^0,c
  5774   001ED2  6A2C               	clrf	(___flmul@prod+3)^0,c
  5775   001ED4  501B               	movf	(___flmul@a+1)^0,w,c
  5776   001ED6  0217               	mulwf	(___flmul@b+1)^0,c
  5777   001ED8  CFF3 F02D          	movff	prodl,___flmul@temp
  5778   001EDC  CFF4 F02E          	movff	prodh,___flmul@temp+1
  5779   001EE0  502D               	movf	___flmul@temp^0,w,c
  5780   001EE2  2624               	addwf	___flmul@grs^0,f,c
  5781   001EE4  0E00               	movlw	0
  5782   001EE6  2225               	addwfc	(___flmul@grs+1)^0,f,c
  5783   001EE8  2226               	addwfc	(___flmul@grs+2)^0,f,c
  5784   001EEA  2227               	addwfc	(___flmul@grs+3)^0,f,c
  5785   001EEC  502E               	movf	(___flmul@temp+1)^0,w,c
  5786   001EEE  2629               	addwf	___flmul@prod^0,f,c
  5787   001EF0  0E00               	movlw	0
  5788   001EF2  222A               	addwfc	(___flmul@prod+1)^0,f,c
  5789   001EF4  222B               	addwfc	(___flmul@prod+2)^0,f,c
  5790   001EF6  222C               	addwfc	(___flmul@prod+3)^0,f,c
  5791   001EF8  501A               	movf	___flmul@a^0,w,c
  5792   001EFA  0218               	mulwf	(___flmul@b+2)^0,c
  5793   001EFC  CFF3 F02D          	movff	prodl,___flmul@temp
  5794   001F00  CFF4 F02E          	movff	prodh,___flmul@temp+1
  5795   001F04  502D               	movf	___flmul@temp^0,w,c
  5796   001F06  2624               	addwf	___flmul@grs^0,f,c
  5797   001F08  0E00               	movlw	0
  5798   001F0A  2225               	addwfc	(___flmul@grs+1)^0,f,c
  5799   001F0C  2226               	addwfc	(___flmul@grs+2)^0,f,c
  5800   001F0E  2227               	addwfc	(___flmul@grs+3)^0,f,c
  5801   001F10  502E               	movf	(___flmul@temp+1)^0,w,c
  5802   001F12  2629               	addwf	___flmul@prod^0,f,c
  5803   001F14  0E00               	movlw	0
  5804   001F16  222A               	addwfc	(___flmul@prod+1)^0,f,c
  5805   001F18  222B               	addwfc	(___flmul@prod+2)^0,f,c
  5806   001F1A  222C               	addwfc	(___flmul@prod+3)^0,f,c
  5807   001F1C  C026  F027         	movff	___flmul@grs+2,___flmul@grs+3
  5808   001F20  C025  F026         	movff	___flmul@grs+1,___flmul@grs+2
  5809   001F24  C024  F025         	movff	___flmul@grs,___flmul@grs+1
  5810   001F28  6A24               	clrf	___flmul@grs^0,c
  5811   001F2A  501A               	movf	___flmul@a^0,w,c
  5812   001F2C  0217               	mulwf	(___flmul@b+1)^0,c
  5813   001F2E  CFF3 F02D          	movff	prodl,___flmul@temp
  5814   001F32  CFF4 F02E          	movff	prodh,___flmul@temp+1
  5815   001F36  502D               	movf	___flmul@temp^0,w,c
  5816   001F38  2624               	addwf	___flmul@grs^0,f,c
  5817   001F3A  502E               	movf	(___flmul@temp+1)^0,w,c
  5818   001F3C  2225               	addwfc	(___flmul@grs+1)^0,f,c
  5819   001F3E  0E00               	movlw	0
  5820   001F40  2226               	addwfc	(___flmul@grs+2)^0,f,c
  5821   001F42  0E00               	movlw	0
  5822   001F44  2227               	addwfc	(___flmul@grs+3)^0,f,c
  5823   001F46  501B               	movf	(___flmul@a+1)^0,w,c
  5824   001F48  0216               	mulwf	___flmul@b^0,c
  5825   001F4A  CFF3 F02D          	movff	prodl,___flmul@temp
  5826   001F4E  CFF4 F02E          	movff	prodh,___flmul@temp+1
  5827   001F52  502D               	movf	___flmul@temp^0,w,c
  5828   001F54  2624               	addwf	___flmul@grs^0,f,c
  5829   001F56  502E               	movf	(___flmul@temp+1)^0,w,c
  5830   001F58  2225               	addwfc	(___flmul@grs+1)^0,f,c
  5831   001F5A  0E00               	movlw	0
  5832   001F5C  2226               	addwfc	(___flmul@grs+2)^0,f,c
  5833   001F5E  0E00               	movlw	0
  5834   001F60  2227               	addwfc	(___flmul@grs+3)^0,f,c
  5835   001F62  C026  F027         	movff	___flmul@grs+2,___flmul@grs+3
  5836   001F66  C025  F026         	movff	___flmul@grs+1,___flmul@grs+2
  5837   001F6A  C024  F025         	movff	___flmul@grs,___flmul@grs+1
  5838   001F6E  6A24               	clrf	___flmul@grs^0,c
  5839   001F70  501A               	movf	___flmul@a^0,w,c
  5840   001F72  0216               	mulwf	___flmul@b^0,c
  5841   001F74  CFF3 F02D          	movff	prodl,___flmul@temp
  5842   001F78  CFF4 F02E          	movff	prodh,___flmul@temp+1
  5843   001F7C  502D               	movf	___flmul@temp^0,w,c
  5844   001F7E  2624               	addwf	___flmul@grs^0,f,c
  5845   001F80  502E               	movf	(___flmul@temp+1)^0,w,c
  5846   001F82  2225               	addwfc	(___flmul@grs+1)^0,f,c
  5847   001F84  0E00               	movlw	0
  5848   001F86  2226               	addwfc	(___flmul@grs+2)^0,f,c
  5849   001F88  0E00               	movlw	0
  5850   001F8A  2227               	addwfc	(___flmul@grs+3)^0,f,c
  5851   001F8C  501C               	movf	(___flmul@a+2)^0,w,c
  5852   001F8E  0217               	mulwf	(___flmul@b+1)^0,c
  5853   001F90  CFF3 F02D          	movff	prodl,___flmul@temp
  5854   001F94  CFF4 F02E          	movff	prodh,___flmul@temp+1
  5855   001F98  502D               	movf	___flmul@temp^0,w,c
  5856   001F9A  2629               	addwf	___flmul@prod^0,f,c
  5857   001F9C  502E               	movf	(___flmul@temp+1)^0,w,c
  5858   001F9E  222A               	addwfc	(___flmul@prod+1)^0,f,c
  5859   001FA0  0E00               	movlw	0
  5860   001FA2  222B               	addwfc	(___flmul@prod+2)^0,f,c
  5861   001FA4  0E00               	movlw	0
  5862   001FA6  222C               	addwfc	(___flmul@prod+3)^0,f,c
  5863   001FA8  501B               	movf	(___flmul@a+1)^0,w,c
  5864   001FAA  0218               	mulwf	(___flmul@b+2)^0,c
  5865   001FAC  CFF3 F02D          	movff	prodl,___flmul@temp
  5866   001FB0  CFF4 F02E          	movff	prodh,___flmul@temp+1
  5867   001FB4  502D               	movf	___flmul@temp^0,w,c
  5868   001FB6  2629               	addwf	___flmul@prod^0,f,c
  5869   001FB8  502E               	movf	(___flmul@temp+1)^0,w,c
  5870   001FBA  222A               	addwfc	(___flmul@prod+1)^0,f,c
  5871   001FBC  0E00               	movlw	0
  5872   001FBE  222B               	addwfc	(___flmul@prod+2)^0,f,c
  5873   001FC0  0E00               	movlw	0
  5874   001FC2  222C               	addwfc	(___flmul@prod+3)^0,f,c
  5875   001FC4  501C               	movf	(___flmul@a+2)^0,w,c
  5876   001FC6  0218               	mulwf	(___flmul@b+2)^0,c
  5877   001FC8  CFF3 F02D          	movff	prodl,___flmul@temp
  5878   001FCC  CFF4 F02E          	movff	prodh,___flmul@temp+1
  5879   001FD0  502D               	movf	___flmul@temp^0,w,c
  5880   001FD2  6E1E               	movwf	??___flmul^0,c
  5881   001FD4  502E               	movf	(___flmul@temp+1)^0,w,c
  5882   001FD6  6E1F               	movwf	(??___flmul+1)^0,c
  5883   001FD8  6A20               	clrf	(??___flmul+2)^0,c
  5884   001FDA  6A21               	clrf	(??___flmul+3)^0,c
  5885   001FDC  C020  F021         	movff	??___flmul+2,??___flmul+3
  5886   001FE0  C01F  F020         	movff	??___flmul+1,??___flmul+2
  5887   001FE4  C01E  F01F         	movff	??___flmul,??___flmul+1
  5888   001FE8  6A1E               	clrf	??___flmul^0,c
  5889   001FEA  501E               	movf	??___flmul^0,w,c
  5890   001FEC  2629               	addwf	___flmul@prod^0,f,c
  5891   001FEE  501F               	movf	(??___flmul+1)^0,w,c
  5892   001FF0  222A               	addwfc	(___flmul@prod+1)^0,f,c
  5893   001FF2  5020               	movf	(??___flmul+2)^0,w,c
  5894   001FF4  222B               	addwfc	(___flmul@prod+2)^0,f,c
  5895   001FF6  5021               	movf	(??___flmul+3)^0,w,c
  5896   001FF8  222C               	addwfc	(___flmul@prod+3)^0,f,c
  5897   001FFA  C024  F01E         	movff	___flmul@grs,??___flmul
  5898   001FFE  C025  F01F         	movff	___flmul@grs+1,??___flmul+1
  5899   002002  C026  F020         	movff	___flmul@grs+2,??___flmul+2
  5900   002006  C027  F021         	movff	___flmul@grs+3,??___flmul+3
  5901   00200A  0E19               	movlw	25
  5902   00200C  EF0D  F010         	goto	u5020
  5903   002010                     u5025:
  5904   002010  90D8               	bcf	status,0,c
  5905   002012  3221               	rrcf	(??___flmul+3)^0,f,c
  5906   002014  3220               	rrcf	(??___flmul+2)^0,f,c
  5907   002016  321F               	rrcf	(??___flmul+1)^0,f,c
  5908   002018  321E               	rrcf	??___flmul^0,f,c
  5909   00201A                     u5020:
  5910   00201A  2EE8               	decfsz	wreg,f,c
  5911   00201C  EF08  F010         	goto	u5025
  5912   002020  501E               	movf	??___flmul^0,w,c
  5913   002022  2629               	addwf	___flmul@prod^0,f,c
  5914   002024  501F               	movf	(??___flmul+1)^0,w,c
  5915   002026  222A               	addwfc	(___flmul@prod+1)^0,f,c
  5916   002028  5020               	movf	(??___flmul+2)^0,w,c
  5917   00202A  222B               	addwfc	(___flmul@prod+2)^0,f,c
  5918   00202C  5021               	movf	(??___flmul+3)^0,w,c
  5919   00202E  222C               	addwfc	(___flmul@prod+3)^0,f,c
  5920   002030  C026  F027         	movff	___flmul@grs+2,___flmul@grs+3
  5921   002034  C025  F026         	movff	___flmul@grs+1,___flmul@grs+2
  5922   002038  C024  F025         	movff	___flmul@grs,___flmul@grs+1
  5923   00203C  6A24               	clrf	___flmul@grs^0,c
  5924   00203E  5023               	movf	___flmul@aexp^0,w,c
  5925   002040  C028  F01E         	movff	___flmul@bexp,??___flmul
  5926   002044  6A1F               	clrf	(??___flmul+1)^0,c
  5927   002046  261E               	addwf	??___flmul^0,f,c
  5928   002048  0E00               	movlw	0
  5929   00204A  221F               	addwfc	(??___flmul+1)^0,f,c
  5930   00204C  0E82               	movlw	130
  5931   00204E  241E               	addwf	??___flmul^0,w,c
  5932   002050  6E2D               	movwf	___flmul@temp^0,c
  5933   002052  0EFF               	movlw	255
  5934   002054  201F               	addwfc	(??___flmul+1)^0,w,c
  5935   002056  6E2E               	movwf	(___flmul@temp+1)^0,c
  5936   002058  EF43  F010         	goto	l4804
  5937   00205C                     l4798:
  5938   00205C  90D8               	bcf	status,0,c
  5939   00205E  3629               	rlcf	___flmul@prod^0,f,c
  5940   002060  362A               	rlcf	(___flmul@prod+1)^0,f,c
  5941   002062  362B               	rlcf	(___flmul@prod+2)^0,f,c
  5942   002064  362C               	rlcf	(___flmul@prod+3)^0,f,c
  5943   002066  AE27               	btfss	(___flmul@grs+3)^0,7,c
  5944   002068  EF38  F010         	goto	u5031
  5945   00206C  EF3A  F010         	goto	u5030
  5946   002070                     u5031:
  5947   002070  EF3B  F010         	goto	l1141
  5948   002074                     u5030:
  5949   002074  8029               	bsf	___flmul@prod^0,0,c
  5950   002076                     l1141:
  5951   002076  90D8               	bcf	status,0,c
  5952   002078  3624               	rlcf	___flmul@grs^0,f,c
  5953   00207A  3625               	rlcf	(___flmul@grs+1)^0,f,c
  5954   00207C  3626               	rlcf	(___flmul@grs+2)^0,f,c
  5955   00207E  3627               	rlcf	(___flmul@grs+3)^0,f,c
  5956   002080  062D               	decf	___flmul@temp^0,f,c
  5957   002082  A0D8               	btfss	status,0,c
  5958   002084  062E               	decf	(___flmul@temp+1)^0,f,c
  5959   002086                     l4804:
  5960   002086  AE2B               	btfss	(___flmul@prod+2)^0,7,c
  5961   002088  EF48  F010         	goto	u5041
  5962   00208C  EF4A  F010         	goto	u5040
  5963   002090                     u5041:
  5964   002090  EF2E  F010         	goto	l4798
  5965   002094                     u5040:
  5966   002094  0E00               	movlw	0
  5967   002096  6E23               	movwf	___flmul@aexp^0,c
  5968   002098  AE27               	btfss	(___flmul@grs+3)^0,7,c
  5969   00209A  EF51  F010         	goto	u5051
  5970   00209E  EF53  F010         	goto	u5050
  5971   0020A2                     u5051:
  5972   0020A2  EF77  F010         	goto	l1143
  5973   0020A6                     u5050:
  5974   0020A6  0EFF               	movlw	255
  5975   0020A8  1424               	andwf	___flmul@grs^0,w,c
  5976   0020AA  6E1E               	movwf	??___flmul^0,c
  5977   0020AC  0EFF               	movlw	255
  5978   0020AE  1425               	andwf	(___flmul@grs+1)^0,w,c
  5979   0020B0  6E1F               	movwf	(??___flmul+1)^0,c
  5980   0020B2  0EFF               	movlw	255
  5981   0020B4  1426               	andwf	(___flmul@grs+2)^0,w,c
  5982   0020B6  6E20               	movwf	(??___flmul+2)^0,c
  5983   0020B8  0E7F               	movlw	127
  5984   0020BA  1427               	andwf	(___flmul@grs+3)^0,w,c
  5985   0020BC  6E21               	movwf	(??___flmul+3)^0,c
  5986   0020BE  501E               	movf	??___flmul^0,w,c
  5987   0020C0  101F               	iorwf	(??___flmul+1)^0,w,c
  5988   0020C2  1020               	iorwf	(??___flmul+2)^0,w,c
  5989   0020C4  1021               	iorwf	(??___flmul+3)^0,w,c
  5990   0020C6  B4D8               	btfsc	status,2,c
  5991   0020C8  EF68  F010         	goto	u5061
  5992   0020CC  EF6A  F010         	goto	u5060
  5993   0020D0                     u5061:
  5994   0020D0  EF6E  F010         	goto	l1144
  5995   0020D4                     u5060:
  5996   0020D4                     l4812:
  5997   0020D4  0E01               	movlw	1
  5998   0020D6  6E23               	movwf	___flmul@aexp^0,c
  5999   0020D8  EF77  F010         	goto	l1143
  6000   0020DC                     l1144:
  6001   0020DC  A029               	btfss	___flmul@prod^0,0,c
  6002   0020DE  EF73  F010         	goto	u5071
  6003   0020E2  EF75  F010         	goto	u5070
  6004   0020E6                     u5071:
  6005   0020E6  EF77  F010         	goto	l1143
  6006   0020EA                     u5070:
  6007   0020EA  EF6A  F010         	goto	l4812
  6008   0020EE                     l1143:
  6009   0020EE  5023               	movf	___flmul@aexp^0,w,c
  6010   0020F0  B4D8               	btfsc	status,2,c
  6011   0020F2  EF7D  F010         	goto	u5081
  6012   0020F6  EF7F  F010         	goto	u5080
  6013   0020FA                     u5081:
  6014   0020FA  EFA3  F010         	goto	l4824
  6015   0020FE                     u5080:
  6016   0020FE  0E01               	movlw	1
  6017   002100  2629               	addwf	___flmul@prod^0,f,c
  6018   002102  0E00               	movlw	0
  6019   002104  222A               	addwfc	(___flmul@prod+1)^0,f,c
  6020   002106  222B               	addwfc	(___flmul@prod+2)^0,f,c
  6021   002108  222C               	addwfc	(___flmul@prod+3)^0,f,c
  6022   00210A  A02C               	btfss	(___flmul@prod+3)^0,0,c
  6023   00210C  EF8A  F010         	goto	u5091
  6024   002110  EF8C  F010         	goto	u5090
  6025   002114                     u5091:
  6026   002114  EFA3  F010         	goto	l4824
  6027   002118                     u5090:
  6028   002118  C029  F01E         	movff	___flmul@prod,??___flmul
  6029   00211C  C02A  F01F         	movff	___flmul@prod+1,??___flmul+1
  6030   002120  C02B  F020         	movff	___flmul@prod+2,??___flmul+2
  6031   002124  C02C  F021         	movff	___flmul@prod+3,??___flmul+3
  6032   002128  3421               	rlcf	(??___flmul+3)^0,w,c
  6033   00212A  3221               	rrcf	(??___flmul+3)^0,f,c
  6034   00212C  3220               	rrcf	(??___flmul+2)^0,f,c
  6035   00212E  321F               	rrcf	(??___flmul+1)^0,f,c
  6036   002130  321E               	rrcf	??___flmul^0,f,c
  6037   002132  C01E  F029         	movff	??___flmul,___flmul@prod
  6038   002136  C01F  F02A         	movff	??___flmul+1,___flmul@prod+1
  6039   00213A  C020  F02B         	movff	??___flmul+2,___flmul@prod+2
  6040   00213E  C021  F02C         	movff	??___flmul+3,___flmul@prod+3
  6041   002142  4A2D               	infsnz	___flmul@temp^0,f,c
  6042   002144  2A2E               	incf	(___flmul@temp+1)^0,f,c
  6043   002146                     l4824:
  6044   002146  BE2E               	btfsc	(___flmul@temp+1)^0,7,c
  6045   002148  EFAE  F010         	goto	u5101
  6046   00214C  502E               	movf	(___flmul@temp+1)^0,w,c
  6047   00214E  E108               	bnz	u5100
  6048   002150  282D               	incf	___flmul@temp^0,w,c
  6049   002152  A0D8               	btfss	status,0,c
  6050   002154  EFAE  F010         	goto	u5101
  6051   002158  EFB0  F010         	goto	u5100
  6052   00215C                     u5101:
  6053   00215C  EFBA  F010         	goto	l4828
  6054   002160                     u5100:
  6055   002160  0E00               	movlw	0
  6056   002162  6E29               	movwf	___flmul@prod^0,c
  6057   002164  0E00               	movlw	0
  6058   002166  6E2A               	movwf	(___flmul@prod+1)^0,c
  6059   002168  0E80               	movlw	128
  6060   00216A  6E2B               	movwf	(___flmul@prod+2)^0,c
  6061   00216C  0E7F               	movlw	127
  6062   00216E  6E2C               	movwf	(___flmul@prod+3)^0,c
  6063   002170  EFE8  F010         	goto	l4840
  6064   002174                     l4828:
  6065   002174  BE2E               	btfsc	(___flmul@temp+1)^0,7,c
  6066   002176  EFC7  F010         	goto	u5110
  6067   00217A  502E               	movf	(___flmul@temp+1)^0,w,c
  6068   00217C  E106               	bnz	u5111
  6069   00217E  042D               	decf	___flmul@temp^0,w,c
  6070   002180  B0D8               	btfsc	status,0,c
  6071   002182  EFC5  F010         	goto	u5111
  6072   002186  EFC7  F010         	goto	u5110
  6073   00218A                     u5111:
  6074   00218A  EFD3  F010         	goto	l1151
  6075   00218E                     u5110:
  6076   00218E  0E00               	movlw	0
  6077   002190  6E29               	movwf	___flmul@prod^0,c
  6078   002192  0E00               	movlw	0
  6079   002194  6E2A               	movwf	(___flmul@prod+1)^0,c
  6080   002196  0E00               	movlw	0
  6081   002198  6E2B               	movwf	(___flmul@prod+2)^0,c
  6082   00219A  0E00               	movlw	0
  6083   00219C  6E2C               	movwf	(___flmul@prod+3)^0,c
  6084   00219E  0E00               	movlw	0
  6085   0021A0  6E22               	movwf	___flmul@sign^0,c
  6086   0021A2  EFE8  F010         	goto	l4840
  6087   0021A6                     l1151:
  6088   0021A6  C02D  F028         	movff	___flmul@temp,___flmul@bexp
  6089   0021AA  0EFF               	movlw	255
  6090   0021AC  1629               	andwf	___flmul@prod^0,f,c
  6091   0021AE  0EFF               	movlw	255
  6092   0021B0  162A               	andwf	(___flmul@prod+1)^0,f,c
  6093   0021B2  0E7F               	movlw	127
  6094   0021B4  162B               	andwf	(___flmul@prod+2)^0,f,c
  6095   0021B6  0E00               	movlw	0
  6096   0021B8  162C               	andwf	(___flmul@prod+3)^0,f,c
  6097   0021BA  A028               	btfss	___flmul@bexp^0,0,c
  6098   0021BC  EFE2  F010         	goto	u5121
  6099   0021C0  EFE4  F010         	goto	u5120
  6100   0021C4                     u5121:
  6101   0021C4  EFE5  F010         	goto	l4838
  6102   0021C8                     u5120:
  6103   0021C8  8E2B               	bsf	(___flmul@prod+2)^0,7,c
  6104   0021CA                     l4838:
  6105   0021CA  90D8               	bcf	status,0,c
  6106   0021CC  3028               	rrcf	___flmul@bexp^0,w,c
  6107   0021CE  6E2C               	movwf	(___flmul@prod+3)^0,c
  6108   0021D0                     l4840:
  6109   0021D0  5022               	movf	___flmul@sign^0,w,c
  6110   0021D2  122C               	iorwf	(___flmul@prod+3)^0,f,c
  6111   0021D4  C029  F016         	movff	___flmul@prod,?___flmul
  6112   0021D8  C02A  F017         	movff	___flmul@prod+1,?___flmul+1
  6113   0021DC  C02B  F018         	movff	___flmul@prod+2,?___flmul+2
  6114   0021E0  C02C  F019         	movff	___flmul@prod+3,?___flmul+3
  6115   0021E4                     l1138:
  6116   0021E4  0012               	return		;funcret
  6117   0021E6                     __end_of___flmul:
  6118                           	callstack 0
  6119                           
  6120 ;; *************** function ___flge *****************
  6121 ;; Defined at:
  6122 ;;		line 4 in file "/opt/microchip/xc8/v2.45/pic/sources/c99/common/flge.c"
  6123 ;; Parameters:    Size  Location     Type
  6124 ;;  ff1             4   46[COMRAM] unsigned char 
  6125 ;;  ff2             4   50[COMRAM] unsigned char 
  6126 ;; Auto vars:     Size  Location     Type
  6127 ;;		None
  6128 ;; Return value:  Size  Location     Type
  6129 ;;		None               void
  6130 ;; Registers used:
  6131 ;;		wreg, status,2, status,0
  6132 ;; Tracked objects:
  6133 ;;		On entry : 0/0
  6134 ;;		On exit  : 0/0
  6135 ;;		Unchanged: 0/0
  6136 ;; Data sizes:     COMRAM   BANK0   BANK1   BANK2   BANK3   BANK4   BANK5   BANK6   BANK7   BANK8   BANK9  BANK10  BANK1
      +1  BANK12  BANK14
  6137 ;;      Params:         8       0       0       0       0       0       0       0       0       0       0       0       
      +0       0       0
  6138 ;;      Locals:         0       0       0       0       0       0       0       0       0       0       0       0       
      +0       0       0
  6139 ;;      Temps:          4       0       0       0       0       0       0       0       0       0       0       0       
      +0       0       0
  6140 ;;      Totals:        12       0       0       0       0       0       0       0       0       0       0       0       
      +0       0       0
  6141 ;;Total ram usage:       12 bytes
  6142 ;; Hardware stack levels used: 1
  6143 ;; This function calls:
  6144 ;;		Nothing
  6145 ;; This function is called by:
  6146 ;;		_efgtoa
  6147 ;; This function uses a non-reentrant model
  6148 ;;
  6149                           
  6150                           	psect	text21
  6151   0030A6                     __ptext21:
  6152                           	callstack 0
  6153   0030A6                     ___flge:
  6154                           	callstack 26
  6155   0030A6  0E00               	movlw	0
  6156   0030A8  142F               	andwf	___flge@ff1^0,w,c
  6157   0030AA  6E37               	movwf	??___flge^0,c
  6158   0030AC  0E00               	movlw	0
  6159   0030AE  1430               	andwf	(___flge@ff1+1)^0,w,c
  6160   0030B0  6E38               	movwf	(??___flge+1)^0,c
  6161   0030B2  0E80               	movlw	128
  6162   0030B4  1431               	andwf	(___flge@ff1+2)^0,w,c
  6163   0030B6  6E39               	movwf	(??___flge+2)^0,c
  6164   0030B8  0E7F               	movlw	127
  6165   0030BA  1432               	andwf	(___flge@ff1+3)^0,w,c
  6166   0030BC  6E3A               	movwf	(??___flge+3)^0,c
  6167   0030BE  5037               	movf	??___flge^0,w,c
  6168   0030C0  1038               	iorwf	(??___flge+1)^0,w,c
  6169   0030C2  1039               	iorwf	(??___flge+2)^0,w,c
  6170   0030C4  103A               	iorwf	(??___flge+3)^0,w,c
  6171   0030C6  A4D8               	btfss	status,2,c
  6172   0030C8  EF68  F018         	goto	u5161
  6173   0030CC  EF6A  F018         	goto	u5160
  6174   0030D0                     u5161:
  6175   0030D0  EF72  F018         	goto	l4872
  6176   0030D4                     u5160:
  6177   0030D4  0E00               	movlw	0
  6178   0030D6  6E2F               	movwf	___flge@ff1^0,c
  6179   0030D8  0E00               	movlw	0
  6180   0030DA  6E30               	movwf	(___flge@ff1+1)^0,c
  6181   0030DC  0E00               	movlw	0
  6182   0030DE  6E31               	movwf	(___flge@ff1+2)^0,c
  6183   0030E0  0E00               	movlw	0
  6184   0030E2  6E32               	movwf	(___flge@ff1+3)^0,c
  6185   0030E4                     l4872:
  6186   0030E4  0E00               	movlw	0
  6187   0030E6  1433               	andwf	___flge@ff2^0,w,c
  6188   0030E8  6E37               	movwf	??___flge^0,c
  6189   0030EA  0E00               	movlw	0
  6190   0030EC  1434               	andwf	(___flge@ff2+1)^0,w,c
  6191   0030EE  6E38               	movwf	(??___flge+1)^0,c
  6192   0030F0  0E80               	movlw	128
  6193   0030F2  1435               	andwf	(___flge@ff2+2)^0,w,c
  6194   0030F4  6E39               	movwf	(??___flge+2)^0,c
  6195   0030F6  0E7F               	movlw	127
  6196   0030F8  1436               	andwf	(___flge@ff2+3)^0,w,c
  6197   0030FA  6E3A               	movwf	(??___flge+3)^0,c
  6198   0030FC  5037               	movf	??___flge^0,w,c
  6199   0030FE  1038               	iorwf	(??___flge+1)^0,w,c
  6200   003100  1039               	iorwf	(??___flge+2)^0,w,c
  6201   003102  103A               	iorwf	(??___flge+3)^0,w,c
  6202   003104  A4D8               	btfss	status,2,c
  6203   003106  EF87  F018         	goto	u5171
  6204   00310A  EF89  F018         	goto	u5170
  6205   00310E                     u5171:
  6206   00310E  EF91  F018         	goto	l4876
  6207   003112                     u5170:
  6208   003112  0E00               	movlw	0
  6209   003114  6E33               	movwf	___flge@ff2^0,c
  6210   003116  0E00               	movlw	0
  6211   003118  6E34               	movwf	(___flge@ff2+1)^0,c
  6212   00311A  0E00               	movlw	0
  6213   00311C  6E35               	movwf	(___flge@ff2+2)^0,c
  6214   00311E  0E00               	movlw	0
  6215   003120  6E36               	movwf	(___flge@ff2+3)^0,c
  6216   003122                     l4876:
  6217   003122  AE32               	btfss	(___flge@ff1+3)^0,7,c
  6218   003124  EF96  F018         	goto	u5181
  6219   003128  EF98  F018         	goto	u5180
  6220   00312C                     u5181:
  6221   00312C  EFA1  F018         	goto	l4880
  6222   003130                     u5180:
  6223   003130  6C2F               	negf	___flge@ff1^0,c
  6224   003132  1E30               	comf	(___flge@ff1+1)^0,f,c
  6225   003134  B0D8               	btfsc	status,0,c
  6226   003136  2A30               	incf	(___flge@ff1+1)^0,f,c
  6227   003138  1E31               	comf	(___flge@ff1+2)^0,f,c
  6228   00313A  B0D8               	btfsc	status,0,c
  6229   00313C  2A31               	incf	(___flge@ff1+2)^0,f,c
  6230   00313E  0E80               	movlw	128
  6231   003140  5632               	subfwb	(___flge@ff1+3)^0,f,c
  6232   003142                     l4880:
  6233   003142  AE36               	btfss	(___flge@ff2+3)^0,7,c
  6234   003144  EFA6  F018         	goto	u5191
  6235   003148  EFA8  F018         	goto	u5190
  6236   00314C                     u5191:
  6237   00314C  EFB1  F018         	goto	l785
  6238   003150                     u5190:
  6239   003150  6C33               	negf	___flge@ff2^0,c
  6240   003152  1E34               	comf	(___flge@ff2+1)^0,f,c
  6241   003154  B0D8               	btfsc	status,0,c
  6242   003156  2A34               	incf	(___flge@ff2+1)^0,f,c
  6243   003158  1E35               	comf	(___flge@ff2+2)^0,f,c
  6244   00315A  B0D8               	btfsc	status,0,c
  6245   00315C  2A35               	incf	(___flge@ff2+2)^0,f,c
  6246   00315E  0E80               	movlw	128
  6247   003160  5636               	subfwb	(___flge@ff2+3)^0,f,c
  6248   003162                     l785:
  6249   003162  0E00               	movlw	0
  6250   003164  1A2F               	xorwf	___flge@ff1^0,f,c
  6251   003166  0E00               	movlw	0
  6252   003168  1A30               	xorwf	(___flge@ff1+1)^0,f,c
  6253   00316A  0E00               	movlw	0
  6254   00316C  1A31               	xorwf	(___flge@ff1+2)^0,f,c
  6255   00316E  0E80               	movlw	128
  6256   003170  1A32               	xorwf	(___flge@ff1+3)^0,f,c
  6257   003172  0E00               	movlw	0
  6258   003174  1A33               	xorwf	___flge@ff2^0,f,c
  6259   003176  0E00               	movlw	0
  6260   003178  1A34               	xorwf	(___flge@ff2+1)^0,f,c
  6261   00317A  0E00               	movlw	0
  6262   00317C  1A35               	xorwf	(___flge@ff2+2)^0,f,c
  6263   00317E  0E80               	movlw	128
  6264   003180  1A36               	xorwf	(___flge@ff2+3)^0,f,c
  6265   003182  5033               	movf	___flge@ff2^0,w,c
  6266   003184  5C2F               	subwf	___flge@ff1^0,w,c
  6267   003186  5034               	movf	(___flge@ff2+1)^0,w,c
  6268   003188  5830               	subwfb	(___flge@ff1+1)^0,w,c
  6269   00318A  5035               	movf	(___flge@ff2+2)^0,w,c
  6270   00318C  5831               	subwfb	(___flge@ff1+2)^0,w,c
  6271   00318E  5036               	movf	(___flge@ff2+3)^0,w,c
  6272   003190  5832               	subwfb	(___flge@ff1+3)^0,w,c
  6273   003192  B0D8               	btfsc	status,0,c
  6274   003194  EFCE  F018         	goto	u5201
  6275   003198  EFD0  F018         	goto	u5200
  6276   00319C                     u5201:
  6277   00319C  EFD3  F018         	goto	l4886
  6278   0031A0                     u5200:
  6279   0031A0  90D8               	bcf	status,0,c
  6280   0031A2  EFD4  F018         	goto	l790
  6281   0031A6                     l4886:
  6282   0031A6  80D8               	bsf	status,0,c
  6283   0031A8                     l790:
  6284   0031A8  0012               	return		;funcret
  6285   0031AA                     __end_of___flge:
  6286                           	callstack 0
  6287                           
  6288 ;; *************** function ___fleq *****************
  6289 ;; Defined at:
  6290 ;;		line 4 in file "/opt/microchip/xc8/v2.45/pic/sources/c99/common/fleq.c"
  6291 ;; Parameters:    Size  Location     Type
  6292 ;;  ff1             4    0[COMRAM] unsigned char 
  6293 ;;  ff2             4    4[COMRAM] unsigned char 
  6294 ;; Auto vars:     Size  Location     Type
  6295 ;;		None
  6296 ;; Return value:  Size  Location     Type
  6297 ;;		None               void
  6298 ;; Registers used:
  6299 ;;		wreg, status,2, status,0
  6300 ;; Tracked objects:
  6301 ;;		On entry : 0/0
  6302 ;;		On exit  : 0/0
  6303 ;;		Unchanged: 0/0
  6304 ;; Data sizes:     COMRAM   BANK0   BANK1   BANK2   BANK3   BANK4   BANK5   BANK6   BANK7   BANK8   BANK9  BANK10  BANK1
      +1  BANK12  BANK14
  6305 ;;      Params:         8       0       0       0       0       0       0       0       0       0       0       0       
      +0       0       0
  6306 ;;      Locals:         0       0       0       0       0       0       0       0       0       0       0       0       
      +0       0       0
  6307 ;;      Temps:          4       0       0       0       0       0       0       0       0       0       0       0       
      +0       0       0
  6308 ;;      Totals:        12       0       0       0       0       0       0       0       0       0       0       0       
      +0       0       0
  6309 ;;Total ram usage:       12 bytes
  6310 ;; Hardware stack levels used: 1
  6311 ;; This function calls:
  6312 ;;		Nothing
  6313 ;; This function is called by:
  6314 ;;		_efgtoa
  6315 ;; This function uses a non-reentrant model
  6316 ;;
  6317                           
  6318                           	psect	text22
  6319   0034D6                     __ptext22:
  6320                           	callstack 0
  6321   0034D6                     ___fleq:
  6322                           	callstack 26
  6323   0034D6  0E00               	movlw	0
  6324   0034D8  1401               	andwf	___fleq@ff1^0,w,c
  6325   0034DA  6E09               	movwf	??___fleq^0,c
  6326   0034DC  0E00               	movlw	0
  6327   0034DE  1402               	andwf	(___fleq@ff1+1)^0,w,c
  6328   0034E0  6E0A               	movwf	(??___fleq+1)^0,c
  6329   0034E2  0E80               	movlw	128
  6330   0034E4  1403               	andwf	(___fleq@ff1+2)^0,w,c
  6331   0034E6  6E0B               	movwf	(??___fleq+2)^0,c
  6332   0034E8  0E7F               	movlw	127
  6333   0034EA  1404               	andwf	(___fleq@ff1+3)^0,w,c
  6334   0034EC  6E0C               	movwf	(??___fleq+3)^0,c
  6335   0034EE  5009               	movf	??___fleq^0,w,c
  6336   0034F0  100A               	iorwf	(??___fleq+1)^0,w,c
  6337   0034F2  100B               	iorwf	(??___fleq+2)^0,w,c
  6338   0034F4  100C               	iorwf	(??___fleq+3)^0,w,c
  6339   0034F6  A4D8               	btfss	status,2,c
  6340   0034F8  EF80  F01A         	goto	u5131
  6341   0034FC  EF82  F01A         	goto	u5130
  6342   003500                     u5131:
  6343   003500  EF8A  F01A         	goto	l4856
  6344   003504                     u5130:
  6345   003504  0E00               	movlw	0
  6346   003506  6E01               	movwf	___fleq@ff1^0,c
  6347   003508  0E00               	movlw	0
  6348   00350A  6E02               	movwf	(___fleq@ff1+1)^0,c
  6349   00350C  0E00               	movlw	0
  6350   00350E  6E03               	movwf	(___fleq@ff1+2)^0,c
  6351   003510  0E00               	movlw	0
  6352   003512  6E04               	movwf	(___fleq@ff1+3)^0,c
  6353   003514                     l4856:
  6354   003514  0E00               	movlw	0
  6355   003516  1405               	andwf	___fleq@ff2^0,w,c
  6356   003518  6E09               	movwf	??___fleq^0,c
  6357   00351A  0E00               	movlw	0
  6358   00351C  1406               	andwf	(___fleq@ff2+1)^0,w,c
  6359   00351E  6E0A               	movwf	(??___fleq+1)^0,c
  6360   003520  0E80               	movlw	128
  6361   003522  1407               	andwf	(___fleq@ff2+2)^0,w,c
  6362   003524  6E0B               	movwf	(??___fleq+2)^0,c
  6363   003526  0E7F               	movlw	127
  6364   003528  1408               	andwf	(___fleq@ff2+3)^0,w,c
  6365   00352A  6E0C               	movwf	(??___fleq+3)^0,c
  6366   00352C  5009               	movf	??___fleq^0,w,c
  6367   00352E  100A               	iorwf	(??___fleq+1)^0,w,c
  6368   003530  100B               	iorwf	(??___fleq+2)^0,w,c
  6369   003532  100C               	iorwf	(??___fleq+3)^0,w,c
  6370   003534  A4D8               	btfss	status,2,c
  6371   003536  EF9F  F01A         	goto	u5141
  6372   00353A  EFA1  F01A         	goto	u5140
  6373   00353E                     u5141:
  6374   00353E  EFA9  F01A         	goto	l4860
  6375   003542                     u5140:
  6376   003542  0E00               	movlw	0
  6377   003544  6E05               	movwf	___fleq@ff2^0,c
  6378   003546  0E00               	movlw	0
  6379   003548  6E06               	movwf	(___fleq@ff2+1)^0,c
  6380   00354A  0E00               	movlw	0
  6381   00354C  6E07               	movwf	(___fleq@ff2+2)^0,c
  6382   00354E  0E00               	movlw	0
  6383   003550  6E08               	movwf	(___fleq@ff2+3)^0,c
  6384   003552                     l4860:
  6385   003552  5005               	movf	___fleq@ff2^0,w,c
  6386   003554  1801               	xorwf	___fleq@ff1^0,w,c
  6387   003556  E10F               	bnz	u5150
  6388   003558  5006               	movf	(___fleq@ff2+1)^0,w,c
  6389   00355A  1802               	xorwf	(___fleq@ff1+1)^0,w,c
  6390   00355C  E10C               	bnz	u5150
  6391   00355E  5007               	movf	(___fleq@ff2+2)^0,w,c
  6392   003560  1803               	xorwf	(___fleq@ff1+2)^0,w,c
  6393   003562  E109               	bnz	u5150
  6394   003564  5008               	movf	(___fleq@ff2+3)^0,w,c
  6395   003566  1804               	xorwf	(___fleq@ff1+3)^0,w,c
  6396   003568  B4D8               	btfsc	status,2,c
  6397   00356A  EFB9  F01A         	goto	u5151
  6398   00356E  EFBB  F01A         	goto	u5150
  6399   003572                     u5151:
  6400   003572  EFBE  F01A         	goto	l4864
  6401   003576                     u5150:
  6402   003576  90D8               	bcf	status,0,c
  6403   003578  EFBF  F01A         	goto	l779
  6404   00357C                     l4864:
  6405   00357C  80D8               	bsf	status,0,c
  6406   00357E                     l779:
  6407   00357E  0012               	return		;funcret
  6408   003580                     __end_of___fleq:
  6409                           	callstack 0
  6410                           
  6411 ;; *************** function ___fldiv *****************
  6412 ;; Defined at:
  6413 ;;		line 11 in file "/opt/microchip/xc8/v2.45/pic/sources/c99/common/sprcdiv.c"
  6414 ;; Parameters:    Size  Location     Type
  6415 ;;  b               4    0[COMRAM] unsigned char 
  6416 ;;  a               4    4[COMRAM] unsigned char 
  6417 ;; Auto vars:     Size  Location     Type
  6418 ;;  grs             4   19[COMRAM] unsigned long 
  6419 ;;  rem             4   12[COMRAM] unsigned long 
  6420 ;;  new_exp         2   17[COMRAM] short 
  6421 ;;  aexp            1   24[COMRAM] unsigned char 
  6422 ;;  bexp            1   23[COMRAM] unsigned char 
  6423 ;;  sign            1   16[COMRAM] unsigned char 
  6424 ;; Return value:  Size  Location     Type
  6425 ;;                  4    0[COMRAM] unsigned char 
  6426 ;; Registers used:
  6427 ;;		wreg, status,2, status,0
  6428 ;; Tracked objects:
  6429 ;;		On entry : 0/0
  6430 ;;		On exit  : 0/0
  6431 ;;		Unchanged: 0/0
  6432 ;; Data sizes:     COMRAM   BANK0   BANK1   BANK2   BANK3   BANK4   BANK5   BANK6   BANK7   BANK8   BANK9  BANK10  BANK1
      +1  BANK12  BANK14
  6433 ;;      Params:         8       0       0       0       0       0       0       0       0       0       0       0       
      +0       0       0
  6434 ;;      Locals:        13       0       0       0       0       0       0       0       0       0       0       0       
      +0       0       0
  6435 ;;      Temps:          4       0       0       0       0       0       0       0       0       0       0       0       
      +0       0       0
  6436 ;;      Totals:        25       0       0       0       0       0       0       0       0       0       0       0       
      +0       0       0
  6437 ;;Total ram usage:       25 bytes
  6438 ;; Hardware stack levels used: 1
  6439 ;; This function calls:
  6440 ;;		Nothing
  6441 ;; This function is called by:
  6442 ;;		_efgtoa
  6443 ;; This function uses a non-reentrant model
  6444 ;;
  6445                           
  6446                           	psect	text23
  6447   0021E6                     __ptext23:
  6448                           	callstack 0
  6449   0021E6                     ___fldiv:
  6450                           	callstack 26
  6451   0021E6  5004               	movf	(___fldiv@b+3)^0,w,c
  6452   0021E8  0B80               	andlw	128
  6453   0021EA  6E11               	movwf	___fldiv@sign^0,c
  6454   0021EC  5004               	movf	(___fldiv@b+3)^0,w,c
  6455   0021EE  2404               	addwf	(___fldiv@b+3)^0,w,c
  6456   0021F0  6E18               	movwf	___fldiv@bexp^0,c
  6457   0021F2  AE03               	btfss	(___fldiv@b+2)^0,7,c
  6458   0021F4  EFFE  F010         	goto	u4711
  6459   0021F8  EF00  F011         	goto	u4710
  6460   0021FC                     u4711:
  6461   0021FC  EF01  F011         	goto	l4584
  6462   002200                     u4710:
  6463   002200  8018               	bsf	___fldiv@bexp^0,0,c
  6464   002202                     l4584:
  6465   002202  5018               	movf	___fldiv@bexp^0,w,c
  6466   002204  B4D8               	btfsc	status,2,c
  6467   002206  EF07  F011         	goto	u4721
  6468   00220A  EF09  F011         	goto	u4720
  6469   00220E                     u4721:
  6470   00220E  EF1E  F011         	goto	l4594
  6471   002212                     u4720:
  6472   002212  2818               	incf	___fldiv@bexp^0,w,c
  6473   002214  A4D8               	btfss	status,2,c
  6474   002216  EF0F  F011         	goto	u4731
  6475   00221A  EF11  F011         	goto	u4730
  6476   00221E                     u4731:
  6477   00221E  EF19  F011         	goto	l4590
  6478   002222                     u4730:
  6479   002222  0E00               	movlw	0
  6480   002224  6E01               	movwf	___fldiv@b^0,c
  6481   002226  0E00               	movlw	0
  6482   002228  6E02               	movwf	(___fldiv@b+1)^0,c
  6483   00222A  0E00               	movlw	0
  6484   00222C  6E03               	movwf	(___fldiv@b+2)^0,c
  6485   00222E  0E00               	movlw	0
  6486   002230  6E04               	movwf	(___fldiv@b+3)^0,c
  6487   002232                     l4590:
  6488   002232  8E03               	bsf	(___fldiv@b+2)^0,7,c
  6489   002234  0E00               	movlw	0
  6490   002236  6E04               	movwf	(___fldiv@b+3)^0,c
  6491   002238  EF26  F011         	goto	l4596
  6492   00223C                     l4594:
  6493   00223C  0E00               	movlw	0
  6494   00223E  6E01               	movwf	___fldiv@b^0,c
  6495   002240  0E00               	movlw	0
  6496   002242  6E02               	movwf	(___fldiv@b+1)^0,c
  6497   002244  0E00               	movlw	0
  6498   002246  6E03               	movwf	(___fldiv@b+2)^0,c
  6499   002248  0E00               	movlw	0
  6500   00224A  6E04               	movwf	(___fldiv@b+3)^0,c
  6501   00224C                     l4596:
  6502   00224C  5008               	movf	(___fldiv@a+3)^0,w,c
  6503   00224E  0B80               	andlw	128
  6504   002250  1A11               	xorwf	___fldiv@sign^0,f,c
  6505   002252  5008               	movf	(___fldiv@a+3)^0,w,c
  6506   002254  2408               	addwf	(___fldiv@a+3)^0,w,c
  6507   002256  6E19               	movwf	___fldiv@aexp^0,c
  6508   002258  AE07               	btfss	(___fldiv@a+2)^0,7,c
  6509   00225A  EF31  F011         	goto	u4741
  6510   00225E  EF33  F011         	goto	u4740
  6511   002262                     u4741:
  6512   002262  EF34  F011         	goto	l4604
  6513   002266                     u4740:
  6514   002266  8019               	bsf	___fldiv@aexp^0,0,c
  6515   002268                     l4604:
  6516   002268  5019               	movf	___fldiv@aexp^0,w,c
  6517   00226A  B4D8               	btfsc	status,2,c
  6518   00226C  EF3A  F011         	goto	u4751
  6519   002270  EF3C  F011         	goto	u4750
  6520   002274                     u4751:
  6521   002274  EF51  F011         	goto	l4614
  6522   002278                     u4750:
  6523   002278  2819               	incf	___fldiv@aexp^0,w,c
  6524   00227A  A4D8               	btfss	status,2,c
  6525   00227C  EF42  F011         	goto	u4761
  6526   002280  EF44  F011         	goto	u4760
  6527   002284                     u4761:
  6528   002284  EF4C  F011         	goto	l4610
  6529   002288                     u4760:
  6530   002288  0E00               	movlw	0
  6531   00228A  6E05               	movwf	___fldiv@a^0,c
  6532   00228C  0E00               	movlw	0
  6533   00228E  6E06               	movwf	(___fldiv@a+1)^0,c
  6534   002290  0E00               	movlw	0
  6535   002292  6E07               	movwf	(___fldiv@a+2)^0,c
  6536   002294  0E00               	movlw	0
  6537   002296  6E08               	movwf	(___fldiv@a+3)^0,c
  6538   002298                     l4610:
  6539   002298  8E07               	bsf	(___fldiv@a+2)^0,7,c
  6540   00229A  0E00               	movlw	0
  6541   00229C  6E08               	movwf	(___fldiv@a+3)^0,c
  6542   00229E  EF59  F011         	goto	l4616
  6543   0022A2                     l4614:
  6544   0022A2  0E00               	movlw	0
  6545   0022A4  6E05               	movwf	___fldiv@a^0,c
  6546   0022A6  0E00               	movlw	0
  6547   0022A8  6E06               	movwf	(___fldiv@a+1)^0,c
  6548   0022AA  0E00               	movlw	0
  6549   0022AC  6E07               	movwf	(___fldiv@a+2)^0,c
  6550   0022AE  0E00               	movlw	0
  6551   0022B0  6E08               	movwf	(___fldiv@a+3)^0,c
  6552   0022B2                     l4616:
  6553   0022B2  5005               	movf	___fldiv@a^0,w,c
  6554   0022B4  1006               	iorwf	(___fldiv@a+1)^0,w,c
  6555   0022B6  1007               	iorwf	(___fldiv@a+2)^0,w,c
  6556   0022B8  1008               	iorwf	(___fldiv@a+3)^0,w,c
  6557   0022BA  A4D8               	btfss	status,2,c
  6558   0022BC  EF62  F011         	goto	u4771
  6559   0022C0  EF64  F011         	goto	u4770
  6560   0022C4                     u4771:
  6561   0022C4  EF7C  F011         	goto	l4628
  6562   0022C8                     u4770:
  6563   0022C8  0E00               	movlw	0
  6564   0022CA  6E01               	movwf	___fldiv@b^0,c
  6565   0022CC  0E00               	movlw	0
  6566   0022CE  6E02               	movwf	(___fldiv@b+1)^0,c
  6567   0022D0  0E00               	movlw	0
  6568   0022D2  6E03               	movwf	(___fldiv@b+2)^0,c
  6569   0022D4  0E00               	movlw	0
  6570   0022D6  6E04               	movwf	(___fldiv@b+3)^0,c
  6571   0022D8  0E80               	movlw	128
  6572   0022DA  1203               	iorwf	(___fldiv@b+2)^0,f,c
  6573   0022DC  0E7F               	movlw	127
  6574   0022DE  1204               	iorwf	(___fldiv@b+3)^0,f,c
  6575   0022E0                     l4622:
  6576   0022E0  5011               	movf	___fldiv@sign^0,w,c
  6577   0022E2  1204               	iorwf	(___fldiv@b+3)^0,f,c
  6578   0022E4  C001  F001         	movff	___fldiv@b,?___fldiv
  6579   0022E8  C002  F002         	movff	___fldiv@b+1,?___fldiv+1
  6580   0022EC  C003  F003         	movff	___fldiv@b+2,?___fldiv+2
  6581   0022F0  C004  F004         	movff	___fldiv@b+3,?___fldiv+3
  6582   0022F4  EFBF  F012         	goto	l1102
  6583   0022F8                     l4628:
  6584   0022F8  5018               	movf	___fldiv@bexp^0,w,c
  6585   0022FA  A4D8               	btfss	status,2,c
  6586   0022FC  EF82  F011         	goto	u4781
  6587   002300  EF84  F011         	goto	u4780
  6588   002304                     u4781:
  6589   002304  EF8E  F011         	goto	l4636
  6590   002308                     u4780:
  6591   002308  0E00               	movlw	0
  6592   00230A  6E01               	movwf	?___fldiv^0,c
  6593   00230C  0E00               	movlw	0
  6594   00230E  6E02               	movwf	(?___fldiv+1)^0,c
  6595   002310  0E00               	movlw	0
  6596   002312  6E03               	movwf	(?___fldiv+2)^0,c
  6597   002314  0E00               	movlw	0
  6598   002316  6E04               	movwf	(?___fldiv+3)^0,c
  6599   002318  EFBF  F012         	goto	l1102
  6600   00231C                     l4636:
  6601   00231C  5019               	movf	___fldiv@aexp^0,w,c
  6602   00231E  C018  F009         	movff	___fldiv@bexp,??___fldiv
  6603   002322  6A0A               	clrf	(??___fldiv+1)^0,c
  6604   002324  5E09               	subwf	??___fldiv^0,f,c
  6605   002326  0E00               	movlw	0
  6606   002328  5A0A               	subwfb	(??___fldiv+1)^0,f,c
  6607   00232A  0E7F               	movlw	127
  6608   00232C  2409               	addwf	??___fldiv^0,w,c
  6609   00232E  6E12               	movwf	___fldiv@new_exp^0,c
  6610   002330  0E00               	movlw	0
  6611   002332  200A               	addwfc	(??___fldiv+1)^0,w,c
  6612   002334  6E13               	movwf	(___fldiv@new_exp+1)^0,c
  6613   002336  C001  F00D         	movff	___fldiv@b,___fldiv@rem
  6614   00233A  C002  F00E         	movff	___fldiv@b+1,___fldiv@rem+1
  6615   00233E  C003  F00F         	movff	___fldiv@b+2,___fldiv@rem+2
  6616   002342  C004  F010         	movff	___fldiv@b+3,___fldiv@rem+3
  6617   002346  0E00               	movlw	0
  6618   002348  6E01               	movwf	___fldiv@b^0,c
  6619   00234A  0E00               	movlw	0
  6620   00234C  6E02               	movwf	(___fldiv@b+1)^0,c
  6621   00234E  0E00               	movlw	0
  6622   002350  6E03               	movwf	(___fldiv@b+2)^0,c
  6623   002352  0E00               	movlw	0
  6624   002354  6E04               	movwf	(___fldiv@b+3)^0,c
  6625   002356  0E00               	movlw	0
  6626   002358  6E14               	movwf	___fldiv@grs^0,c
  6627   00235A  0E00               	movlw	0
  6628   00235C  6E15               	movwf	(___fldiv@grs+1)^0,c
  6629   00235E  0E00               	movlw	0
  6630   002360  6E16               	movwf	(___fldiv@grs+2)^0,c
  6631   002362  0E00               	movlw	0
  6632   002364  6E17               	movwf	(___fldiv@grs+3)^0,c
  6633   002366  0E00               	movlw	0
  6634   002368  6E19               	movwf	___fldiv@aexp^0,c
  6635   00236A  EFEF  F011         	goto	l1104
  6636   00236E                     l4646:
  6637   00236E  5019               	movf	___fldiv@aexp^0,w,c
  6638   002370  B4D8               	btfsc	status,2,c
  6639   002372  EFBD  F011         	goto	u4791
  6640   002376  EFBF  F011         	goto	u4790
  6641   00237A                     u4791:
  6642   00237A  EFD6  F011         	goto	l4654
  6643   00237E                     u4790:
  6644   00237E  90D8               	bcf	status,0,c
  6645   002380  360D               	rlcf	___fldiv@rem^0,f,c
  6646   002382  360E               	rlcf	(___fldiv@rem+1)^0,f,c
  6647   002384  360F               	rlcf	(___fldiv@rem+2)^0,f,c
  6648   002386  3610               	rlcf	(___fldiv@rem+3)^0,f,c
  6649   002388  90D8               	bcf	status,0,c
  6650   00238A  3601               	rlcf	___fldiv@b^0,f,c
  6651   00238C  3602               	rlcf	(___fldiv@b+1)^0,f,c
  6652   00238E  3603               	rlcf	(___fldiv@b+2)^0,f,c
  6653   002390  3604               	rlcf	(___fldiv@b+3)^0,f,c
  6654   002392  AE17               	btfss	(___fldiv@grs+3)^0,7,c
  6655   002394  EFCE  F011         	goto	u4801
  6656   002398  EFD0  F011         	goto	u4800
  6657   00239C                     u4801:
  6658   00239C  EFD1  F011         	goto	l1107
  6659   0023A0                     u4800:
  6660   0023A0  8001               	bsf	___fldiv@b^0,0,c
  6661   0023A2                     l1107:
  6662   0023A2  90D8               	bcf	status,0,c
  6663   0023A4  3614               	rlcf	___fldiv@grs^0,f,c
  6664   0023A6  3615               	rlcf	(___fldiv@grs+1)^0,f,c
  6665   0023A8  3616               	rlcf	(___fldiv@grs+2)^0,f,c
  6666   0023AA  3617               	rlcf	(___fldiv@grs+3)^0,f,c
  6667   0023AC                     l4654:
  6668   0023AC  5005               	movf	___fldiv@a^0,w,c
  6669   0023AE  5C0D               	subwf	___fldiv@rem^0,w,c
  6670   0023B0  5006               	movf	(___fldiv@a+1)^0,w,c
  6671   0023B2  580E               	subwfb	(___fldiv@rem+1)^0,w,c
  6672   0023B4  5007               	movf	(___fldiv@a+2)^0,w,c
  6673   0023B6  580F               	subwfb	(___fldiv@rem+2)^0,w,c
  6674   0023B8  5008               	movf	(___fldiv@a+3)^0,w,c
  6675   0023BA  5810               	subwfb	(___fldiv@rem+3)^0,w,c
  6676   0023BC  A0D8               	btfss	status,0,c
  6677   0023BE  EFE3  F011         	goto	u4811
  6678   0023C2  EFE5  F011         	goto	u4810
  6679   0023C6                     u4811:
  6680   0023C6  EFEE  F011         	goto	l4660
  6681   0023CA                     u4810:
  6682   0023CA  8C17               	bsf	(___fldiv@grs+3)^0,6,c
  6683   0023CC  5005               	movf	___fldiv@a^0,w,c
  6684   0023CE  5E0D               	subwf	___fldiv@rem^0,f,c
  6685   0023D0  5006               	movf	(___fldiv@a+1)^0,w,c
  6686   0023D2  5A0E               	subwfb	(___fldiv@rem+1)^0,f,c
  6687   0023D4  5007               	movf	(___fldiv@a+2)^0,w,c
  6688   0023D6  5A0F               	subwfb	(___fldiv@rem+2)^0,f,c
  6689   0023D8  5008               	movf	(___fldiv@a+3)^0,w,c
  6690   0023DA  5A10               	subwfb	(___fldiv@rem+3)^0,f,c
  6691   0023DC                     l4660:
  6692   0023DC  2A19               	incf	___fldiv@aexp^0,f,c
  6693   0023DE                     l1104:
  6694   0023DE  0E19               	movlw	25
  6695   0023E0  6419               	cpfsgt	___fldiv@aexp^0,c
  6696   0023E2  EFF5  F011         	goto	u4821
  6697   0023E6  EFF7  F011         	goto	u4820
  6698   0023EA                     u4821:
  6699   0023EA  EFB7  F011         	goto	l4646
  6700   0023EE                     u4820:
  6701   0023EE  500D               	movf	___fldiv@rem^0,w,c
  6702   0023F0  100E               	iorwf	(___fldiv@rem+1)^0,w,c
  6703   0023F2  100F               	iorwf	(___fldiv@rem+2)^0,w,c
  6704   0023F4  1010               	iorwf	(___fldiv@rem+3)^0,w,c
  6705   0023F6  B4D8               	btfsc	status,2,c
  6706   0023F8  EF00  F012         	goto	u4831
  6707   0023FC  EF02  F012         	goto	u4830
  6708   002400                     u4831:
  6709   002400  EF1A  F012         	goto	l4672
  6710   002404                     u4830:
  6711   002404  8014               	bsf	___fldiv@grs^0,0,c
  6712   002406  EF1A  F012         	goto	l4672
  6713   00240A                     l4666:
  6714   00240A  90D8               	bcf	status,0,c
  6715   00240C  3601               	rlcf	___fldiv@b^0,f,c
  6716   00240E  3602               	rlcf	(___fldiv@b+1)^0,f,c
  6717   002410  3603               	rlcf	(___fldiv@b+2)^0,f,c
  6718   002412  3604               	rlcf	(___fldiv@b+3)^0,f,c
  6719   002414  AE17               	btfss	(___fldiv@grs+3)^0,7,c
  6720   002416  EF0F  F012         	goto	u4841
  6721   00241A  EF11  F012         	goto	u4840
  6722   00241E                     u4841:
  6723   00241E  EF12  F012         	goto	l1113
  6724   002422                     u4840:
  6725   002422  8001               	bsf	___fldiv@b^0,0,c
  6726   002424                     l1113:
  6727   002424  90D8               	bcf	status,0,c
  6728   002426  3614               	rlcf	___fldiv@grs^0,f,c
  6729   002428  3615               	rlcf	(___fldiv@grs+1)^0,f,c
  6730   00242A  3616               	rlcf	(___fldiv@grs+2)^0,f,c
  6731   00242C  3617               	rlcf	(___fldiv@grs+3)^0,f,c
  6732   00242E  0612               	decf	___fldiv@new_exp^0,f,c
  6733   002430  A0D8               	btfss	status,0,c
  6734   002432  0613               	decf	(___fldiv@new_exp+1)^0,f,c
  6735   002434                     l4672:
  6736   002434  AE03               	btfss	(___fldiv@b+2)^0,7,c
  6737   002436  EF1F  F012         	goto	u4851
  6738   00243A  EF21  F012         	goto	u4850
  6739   00243E                     u4851:
  6740   00243E  EF05  F012         	goto	l4666
  6741   002442                     u4850:
  6742   002442  0E00               	movlw	0
  6743   002444  6E19               	movwf	___fldiv@aexp^0,c
  6744   002446  AE17               	btfss	(___fldiv@grs+3)^0,7,c
  6745   002448  EF28  F012         	goto	u4861
  6746   00244C  EF2A  F012         	goto	u4860
  6747   002450                     u4861:
  6748   002450  EF4E  F012         	goto	l1115
  6749   002454                     u4860:
  6750   002454  0EFF               	movlw	255
  6751   002456  1414               	andwf	___fldiv@grs^0,w,c
  6752   002458  6E09               	movwf	??___fldiv^0,c
  6753   00245A  0EFF               	movlw	255
  6754   00245C  1415               	andwf	(___fldiv@grs+1)^0,w,c
  6755   00245E  6E0A               	movwf	(??___fldiv+1)^0,c
  6756   002460  0EFF               	movlw	255
  6757   002462  1416               	andwf	(___fldiv@grs+2)^0,w,c
  6758   002464  6E0B               	movwf	(??___fldiv+2)^0,c
  6759   002466  0E7F               	movlw	127
  6760   002468  1417               	andwf	(___fldiv@grs+3)^0,w,c
  6761   00246A  6E0C               	movwf	(??___fldiv+3)^0,c
  6762   00246C  5009               	movf	??___fldiv^0,w,c
  6763   00246E  100A               	iorwf	(??___fldiv+1)^0,w,c
  6764   002470  100B               	iorwf	(??___fldiv+2)^0,w,c
  6765   002472  100C               	iorwf	(??___fldiv+3)^0,w,c
  6766   002474  B4D8               	btfsc	status,2,c
  6767   002476  EF3F  F012         	goto	u4871
  6768   00247A  EF41  F012         	goto	u4870
  6769   00247E                     u4871:
  6770   00247E  EF45  F012         	goto	l1116
  6771   002482                     u4870:
  6772   002482                     l4680:
  6773   002482  0E01               	movlw	1
  6774   002484  6E19               	movwf	___fldiv@aexp^0,c
  6775   002486  EF4E  F012         	goto	l1115
  6776   00248A                     l1116:
  6777   00248A  A001               	btfss	___fldiv@b^0,0,c
  6778   00248C  EF4A  F012         	goto	u4881
  6779   002490  EF4C  F012         	goto	u4880
  6780   002494                     u4881:
  6781   002494  EF4E  F012         	goto	l1115
  6782   002498                     u4880:
  6783   002498  EF41  F012         	goto	l4680
  6784   00249C                     l1115:
  6785   00249C  5019               	movf	___fldiv@aexp^0,w,c
  6786   00249E  B4D8               	btfsc	status,2,c
  6787   0024A0  EF54  F012         	goto	u4891
  6788   0024A4  EF56  F012         	goto	u4890
  6789   0024A8                     u4891:
  6790   0024A8  EF7A  F012         	goto	l4692
  6791   0024AC                     u4890:
  6792   0024AC  0E01               	movlw	1
  6793   0024AE  2601               	addwf	___fldiv@b^0,f,c
  6794   0024B0  0E00               	movlw	0
  6795   0024B2  2202               	addwfc	(___fldiv@b+1)^0,f,c
  6796   0024B4  2203               	addwfc	(___fldiv@b+2)^0,f,c
  6797   0024B6  2204               	addwfc	(___fldiv@b+3)^0,f,c
  6798   0024B8  A004               	btfss	(___fldiv@b+3)^0,0,c
  6799   0024BA  EF61  F012         	goto	u4901
  6800   0024BE  EF63  F012         	goto	u4900
  6801   0024C2                     u4901:
  6802   0024C2  EF7A  F012         	goto	l4692
  6803   0024C6                     u4900:
  6804   0024C6  C001  F009         	movff	___fldiv@b,??___fldiv
  6805   0024CA  C002  F00A         	movff	___fldiv@b+1,??___fldiv+1
  6806   0024CE  C003  F00B         	movff	___fldiv@b+2,??___fldiv+2
  6807   0024D2  C004  F00C         	movff	___fldiv@b+3,??___fldiv+3
  6808   0024D6  340C               	rlcf	(??___fldiv+3)^0,w,c
  6809   0024D8  320C               	rrcf	(??___fldiv+3)^0,f,c
  6810   0024DA  320B               	rrcf	(??___fldiv+2)^0,f,c
  6811   0024DC  320A               	rrcf	(??___fldiv+1)^0,f,c
  6812   0024DE  3209               	rrcf	??___fldiv^0,f,c
  6813   0024E0  C009  F001         	movff	??___fldiv,___fldiv@b
  6814   0024E4  C00A  F002         	movff	??___fldiv+1,___fldiv@b+1
  6815   0024E8  C00B  F003         	movff	??___fldiv+2,___fldiv@b+2
  6816   0024EC  C00C  F004         	movff	??___fldiv+3,___fldiv@b+3
  6817   0024F0  4A12               	infsnz	___fldiv@new_exp^0,f,c
  6818   0024F2  2A13               	incf	(___fldiv@new_exp+1)^0,f,c
  6819   0024F4                     l4692:
  6820   0024F4  BE13               	btfsc	(___fldiv@new_exp+1)^0,7,c
  6821   0024F6  EF85  F012         	goto	u4911
  6822   0024FA  5013               	movf	(___fldiv@new_exp+1)^0,w,c
  6823   0024FC  E108               	bnz	u4910
  6824   0024FE  2812               	incf	___fldiv@new_exp^0,w,c
  6825   002500  A0D8               	btfss	status,0,c
  6826   002502  EF85  F012         	goto	u4911
  6827   002506  EF87  F012         	goto	u4910
  6828   00250A                     u4911:
  6829   00250A  EF92  F012         	goto	l4696
  6830   00250E                     u4910:
  6831   00250E  0E00               	movlw	0
  6832   002510  6E13               	movwf	(___fldiv@new_exp+1)^0,c
  6833   002512  6812               	setf	___fldiv@new_exp^0,c
  6834   002514  0E00               	movlw	0
  6835   002516  6E01               	movwf	___fldiv@b^0,c
  6836   002518  0E00               	movlw	0
  6837   00251A  6E02               	movwf	(___fldiv@b+1)^0,c
  6838   00251C  0E00               	movlw	0
  6839   00251E  6E03               	movwf	(___fldiv@b+2)^0,c
  6840   002520  0E00               	movlw	0
  6841   002522  6E04               	movwf	(___fldiv@b+3)^0,c
  6842   002524                     l4696:
  6843   002524  BE13               	btfsc	(___fldiv@new_exp+1)^0,7,c
  6844   002526  EF9F  F012         	goto	u4920
  6845   00252A  5013               	movf	(___fldiv@new_exp+1)^0,w,c
  6846   00252C  E106               	bnz	u4921
  6847   00252E  0412               	decf	___fldiv@new_exp^0,w,c
  6848   002530  B0D8               	btfsc	status,0,c
  6849   002532  EF9D  F012         	goto	u4921
  6850   002536  EF9F  F012         	goto	u4920
  6851   00253A                     u4921:
  6852   00253A  EFAD  F012         	goto	l4700
  6853   00253E                     u4920:
  6854   00253E  0E00               	movlw	0
  6855   002540  6E13               	movwf	(___fldiv@new_exp+1)^0,c
  6856   002542  0E00               	movlw	0
  6857   002544  6E12               	movwf	___fldiv@new_exp^0,c
  6858   002546  0E00               	movlw	0
  6859   002548  6E01               	movwf	___fldiv@b^0,c
  6860   00254A  0E00               	movlw	0
  6861   00254C  6E02               	movwf	(___fldiv@b+1)^0,c
  6862   00254E  0E00               	movlw	0
  6863   002550  6E03               	movwf	(___fldiv@b+2)^0,c
  6864   002552  0E00               	movlw	0
  6865   002554  6E04               	movwf	(___fldiv@b+3)^0,c
  6866   002556  0E00               	movlw	0
  6867   002558  6E11               	movwf	___fldiv@sign^0,c
  6868   00255A                     l4700:
  6869   00255A  C012  F018         	movff	___fldiv@new_exp,___fldiv@bexp
  6870   00255E  A018               	btfss	___fldiv@bexp^0,0,c
  6871   002560  EFB4  F012         	goto	u4931
  6872   002564  EFB6  F012         	goto	u4930
  6873   002568                     u4931:
  6874   002568  EFB9  F012         	goto	l4706
  6875   00256C                     u4930:
  6876   00256C  8E03               	bsf	(___fldiv@b+2)^0,7,c
  6877   00256E  EFBA  F012         	goto	l4708
  6878   002572                     l4706:
  6879   002572  9E03               	bcf	(___fldiv@b+2)^0,7,c
  6880   002574                     l4708:
  6881   002574  90D8               	bcf	status,0,c
  6882   002576  3018               	rrcf	___fldiv@bexp^0,w,c
  6883   002578  6E04               	movwf	(___fldiv@b+3)^0,c
  6884   00257A  EF70  F011         	goto	l4622
  6885   00257E                     l1102:
  6886   00257E  0012               	return		;funcret
  6887   002580                     __end_of___fldiv:
  6888                           	callstack 0
  6889                           
  6890 ;; *************** function _abs *****************
  6891 ;; Defined at:
  6892 ;;		line 1 in file "/opt/microchip/xc8/v2.45/pic/sources/c99/common/abs.c"
  6893 ;; Parameters:    Size  Location     Type
  6894 ;;  a               2    6[COMRAM] int 
  6895 ;; Auto vars:     Size  Location     Type
  6896 ;;		None
  6897 ;; Return value:  Size  Location     Type
  6898 ;;                  2    6[COMRAM] int 
  6899 ;; Registers used:
  6900 ;;		wreg, status,2, status,0
  6901 ;; Tracked objects:
  6902 ;;		On entry : 0/0
  6903 ;;		On exit  : 0/0
  6904 ;;		Unchanged: 0/0
  6905 ;; Data sizes:     COMRAM   BANK0   BANK1   BANK2   BANK3   BANK4   BANK5   BANK6   BANK7   BANK8   BANK9  BANK10  BANK1
      +1  BANK12  BANK14
  6906 ;;      Params:         2       0       0       0       0       0       0       0       0       0       0       0       
      +0       0       0
  6907 ;;      Locals:         0       0       0       0       0       0       0       0       0       0       0       0       
      +0       0       0
  6908 ;;      Temps:          2       0       0       0       0       0       0       0       0       0       0       0       
      +0       0       0
  6909 ;;      Totals:         4       0       0       0       0       0       0       0       0       0       0       0       
      +0       0       0
  6910 ;;Total ram usage:        4 bytes
  6911 ;; Hardware stack levels used: 1
  6912 ;; This function calls:
  6913 ;;		Nothing
  6914 ;; This function is called by:
  6915 ;;		_vfpfcnvrt
  6916 ;; This function uses a non-reentrant model
  6917 ;;
  6918                           
  6919                           	psect	text24
  6920   003A48                     __ptext24:
  6921                           	callstack 0
  6922   003A48                     _abs:
  6923                           	callstack 27
  6924   003A48  BE08               	btfsc	(abs@a+1)^0,7,c
  6925   003A4A  EF29  F01D         	goto	u5951
  6926   003A4E  EF2B  F01D         	goto	u5950
  6927   003A52                     u5951:
  6928   003A52  EF31  F01D         	goto	l1335
  6929   003A56                     u5950:
  6930   003A56  C007  F007         	movff	abs@a,?_abs
  6931   003A5A  C008  F008         	movff	abs@a+1,?_abs+1
  6932   003A5E  EF3D  F01D         	goto	l1338
  6933   003A62                     l1335:
  6934   003A62  C007  F009         	movff	abs@a,??_abs
  6935   003A66  C008  F00A         	movff	abs@a+1,??_abs+1
  6936   003A6A  1E09               	comf	??_abs^0,f,c
  6937   003A6C  1E0A               	comf	(??_abs+1)^0,f,c
  6938   003A6E  4A09               	infsnz	??_abs^0,f,c
  6939   003A70  2A0A               	incf	(??_abs+1)^0,f,c
  6940   003A72  C009  F007         	movff	??_abs,?_abs
  6941   003A76  C00A  F008         	movff	??_abs+1,?_abs+1
  6942   003A7A                     l1338:
  6943   003A7A  0012               	return		;funcret
  6944   003A7C                     __end_of_abs:
  6945                           	callstack 0
  6946                           
  6947 ;; *************** function ___awmod *****************
  6948 ;; Defined at:
  6949 ;;		line 7 in file "/opt/microchip/xc8/v2.45/pic/sources/c99/common/awmod.c"
  6950 ;; Parameters:    Size  Location     Type
  6951 ;;  dividend        2    0[COMRAM] int 
  6952 ;;  divisor         2    2[COMRAM] int 
  6953 ;; Auto vars:     Size  Location     Type
  6954 ;;  sign            1    5[COMRAM] unsigned char 
  6955 ;;  counter         1    4[COMRAM] unsigned char 
  6956 ;; Return value:  Size  Location     Type
  6957 ;;                  2    0[COMRAM] int 
  6958 ;; Registers used:
  6959 ;;		wreg, status,2, status,0
  6960 ;; Tracked objects:
  6961 ;;		On entry : 0/0
  6962 ;;		On exit  : 0/0
  6963 ;;		Unchanged: 0/0
  6964 ;; Data sizes:     COMRAM   BANK0   BANK1   BANK2   BANK3   BANK4   BANK5   BANK6   BANK7   BANK8   BANK9  BANK10  BANK1
      +1  BANK12  BANK14
  6965 ;;      Params:         4       0       0       0       0       0       0       0       0       0       0       0       
      +0       0       0
  6966 ;;      Locals:         2       0       0       0       0       0       0       0       0       0       0       0       
      +0       0       0
  6967 ;;      Temps:          0       0       0       0       0       0       0       0       0       0       0       0       
      +0       0       0
  6968 ;;      Totals:         6       0       0       0       0       0       0       0       0       0       0       0       
      +0       0       0
  6969 ;;Total ram usage:        6 bytes
  6970 ;; Hardware stack levels used: 1
  6971 ;; This function calls:
  6972 ;;		Nothing
  6973 ;; This function is called by:
  6974 ;;		_vfpfcnvrt
  6975 ;; This function uses a non-reentrant model
  6976 ;;
  6977                           
  6978                           	psect	text25
  6979   003426                     __ptext25:
  6980                           	callstack 0
  6981   003426                     ___awmod:
  6982                           	callstack 27
  6983   003426  0E00               	movlw	0
  6984   003428  6E06               	movwf	___awmod@sign^0,c
  6985   00342A  BE02               	btfsc	(___awmod@dividend+1)^0,7,c
  6986   00342C  EF1C  F01A         	goto	u5570
  6987   003430  EF1A  F01A         	goto	u5571
  6988   003434                     u5571:
  6989   003434  EF22  F01A         	goto	l5080
  6990   003438                     u5570:
  6991   003438  6C01               	negf	___awmod@dividend^0,c
  6992   00343A  1E02               	comf	(___awmod@dividend+1)^0,f,c
  6993   00343C  B0D8               	btfsc	status,0,c
  6994   00343E  2A02               	incf	(___awmod@dividend+1)^0,f,c
  6995   003440  0E01               	movlw	1
  6996   003442  6E06               	movwf	___awmod@sign^0,c
  6997   003444                     l5080:
  6998   003444  BE04               	btfsc	(___awmod@divisor+1)^0,7,c
  6999   003446  EF29  F01A         	goto	u5580
  7000   00344A  EF27  F01A         	goto	u5581
  7001   00344E                     u5581:
  7002   00344E  EF2D  F01A         	goto	l5084
  7003   003452                     u5580:
  7004   003452  6C03               	negf	___awmod@divisor^0,c
  7005   003454  1E04               	comf	(___awmod@divisor+1)^0,f,c
  7006   003456  B0D8               	btfsc	status,0,c
  7007   003458  2A04               	incf	(___awmod@divisor+1)^0,f,c
  7008   00345A                     l5084:
  7009   00345A  5003               	movf	___awmod@divisor^0,w,c
  7010   00345C  1004               	iorwf	(___awmod@divisor+1)^0,w,c
  7011   00345E  B4D8               	btfsc	status,2,c
  7012   003460  EF34  F01A         	goto	u5591
  7013   003464  EF36  F01A         	goto	u5590
  7014   003468                     u5591:
  7015   003468  EF5A  F01A         	goto	l5100
  7016   00346C                     u5590:
  7017   00346C  0E01               	movlw	1
  7018   00346E  6E05               	movwf	___awmod@counter^0,c
  7019   003470  EF3E  F01A         	goto	l5090
  7020   003474                     l5088:
  7021   003474  90D8               	bcf	status,0,c
  7022   003476  3603               	rlcf	___awmod@divisor^0,f,c
  7023   003478  3604               	rlcf	(___awmod@divisor+1)^0,f,c
  7024   00347A  2A05               	incf	___awmod@counter^0,f,c
  7025   00347C                     l5090:
  7026   00347C  AE04               	btfss	(___awmod@divisor+1)^0,7,c
  7027   00347E  EF43  F01A         	goto	u5601
  7028   003482  EF45  F01A         	goto	u5600
  7029   003486                     u5601:
  7030   003486  EF3A  F01A         	goto	l5088
  7031   00348A                     u5600:
  7032   00348A                     l5092:
  7033   00348A  5003               	movf	___awmod@divisor^0,w,c
  7034   00348C  5C01               	subwf	___awmod@dividend^0,w,c
  7035   00348E  5004               	movf	(___awmod@divisor+1)^0,w,c
  7036   003490  5802               	subwfb	(___awmod@dividend+1)^0,w,c
  7037   003492  A0D8               	btfss	status,0,c
  7038   003494  EF4E  F01A         	goto	u5611
  7039   003498  EF50  F01A         	goto	u5610
  7040   00349C                     u5611:
  7041   00349C  EF54  F01A         	goto	l5096
  7042   0034A0                     u5610:
  7043   0034A0  5003               	movf	___awmod@divisor^0,w,c
  7044   0034A2  5E01               	subwf	___awmod@dividend^0,f,c
  7045   0034A4  5004               	movf	(___awmod@divisor+1)^0,w,c
  7046   0034A6  5A02               	subwfb	(___awmod@dividend+1)^0,f,c
  7047   0034A8                     l5096:
  7048   0034A8  90D8               	bcf	status,0,c
  7049   0034AA  3204               	rrcf	(___awmod@divisor+1)^0,f,c
  7050   0034AC  3203               	rrcf	___awmod@divisor^0,f,c
  7051   0034AE  2E05               	decfsz	___awmod@counter^0,f,c
  7052   0034B0  EF45  F01A         	goto	l5092
  7053   0034B4                     l5100:
  7054   0034B4  5006               	movf	___awmod@sign^0,w,c
  7055   0034B6  B4D8               	btfsc	status,2,c
  7056   0034B8  EF60  F01A         	goto	u5621
  7057   0034BC  EF62  F01A         	goto	u5620
  7058   0034C0                     u5621:
  7059   0034C0  EF66  F01A         	goto	l5104
  7060   0034C4                     u5620:
  7061   0034C4  6C01               	negf	___awmod@dividend^0,c
  7062   0034C6  1E02               	comf	(___awmod@dividend+1)^0,f,c
  7063   0034C8  B0D8               	btfsc	status,0,c
  7064   0034CA  2A02               	incf	(___awmod@dividend+1)^0,f,c
  7065   0034CC                     l5104:
  7066   0034CC  C001  F001         	movff	___awmod@dividend,?___awmod
  7067   0034D0  C002  F002         	movff	___awmod@dividend+1,?___awmod+1
  7068   0034D4  0012               	return		;funcret
  7069   0034D6                     __end_of___awmod:
  7070                           	callstack 0
  7071                           
  7072 ;; *************** function ___awdiv *****************
  7073 ;; Defined at:
  7074 ;;		line 7 in file "/opt/microchip/xc8/v2.45/pic/sources/c99/common/awdiv.c"
  7075 ;; Parameters:    Size  Location     Type
  7076 ;;  dividend        2    0[COMRAM] int 
  7077 ;;  divisor         2    2[COMRAM] int 
  7078 ;; Auto vars:     Size  Location     Type
  7079 ;;  quotient        2    6[COMRAM] int 
  7080 ;;  sign            1    5[COMRAM] unsigned char 
  7081 ;;  counter         1    4[COMRAM] unsigned char 
  7082 ;; Return value:  Size  Location     Type
  7083 ;;                  2    0[COMRAM] int 
  7084 ;; Registers used:
  7085 ;;		wreg, status,2, status,0
  7086 ;; Tracked objects:
  7087 ;;		On entry : 0/0
  7088 ;;		On exit  : 0/0
  7089 ;;		Unchanged: 0/0
  7090 ;; Data sizes:     COMRAM   BANK0   BANK1   BANK2   BANK3   BANK4   BANK5   BANK6   BANK7   BANK8   BANK9  BANK10  BANK1
      +1  BANK12  BANK14
  7091 ;;      Params:         4       0       0       0       0       0       0       0       0       0       0       0       
      +0       0       0
  7092 ;;      Locals:         4       0       0       0       0       0       0       0       0       0       0       0       
      +0       0       0
  7093 ;;      Temps:          0       0       0       0       0       0       0       0       0       0       0       0       
      +0       0       0
  7094 ;;      Totals:         8       0       0       0       0       0       0       0       0       0       0       0       
      +0       0       0
  7095 ;;Total ram usage:        8 bytes
  7096 ;; Hardware stack levels used: 1
  7097 ;; This function calls:
  7098 ;;		Nothing
  7099 ;; This function is called by:
  7100 ;;		_vfpfcnvrt
  7101 ;; This function uses a non-reentrant model
  7102 ;;
  7103                           
  7104                           	psect	text26
  7105   0032A8                     __ptext26:
  7106                           	callstack 0
  7107   0032A8                     ___awdiv:
  7108                           	callstack 27
  7109   0032A8  0E00               	movlw	0
  7110   0032AA  6E06               	movwf	___awdiv@sign^0,c
  7111   0032AC  BE04               	btfsc	(___awdiv@divisor+1)^0,7,c
  7112   0032AE  EF5D  F019         	goto	u5510
  7113   0032B2  EF5B  F019         	goto	u5511
  7114   0032B6                     u5511:
  7115   0032B6  EF63  F019         	goto	l5036
  7116   0032BA                     u5510:
  7117   0032BA  6C03               	negf	___awdiv@divisor^0,c
  7118   0032BC  1E04               	comf	(___awdiv@divisor+1)^0,f,c
  7119   0032BE  B0D8               	btfsc	status,0,c
  7120   0032C0  2A04               	incf	(___awdiv@divisor+1)^0,f,c
  7121   0032C2  0E01               	movlw	1
  7122   0032C4  6E06               	movwf	___awdiv@sign^0,c
  7123   0032C6                     l5036:
  7124   0032C6  BE02               	btfsc	(___awdiv@dividend+1)^0,7,c
  7125   0032C8  EF6A  F019         	goto	u5520
  7126   0032CC  EF68  F019         	goto	u5521
  7127   0032D0                     u5521:
  7128   0032D0  EF70  F019         	goto	l5042
  7129   0032D4                     u5520:
  7130   0032D4  6C01               	negf	___awdiv@dividend^0,c
  7131   0032D6  1E02               	comf	(___awdiv@dividend+1)^0,f,c
  7132   0032D8  B0D8               	btfsc	status,0,c
  7133   0032DA  2A02               	incf	(___awdiv@dividend+1)^0,f,c
  7134   0032DC  0E01               	movlw	1
  7135   0032DE  1A06               	xorwf	___awdiv@sign^0,f,c
  7136   0032E0                     l5042:
  7137   0032E0  0E00               	movlw	0
  7138   0032E2  6E08               	movwf	(___awdiv@quotient+1)^0,c
  7139   0032E4  0E00               	movlw	0
  7140   0032E6  6E07               	movwf	___awdiv@quotient^0,c
  7141   0032E8  5003               	movf	___awdiv@divisor^0,w,c
  7142   0032EA  1004               	iorwf	(___awdiv@divisor+1)^0,w,c
  7143   0032EC  B4D8               	btfsc	status,2,c
  7144   0032EE  EF7B  F019         	goto	u5531
  7145   0032F2  EF7D  F019         	goto	u5530
  7146   0032F6                     u5531:
  7147   0032F6  EFA5  F019         	goto	l5064
  7148   0032FA                     u5530:
  7149   0032FA  0E01               	movlw	1
  7150   0032FC  6E05               	movwf	___awdiv@counter^0,c
  7151   0032FE  EF85  F019         	goto	l5050
  7152   003302                     l5048:
  7153   003302  90D8               	bcf	status,0,c
  7154   003304  3603               	rlcf	___awdiv@divisor^0,f,c
  7155   003306  3604               	rlcf	(___awdiv@divisor+1)^0,f,c
  7156   003308  2A05               	incf	___awdiv@counter^0,f,c
  7157   00330A                     l5050:
  7158   00330A  AE04               	btfss	(___awdiv@divisor+1)^0,7,c
  7159   00330C  EF8A  F019         	goto	u5541
  7160   003310  EF8C  F019         	goto	u5540
  7161   003314                     u5541:
  7162   003314  EF81  F019         	goto	l5048
  7163   003318                     u5540:
  7164   003318                     l5052:
  7165   003318  90D8               	bcf	status,0,c
  7166   00331A  3607               	rlcf	___awdiv@quotient^0,f,c
  7167   00331C  3608               	rlcf	(___awdiv@quotient+1)^0,f,c
  7168   00331E  5003               	movf	___awdiv@divisor^0,w,c
  7169   003320  5C01               	subwf	___awdiv@dividend^0,w,c
  7170   003322  5004               	movf	(___awdiv@divisor+1)^0,w,c
  7171   003324  5802               	subwfb	(___awdiv@dividend+1)^0,w,c
  7172   003326  A0D8               	btfss	status,0,c
  7173   003328  EF98  F019         	goto	u5551
  7174   00332C  EF9A  F019         	goto	u5550
  7175   003330                     u5551:
  7176   003330  EF9F  F019         	goto	l5060
  7177   003334                     u5550:
  7178   003334  5003               	movf	___awdiv@divisor^0,w,c
  7179   003336  5E01               	subwf	___awdiv@dividend^0,f,c
  7180   003338  5004               	movf	(___awdiv@divisor+1)^0,w,c
  7181   00333A  5A02               	subwfb	(___awdiv@dividend+1)^0,f,c
  7182   00333C  8007               	bsf	___awdiv@quotient^0,0,c
  7183   00333E                     l5060:
  7184   00333E  90D8               	bcf	status,0,c
  7185   003340  3204               	rrcf	(___awdiv@divisor+1)^0,f,c
  7186   003342  3203               	rrcf	___awdiv@divisor^0,f,c
  7187   003344  2E05               	decfsz	___awdiv@counter^0,f,c
  7188   003346  EF8C  F019         	goto	l5052
  7189   00334A                     l5064:
  7190   00334A  5006               	movf	___awdiv@sign^0,w,c
  7191   00334C  B4D8               	btfsc	status,2,c
  7192   00334E  EFAB  F019         	goto	u5561
  7193   003352  EFAD  F019         	goto	u5560
  7194   003356                     u5561:
  7195   003356  EFB1  F019         	goto	l5068
  7196   00335A                     u5560:
  7197   00335A  6C07               	negf	___awdiv@quotient^0,c
  7198   00335C  1E08               	comf	(___awdiv@quotient+1)^0,f,c
  7199   00335E  B0D8               	btfsc	status,0,c
  7200   003360  2A08               	incf	(___awdiv@quotient+1)^0,f,c
  7201   003362                     l5068:
  7202   003362  C007  F001         	movff	___awdiv@quotient,?___awdiv
  7203   003366  C008  F002         	movff	___awdiv@quotient+1,?___awdiv+1
  7204   00336A  0012               	return		;funcret
  7205   00336C                     __end_of___awdiv:
  7206                           	callstack 0
  7207                           
  7208 ;; *************** function ___xxtofl *****************
  7209 ;; Defined at:
  7210 ;;		line 10 in file "/opt/microchip/xc8/v2.45/pic/sources/c99/common/xxtofl.c"
  7211 ;; Parameters:    Size  Location     Type
  7212 ;;  sign            1    wreg     unsigned char 
  7213 ;;  val             4    7[COMRAM] long 
  7214 ;; Auto vars:     Size  Location     Type
  7215 ;;  sign            1   15[COMRAM] unsigned char 
  7216 ;;  arg             4   17[COMRAM] unsigned long 
  7217 ;;  exp             1   16[COMRAM] unsigned char 
  7218 ;; Return value:  Size  Location     Type
  7219 ;;                  4    7[COMRAM] unsigned char 
  7220 ;; Registers used:
  7221 ;;		wreg, status,2, status,0
  7222 ;; Tracked objects:
  7223 ;;		On entry : 0/0
  7224 ;;		On exit  : 0/0
  7225 ;;		Unchanged: 0/0
  7226 ;; Data sizes:     COMRAM   BANK0   BANK1   BANK2   BANK3   BANK4   BANK5   BANK6   BANK7   BANK8   BANK9  BANK10  BANK1
      +1  BANK12  BANK14
  7227 ;;      Params:         4       0       0       0       0       0       0       0       0       0       0       0       
      +0       0       0
  7228 ;;      Locals:         6       0       0       0       0       0       0       0       0       0       0       0       
      +0       0       0
  7229 ;;      Temps:          4       0       0       0       0       0       0       0       0       0       0       0       
      +0       0       0
  7230 ;;      Totals:        14       0       0       0       0       0       0       0       0       0       0       0       
      +0       0       0
  7231 ;;Total ram usage:       14 bytes
  7232 ;; Hardware stack levels used: 1
  7233 ;; This function calls:
  7234 ;;		Nothing
  7235 ;; This function is called by:
  7236 ;;		_main
  7237 ;; This function uses a non-reentrant model
  7238 ;;
  7239                           
  7240                           	psect	text27
  7241   002DEC                     __ptext27:
  7242                           	callstack 0
  7243   002DEC                     ___xxtofl:
  7244                           	callstack 30
  7245                           
  7246                           ;incstack = 0
  7247                           ;___xxtofl@sign stored from wreg
  7248   002DEC  6E10               	movwf	___xxtofl@sign^0,c
  7249   002DEE  5010               	movf	___xxtofl@sign^0,w,c
  7250   002DF0  B4D8               	btfsc	status,2,c
  7251   002DF2  EFFD  F016         	goto	u6151
  7252   002DF6  EFFF  F016         	goto	u6150
  7253   002DFA                     u6151:
  7254   002DFA  EF21  F017         	goto	l1175
  7255   002DFE                     u6150:
  7256   002DFE  BE0B               	btfsc	(___xxtofl@val+3)^0,7,c
  7257   002E00  EF06  F017         	goto	u6160
  7258   002E04  EF04  F017         	goto	u6161
  7259   002E08                     u6161:
  7260   002E08  EF21  F017         	goto	l1175
  7261   002E0C                     u6160:
  7262   002E0C  C008  F00C         	movff	___xxtofl@val,??___xxtofl
  7263   002E10  C009  F00D         	movff	___xxtofl@val+1,??___xxtofl+1
  7264   002E14  C00A  F00E         	movff	___xxtofl@val+2,??___xxtofl+2
  7265   002E18  C00B  F00F         	movff	___xxtofl@val+3,??___xxtofl+3
  7266   002E1C  1E0C               	comf	??___xxtofl^0,f,c
  7267   002E1E  1E0D               	comf	(??___xxtofl+1)^0,f,c
  7268   002E20  1E0E               	comf	(??___xxtofl+2)^0,f,c
  7269   002E22  1E0F               	comf	(??___xxtofl+3)^0,f,c
  7270   002E24  2A0C               	incf	??___xxtofl^0,f,c
  7271   002E26  0E00               	movlw	0
  7272   002E28  220D               	addwfc	(??___xxtofl+1)^0,f,c
  7273   002E2A  220E               	addwfc	(??___xxtofl+2)^0,f,c
  7274   002E2C  220F               	addwfc	(??___xxtofl+3)^0,f,c
  7275   002E2E  C00C  F012         	movff	??___xxtofl,___xxtofl@arg
  7276   002E32  C00D  F013         	movff	??___xxtofl+1,___xxtofl@arg+1
  7277   002E36  C00E  F014         	movff	??___xxtofl+2,___xxtofl@arg+2
  7278   002E3A  C00F  F015         	movff	??___xxtofl+3,___xxtofl@arg+3
  7279   002E3E  EF29  F017         	goto	l5574
  7280   002E42                     l1175:
  7281   002E42  C008  F012         	movff	___xxtofl@val,___xxtofl@arg
  7282   002E46  C009  F013         	movff	___xxtofl@val+1,___xxtofl@arg+1
  7283   002E4A  C00A  F014         	movff	___xxtofl@val+2,___xxtofl@arg+2
  7284   002E4E  C00B  F015         	movff	___xxtofl@val+3,___xxtofl@arg+3
  7285   002E52                     l5574:
  7286   002E52  5008               	movf	___xxtofl@val^0,w,c
  7287   002E54  1009               	iorwf	(___xxtofl@val+1)^0,w,c
  7288   002E56  100A               	iorwf	(___xxtofl@val+2)^0,w,c
  7289   002E58  100B               	iorwf	(___xxtofl@val+3)^0,w,c
  7290   002E5A  A4D8               	btfss	status,2,c
  7291   002E5C  EF32  F017         	goto	u6171
  7292   002E60  EF34  F017         	goto	u6170
  7293   002E64                     u6171:
  7294   002E64  EF3E  F017         	goto	l5580
  7295   002E68                     u6170:
  7296   002E68  0E00               	movlw	0
  7297   002E6A  6E08               	movwf	?___xxtofl^0,c
  7298   002E6C  0E00               	movlw	0
  7299   002E6E  6E09               	movwf	(?___xxtofl+1)^0,c
  7300   002E70  0E00               	movlw	0
  7301   002E72  6E0A               	movwf	(?___xxtofl+2)^0,c
  7302   002E74  0E00               	movlw	0
  7303   002E76  6E0B               	movwf	(?___xxtofl+3)^0,c
  7304   002E78  EFCF  F017         	goto	l1178
  7305   002E7C                     l5580:
  7306   002E7C  0E96               	movlw	150
  7307   002E7E  6E11               	movwf	___xxtofl@exp^0,c
  7308   002E80  EF48  F017         	goto	l5584
  7309   002E84                     l5582:
  7310   002E84  2A11               	incf	___xxtofl@exp^0,f,c
  7311   002E86  90D8               	bcf	status,0,c
  7312   002E88  3215               	rrcf	(___xxtofl@arg+3)^0,f,c
  7313   002E8A  3214               	rrcf	(___xxtofl@arg+2)^0,f,c
  7314   002E8C  3213               	rrcf	(___xxtofl@arg+1)^0,f,c
  7315   002E8E  3212               	rrcf	___xxtofl@arg^0,f,c
  7316   002E90                     l5584:
  7317   002E90  0E00               	movlw	0
  7318   002E92  1412               	andwf	___xxtofl@arg^0,w,c
  7319   002E94  6E0C               	movwf	??___xxtofl^0,c
  7320   002E96  0E00               	movlw	0
  7321   002E98  1413               	andwf	(___xxtofl@arg+1)^0,w,c
  7322   002E9A  6E0D               	movwf	(??___xxtofl+1)^0,c
  7323   002E9C  0E00               	movlw	0
  7324   002E9E  1414               	andwf	(___xxtofl@arg+2)^0,w,c
  7325   002EA0  6E0E               	movwf	(??___xxtofl+2)^0,c
  7326   002EA2  0EFE               	movlw	254
  7327   002EA4  1415               	andwf	(___xxtofl@arg+3)^0,w,c
  7328   002EA6  6E0F               	movwf	(??___xxtofl+3)^0,c
  7329   002EA8  500C               	movf	??___xxtofl^0,w,c
  7330   002EAA  100D               	iorwf	(??___xxtofl+1)^0,w,c
  7331   002EAC  100E               	iorwf	(??___xxtofl+2)^0,w,c
  7332   002EAE  100F               	iorwf	(??___xxtofl+3)^0,w,c
  7333   002EB0  A4D8               	btfss	status,2,c
  7334   002EB2  EF5D  F017         	goto	u6181
  7335   002EB6  EF5F  F017         	goto	u6180
  7336   002EBA                     u6181:
  7337   002EBA  EF42  F017         	goto	l5582
  7338   002EBE                     u6180:
  7339   002EBE  EF6D  F017         	goto	l1182
  7340   002EC2                     l5586:
  7341   002EC2  2A11               	incf	___xxtofl@exp^0,f,c
  7342   002EC4  0E01               	movlw	1
  7343   002EC6  2612               	addwf	___xxtofl@arg^0,f,c
  7344   002EC8  0E00               	movlw	0
  7345   002ECA  2213               	addwfc	(___xxtofl@arg+1)^0,f,c
  7346   002ECC  2214               	addwfc	(___xxtofl@arg+2)^0,f,c
  7347   002ECE  2215               	addwfc	(___xxtofl@arg+3)^0,f,c
  7348   002ED0  90D8               	bcf	status,0,c
  7349   002ED2  3215               	rrcf	(___xxtofl@arg+3)^0,f,c
  7350   002ED4  3214               	rrcf	(___xxtofl@arg+2)^0,f,c
  7351   002ED6  3213               	rrcf	(___xxtofl@arg+1)^0,f,c
  7352   002ED8  3212               	rrcf	___xxtofl@arg^0,f,c
  7353   002EDA                     l1182:
  7354   002EDA  0E00               	movlw	0
  7355   002EDC  1412               	andwf	___xxtofl@arg^0,w,c
  7356   002EDE  6E0C               	movwf	??___xxtofl^0,c
  7357   002EE0  0E00               	movlw	0
  7358   002EE2  1413               	andwf	(___xxtofl@arg+1)^0,w,c
  7359   002EE4  6E0D               	movwf	(??___xxtofl+1)^0,c
  7360   002EE6  0E00               	movlw	0
  7361   002EE8  1414               	andwf	(___xxtofl@arg+2)^0,w,c
  7362   002EEA  6E0E               	movwf	(??___xxtofl+2)^0,c
  7363   002EEC  0EFF               	movlw	255
  7364   002EEE  1415               	andwf	(___xxtofl@arg+3)^0,w,c
  7365   002EF0  6E0F               	movwf	(??___xxtofl+3)^0,c
  7366   002EF2  500C               	movf	??___xxtofl^0,w,c
  7367   002EF4  100D               	iorwf	(??___xxtofl+1)^0,w,c
  7368   002EF6  100E               	iorwf	(??___xxtofl+2)^0,w,c
  7369   002EF8  100F               	iorwf	(??___xxtofl+3)^0,w,c
  7370   002EFA  A4D8               	btfss	status,2,c
  7371   002EFC  EF82  F017         	goto	u6191
  7372   002F00  EF84  F017         	goto	u6190
  7373   002F04                     u6191:
  7374   002F04  EF61  F017         	goto	l5586
  7375   002F08                     u6190:
  7376   002F08  EF8C  F017         	goto	l5594
  7377   002F0C                     l5592:
  7378   002F0C  0611               	decf	___xxtofl@exp^0,f,c
  7379   002F0E  90D8               	bcf	status,0,c
  7380   002F10  3612               	rlcf	___xxtofl@arg^0,f,c
  7381   002F12  3613               	rlcf	(___xxtofl@arg+1)^0,f,c
  7382   002F14  3614               	rlcf	(___xxtofl@arg+2)^0,f,c
  7383   002F16  3615               	rlcf	(___xxtofl@arg+3)^0,f,c
  7384   002F18                     l5594:
  7385   002F18  BE14               	btfsc	(___xxtofl@arg+2)^0,7,c
  7386   002F1A  EF91  F017         	goto	u6201
  7387   002F1E  EF93  F017         	goto	u6200
  7388   002F22                     u6201:
  7389   002F22  EF9B  F017         	goto	l1189
  7390   002F26                     u6200:
  7391   002F26  0E02               	movlw	2
  7392   002F28  6011               	cpfslt	___xxtofl@exp^0,c
  7393   002F2A  EF99  F017         	goto	u6211
  7394   002F2E  EF9B  F017         	goto	u6210
  7395   002F32                     u6211:
  7396   002F32  EF86  F017         	goto	l5592
  7397   002F36                     u6210:
  7398   002F36                     l1189:
  7399   002F36  B011               	btfsc	___xxtofl@exp^0,0,c
  7400   002F38  EFA0  F017         	goto	u6221
  7401   002F3C  EFA2  F017         	goto	u6220
  7402   002F40                     u6221:
  7403   002F40  EFA3  F017         	goto	l5600
  7404   002F44                     u6220:
  7405   002F44  9E14               	bcf	(___xxtofl@arg+2)^0,7,c
  7406   002F46                     l5600:
  7407   002F46  90D8               	bcf	status,0,c
  7408   002F48  3211               	rrcf	___xxtofl@exp^0,f,c
  7409   002F4A  C011  F00C         	movff	___xxtofl@exp,??___xxtofl
  7410   002F4E  6A0D               	clrf	(??___xxtofl+1)^0,c
  7411   002F50  6A0E               	clrf	(??___xxtofl+2)^0,c
  7412   002F52  6A0F               	clrf	(??___xxtofl+3)^0,c
  7413   002F54  C00C  F00F         	movff	??___xxtofl,??___xxtofl+3
  7414   002F58  6A0E               	clrf	(??___xxtofl+2)^0,c
  7415   002F5A  6A0D               	clrf	(??___xxtofl+1)^0,c
  7416   002F5C  6A0C               	clrf	??___xxtofl^0,c
  7417   002F5E  500C               	movf	??___xxtofl^0,w,c
  7418   002F60  1212               	iorwf	___xxtofl@arg^0,f,c
  7419   002F62  500D               	movf	(??___xxtofl+1)^0,w,c
  7420   002F64  1213               	iorwf	(___xxtofl@arg+1)^0,f,c
  7421   002F66  500E               	movf	(??___xxtofl+2)^0,w,c
  7422   002F68  1214               	iorwf	(___xxtofl@arg+2)^0,f,c
  7423   002F6A  500F               	movf	(??___xxtofl+3)^0,w,c
  7424   002F6C  1215               	iorwf	(___xxtofl@arg+3)^0,f,c
  7425   002F6E  5010               	movf	___xxtofl@sign^0,w,c
  7426   002F70  B4D8               	btfsc	status,2,c
  7427   002F72  EFBD  F017         	goto	u6231
  7428   002F76  EFBF  F017         	goto	u6230
  7429   002F7A                     u6231:
  7430   002F7A  EFC7  F017         	goto	l5610
  7431   002F7E                     u6230:
  7432   002F7E  BE0B               	btfsc	(___xxtofl@val+3)^0,7,c
  7433   002F80  EFC6  F017         	goto	u6240
  7434   002F84  EFC4  F017         	goto	u6241
  7435   002F88                     u6241:
  7436   002F88  EFC7  F017         	goto	l5610
  7437   002F8C                     u6240:
  7438   002F8C  8E15               	bsf	(___xxtofl@arg+3)^0,7,c
  7439   002F8E                     l5610:
  7440   002F8E  C012  F008         	movff	___xxtofl@arg,?___xxtofl
  7441   002F92  C013  F009         	movff	___xxtofl@arg+1,?___xxtofl+1
  7442   002F96  C014  F00A         	movff	___xxtofl@arg+2,?___xxtofl+2
  7443   002F9A  C015  F00B         	movff	___xxtofl@arg+3,?___xxtofl+3
  7444   002F9E                     l1178:
  7445   002F9E  0012               	return		;funcret
  7446   002FA0                     __end_of___xxtofl:
  7447                           	callstack 0
  7448                           
  7449 ;; *************** function ___lwdiv *****************
  7450 ;; Defined at:
  7451 ;;		line 7 in file "/opt/microchip/xc8/v2.45/pic/sources/c99/common/lwdiv.c"
  7452 ;; Parameters:    Size  Location     Type
  7453 ;;  dividend        2    0[COMRAM] unsigned int 
  7454 ;;  divisor         2    2[COMRAM] unsigned int 
  7455 ;; Auto vars:     Size  Location     Type
  7456 ;;  quotient        2    5[COMRAM] unsigned int 
  7457 ;;  counter         1    4[COMRAM] unsigned char 
  7458 ;; Return value:  Size  Location     Type
  7459 ;;                  2    0[COMRAM] unsigned int 
  7460 ;; Registers used:
  7461 ;;		wreg, status,2, status,0
  7462 ;; Tracked objects:
  7463 ;;		On entry : 0/0
  7464 ;;		On exit  : 0/0
  7465 ;;		Unchanged: 0/0
  7466 ;; Data sizes:     COMRAM   BANK0   BANK1   BANK2   BANK3   BANK4   BANK5   BANK6   BANK7   BANK8   BANK9  BANK10  BANK1
      +1  BANK12  BANK14
  7467 ;;      Params:         4       0       0       0       0       0       0       0       0       0       0       0       
      +0       0       0
  7468 ;;      Locals:         3       0       0       0       0       0       0       0       0       0       0       0       
      +0       0       0
  7469 ;;      Temps:          0       0       0       0       0       0       0       0       0       0       0       0       
      +0       0       0
  7470 ;;      Totals:         7       0       0       0       0       0       0       0       0       0       0       0       
      +0       0       0
  7471 ;;Total ram usage:        7 bytes
  7472 ;; Hardware stack levels used: 1
  7473 ;; This function calls:
  7474 ;;		Nothing
  7475 ;; This function is called by:
  7476 ;;		_main
  7477 ;; This function uses a non-reentrant model
  7478 ;;
  7479                           
  7480                           	psect	text28
  7481   00360E                     __ptext28:
  7482                           	callstack 0
  7483   00360E                     ___lwdiv:
  7484                           	callstack 30
  7485   00360E  0E00               	movlw	0
  7486   003610  6E07               	movwf	(___lwdiv@quotient+1)^0,c
  7487   003612  0E00               	movlw	0
  7488   003614  6E06               	movwf	___lwdiv@quotient^0,c
  7489   003616  5003               	movf	___lwdiv@divisor^0,w,c
  7490   003618  1004               	iorwf	(___lwdiv@divisor+1)^0,w,c
  7491   00361A  B4D8               	btfsc	status,2,c
  7492   00361C  EF12  F01B         	goto	u6121
  7493   003620  EF14  F01B         	goto	u6120
  7494   003624                     u6121:
  7495   003624  EF3C  F01B         	goto	l1011
  7496   003628                     u6120:
  7497   003628  0E01               	movlw	1
  7498   00362A  6E05               	movwf	___lwdiv@counter^0,c
  7499   00362C  EF1C  F01B         	goto	l5554
  7500   003630                     l5552:
  7501   003630  90D8               	bcf	status,0,c
  7502   003632  3603               	rlcf	___lwdiv@divisor^0,f,c
  7503   003634  3604               	rlcf	(___lwdiv@divisor+1)^0,f,c
  7504   003636  2A05               	incf	___lwdiv@counter^0,f,c
  7505   003638                     l5554:
  7506   003638  AE04               	btfss	(___lwdiv@divisor+1)^0,7,c
  7507   00363A  EF21  F01B         	goto	u6131
  7508   00363E  EF23  F01B         	goto	u6130
  7509   003642                     u6131:
  7510   003642  EF18  F01B         	goto	l5552
  7511   003646                     u6130:
  7512   003646                     l5556:
  7513   003646  90D8               	bcf	status,0,c
  7514   003648  3606               	rlcf	___lwdiv@quotient^0,f,c
  7515   00364A  3607               	rlcf	(___lwdiv@quotient+1)^0,f,c
  7516   00364C  5003               	movf	___lwdiv@divisor^0,w,c
  7517   00364E  5C01               	subwf	___lwdiv@dividend^0,w,c
  7518   003650  5004               	movf	(___lwdiv@divisor+1)^0,w,c
  7519   003652  5802               	subwfb	(___lwdiv@dividend+1)^0,w,c
  7520   003654  A0D8               	btfss	status,0,c
  7521   003656  EF2F  F01B         	goto	u6141
  7522   00365A  EF31  F01B         	goto	u6140
  7523   00365E                     u6141:
  7524   00365E  EF36  F01B         	goto	l5564
  7525   003662                     u6140:
  7526   003662  5003               	movf	___lwdiv@divisor^0,w,c
  7527   003664  5E01               	subwf	___lwdiv@dividend^0,f,c
  7528   003666  5004               	movf	(___lwdiv@divisor+1)^0,w,c
  7529   003668  5A02               	subwfb	(___lwdiv@dividend+1)^0,f,c
  7530   00366A  8006               	bsf	___lwdiv@quotient^0,0,c
  7531   00366C                     l5564:
  7532   00366C  90D8               	bcf	status,0,c
  7533   00366E  3204               	rrcf	(___lwdiv@divisor+1)^0,f,c
  7534   003670  3203               	rrcf	___lwdiv@divisor^0,f,c
  7535   003672  2E05               	decfsz	___lwdiv@counter^0,f,c
  7536   003674  EF23  F01B         	goto	l5556
  7537   003678                     l1011:
  7538   003678  C006  F001         	movff	___lwdiv@quotient,?___lwdiv
  7539   00367C  C007  F002         	movff	___lwdiv@quotient+1,?___lwdiv+1
  7540   003680  0012               	return		;funcret
  7541   003682                     __end_of___lwdiv:
  7542                           	callstack 0
  7543                           
  7544 ;; *************** function _TMR2_StartTimer *****************
  7545 ;; Defined at:
  7546 ;;		line 106 in file "mcc_generated_files/tmr2.c"
  7547 ;; Parameters:    Size  Location     Type
  7548 ;;		None
  7549 ;; Auto vars:     Size  Location     Type
  7550 ;;		None
  7551 ;; Return value:  Size  Location     Type
  7552 ;;                  1    wreg      void 
  7553 ;; Registers used:
  7554 ;;		cstack
  7555 ;; Tracked objects:
  7556 ;;		On entry : 0/0
  7557 ;;		On exit  : 0/0
  7558 ;;		Unchanged: 0/0
  7559 ;; Data sizes:     COMRAM   BANK0   BANK1   BANK2   BANK3   BANK4   BANK5   BANK6   BANK7   BANK8   BANK9  BANK10  BANK1
      +1  BANK12  BANK14
  7560 ;;      Params:         0       0       0       0       0       0       0       0       0       0       0       0       
      +0       0       0
  7561 ;;      Locals:         0       0       0       0       0       0       0       0       0       0       0       0       
      +0       0       0
  7562 ;;      Temps:          0       0       0       0       0       0       0       0       0       0       0       0       
      +0       0       0
  7563 ;;      Totals:         0       0       0       0       0       0       0       0       0       0       0       0       
      +0       0       0
  7564 ;;Total ram usage:        0 bytes
  7565 ;; Hardware stack levels used: 1
  7566 ;; Hardware stack levels required when called: 1
  7567 ;; This function calls:
  7568 ;;		_TMR2_Start
  7569 ;; This function is called by:
  7570 ;;		_main
  7571 ;; This function uses a non-reentrant model
  7572 ;;
  7573                           
  7574                           	psect	text29
  7575   003BEA                     __ptext29:
  7576                           	callstack 0
  7577   003BEA                     _TMR2_StartTimer:
  7578                           	callstack 29
  7579   003BEA                     
  7580                           ;mcc_generated_files/tmr2.c: 108:     TMR2_Start();
  7581   003BEA  ECFB  F01D         	call	_TMR2_Start	;wreg free
  7582   003BEE  0012               	return		;funcret
  7583   003BF0                     __end_of_TMR2_StartTimer:
  7584                           	callstack 0
  7585                           
  7586 ;; *************** function _TMR2_Start *****************
  7587 ;; Defined at:
  7588 ;;		line 100 in file "mcc_generated_files/tmr2.c"
  7589 ;; Parameters:    Size  Location     Type
  7590 ;;		None
  7591 ;; Auto vars:     Size  Location     Type
  7592 ;;		None
  7593 ;; Return value:  Size  Location     Type
  7594 ;;                  1    wreg      void 
  7595 ;; Registers used:
  7596 ;;		None
  7597 ;; Tracked objects:
  7598 ;;		On entry : 0/0
  7599 ;;		On exit  : 0/0
  7600 ;;		Unchanged: 0/0
  7601 ;; Data sizes:     COMRAM   BANK0   BANK1   BANK2   BANK3   BANK4   BANK5   BANK6   BANK7   BANK8   BANK9  BANK10  BANK1
      +1  BANK12  BANK14
  7602 ;;      Params:         0       0       0       0       0       0       0       0       0       0       0       0       
      +0       0       0
  7603 ;;      Locals:         0       0       0       0       0       0       0       0       0       0       0       0       
      +0       0       0
  7604 ;;      Temps:          0       0       0       0       0       0       0       0       0       0       0       0       
      +0       0       0
  7605 ;;      Totals:         0       0       0       0       0       0       0       0       0       0       0       0       
      +0       0       0
  7606 ;;Total ram usage:        0 bytes
  7607 ;; Hardware stack levels used: 1
  7608 ;; This function calls:
  7609 ;;		Nothing
  7610 ;; This function is called by:
  7611 ;;		_TMR2_StartTimer
  7612 ;; This function uses a non-reentrant model
  7613 ;;
  7614                           
  7615                           	psect	text30
  7616   003BF6                     __ptext30:
  7617                           	callstack 0
  7618   003BF6                     _TMR2_Start:
  7619                           	callstack 29
  7620   003BF6                     
  7621                           ;mcc_generated_files/tmr2.c: 103:     T2CONbits.TMR2ON = 1;
  7622   003BF6  8EBC               	bsf	188,7,c	;volatile
  7623   003BF8  0012               	return		;funcret
  7624   003BFA                     __end_of_TMR2_Start:
  7625                           	callstack 0
  7626                           
  7627 ;; *************** function _SYSTEM_Initialize *****************
  7628 ;; Defined at:
  7629 ;;		line 50 in file "mcc_generated_files/mcc.c"
  7630 ;; Parameters:    Size  Location     Type
  7631 ;;		None
  7632 ;; Auto vars:     Size  Location     Type
  7633 ;;		None
  7634 ;; Return value:  Size  Location     Type
  7635 ;;                  1    wreg      void 
  7636 ;; Registers used:
  7637 ;;		wreg, status,2, status,0, cstack
  7638 ;; Tracked objects:
  7639 ;;		On entry : 0/0
  7640 ;;		On exit  : 0/0
  7641 ;;		Unchanged: 0/0
  7642 ;; Data sizes:     COMRAM   BANK0   BANK1   BANK2   BANK3   BANK4   BANK5   BANK6   BANK7   BANK8   BANK9  BANK10  BANK1
      +1  BANK12  BANK14
  7643 ;;      Params:         0       0       0       0       0       0       0       0       0       0       0       0       
      +0       0       0
  7644 ;;      Locals:         0       0       0       0       0       0       0       0       0       0       0       0       
      +0       0       0
  7645 ;;      Temps:          0       0       0       0       0       0       0       0       0       0       0       0       
      +0       0       0
  7646 ;;      Totals:         0       0       0       0       0       0       0       0       0       0       0       0       
      +0       0       0
  7647 ;;Total ram usage:        0 bytes
  7648 ;; Hardware stack levels used: 1
  7649 ;; Hardware stack levels required when called: 2
  7650 ;; This function calls:
  7651 ;;		_ADCC_Initialize
  7652 ;;		_EUSART2_Initialize
  7653 ;;		_OSCILLATOR_Initialize
  7654 ;;		_PIN_MANAGER_Initialize
  7655 ;;		_PMD_Initialize
  7656 ;;		_PWM4_Initialize
  7657 ;;		_TMR2_Initialize
  7658 ;; This function is called by:
  7659 ;;		_main
  7660 ;; This function uses a non-reentrant model
  7661 ;;
  7662                           
  7663                           	psect	text31
  7664   003ADA                     __ptext31:
  7665                           	callstack 0
  7666   003ADA                     _SYSTEM_Initialize:
  7667                           	callstack 28
  7668   003ADA                     
  7669                           ;mcc_generated_files/mcc.c: 52:     PMD_Initialize();
  7670   003ADA  EC8A  F01D         	call	_PMD_Initialize	;wreg free
  7671                           
  7672                           ;mcc_generated_files/mcc.c: 53:     PIN_MANAGER_Initialize();
  7673   003ADE  ECC0  F01A         	call	_PIN_MANAGER_Initialize	;wreg free
  7674                           
  7675                           ;mcc_generated_files/mcc.c: 54:     OSCILLATOR_Initialize();
  7676   003AE2  ECA4  F01D         	call	_OSCILLATOR_Initialize	;wreg free
  7677                           
  7678                           ;mcc_generated_files/mcc.c: 55:     ADCC_Initialize();
  7679   003AE6  ECFC  F01B         	call	_ADCC_Initialize	;wreg free
  7680                           
  7681                           ;mcc_generated_files/mcc.c: 56:     PWM4_Initialize();
  7682   003AEA  ECB0  F01D         	call	_PWM4_Initialize	;wreg free
  7683                           
  7684                           ;mcc_generated_files/mcc.c: 57:     TMR2_Initialize();
  7685   003AEE  EC7C  F01D         	call	_TMR2_Initialize	;wreg free
  7686   003AF2                     
  7687                           ;mcc_generated_files/mcc.c: 58:     EUSART2_Initialize();
  7688   003AF2  EC24  F01C         	call	_EUSART2_Initialize	;wreg free
  7689   003AF6  0012               	return		;funcret
  7690   003AF8                     __end_of_SYSTEM_Initialize:
  7691                           	callstack 0
  7692                           
  7693 ;; *************** function _TMR2_Initialize *****************
  7694 ;; Defined at:
  7695 ;;		line 62 in file "mcc_generated_files/tmr2.c"
  7696 ;; Parameters:    Size  Location     Type
  7697 ;;		None
  7698 ;; Auto vars:     Size  Location     Type
  7699 ;;		None
  7700 ;; Return value:  Size  Location     Type
  7701 ;;                  1    wreg      void 
  7702 ;; Registers used:
  7703 ;;		wreg, status,2
  7704 ;; Tracked objects:
  7705 ;;		On entry : 0/0
  7706 ;;		On exit  : 0/0
  7707 ;;		Unchanged: 0/0
  7708 ;; Data sizes:     COMRAM   BANK0   BANK1   BANK2   BANK3   BANK4   BANK5   BANK6   BANK7   BANK8   BANK9  BANK10  BANK1
      +1  BANK12  BANK14
  7709 ;;      Params:         0       0       0       0       0       0       0       0       0       0       0       0       
      +0       0       0
  7710 ;;      Locals:         0       0       0       0       0       0       0       0       0       0       0       0       
      +0       0       0
  7711 ;;      Temps:          0       0       0       0       0       0       0       0       0       0       0       0       
      +0       0       0
  7712 ;;      Totals:         0       0       0       0       0       0       0       0       0       0       0       0       
      +0       0       0
  7713 ;;Total ram usage:        0 bytes
  7714 ;; Hardware stack levels used: 1
  7715 ;; This function calls:
  7716 ;;		Nothing
  7717 ;; This function is called by:
  7718 ;;		_SYSTEM_Initialize
  7719 ;; This function uses a non-reentrant model
  7720 ;;
  7721                           
  7722                           	psect	text32
  7723   003AF8                     __ptext32:
  7724                           	callstack 0
  7725   003AF8                     _TMR2_Initialize:
  7726                           	callstack 29
  7727   003AF8                     
  7728                           ;mcc_generated_files/tmr2.c: 67:     T2CLKCON = 0x01;
  7729   003AF8  0E01               	movlw	1
  7730   003AFA  6EBE               	movwf	190,c	;volatile
  7731                           
  7732                           ;mcc_generated_files/tmr2.c: 70:     T2HLT = 0x00;
  7733   003AFC  0E00               	movlw	0
  7734   003AFE  6EBD               	movwf	189,c	;volatile
  7735                           
  7736                           ;mcc_generated_files/tmr2.c: 73:     T2RST = 0x00;
  7737   003B00  0E00               	movlw	0
  7738   003B02  6EBF               	movwf	191,c	;volatile
  7739   003B04                     
  7740                           ;mcc_generated_files/tmr2.c: 76:     T2PR = 0xFF;
  7741   003B04  68BB               	setf	187,c	;volatile
  7742                           
  7743                           ;mcc_generated_files/tmr2.c: 79:     T2TMR = 0x00;
  7744   003B06  0E00               	movlw	0
  7745   003B08  6EBA               	movwf	186,c	;volatile
  7746   003B0A                     
  7747                           ;mcc_generated_files/tmr2.c: 82:     PIR4bits.TMR2IF = 0;
  7748   003B0A  010E               	movlb	14	; () banked
  7749   003B0C  93C9               	bcf	201,1,b	;volatile
  7750                           
  7751                           ;mcc_generated_files/tmr2.c: 85:     T2CON = 0xF0;
  7752   003B0E  0EF0               	movlw	240
  7753   003B10  6EBC               	movwf	188,c	;volatile
  7754   003B12                     
  7755                           ; BSR set to: 14
  7756   003B12  0012               	return		;funcret
  7757   003B14                     __end_of_TMR2_Initialize:
  7758                           	callstack 0
  7759                           
  7760 ;; *************** function _PWM4_Initialize *****************
  7761 ;; Defined at:
  7762 ;;		line 58 in file "mcc_generated_files/pwm4.c"
  7763 ;; Parameters:    Size  Location     Type
  7764 ;;		None
  7765 ;; Auto vars:     Size  Location     Type
  7766 ;;		None
  7767 ;; Return value:  Size  Location     Type
  7768 ;;                  1    wreg      void 
  7769 ;; Registers used:
  7770 ;;		wreg, status,2
  7771 ;; Tracked objects:
  7772 ;;		On entry : 0/0
  7773 ;;		On exit  : 0/0
  7774 ;;		Unchanged: 0/0
  7775 ;; Data sizes:     COMRAM   BANK0   BANK1   BANK2   BANK3   BANK4   BANK5   BANK6   BANK7   BANK8   BANK9  BANK10  BANK1
      +1  BANK12  BANK14
  7776 ;;      Params:         0       0       0       0       0       0       0       0       0       0       0       0       
      +0       0       0
  7777 ;;      Locals:         0       0       0       0       0       0       0       0       0       0       0       0       
      +0       0       0
  7778 ;;      Temps:          0       0       0       0       0       0       0       0       0       0       0       0       
      +0       0       0
  7779 ;;      Totals:         0       0       0       0       0       0       0       0       0       0       0       0       
      +0       0       0
  7780 ;;Total ram usage:        0 bytes
  7781 ;; Hardware stack levels used: 1
  7782 ;; This function calls:
  7783 ;;		Nothing
  7784 ;; This function is called by:
  7785 ;;		_main
  7786 ;;		_SYSTEM_Initialize
  7787 ;; This function uses a non-reentrant model
  7788 ;;
  7789                           
  7790                           	psect	text33
  7791   003B60                     __ptext33:
  7792                           	callstack 0
  7793   003B60                     _PWM4_Initialize:
  7794                           	callstack 29
  7795   003B60                     
  7796                           ;mcc_generated_files/pwm4.c: 62:     PWM4CON = 0x80;
  7797   003B60  0E80               	movlw	128
  7798   003B62  6EA1               	movwf	161,c	;volatile
  7799                           
  7800                           ;mcc_generated_files/pwm4.c: 65:     PWM4DCH = 0x7F;
  7801   003B64  0E7F               	movlw	127
  7802   003B66  6EA0               	movwf	160,c	;volatile
  7803                           
  7804                           ;mcc_generated_files/pwm4.c: 68:     PWM4DCL = 0xC0;
  7805   003B68  0EC0               	movlw	192
  7806   003B6A  6E9F               	movwf	159,c	;volatile
  7807                           
  7808                           ;mcc_generated_files/pwm4.c: 71:     CCPTMRSbits.P4TSEL = 1;
  7809   003B6C  50AD               	movf	173,w,c	;volatile
  7810   003B6E  0B3F               	andlw	-193
  7811   003B70  0940               	iorlw	64
  7812   003B72  6EAD               	movwf	173,c	;volatile
  7813   003B74  0012               	return		;funcret
  7814   003B76                     __end_of_PWM4_Initialize:
  7815                           	callstack 0
  7816                           
  7817 ;; *************** function _PMD_Initialize *****************
  7818 ;; Defined at:
  7819 ;;		line 75 in file "mcc_generated_files/mcc.c"
  7820 ;; Parameters:    Size  Location     Type
  7821 ;;		None
  7822 ;; Auto vars:     Size  Location     Type
  7823 ;;		None
  7824 ;; Return value:  Size  Location     Type
  7825 ;;                  1    wreg      void 
  7826 ;; Registers used:
  7827 ;;		wreg, status,2
  7828 ;; Tracked objects:
  7829 ;;		On entry : 0/0
  7830 ;;		On exit  : 0/0
  7831 ;;		Unchanged: 0/0
  7832 ;; Data sizes:     COMRAM   BANK0   BANK1   BANK2   BANK3   BANK4   BANK5   BANK6   BANK7   BANK8   BANK9  BANK10  BANK1
      +1  BANK12  BANK14
  7833 ;;      Params:         0       0       0       0       0       0       0       0       0       0       0       0       
      +0       0       0
  7834 ;;      Locals:         0       0       0       0       0       0       0       0       0       0       0       0       
      +0       0       0
  7835 ;;      Temps:          0       0       0       0       0       0       0       0       0       0       0       0       
      +0       0       0
  7836 ;;      Totals:         0       0       0       0       0       0       0       0       0       0       0       0       
      +0       0       0
  7837 ;;Total ram usage:        0 bytes
  7838 ;; Hardware stack levels used: 1
  7839 ;; This function calls:
  7840 ;;		Nothing
  7841 ;; This function is called by:
  7842 ;;		_SYSTEM_Initialize
  7843 ;; This function uses a non-reentrant model
  7844 ;;
  7845                           
  7846                           	psect	text34
  7847   003B14                     __ptext34:
  7848                           	callstack 0
  7849   003B14                     _PMD_Initialize:
  7850                           	callstack 29
  7851   003B14                     
  7852                           ;mcc_generated_files/mcc.c: 78:     PMD0 = 0x00;
  7853   003B14  0E00               	movlw	0
  7854   003B16  010E               	movlb	14	; () banked
  7855   003B18  6FDC               	movwf	220,b	;volatile
  7856                           
  7857                           ;mcc_generated_files/mcc.c: 80:     PMD1 = 0x00;
  7858   003B1A  0E00               	movlw	0
  7859   003B1C  6FDD               	movwf	221,b	;volatile
  7860                           
  7861                           ;mcc_generated_files/mcc.c: 82:     PMD2 = 0x00;
  7862   003B1E  0E00               	movlw	0
  7863   003B20  6FDE               	movwf	222,b	;volatile
  7864                           
  7865                           ;mcc_generated_files/mcc.c: 84:     PMD3 = 0x00;
  7866   003B22  0E00               	movlw	0
  7867   003B24  6FDF               	movwf	223,b	;volatile
  7868                           
  7869                           ;mcc_generated_files/mcc.c: 86:     PMD4 = 0x00;
  7870   003B26  0E00               	movlw	0
  7871   003B28  6FE0               	movwf	224,b	;volatile
  7872                           
  7873                           ;mcc_generated_files/mcc.c: 88:     PMD5 = 0x00;
  7874   003B2A  0E00               	movlw	0
  7875   003B2C  6FE1               	movwf	225,b	;volatile
  7876   003B2E                     
  7877                           ; BSR set to: 14
  7878   003B2E  0012               	return		;funcret
  7879   003B30                     __end_of_PMD_Initialize:
  7880                           	callstack 0
  7881                           
  7882 ;; *************** function _PIN_MANAGER_Initialize *****************
  7883 ;; Defined at:
  7884 ;;		line 55 in file "mcc_generated_files/pin_manager.c"
  7885 ;; Parameters:    Size  Location     Type
  7886 ;;		None
  7887 ;; Auto vars:     Size  Location     Type
  7888 ;;		None
  7889 ;; Return value:  Size  Location     Type
  7890 ;;                  1    wreg      void 
  7891 ;; Registers used:
  7892 ;;		wreg, status,2
  7893 ;; Tracked objects:
  7894 ;;		On entry : 0/0
  7895 ;;		On exit  : 0/0
  7896 ;;		Unchanged: 0/0
  7897 ;; Data sizes:     COMRAM   BANK0   BANK1   BANK2   BANK3   BANK4   BANK5   BANK6   BANK7   BANK8   BANK9  BANK10  BANK1
      +1  BANK12  BANK14
  7898 ;;      Params:         0       0       0       0       0       0       0       0       0       0       0       0       
      +0       0       0
  7899 ;;      Locals:         0       0       0       0       0       0       0       0       0       0       0       0       
      +0       0       0
  7900 ;;      Temps:          0       0       0       0       0       0       0       0       0       0       0       0       
      +0       0       0
  7901 ;;      Totals:         0       0       0       0       0       0       0       0       0       0       0       0       
      +0       0       0
  7902 ;;Total ram usage:        0 bytes
  7903 ;; Hardware stack levels used: 1
  7904 ;; This function calls:
  7905 ;;		Nothing
  7906 ;; This function is called by:
  7907 ;;		_SYSTEM_Initialize
  7908 ;; This function uses a non-reentrant model
  7909 ;;
  7910                           
  7911                           	psect	text35
  7912   003580                     __ptext35:
  7913                           	callstack 0
  7914   003580                     _PIN_MANAGER_Initialize:
  7915                           	callstack 29
  7916   003580                     
  7917                           ;mcc_generated_files/pin_manager.c: 60:     LATE = 0x00;
  7918   003580  0E00               	movlw	0
  7919   003582  6E86               	movwf	134,c	;volatile
  7920                           
  7921                           ;mcc_generated_files/pin_manager.c: 61:     LATD = 0x00;
  7922   003584  0E00               	movlw	0
  7923   003586  6E85               	movwf	133,c	;volatile
  7924                           
  7925                           ;mcc_generated_files/pin_manager.c: 62:     LATA = 0x00;
  7926   003588  0E00               	movlw	0
  7927   00358A  6E82               	movwf	130,c	;volatile
  7928                           
  7929                           ;mcc_generated_files/pin_manager.c: 63:     LATB = 0x00;
  7930   00358C  0E00               	movlw	0
  7931   00358E  6E83               	movwf	131,c	;volatile
  7932                           
  7933                           ;mcc_generated_files/pin_manager.c: 64:     LATC = 0x00;
  7934   003590  0E00               	movlw	0
  7935   003592  6E84               	movwf	132,c	;volatile
  7936                           
  7937                           ;mcc_generated_files/pin_manager.c: 69:     TRISE = 0x07;
  7938   003594  0E07               	movlw	7
  7939   003596  6E8B               	movwf	139,c	;volatile
  7940                           
  7941                           ;mcc_generated_files/pin_manager.c: 70:     TRISA = 0xEF;
  7942   003598  0EEF               	movlw	239
  7943   00359A  6E87               	movwf	135,c	;volatile
  7944                           
  7945                           ;mcc_generated_files/pin_manager.c: 71:     TRISB = 0xBF;
  7946   00359C  0EBF               	movlw	191
  7947   00359E  6E88               	movwf	136,c	;volatile
  7948   0035A0                     
  7949                           ;mcc_generated_files/pin_manager.c: 72:     TRISC = 0xFF;
  7950   0035A0  6889               	setf	137,c	;volatile
  7951                           
  7952                           ;mcc_generated_files/pin_manager.c: 73:     TRISD = 0xFE;
  7953   0035A2  0EFE               	movlw	254
  7954   0035A4  6E8A               	movwf	138,c	;volatile
  7955                           
  7956                           ;mcc_generated_files/pin_manager.c: 78:     ANSELD = 0xFC;
  7957   0035A6  0EFC               	movlw	252
  7958   0035A8  010F               	movlb	15	; () banked
  7959   0035AA  6F21               	movwf	33,b	;volatile
  7960   0035AC                     
  7961                           ; BSR set to: 15
  7962                           ;mcc_generated_files/pin_manager.c: 79:     ANSELC = 0xFF;
  7963   0035AC  691C               	setf	28,b	;volatile
  7964                           
  7965                           ;mcc_generated_files/pin_manager.c: 80:     ANSELB = 0xBF;
  7966   0035AE  0EBF               	movlw	191
  7967   0035B0  6F14               	movwf	20,b	;volatile
  7968                           
  7969                           ;mcc_generated_files/pin_manager.c: 81:     ANSELE = 0x07;
  7970   0035B2  0E07               	movlw	7
  7971   0035B4  6F29               	movwf	41,b	;volatile
  7972                           
  7973                           ;mcc_generated_files/pin_manager.c: 82:     ANSELA = 0xEF;
  7974   0035B6  0EEF               	movlw	239
  7975   0035B8  6F0C               	movwf	12,b	;volatile
  7976                           
  7977                           ;mcc_generated_files/pin_manager.c: 87:     WPUD = 0x00;
  7978   0035BA  0E00               	movlw	0
  7979   0035BC  6F20               	movwf	32,b	;volatile
  7980                           
  7981                           ;mcc_generated_files/pin_manager.c: 88:     WPUE = 0x00;
  7982   0035BE  0E00               	movlw	0
  7983   0035C0  6F28               	movwf	40,b	;volatile
  7984                           
  7985                           ;mcc_generated_files/pin_manager.c: 89:     WPUB = 0x00;
  7986   0035C2  0E00               	movlw	0
  7987   0035C4  6F13               	movwf	19,b	;volatile
  7988                           
  7989                           ;mcc_generated_files/pin_manager.c: 90:     WPUA = 0x00;
  7990   0035C6  0E00               	movlw	0
  7991   0035C8  6F0B               	movwf	11,b	;volatile
  7992                           
  7993                           ;mcc_generated_files/pin_manager.c: 91:     WPUC = 0x00;
  7994   0035CA  0E00               	movlw	0
  7995   0035CC  6F1B               	movwf	27,b	;volatile
  7996                           
  7997                           ;mcc_generated_files/pin_manager.c: 96:     ODCONE = 0x00;
  7998   0035CE  0E00               	movlw	0
  7999   0035D0  6F27               	movwf	39,b	;volatile
  8000                           
  8001                           ;mcc_generated_files/pin_manager.c: 97:     ODCONA = 0x00;
  8002   0035D2  0E00               	movlw	0
  8003   0035D4  6F0A               	movwf	10,b	;volatile
  8004                           
  8005                           ;mcc_generated_files/pin_manager.c: 98:     ODCONB = 0x00;
  8006   0035D6  0E00               	movlw	0
  8007   0035D8  6F12               	movwf	18,b	;volatile
  8008                           
  8009                           ;mcc_generated_files/pin_manager.c: 99:     ODCONC = 0x00;
  8010   0035DA  0E00               	movlw	0
  8011   0035DC  6F1A               	movwf	26,b	;volatile
  8012                           
  8013                           ;mcc_generated_files/pin_manager.c: 100:     ODCOND = 0x00;
  8014   0035DE  0E00               	movlw	0
  8015   0035E0  6F1F               	movwf	31,b	;volatile
  8016   0035E2                     
  8017                           ; BSR set to: 15
  8018                           ;mcc_generated_files/pin_manager.c: 105:     SLRCONA = 0xFF;
  8019   0035E2  6909               	setf	9,b	;volatile
  8020   0035E4                     
  8021                           ; BSR set to: 15
  8022                           ;mcc_generated_files/pin_manager.c: 106:     SLRCONB = 0xFF;
  8023   0035E4  6911               	setf	17,b	;volatile
  8024   0035E6                     
  8025                           ; BSR set to: 15
  8026                           ;mcc_generated_files/pin_manager.c: 107:     SLRCONC = 0xFF;
  8027   0035E6  6919               	setf	25,b	;volatile
  8028   0035E8                     
  8029                           ; BSR set to: 15
  8030                           ;mcc_generated_files/pin_manager.c: 108:     SLRCOND = 0xFF;
  8031   0035E8  691E               	setf	30,b	;volatile
  8032                           
  8033                           ;mcc_generated_files/pin_manager.c: 109:     SLRCONE = 0x07;
  8034   0035EA  0E07               	movlw	7
  8035   0035EC  6F26               	movwf	38,b	;volatile
  8036   0035EE                     
  8037                           ; BSR set to: 15
  8038                           ;mcc_generated_files/pin_manager.c: 114:     INLVLA = 0xFF;
  8039   0035EE  6908               	setf	8,b	;volatile
  8040   0035F0                     
  8041                           ; BSR set to: 15
  8042                           ;mcc_generated_files/pin_manager.c: 115:     INLVLB = 0xFF;
  8043   0035F0  6910               	setf	16,b	;volatile
  8044   0035F2                     
  8045                           ; BSR set to: 15
  8046                           ;mcc_generated_files/pin_manager.c: 116:     INLVLC = 0xFF;
  8047   0035F2  6918               	setf	24,b	;volatile
  8048   0035F4                     
  8049                           ; BSR set to: 15
  8050                           ;mcc_generated_files/pin_manager.c: 117:     INLVLD = 0xFF;
  8051   0035F4  691D               	setf	29,b	;volatile
  8052                           
  8053                           ;mcc_generated_files/pin_manager.c: 118:     INLVLE = 0x0F;
  8054   0035F6  0E0F               	movlw	15
  8055   0035F8  6F25               	movwf	37,b	;volatile
  8056                           
  8057                           ;mcc_generated_files/pin_manager.c: 127:     RA4PPS = 0x08;
  8058   0035FA  0E08               	movlw	8
  8059   0035FC  010E               	movlb	14	; () banked
  8060   0035FE  6FE6               	movwf	230,b	;volatile
  8061                           
  8062                           ;mcc_generated_files/pin_manager.c: 128:     RB6PPS = 0x0B;
  8063   003600  0E0B               	movlw	11
  8064   003602  6FF0               	movwf	240,b	;volatile
  8065                           
  8066                           ;mcc_generated_files/pin_manager.c: 129:     RD0PPS = 0x0B;
  8067   003604  0E0B               	movlw	11
  8068   003606  6FFA               	movwf	250,b	;volatile
  8069                           
  8070                           ;mcc_generated_files/pin_manager.c: 130:     RX2PPS = 0x19;
  8071   003608  0E19               	movlw	25
  8072   00360A  6F88               	movwf	136,b	;volatile
  8073   00360C                     
  8074                           ; BSR set to: 14
  8075   00360C  0012               	return		;funcret
  8076   00360E                     __end_of_PIN_MANAGER_Initialize:
  8077                           	callstack 0
  8078                           
  8079 ;; *************** function _OSCILLATOR_Initialize *****************
  8080 ;; Defined at:
  8081 ;;		line 61 in file "mcc_generated_files/mcc.c"
  8082 ;; Parameters:    Size  Location     Type
  8083 ;;		None
  8084 ;; Auto vars:     Size  Location     Type
  8085 ;;		None
  8086 ;; Return value:  Size  Location     Type
  8087 ;;                  1    wreg      void 
  8088 ;; Registers used:
  8089 ;;		wreg, status,2
  8090 ;; Tracked objects:
  8091 ;;		On entry : 0/0
  8092 ;;		On exit  : 0/0
  8093 ;;		Unchanged: 0/0
  8094 ;; Data sizes:     COMRAM   BANK0   BANK1   BANK2   BANK3   BANK4   BANK5   BANK6   BANK7   BANK8   BANK9  BANK10  BANK1
      +1  BANK12  BANK14
  8095 ;;      Params:         0       0       0       0       0       0       0       0       0       0       0       0       
      +0       0       0
  8096 ;;      Locals:         0       0       0       0       0       0       0       0       0       0       0       0       
      +0       0       0
  8097 ;;      Temps:          0       0       0       0       0       0       0       0       0       0       0       0       
      +0       0       0
  8098 ;;      Totals:         0       0       0       0       0       0       0       0       0       0       0       0       
      +0       0       0
  8099 ;;Total ram usage:        0 bytes
  8100 ;; Hardware stack levels used: 1
  8101 ;; This function calls:
  8102 ;;		Nothing
  8103 ;; This function is called by:
  8104 ;;		_SYSTEM_Initialize
  8105 ;; This function uses a non-reentrant model
  8106 ;;
  8107                           
  8108                           	psect	text36
  8109   003B48                     __ptext36:
  8110                           	callstack 0
  8111   003B48                     _OSCILLATOR_Initialize:
  8112                           	callstack 29
  8113   003B48                     
  8114                           ;mcc_generated_files/mcc.c: 64:     OSCCON1 = 0x62;
  8115   003B48  0E62               	movlw	98
  8116   003B4A  010E               	movlb	14	; () banked
  8117   003B4C  6FD3               	movwf	211,b	;volatile
  8118                           
  8119                           ;mcc_generated_files/mcc.c: 66:     OSCCON3 = 0x00;
  8120   003B4E  0E00               	movlw	0
  8121   003B50  6FD5               	movwf	213,b	;volatile
  8122                           
  8123                           ;mcc_generated_files/mcc.c: 68:     OSCEN = 0x00;
  8124   003B52  0E00               	movlw	0
  8125   003B54  6FD7               	movwf	215,b	;volatile
  8126                           
  8127                           ;mcc_generated_files/mcc.c: 70:     OSCFRQ = 0x02;
  8128   003B56  0E02               	movlw	2
  8129   003B58  6FD9               	movwf	217,b	;volatile
  8130                           
  8131                           ;mcc_generated_files/mcc.c: 72:     OSCTUNE = 0x00;
  8132   003B5A  0E00               	movlw	0
  8133   003B5C  6FD8               	movwf	216,b	;volatile
  8134   003B5E                     
  8135                           ; BSR set to: 14
  8136   003B5E  0012               	return		;funcret
  8137   003B60                     __end_of_OSCILLATOR_Initialize:
  8138                           	callstack 0
  8139                           
  8140 ;; *************** function _EUSART2_Initialize *****************
  8141 ;; Defined at:
  8142 ;;		line 66 in file "mcc_generated_files/eusart2.c"
  8143 ;; Parameters:    Size  Location     Type
  8144 ;;		None
  8145 ;; Auto vars:     Size  Location     Type
  8146 ;;		None
  8147 ;; Return value:  Size  Location     Type
  8148 ;;                  1    wreg      void 
  8149 ;; Registers used:
  8150 ;;		wreg, status,2, status,0, cstack
  8151 ;; Tracked objects:
  8152 ;;		On entry : 0/0
  8153 ;;		On exit  : 0/0
  8154 ;;		Unchanged: 0/0
  8155 ;; Data sizes:     COMRAM   BANK0   BANK1   BANK2   BANK3   BANK4   BANK5   BANK6   BANK7   BANK8   BANK9  BANK10  BANK1
      +1  BANK12  BANK14
  8156 ;;      Params:         0       0       0       0       0       0       0       0       0       0       0       0       
      +0       0       0
  8157 ;;      Locals:         0       0       0       0       0       0       0       0       0       0       0       0       
      +0       0       0
  8158 ;;      Temps:          0       0       0       0       0       0       0       0       0       0       0       0       
      +0       0       0
  8159 ;;      Totals:         0       0       0       0       0       0       0       0       0       0       0       0       
      +0       0       0
  8160 ;;Total ram usage:        0 bytes
  8161 ;; Hardware stack levels used: 1
  8162 ;; Hardware stack levels required when called: 1
  8163 ;; This function calls:
  8164 ;;		_EUSART2_SetErrorHandler
  8165 ;;		_EUSART2_SetFramingErrorHandler
  8166 ;;		_EUSART2_SetOverrunErrorHandler
  8167 ;; This function is called by:
  8168 ;;		_SYSTEM_Initialize
  8169 ;; This function uses a non-reentrant model
  8170 ;;
  8171                           
  8172                           	psect	text37
  8173   003848                     __ptext37:
  8174                           	callstack 0
  8175   003848                     _EUSART2_Initialize:
  8176                           	callstack 28
  8177   003848                     
  8178                           ;mcc_generated_files/eusart2.c: 71:     BAUD2CON = 0x08;
  8179   003848  0E08               	movlw	8
  8180   00384A  010E               	movlb	14	; () banked
  8181   00384C  6F9A               	movwf	154,b	;volatile
  8182                           
  8183                           ;mcc_generated_files/eusart2.c: 74:     RC2STA = 0x90;
  8184   00384E  0E90               	movlw	144
  8185   003850  6F98               	movwf	152,b	;volatile
  8186                           
  8187                           ;mcc_generated_files/eusart2.c: 77:     TX2STA = 0x24;
  8188   003852  0E24               	movlw	36
  8189   003854  6F99               	movwf	153,b	;volatile
  8190                           
  8191                           ;mcc_generated_files/eusart2.c: 80:     SP2BRGL = 0x19;
  8192   003856  0E19               	movlw	25
  8193   003858  6F96               	movwf	150,b	;volatile
  8194                           
  8195                           ;mcc_generated_files/eusart2.c: 83:     SP2BRGH = 0x00;
  8196   00385A  0E00               	movlw	0
  8197   00385C  6F97               	movwf	151,b	;volatile
  8198   00385E                     
  8199                           ; BSR set to: 14
  8200                           ;mcc_generated_files/eusart2.c: 86:     EUSART2_SetFramingErrorHandler(EUSART2_DefaultFr
      +                          amingErrorHandler);
  8201   00385E  0E00               	movlw	0
  8202   003860  6E01               	movwf	EUSART2_SetFramingErrorHandler@interruptHandler^0,c
  8203   003862  0E00               	movlw	0
  8204   003864  6E02               	movwf	(EUSART2_SetFramingErrorHandler@interruptHandler+1)^0,c
  8205   003866  0E00               	movlw	0
  8206   003868  6E03               	movwf	(EUSART2_SetFramingErrorHandler@interruptHandler+2)^0,c
  8207   00386A  ECDB  F01D         	call	_EUSART2_SetFramingErrorHandler	;wreg free
  8208   00386E                     
  8209                           ;mcc_generated_files/eusart2.c: 87:     EUSART2_SetOverrunErrorHandler(EUSART2_DefaultOv
      +                          errunErrorHandler);
  8210   00386E  0E00               	movlw	0
  8211   003870  6E01               	movwf	EUSART2_SetOverrunErrorHandler@interruptHandler^0,c
  8212   003872  0E00               	movlw	0
  8213   003874  6E02               	movwf	(EUSART2_SetOverrunErrorHandler@interruptHandler+1)^0,c
  8214   003876  0E00               	movlw	0
  8215   003878  6E03               	movwf	(EUSART2_SetOverrunErrorHandler@interruptHandler+2)^0,c
  8216   00387A  ECD4  F01D         	call	_EUSART2_SetOverrunErrorHandler	;wreg free
  8217   00387E                     
  8218                           ;mcc_generated_files/eusart2.c: 88:     EUSART2_SetErrorHandler(EUSART2_DefaultErrorHand
      +                          ler);
  8219   00387E  0E00               	movlw	0
  8220   003880  6E01               	movwf	EUSART2_SetErrorHandler@interruptHandler^0,c
  8221   003882  0E00               	movlw	0
  8222   003884  6E02               	movwf	(EUSART2_SetErrorHandler@interruptHandler+1)^0,c
  8223   003886  0E00               	movlw	0
  8224   003888  6E03               	movwf	(EUSART2_SetErrorHandler@interruptHandler+2)^0,c
  8225   00388A  ECE2  F01D         	call	_EUSART2_SetErrorHandler	;wreg free
  8226   00388E                     
  8227                           ;mcc_generated_files/eusart2.c: 90:     eusart2RxLastError.status = 0;
  8228   00388E  0E00               	movlw	0
  8229   003890  6E5F               	movwf	_eusart2RxLastError^0,c	;volatile
  8230   003892  0012               	return		;funcret
  8231   003894                     __end_of_EUSART2_Initialize:
  8232                           	callstack 0
  8233                           
  8234 ;; *************** function _EUSART2_SetOverrunErrorHandler *****************
  8235 ;; Defined at:
  8236 ;;		line 170 in file "mcc_generated_files/eusart2.c"
  8237 ;; Parameters:    Size  Location     Type
  8238 ;;  interruptHan    3    0[COMRAM] PTR FTN()void 
  8239 ;;		 -> EUSART2_DefaultOverrunErrorHandler(1), 
  8240 ;; Auto vars:     Size  Location     Type
  8241 ;;		None
  8242 ;; Return value:  Size  Location     Type
  8243 ;;                  1    wreg      void 
  8244 ;; Registers used:
  8245 ;;		wreg, status,2, status,0
  8246 ;; Tracked objects:
  8247 ;;		On entry : 0/0
  8248 ;;		On exit  : 0/0
  8249 ;;		Unchanged: 0/0
  8250 ;; Data sizes:     COMRAM   BANK0   BANK1   BANK2   BANK3   BANK4   BANK5   BANK6   BANK7   BANK8   BANK9  BANK10  BANK1
      +1  BANK12  BANK14
  8251 ;;      Params:         3       0       0       0       0       0       0       0       0       0       0       0       
      +0       0       0
  8252 ;;      Locals:         0       0       0       0       0       0       0       0       0       0       0       0       
      +0       0       0
  8253 ;;      Temps:          0       0       0       0       0       0       0       0       0       0       0       0       
      +0       0       0
  8254 ;;      Totals:         3       0       0       0       0       0       0       0       0       0       0       0       
      +0       0       0
  8255 ;;Total ram usage:        3 bytes
  8256 ;; Hardware stack levels used: 1
  8257 ;; This function calls:
  8258 ;;		Nothing
  8259 ;; This function is called by:
  8260 ;;		_EUSART2_Initialize
  8261 ;; This function uses a non-reentrant model
  8262 ;;
  8263                           
  8264                           	psect	text38
  8265   003BA8                     __ptext38:
  8266                           	callstack 0
  8267   003BA8                     _EUSART2_SetOverrunErrorHandler:
  8268                           	callstack 28
  8269   003BA8                     
  8270                           ;mcc_generated_files/eusart2.c: 171:     EUSART2_OverrunErrorHandler = interruptHandler;
  8271   003BA8  C001  F0B1         	movff	EUSART2_SetOverrunErrorHandler@interruptHandler,_EUSART2_OverrunErrorHandler
  8272   003BAC  C002  F0B2         	movff	EUSART2_SetOverrunErrorHandler@interruptHandler+1,_EUSART2_OverrunErrorHandler+1
  8273   003BB0  C003  F0B3         	movff	EUSART2_SetOverrunErrorHandler@interruptHandler+2,_EUSART2_OverrunErrorHandler+2
  8274   003BB4  0012               	return		;funcret
  8275   003BB6                     __end_of_EUSART2_SetOverrunErrorHandler:
  8276                           	callstack 0
  8277                           
  8278 ;; *************** function _EUSART2_SetFramingErrorHandler *****************
  8279 ;; Defined at:
  8280 ;;		line 166 in file "mcc_generated_files/eusart2.c"
  8281 ;; Parameters:    Size  Location     Type
  8282 ;;  interruptHan    3    0[COMRAM] PTR FTN()void 
  8283 ;;		 -> EUSART2_DefaultFramingErrorHandler(1), 
  8284 ;; Auto vars:     Size  Location     Type
  8285 ;;		None
  8286 ;; Return value:  Size  Location     Type
  8287 ;;                  1    wreg      void 
  8288 ;; Registers used:
  8289 ;;		wreg, status,2, status,0
  8290 ;; Tracked objects:
  8291 ;;		On entry : 0/0
  8292 ;;		On exit  : 0/0
  8293 ;;		Unchanged: 0/0
  8294 ;; Data sizes:     COMRAM   BANK0   BANK1   BANK2   BANK3   BANK4   BANK5   BANK6   BANK7   BANK8   BANK9  BANK10  BANK1
      +1  BANK12  BANK14
  8295 ;;      Params:         3       0       0       0       0       0       0       0       0       0       0       0       
      +0       0       0
  8296 ;;      Locals:         0       0       0       0       0       0       0       0       0       0       0       0       
      +0       0       0
  8297 ;;      Temps:          0       0       0       0       0       0       0       0       0       0       0       0       
      +0       0       0
  8298 ;;      Totals:         3       0       0       0       0       0       0       0       0       0       0       0       
      +0       0       0
  8299 ;;Total ram usage:        3 bytes
  8300 ;; Hardware stack levels used: 1
  8301 ;; This function calls:
  8302 ;;		Nothing
  8303 ;; This function is called by:
  8304 ;;		_EUSART2_Initialize
  8305 ;; This function uses a non-reentrant model
  8306 ;;
  8307                           
  8308                           	psect	text39
  8309   003BB6                     __ptext39:
  8310                           	callstack 0
  8311   003BB6                     _EUSART2_SetFramingErrorHandler:
  8312                           	callstack 28
  8313   003BB6                     
  8314                           ;mcc_generated_files/eusart2.c: 167:     EUSART2_FramingErrorHandler = interruptHandler;
  8315   003BB6  C001  F0B4         	movff	EUSART2_SetFramingErrorHandler@interruptHandler,_EUSART2_FramingErrorHandler
  8316   003BBA  C002  F0B5         	movff	EUSART2_SetFramingErrorHandler@interruptHandler+1,_EUSART2_FramingErrorHandler+1
  8317   003BBE  C003  F0B6         	movff	EUSART2_SetFramingErrorHandler@interruptHandler+2,_EUSART2_FramingErrorHandler+2
  8318   003BC2  0012               	return		;funcret
  8319   003BC4                     __end_of_EUSART2_SetFramingErrorHandler:
  8320                           	callstack 0
  8321                           
  8322 ;; *************** function _EUSART2_SetErrorHandler *****************
  8323 ;; Defined at:
  8324 ;;		line 174 in file "mcc_generated_files/eusart2.c"
  8325 ;; Parameters:    Size  Location     Type
  8326 ;;  interruptHan    3    0[COMRAM] PTR FTN()void 
  8327 ;;		 -> EUSART2_DefaultErrorHandler(1), 
  8328 ;; Auto vars:     Size  Location     Type
  8329 ;;		None
  8330 ;; Return value:  Size  Location     Type
  8331 ;;                  1    wreg      void 
  8332 ;; Registers used:
  8333 ;;		wreg, status,2, status,0
  8334 ;; Tracked objects:
  8335 ;;		On entry : 0/0
  8336 ;;		On exit  : 0/0
  8337 ;;		Unchanged: 0/0
  8338 ;; Data sizes:     COMRAM   BANK0   BANK1   BANK2   BANK3   BANK4   BANK5   BANK6   BANK7   BANK8   BANK9  BANK10  BANK1
      +1  BANK12  BANK14
  8339 ;;      Params:         3       0       0       0       0       0       0       0       0       0       0       0       
      +0       0       0
  8340 ;;      Locals:         0       0       0       0       0       0       0       0       0       0       0       0       
      +0       0       0
  8341 ;;      Temps:          0       0       0       0       0       0       0       0       0       0       0       0       
      +0       0       0
  8342 ;;      Totals:         3       0       0       0       0       0       0       0       0       0       0       0       
      +0       0       0
  8343 ;;Total ram usage:        3 bytes
  8344 ;; Hardware stack levels used: 1
  8345 ;; This function calls:
  8346 ;;		Nothing
  8347 ;; This function is called by:
  8348 ;;		_EUSART2_Initialize
  8349 ;; This function uses a non-reentrant model
  8350 ;;
  8351                           
  8352                           	psect	text40
  8353   003BC4                     __ptext40:
  8354                           	callstack 0
  8355   003BC4                     _EUSART2_SetErrorHandler:
  8356                           	callstack 28
  8357   003BC4                     
  8358                           ;mcc_generated_files/eusart2.c: 175:     EUSART2_ErrorHandler = interruptHandler;
  8359   003BC4  C001  F1A8         	movff	EUSART2_SetErrorHandler@interruptHandler,_EUSART2_ErrorHandler
  8360   003BC8  C002  F1A9         	movff	EUSART2_SetErrorHandler@interruptHandler+1,_EUSART2_ErrorHandler+1
  8361   003BCC  C003  F1AA         	movff	EUSART2_SetErrorHandler@interruptHandler+2,_EUSART2_ErrorHandler+2
  8362   003BD0  0012               	return		;funcret
  8363   003BD2                     __end_of_EUSART2_SetErrorHandler:
  8364                           	callstack 0
  8365                           
  8366 ;; *************** function _ADCC_Initialize *****************
  8367 ;; Defined at:
  8368 ;;		line 62 in file "mcc_generated_files/adcc.c"
  8369 ;; Parameters:    Size  Location     Type
  8370 ;;		None
  8371 ;; Auto vars:     Size  Location     Type
  8372 ;;		None
  8373 ;; Return value:  Size  Location     Type
  8374 ;;                  1    wreg      void 
  8375 ;; Registers used:
  8376 ;;		wreg, status,2
  8377 ;; Tracked objects:
  8378 ;;		On entry : 0/0
  8379 ;;		On exit  : 0/0
  8380 ;;		Unchanged: 0/0
  8381 ;; Data sizes:     COMRAM   BANK0   BANK1   BANK2   BANK3   BANK4   BANK5   BANK6   BANK7   BANK8   BANK9  BANK10  BANK1
      +1  BANK12  BANK14
  8382 ;;      Params:         0       0       0       0       0       0       0       0       0       0       0       0       
      +0       0       0
  8383 ;;      Locals:         0       0       0       0       0       0       0       0       0       0       0       0       
      +0       0       0
  8384 ;;      Temps:          0       0       0       0       0       0       0       0       0       0       0       0       
      +0       0       0
  8385 ;;      Totals:         0       0       0       0       0       0       0       0       0       0       0       0       
      +0       0       0
  8386 ;;Total ram usage:        0 bytes
  8387 ;; Hardware stack levels used: 1
  8388 ;; This function calls:
  8389 ;;		Nothing
  8390 ;; This function is called by:
  8391 ;;		_main
  8392 ;;		_SYSTEM_Initialize
  8393 ;; This function uses a non-reentrant model
  8394 ;;
  8395                           
  8396                           	psect	text41
  8397   0037F8                     __ptext41:
  8398                           	callstack 0
  8399   0037F8                     _ADCC_Initialize:
  8400                           	callstack 29
  8401   0037F8                     
  8402                           ;mcc_generated_files/adcc.c: 66:     ADLTHL = 0x00;
  8403   0037F8  0E00               	movlw	0
  8404   0037FA  6E65               	movwf	101,c	;volatile
  8405                           
  8406                           ;mcc_generated_files/adcc.c: 68:     ADLTHH = 0x00;
  8407   0037FC  0E00               	movlw	0
  8408   0037FE  6E66               	movwf	102,c	;volatile
  8409                           
  8410                           ;mcc_generated_files/adcc.c: 70:     ADUTHL = 0x00;
  8411   003800  0E00               	movlw	0
  8412   003802  6E67               	movwf	103,c	;volatile
  8413                           
  8414                           ;mcc_generated_files/adcc.c: 72:     ADUTHH = 0x00;
  8415   003804  0E00               	movlw	0
  8416   003806  6E68               	movwf	104,c	;volatile
  8417                           
  8418                           ;mcc_generated_files/adcc.c: 74:     ADSTPTL = 0x00;
  8419   003808  0E00               	movlw	0
  8420   00380A  6E63               	movwf	99,c	;volatile
  8421                           
  8422                           ;mcc_generated_files/adcc.c: 76:     ADSTPTH = 0x00;
  8423   00380C  0E00               	movlw	0
  8424   00380E  6E64               	movwf	100,c	;volatile
  8425                           
  8426                           ;mcc_generated_files/adcc.c: 78:     ADRPT = 0x00;
  8427   003810  0E00               	movlw	0
  8428   003812  6E61               	movwf	97,c	;volatile
  8429                           
  8430                           ;mcc_generated_files/adcc.c: 80:     ADPCH = 0x00;
  8431   003814  0E00               	movlw	0
  8432   003816  010F               	movlb	15	; () banked
  8433   003818  6F5A               	movwf	90,b	;volatile
  8434                           
  8435                           ;mcc_generated_files/adcc.c: 82:     ADCAP = 0x00;
  8436   00381A  0E00               	movlw	0
  8437   00381C  6F58               	movwf	88,b	;volatile
  8438                           
  8439                           ;mcc_generated_files/adcc.c: 84:     ADPRE = 0x00;
  8440   00381E  0E00               	movlw	0
  8441   003820  6F59               	movwf	89,b	;volatile
  8442                           
  8443                           ;mcc_generated_files/adcc.c: 86:     ADCON1 = 0x00;
  8444   003822  0E00               	movlw	0
  8445   003824  6F54               	movwf	84,b	;volatile
  8446                           
  8447                           ;mcc_generated_files/adcc.c: 88:     ADCON2 = 0x10;
  8448   003826  0E10               	movlw	16
  8449   003828  6F55               	movwf	85,b	;volatile
  8450                           
  8451                           ;mcc_generated_files/adcc.c: 90:     ADCON3 = 0x00;
  8452   00382A  0E00               	movlw	0
  8453   00382C  6F56               	movwf	86,b	;volatile
  8454                           
  8455                           ;mcc_generated_files/adcc.c: 92:     ADSTAT = 0x00;
  8456   00382E  0E00               	movlw	0
  8457   003830  6E60               	movwf	96,c	;volatile
  8458                           
  8459                           ;mcc_generated_files/adcc.c: 94:     ADREF = 0x00;
  8460   003832  0E00               	movlw	0
  8461   003834  6F53               	movwf	83,b	;volatile
  8462                           
  8463                           ;mcc_generated_files/adcc.c: 96:     ADACT = 0x00;
  8464   003836  0E00               	movlw	0
  8465   003838  6F51               	movwf	81,b	;volatile
  8466                           
  8467                           ;mcc_generated_files/adcc.c: 98:     ADCLK = 0x00;
  8468   00383A  0E00               	movlw	0
  8469   00383C  6F52               	movwf	82,b	;volatile
  8470                           
  8471                           ;mcc_generated_files/adcc.c: 100:     ADCON0 = 0x84;
  8472   00383E  0E84               	movlw	132
  8473   003840  6F5B               	movwf	91,b	;volatile
  8474                           
  8475                           ;mcc_generated_files/adcc.c: 102:     ADACQ = 0x00;
  8476   003842  0E00               	movlw	0
  8477   003844  6F57               	movwf	87,b	;volatile
  8478   003846                     
  8479                           ; BSR set to: 15
  8480   003846  0012               	return		;funcret
  8481   003848                     __end_of_ADCC_Initialize:
  8482                           	callstack 0
  8483                           
  8484 ;; *************** function _PWM4_LoadDutyValue *****************
  8485 ;; Defined at:
  8486 ;;		line 74 in file "mcc_generated_files/pwm4.c"
  8487 ;; Parameters:    Size  Location     Type
  8488 ;;  dutyValue       2    0[COMRAM] unsigned short 
  8489 ;; Auto vars:     Size  Location     Type
  8490 ;;		None
  8491 ;; Return value:  Size  Location     Type
  8492 ;;                  1    wreg      void 
  8493 ;; Registers used:
  8494 ;;		wreg, status,2, status,0
  8495 ;; Tracked objects:
  8496 ;;		On entry : 0/0
  8497 ;;		On exit  : 0/0
  8498 ;;		Unchanged: 0/0
  8499 ;; Data sizes:     COMRAM   BANK0   BANK1   BANK2   BANK3   BANK4   BANK5   BANK6   BANK7   BANK8   BANK9  BANK10  BANK1
      +1  BANK12  BANK14
  8500 ;;      Params:         2       0       0       0       0       0       0       0       0       0       0       0       
      +0       0       0
  8501 ;;      Locals:         0       0       0       0       0       0       0       0       0       0       0       0       
      +0       0       0
  8502 ;;      Temps:          2       0       0       0       0       0       0       0       0       0       0       0       
      +0       0       0
  8503 ;;      Totals:         4       0       0       0       0       0       0       0       0       0       0       0       
      +0       0       0
  8504 ;;Total ram usage:        4 bytes
  8505 ;; Hardware stack levels used: 1
  8506 ;; This function calls:
  8507 ;;		Nothing
  8508 ;; This function is called by:
  8509 ;;		_main
  8510 ;; This function uses a non-reentrant model
  8511 ;;
  8512                           
  8513                           	psect	text42
  8514   003A7C                     __ptext42:
  8515                           	callstack 0
  8516   003A7C                     _PWM4_LoadDutyValue:
  8517                           	callstack 30
  8518   003A7C                     
  8519                           ;mcc_generated_files/pwm4.c: 74:  void PWM4_LoadDutyValue(uint16_t dutyValue);mcc_genera
      +                          ted_files/pwm4.c: 75:  {;mcc_generated_files/pwm4.c: 77:      PWM4DCH = (dutyValue & 0x0
      +                          3FC)>>2;
  8520   003A7C  C001  F003         	movff	PWM4_LoadDutyValue@dutyValue,??_PWM4_LoadDutyValue
  8521   003A80  C002  F004         	movff	PWM4_LoadDutyValue@dutyValue+1,??_PWM4_LoadDutyValue+1
  8522   003A84  90D8               	bcf	status,0,c
  8523   003A86  3204               	rrcf	(??_PWM4_LoadDutyValue+1)^0,f,c
  8524   003A88  3203               	rrcf	??_PWM4_LoadDutyValue^0,f,c
  8525   003A8A  90D8               	bcf	status,0,c
  8526   003A8C  3204               	rrcf	(??_PWM4_LoadDutyValue+1)^0,f,c
  8527   003A8E  3203               	rrcf	??_PWM4_LoadDutyValue^0,f,c
  8528   003A90  5003               	movf	??_PWM4_LoadDutyValue^0,w,c
  8529   003A92  6EA0               	movwf	160,c	;volatile
  8530                           
  8531                           ;mcc_generated_files/pwm4.c: 80:      PWM4DCL = (dutyValue & 0x0003)<<6;
  8532   003A94  C001  F003         	movff	PWM4_LoadDutyValue@dutyValue,??_PWM4_LoadDutyValue
  8533   003A98  0E03               	movlw	3
  8534   003A9A  1603               	andwf	??_PWM4_LoadDutyValue^0,f,c
  8535   003A9C  0E06               	movlw	6
  8536   003A9E  6E04               	movwf	(??_PWM4_LoadDutyValue+1)^0,c
  8537   003AA0                     u6105:
  8538   003AA0  90D8               	bcf	status,0,c
  8539   003AA2  3603               	rlcf	??_PWM4_LoadDutyValue^0,f,c
  8540   003AA4  2E04               	decfsz	(??_PWM4_LoadDutyValue+1)^0,f,c
  8541   003AA6  EF50  F01D         	goto	u6105
  8542   003AAA  5003               	movf	??_PWM4_LoadDutyValue^0,w,c
  8543   003AAC  6E9F               	movwf	159,c	;volatile
  8544   003AAE  0012               	return		;funcret
  8545   003AB0                     __end_of_PWM4_LoadDutyValue:
  8546                           	callstack 0
  8547                           
  8548 ;; *************** function _EUSART2_is_tx_ready *****************
  8549 ;; Defined at:
  8550 ;;		line 94 in file "mcc_generated_files/eusart2.c"
  8551 ;; Parameters:    Size  Location     Type
  8552 ;;		None
  8553 ;; Auto vars:     Size  Location     Type
  8554 ;;		None
  8555 ;; Return value:  Size  Location     Type
  8556 ;;                  1    wreg      _Bool 
  8557 ;; Registers used:
  8558 ;;		wreg, status,2
  8559 ;; Tracked objects:
  8560 ;;		On entry : 0/0
  8561 ;;		On exit  : 0/0
  8562 ;;		Unchanged: 0/0
  8563 ;; Data sizes:     COMRAM   BANK0   BANK1   BANK2   BANK3   BANK4   BANK5   BANK6   BANK7   BANK8   BANK9  BANK10  BANK1
      +1  BANK12  BANK14
  8564 ;;      Params:         0       0       0       0       0       0       0       0       0       0       0       0       
      +0       0       0
  8565 ;;      Locals:         1       0       0       0       0       0       0       0       0       0       0       0       
      +0       0       0
  8566 ;;      Temps:          0       0       0       0       0       0       0       0       0       0       0       0       
      +0       0       0
  8567 ;;      Totals:         1       0       0       0       0       0       0       0       0       0       0       0       
      +0       0       0
  8568 ;;Total ram usage:        1 bytes
  8569 ;; Hardware stack levels used: 1
  8570 ;; This function calls:
  8571 ;;		Nothing
  8572 ;; This function is called by:
  8573 ;;		_main
  8574 ;; This function uses a non-reentrant model
  8575 ;;
  8576                           
  8577                           	psect	text43
  8578   003AB0                     __ptext43:
  8579                           	callstack 0
  8580   003AB0                     _EUSART2_is_tx_ready:
  8581                           	callstack 30
  8582   003AB0                     
  8583                           ;mcc_generated_files/eusart2.c: 96:     return (_Bool)(PIR3bits.TX2IF && TX2STAbits.TXEN
      +                          );
  8584   003AB0  0E00               	movlw	0
  8585   003AB2  6E01               	movwf	_EUSART2_is_tx_ready$182^0,c
  8586   003AB4  010E               	movlb	14	; () banked
  8587   003AB6  ADC8               	btfss	200,6,b	;volatile
  8588   003AB8  EF60  F01D         	goto	u6081
  8589   003ABC  EF62  F01D         	goto	u6080
  8590   003AC0                     u6081:
  8591   003AC0  EF6B  F01D         	goto	l47
  8592   003AC4                     u6080:
  8593   003AC4                     
  8594                           ; BSR set to: 14
  8595   003AC4  AB99               	btfss	153,5,b	;volatile
  8596   003AC6  EF67  F01D         	goto	u6091
  8597   003ACA  EF69  F01D         	goto	u6090
  8598   003ACE                     u6091:
  8599   003ACE  EF6B  F01D         	goto	l47
  8600   003AD2                     u6090:
  8601   003AD2                     
  8602                           ; BSR set to: 14
  8603   003AD2  0E01               	movlw	1
  8604   003AD4  6E01               	movwf	_EUSART2_is_tx_ready$182^0,c
  8605   003AD6                     l47:
  8606                           
  8607                           ; BSR set to: 14
  8608   003AD6  5001               	movf	_EUSART2_is_tx_ready$182^0,w,c
  8609   003AD8                     
  8610                           ; BSR set to: 14
  8611   003AD8  0012               	return		;funcret
  8612   003ADA                     __end_of_EUSART2_is_tx_ready:
  8613                           	callstack 0
  8614                           
  8615 ;; *************** function _ADCC_StartConversion *****************
  8616 ;; Defined at:
  8617 ;;		line 107 in file "mcc_generated_files/adcc.c"
  8618 ;; Parameters:    Size  Location     Type
  8619 ;;  channel         1    wreg     enum E12912
  8620 ;; Auto vars:     Size  Location     Type
  8621 ;;  channel         1    0[COMRAM] enum E12912
  8622 ;; Return value:  Size  Location     Type
  8623 ;;                  1    wreg      void 
  8624 ;; Registers used:
  8625 ;;		wreg
  8626 ;; Tracked objects:
  8627 ;;		On entry : 0/0
  8628 ;;		On exit  : 0/0
  8629 ;;		Unchanged: 0/0
  8630 ;; Data sizes:     COMRAM   BANK0   BANK1   BANK2   BANK3   BANK4   BANK5   BANK6   BANK7   BANK8   BANK9  BANK10  BANK1
      +1  BANK12  BANK14
  8631 ;;      Params:         0       0       0       0       0       0       0       0       0       0       0       0       
      +0       0       0
  8632 ;;      Locals:         1       0       0       0       0       0       0       0       0       0       0       0       
      +0       0       0
  8633 ;;      Temps:          0       0       0       0       0       0       0       0       0       0       0       0       
      +0       0       0
  8634 ;;      Totals:         1       0       0       0       0       0       0       0       0       0       0       0       
      +0       0       0
  8635 ;;Total ram usage:        1 bytes
  8636 ;; Hardware stack levels used: 1
  8637 ;; This function calls:
  8638 ;;		Nothing
  8639 ;; This function is called by:
  8640 ;;		_main
  8641 ;; This function uses a non-reentrant model
  8642 ;;
  8643                           
  8644                           	psect	text44
  8645   003BD2                     __ptext44:
  8646                           	callstack 0
  8647   003BD2                     _ADCC_StartConversion:
  8648                           	callstack 30
  8649                           
  8650                           ; BSR set to: 14
  8651                           ;incstack = 0
  8652                           ;ADCC_StartConversion@channel stored from wreg
  8653   003BD2  6E01               	movwf	ADCC_StartConversion@channel^0,c
  8654   003BD4                     
  8655                           ;mcc_generated_files/adcc.c: 107: void ADCC_StartConversion(adcc_channel_t channel);mcc_
      +                          generated_files/adcc.c: 108: {;mcc_generated_files/adcc.c: 110:     ADPCH = channel;
  8656   003BD4  C001  FF5A         	movff	ADCC_StartConversion@channel,3930	;volatile
  8657   003BD8                     
  8658                           ;mcc_generated_files/adcc.c: 113:     ADCON0bits.ADON = 1;
  8659   003BD8  010F               	movlb	15	; () banked
  8660   003BDA  8F5B               	bsf	91,7,b	;volatile
  8661   003BDC                     
  8662                           ; BSR set to: 15
  8663                           ;mcc_generated_files/adcc.c: 116:     ADCON0bits.ADGO = 1;
  8664   003BDC  815B               	bsf	91,0,b	;volatile
  8665   003BDE                     
  8666                           ; BSR set to: 15
  8667   003BDE  0012               	return		;funcret
  8668   003BE0                     __end_of_ADCC_StartConversion:
  8669                           	callstack 0
  8670                           
  8671 ;; *************** function _ADCC_GetConversionResult *****************
  8672 ;; Defined at:
  8673 ;;		line 125 in file "mcc_generated_files/adcc.c"
  8674 ;; Parameters:    Size  Location     Type
  8675 ;;		None
  8676 ;; Auto vars:     Size  Location     Type
  8677 ;;		None
  8678 ;; Return value:  Size  Location     Type
  8679 ;;                  2    0[COMRAM] unsigned short 
  8680 ;; Registers used:
  8681 ;;		wreg, status,2, status,0
  8682 ;; Tracked objects:
  8683 ;;		On entry : 0/0
  8684 ;;		On exit  : 0/0
  8685 ;;		Unchanged: 0/0
  8686 ;; Data sizes:     COMRAM   BANK0   BANK1   BANK2   BANK3   BANK4   BANK5   BANK6   BANK7   BANK8   BANK9  BANK10  BANK1
      +1  BANK12  BANK14
  8687 ;;      Params:         2       0       0       0       0       0       0       0       0       0       0       0       
      +0       0       0
  8688 ;;      Locals:         0       0       0       0       0       0       0       0       0       0       0       0       
      +0       0       0
  8689 ;;      Temps:          2       0       0       0       0       0       0       0       0       0       0       0       
      +0       0       0
  8690 ;;      Totals:         4       0       0       0       0       0       0       0       0       0       0       0       
      +0       0       0
  8691 ;;Total ram usage:        4 bytes
  8692 ;; Hardware stack levels used: 1
  8693 ;; This function calls:
  8694 ;;		Nothing
  8695 ;; This function is called by:
  8696 ;;		_main
  8697 ;; This function uses a non-reentrant model
  8698 ;;
  8699                           
  8700                           	psect	text45
  8701   003B76                     __ptext45:
  8702                           	callstack 0
  8703   003B76                     _ADCC_GetConversionResult:
  8704                           	callstack 30
  8705   003B76                     
  8706                           ;mcc_generated_files/adcc.c: 128:     return ((adc_result_t)((ADRESH << 8) + ADRESL));
  8707   003B76  010F               	movlb	15	; () banked
  8708   003B78  515F               	movf	95,w,b	;volatile
  8709   003B7A  6E04               	movwf	(??_ADCC_GetConversionResult+1)^0,c
  8710   003B7C  6A03               	clrf	??_ADCC_GetConversionResult^0,c
  8711   003B7E  515E               	movf	94,w,b	;volatile
  8712   003B80  2403               	addwf	??_ADCC_GetConversionResult^0,w,c
  8713   003B82  6E01               	movwf	?_ADCC_GetConversionResult^0,c
  8714   003B84  0E00               	movlw	0
  8715   003B86  2004               	addwfc	(??_ADCC_GetConversionResult+1)^0,w,c
  8716   003B88  6E02               	movwf	(?_ADCC_GetConversionResult+1)^0,c
  8717   003B8A                     
  8718                           ; BSR set to: 15
  8719   003B8A  0012               	return		;funcret
  8720   003B8C                     __end_of_ADCC_GetConversionResult:
  8721                           	callstack 0
  8722                           
  8723 ;; *************** function _ADCC_DisableContinuousConversion *****************
  8724 ;; Defined at:
  8725 ;;		line 267 in file "mcc_generated_files/adcc.c"
  8726 ;; Parameters:    Size  Location     Type
  8727 ;;		None
  8728 ;; Auto vars:     Size  Location     Type
  8729 ;;		None
  8730 ;; Return value:  Size  Location     Type
  8731 ;;                  1    wreg      void 
  8732 ;; Registers used:
  8733 ;;		None
  8734 ;; Tracked objects:
  8735 ;;		On entry : 0/0
  8736 ;;		On exit  : 0/0
  8737 ;;		Unchanged: 0/0
  8738 ;; Data sizes:     COMRAM   BANK0   BANK1   BANK2   BANK3   BANK4   BANK5   BANK6   BANK7   BANK8   BANK9  BANK10  BANK1
      +1  BANK12  BANK14
  8739 ;;      Params:         0       0       0       0       0       0       0       0       0       0       0       0       
      +0       0       0
  8740 ;;      Locals:         0       0       0       0       0       0       0       0       0       0       0       0       
      +0       0       0
  8741 ;;      Temps:          0       0       0       0       0       0       0       0       0       0       0       0       
      +0       0       0
  8742 ;;      Totals:         0       0       0       0       0       0       0       0       0       0       0       0       
      +0       0       0
  8743 ;;Total ram usage:        0 bytes
  8744 ;; Hardware stack levels used: 1
  8745 ;; This function calls:
  8746 ;;		Nothing
  8747 ;; This function is called by:
  8748 ;;		_main
  8749 ;; This function uses a non-reentrant model
  8750 ;;
  8751                           
  8752                           	psect	text46
  8753   003BF0                     __ptext46:
  8754                           	callstack 0
  8755   003BF0                     _ADCC_DisableContinuousConversion:
  8756                           	callstack 30
  8757   003BF0                     
  8758                           ;mcc_generated_files/adcc.c: 270:     ADCON0bits.ADCONT = 0;
  8759   003BF0  010F               	movlb	15	; () banked
  8760   003BF2  9D5B               	bcf	91,6,b	;volatile
  8761   003BF4                     
  8762                           ; BSR set to: 15
  8763   003BF4  0012               	return		;funcret
  8764   003BF6                     __end_of_ADCC_DisableContinuousConversion:
  8765                           	callstack 0
  8766                           
  8767                           	psect	rparam
  8768   000000                     
  8769                           	psect	config
  8770                           
  8771                           ;Config register CONFIG1L @ 0x300000
  8772                           ;	External Oscillator mode Selection bits
  8773                           ;	FEXTOSC = OFF, Oscillator not enabled
  8774                           ;	Power-up default value for COSC bits
  8775                           ;	RSTOSC = HFINTOSC_1MHZ, HFINTOSC with HFFRQ = 4 MHz and CDIV = 4:1
  8776   300000                     	org	3145728
  8777   300000  EC                 	db	236
  8778                           
  8779                           ;Config register CONFIG1H @ 0x300001
  8780                           ;	Clock Out Enable bit
  8781                           ;	CLKOUTEN = OFF, CLKOUT function is disabled
  8782                           ;	Clock Switch Enable bit
  8783                           ;	CSWEN = ON, Writing to NOSC and NDIV is allowed
  8784                           ;	Fail-Safe Clock Monitor Enable bit
  8785                           ;	FCMEN = ON, Fail-Safe Clock Monitor enabled
  8786   300001                     	org	3145729
  8787   300001  FF                 	db	255
  8788                           
  8789                           ;Config register CONFIG2L @ 0x300002
  8790                           ;	Master Clear Enable bit
  8791                           ;	MCLRE = EXTMCLR, MCLR pin (RE3) is MCLR
  8792                           ;	Power-up Timer Enable bit
  8793                           ;	PWRTE = OFF, Power up timer disabled
  8794                           ;	Low-power BOR enable bit
  8795                           ;	LPBOREN = OFF, Low power BOR is disabled
  8796                           ;	Brown-out Reset Enable bits
  8797                           ;	BOREN = SBORDIS, Brown-out Reset enabled , SBOREN bit is ignored
  8798   300002                     	org	3145730
  8799   300002  FF                 	db	255
  8800                           
  8801                           ;Config register CONFIG2H @ 0x300003
  8802                           ;	Brown Out Reset Voltage selection bits
  8803                           ;	BORV = VBOR_190, Brown-out Reset Voltage (VBOR) set to 1.90V
  8804                           ;	ZCD Disable bit
  8805                           ;	ZCD = OFF, ZCD disabled. ZCD can be enabled by setting the ZCDSEN bit of ZCDCON
  8806                           ;	PPSLOCK bit One-Way Set Enable bit
  8807                           ;	PPS1WAY = ON, PPSLOCK bit can be cleared and set only once; PPS registers remain locke
      +                          d after one clear/set cycle
  8808                           ;	Stack Full/Underflow Reset Enable bit
  8809                           ;	STVREN = ON, Stack full/underflow will cause Reset
  8810                           ;	Extended Instruction Set Enable bit
  8811                           ;	XINST = OFF, Extended Instruction Set and Indexed Addressing Mode disabled
  8812   300003                     	org	3145731
  8813   300003  FF                 	db	255
  8814                           
  8815                           ;Config register CONFIG3L @ 0x300004
  8816                           ;	WDT Period Select bits
  8817                           ;	WDTCPS = WDTCPS_31, Divider ratio 1:65536; software control of WDTPS
  8818                           ;	WDT operating mode
  8819                           ;	WDTE = OFF, WDT Disabled
  8820   300004                     	org	3145732
  8821   300004  9F                 	db	159
  8822                           
  8823                           ;Config register CONFIG3H @ 0x300005
  8824                           ;	WDT Window Select bits
  8825                           ;	WDTCWS = WDTCWS_7, window always open (100%); software control; keyed access not requi
      +                          red
  8826                           ;	WDT input clock selector
  8827                           ;	WDTCCS = SC, Software Control
  8828   300005                     	org	3145733
  8829   300005  FF                 	db	255
  8830                           
  8831                           ;Config register CONFIG4L @ 0x300006
  8832                           ;	Write Protection Block 0
  8833                           ;	WRT0 = OFF, Block 0 (000800-003FFFh) not write-protected
  8834                           ;	Write Protection Block 1
  8835                           ;	WRT1 = OFF, Block 1 (004000-007FFFh) not write-protected
  8836                           ;	Write Protection Block 2
  8837                           ;	WRT2 = OFF, Block 2 (008000-00BFFFh) not write-protected
  8838                           ;	Write Protection Block 3
  8839                           ;	WRT3 = OFF, Block 3 (00C000-00FFFFh) not write-protected
  8840                           ;	Write Protection Block 4
  8841                           ;	WRT4 = 0x1, unprogrammed default
  8842                           ;	Write Protection Block 5
  8843                           ;	WRT5 = 0x1, unprogrammed default
  8844                           ;	Write Protection Block 6
  8845                           ;	WRT6 = 0x1, unprogrammed default
  8846                           ;	Write Protection Block 7
  8847                           ;	WRT7 = 0x1, unprogrammed default
  8848   300006                     	org	3145734
  8849   300006  FF                 	db	255
  8850                           
  8851                           ;Config register CONFIG4H @ 0x300007
  8852                           ;	Configuration Register Write Protection bit
  8853                           ;	WRTC = OFF, Configuration registers (300000-30000Bh) not write-protected
  8854                           ;	Boot Block Write Protection bit
  8855                           ;	WRTB = OFF, Boot Block (000000-0007FFh) not write-protected
  8856                           ;	Data EEPROM Write Protection bit
  8857                           ;	WRTD = OFF, Data EEPROM not write-protected
  8858                           ;	Scanner Enable bit
  8859                           ;	SCANE = ON, Scanner module is available for use, SCANMD bit can control the module
  8860                           ;	Low Voltage Programming Enable bit
  8861                           ;	LVP = ON, Low voltage programming enabled. MCLR/VPP pin function is MCLR. MCLRE config
      +                          uration bit is ignored
  8862   300007                     	org	3145735
  8863   300007  FF                 	db	255
  8864                           
  8865                           ;Config register CONFIG5L @ 0x300008
  8866                           ;	UserNVM Program Memory Code Protection bit
  8867                           ;	CP = OFF, UserNVM code protection disabled
  8868                           ;	DataNVM Memory Code Protection bit
  8869                           ;	CPD = OFF, DataNVM code protection disabled
  8870   300008                     	org	3145736
  8871   300008  FF                 	db	255
  8872                           
  8873                           ;Config register CONFIG5H @ 0x300009
  8874                           ;	unspecified, using default values
  8875   300009                     	org	3145737
  8876   300009  FF                 	db	255
  8877                           
  8878                           ;Config register CONFIG6L @ 0x30000A
  8879                           ;	Table Read Protection Block 0
  8880                           ;	EBTR0 = OFF, Block 0 (000800-003FFFh) not protected from table reads executed in other
      +                           blocks
  8881                           ;	Table Read Protection Block 1
  8882                           ;	EBTR1 = OFF, Block 1 (004000-007FFFh) not protected from table reads executed in other
      +                           blocks
  8883                           ;	Table Read Protection Block 2
  8884                           ;	EBTR2 = OFF, Block 2 (008000-00BFFFh) not protected from table reads executed in other
      +                           blocks
  8885                           ;	Table Read Protection Block 3
  8886                           ;	EBTR3 = OFF, Block 3 (00C000-00FFFFh) not protected from table reads executed in other
      +                           blocks
  8887                           ;	Table Read Protection Block 4
  8888                           ;	EBTR4 = 0x1, unprogrammed default
  8889                           ;	Table Read Protection Block 5
  8890                           ;	EBTR5 = 0x1, unprogrammed default
  8891                           ;	Table Read Protection Block 6
  8892                           ;	EBTR6 = 0x1, unprogrammed default
  8893                           ;	Table Read Protection Block 7
  8894                           ;	EBTR7 = 0x1, unprogrammed default
  8895   30000A                     	org	3145738
  8896   30000A  FF                 	db	255
  8897                           
  8898                           ;Config register CONFIG6H @ 0x30000B
  8899                           ;	Boot Block Table Read Protection bit
  8900                           ;	EBTRB = OFF, Boot Block (000000-0007FFh) not protected from table reads executed in ot
      +                          her blocks
  8901   30000B                     	org	3145739
  8902   30000B  FF                 	db	255
  8903                           tosu	equ	0xFFF
  8904                           tosh	equ	0xFFE
  8905                           tosl	equ	0xFFD
  8906                           stkptr	equ	0xFFC
  8907                           pclatu	equ	0xFFB
  8908                           pclath	equ	0xFFA
  8909                           pcl	equ	0xFF9
  8910                           tblptru	equ	0xFF8
  8911                           tblptrh	equ	0xFF7
  8912                           tblptrl	equ	0xFF6
  8913                           tablat	equ	0xFF5
  8914                           prodh	equ	0xFF4
  8915                           prodl	equ	0xFF3
  8916                           indf0	equ	0xFEF
  8917                           postinc0	equ	0xFEE
  8918                           postdec0	equ	0xFED
  8919                           preinc0	equ	0xFEC
  8920                           plusw0	equ	0xFEB
  8921                           fsr0h	equ	0xFEA
  8922                           fsr0l	equ	0xFE9
  8923                           wreg	equ	0xFE8
  8924                           indf1	equ	0xFE7
  8925                           postinc1	equ	0xFE6
  8926                           postdec1	equ	0xFE5
  8927                           preinc1	equ	0xFE4
  8928                           plusw1	equ	0xFE3
  8929                           fsr1h	equ	0xFE2
  8930                           fsr1l	equ	0xFE1
  8931                           bsr	equ	0xFE0
  8932                           indf2	equ	0xFDF
  8933                           postinc2	equ	0xFDE
  8934                           postdec2	equ	0xFDD
  8935                           preinc2	equ	0xFDC
  8936                           plusw2	equ	0xFDB
  8937                           fsr2h	equ	0xFDA
  8938                           fsr2l	equ	0xFD9
  8939                           status	equ	0xFD8

Data Sizes:
    Strings     16
    Constant    0
    Data        28
    BSS         94
    Persistent  9
    Stack       0

Auto Spaces:
    Space          Size  Autos    Used
    COMRAM           95     89      95
    BANK0           160     59      87
    BANK1           256     74     171
    BANK2           256      0       0
    BANK3           256      0       0
    BANK4           256      0       0
    BANK5           256      0       0
    BANK6           256      0       0
    BANK7           256      0       0
    BANK8           256      0       0
    BANK9           256      0       0
    BANK10          256      0       0
    BANK11          256      0       0
    BANK12          256      0       0
    BANK14           31      0       0

Pointer List with Targets:

    efgtoa@fp	PTR struct _IO_FILE size(1) Largest target is 12
		 -> sprintf@f(BANK0[12]), 

    EUSART2_ErrorHandler	PTR FTN()void  size(3) Largest target is 1
		 -> EUSART2_DefaultErrorHandler(), NULL(), 

    EUSART2_FramingErrorHandler	PTR FTN()void  size(3) Largest target is 1
		 -> EUSART2_DefaultFramingErrorHandler(), NULL(), 

    EUSART2_OverrunErrorHandler	PTR FTN()void  size(3) Largest target is 1
		 -> EUSART2_DefaultOverrunErrorHandler(), NULL(), 

    EUSART2_SetErrorHandler@interruptHandler	PTR FTN()void  size(3) Largest target is 1
		 -> EUSART2_DefaultErrorHandler(), 

    EUSART2_SetFramingErrorHandler@interruptHandler	PTR FTN()void  size(3) Largest target is 1
		 -> EUSART2_DefaultFramingErrorHandler(), 

    EUSART2_SetOverrunErrorHandler@interruptHandler	PTR FTN()void  size(3) Largest target is 1
		 -> EUSART2_DefaultOverrunErrorHandler(), 

    f$.$buffer	PTR unsigned char  size(2) Largest target is 0

    f$.$source	PTR const unsigned char  size(2) Largest target is 0

    fputc@fp	PTR struct _IO_FILE size(1) Largest target is 12
		 -> sprintf@f(BANK0[12]), 

    fputc@fp$.$buffer	PTR unsigned char  size(2) Largest target is 0

    fputc@fp$.$source	PTR const unsigned char  size(2) Largest target is 0

    fputs@fp	PTR struct _IO_FILE size(1) Largest target is 12
		 -> sprintf@f(BANK0[12]), 

    fputs@s	PTR const unsigned char  size(2) Largest target is 80
		 -> dbuf(BANK1[80]), 

    memcpy@d	PTR unsigned char  size(2) Largest target is 80
		 -> dbuf(BANK1[80]), 

    memcpy@d1	PTR void  size(2) Largest target is 80
		 -> dbuf(BANK1[80]), 

    memcpy@s	PTR const unsigned char  size(2) Largest target is 80
		 -> dbuf(BANK1[80]), 

    memcpy@s1	PTR const void  size(2) Largest target is 80
		 -> dbuf(BANK1[80]), 

    pad@buf	PTR unsigned char  size(2) Largest target is 80
		 -> dbuf(BANK1[80]), 

    pad@fp	PTR struct _IO_FILE size(1) Largest target is 12
		 -> sprintf@f(BANK0[12]), 

    S1343$buffer	PTR unsigned char  size(2) Largest target is 0

    S1343$source	PTR const unsigned char  size(2) Largest target is 0

    sp__memcpy	PTR void  size(2) Largest target is 80
		 -> dbuf(BANK1[80]), 

    sp__strcpy	PTR unsigned char  size(2) Largest target is 80
		 -> dbuf(BANK1[80]), 

    sprintf@ap	PTR void [1] size(1) Largest target is 2
		 -> ?_sprintf(COMRAM[2]), 

    sprintf@fmt	PTR const unsigned char  size(1) Largest target is 5
		 -> STR_1(CODE[3]), STR_2(CODE[5]), 

    sprintf@s	PTR unsigned char  size(2) Largest target is 16
		 -> main@adc_val_rxData(BANK1[16]), main@adc_volt_rxData(BANK1[16]), 

    strcpy@d	PTR unsigned char  size(2) Largest target is 80
		 -> dbuf(BANK1[80]), 

    strcpy@dest	PTR unsigned char  size(2) Largest target is 80
		 -> dbuf(BANK1[80]), 

    strcpy@src	PTR const unsigned char  size(1) Largest target is 4
		 -> STR_3(CODE[4]), STR_6(CODE[4]), 

    strlen@a	PTR const unsigned char  size(2) Largest target is 16
		 -> main@adc_val_end_msg(BANK1[3]), main@adc_val_rxData(BANK1[16]), main@adc_val_start_msg(BANK1[6]), main@adc_volt_end_msg(BANK1[5]), 
		 -> main@adc_volt_rxData(BANK1[16]), main@adc_volt_start_msg(BANK1[14]), 

    strlen@s	PTR const unsigned char  size(2) Largest target is 16
		 -> main@adc_val_end_msg(BANK1[3]), main@adc_val_rxData(BANK1[16]), main@adc_val_start_msg(BANK1[6]), main@adc_volt_end_msg(BANK1[5]), 
		 -> main@adc_volt_rxData(BANK1[16]), main@adc_volt_start_msg(BANK1[14]), 

    vfpfcnvrt@ap	PTR PTR void  size(1) Largest target is 1
		 -> sprintf@ap(BANK0[1]), 

    vfpfcnvrt@cp	PTR unsigned char  size(1) Largest target is 5
		 -> STR_1(CODE[3]), STR_2(CODE[5]), 

    vfpfcnvrt@fmt	PTR PTR unsigned char  size(1) Largest target is 1
		 -> vfprintf@cfmt(COMRAM[1]), 

    vfpfcnvrt@fp	PTR struct _IO_FILE size(1) Largest target is 12
		 -> sprintf@f(BANK0[12]), 

    vfprintf@ap	PTR PTR void  size(1) Largest target is 1
		 -> sprintf@ap(BANK0[1]), 

    vfprintf@cfmt	PTR unsigned char  size(1) Largest target is 5
		 -> STR_1(CODE[3]), STR_2(CODE[5]), 

    vfprintf@fmt	PTR const unsigned char  size(1) Largest target is 5
		 -> STR_1(CODE[3]), STR_2(CODE[5]), 

    vfprintf@fp	PTR struct _IO_FILE size(1) Largest target is 12
		 -> sprintf@f(BANK0[12]), 


Critical Paths under _main in COMRAM

    _main->_sprintf
    _sprintf->_vfprintf
    _vfprintf->_vfpfcnvrt
    _vfpfcnvrt->_efgtoa
    _efgtoa->___flge
    _pad->_fputs
    _fputs->_fputc
    _fputc->_putch
    _putch->_EUSART2_Write
    _floorf->___fldiv
    ___flsub->___flmul
    ___flmul->___xxtofl
    ___flge->___flmul
    _abs->___awmod
    ___xxtofl->___lwdiv
    _EUSART2_Initialize->_EUSART2_SetErrorHandler
    _EUSART2_Initialize->_EUSART2_SetFramingErrorHandler
    _EUSART2_Initialize->_EUSART2_SetOverrunErrorHandler

Critical Paths under _main in BANK0

    _main->_sprintf
    _vfpfcnvrt->_efgtoa

Critical Paths under _main in BANK1

    None.

Critical Paths under _main in BANK2

    None.

Critical Paths under _main in BANK3

    None.

Critical Paths under _main in BANK4

    None.

Critical Paths under _main in BANK5

    None.

Critical Paths under _main in BANK6

    None.

Critical Paths under _main in BANK7

    None.

Critical Paths under _main in BANK8

    None.

Critical Paths under _main in BANK9

    None.

Critical Paths under _main in BANK10

    None.

Critical Paths under _main in BANK11

    None.

Critical Paths under _main in BANK12

    None.

Critical Paths under _main in BANK14

    None.

Call Graph Tables:

 ---------------------------------------------------------------------------------
 (Depth) Function   	        Calls       Base Space   Used Autos Params    Refs
 ---------------------------------------------------------------------------------
 (0) _main                                                76    76      0   38348
                                             57 BANK0      2     2      0
                                              0 BANK1     74    74      0
   _ADCC_DisableContinuousConversion
           _ADCC_GetConversionResult
                    _ADCC_Initialize
               _ADCC_StartConversion
                      _EUSART2_Write
                _EUSART2_is_tx_ready
                    _PWM4_Initialize
                 _PWM4_LoadDutyValue
                  _SYSTEM_Initialize
                    _TMR2_StartTimer
                            ___flmul
                            ___lwdiv
                           ___xxtofl
                            _sprintf
                             _strlen
 ---------------------------------------------------------------------------------
 (1) _strlen                                               4     2      2     816
                                              0 COMRAM     4     2      2
 ---------------------------------------------------------------------------------
 (1) _sprintf                                             22    15      7   30802
                                             82 COMRAM     7     0      7
                                             44 BANK0     13    13      0
                           _vfprintf
 ---------------------------------------------------------------------------------
 (2) _vfprintf                                             4     1      3   30124
                                             78 COMRAM     4     1      3
                          _vfpfcnvrt
 ---------------------------------------------------------------------------------
 (3) _vfpfcnvrt                                           12     9      3   29654
                                             66 COMRAM    12     9      3
                            ___awdiv
                            ___awmod
                                _abs
                             _efgtoa
                              _fputc
 ---------------------------------------------------------------------------------
 (4) _efgtoa                                              53    47      6   25678
                                             58 COMRAM     8     2      6
                                              0 BANK0     44    44      0
                            ___fladd
                            ___fldiv
                             ___fleq
                             ___flge
                            ___flmul
                            ___flneg
                            ___flsub
                            ___fltol
                      ___fpclassifyf
                             _floorf
                               _labs
                             _memcpy
                                _pad
                             _strcpy
 ---------------------------------------------------------------------------------
 (5) _strcpy                                               6     3      3     463
                                              0 COMRAM     6     3      3
 ---------------------------------------------------------------------------------
 (5) _pad                                                  8     3      5    3523
                                             16 COMRAM     8     3      5
                              _fputc
                              _fputs
 ---------------------------------------------------------------------------------
 (6) _fputs                                                6     3      3    1419
                                             10 COMRAM     6     3      3
                              _fputc
 ---------------------------------------------------------------------------------
 (4) _fputc                                                8     5      3    1099
                                              2 COMRAM     8     5      3
                              _putch
 ---------------------------------------------------------------------------------
 (5) _putch                                                1     1      0      62
                                              1 COMRAM     1     1      0
                      _EUSART2_Write
 ---------------------------------------------------------------------------------
 (6) _EUSART2_Write                                        1     1      0      31
                                              0 COMRAM     1     1      0
 ---------------------------------------------------------------------------------
 (5) _memcpy                                              11     5      6     478
                                              0 COMRAM    11     5      6
 ---------------------------------------------------------------------------------
 (5) _labs                                                 8     4      4     363
                                              0 COMRAM     8     4      4
 ---------------------------------------------------------------------------------
 (5) _floorf                                              20    16      4     669
                                             25 COMRAM    20    16      4
                            ___fldiv (ARG)
 ---------------------------------------------------------------------------------
 (5) ___fpclassifyf                                       14    10      4     375
                                              0 COMRAM    14    10      4
 ---------------------------------------------------------------------------------
 (5) ___fltol                                             10     6      4     607
                                              0 COMRAM    10     6      4
 ---------------------------------------------------------------------------------
 (5) ___flsub                                              8     0      8    4007
                                             46 COMRAM     8     0      8
                            ___fladd
                            ___flmul (ARG)
 ---------------------------------------------------------------------------------
 (6) ___fladd                                             16     8      8    3442
                                              0 COMRAM    16     8      8
 ---------------------------------------------------------------------------------
 (5) ___flneg                                              4     0      4     155
                                              0 COMRAM     4     0      4
 ---------------------------------------------------------------------------------
 (5) ___flmul                                             25    17      8    3593
                                             21 COMRAM    25    17      8
                            ___lwdiv (ARG)
                           ___xxtofl (ARG)
 ---------------------------------------------------------------------------------
 (5) ___flge                                              12     4      8     986
                                             46 COMRAM    12     4      8
                            ___flmul (ARG)
 ---------------------------------------------------------------------------------
 (5) ___fleq                                              12     4      8     770
                                              0 COMRAM    12     4      8
 ---------------------------------------------------------------------------------
 (5) ___fldiv                                             25    17      8    2723
                                              0 COMRAM    25    17      8
 ---------------------------------------------------------------------------------
 (4) _abs                                                  4     2      2     183
                                              6 COMRAM     4     2      2
                            ___awmod (ARG)
 ---------------------------------------------------------------------------------
 (4) ___awmod                                              6     2      4     613
                                              0 COMRAM     6     2      4
 ---------------------------------------------------------------------------------
 (4) ___awdiv                                              8     4      4     625
                                              0 COMRAM     8     4      4
 ---------------------------------------------------------------------------------
 (1) ___xxtofl                                            14    10      4     566
                                              7 COMRAM    14    10      4
                            ___lwdiv (ARG)
 ---------------------------------------------------------------------------------
 (1) ___lwdiv                                              7     3      4     421
                                              0 COMRAM     7     3      4
 ---------------------------------------------------------------------------------
 (1) _TMR2_StartTimer                                      0     0      0       0
                         _TMR2_Start
 ---------------------------------------------------------------------------------
 (2) _TMR2_Start                                           0     0      0       0
 ---------------------------------------------------------------------------------
 (1) _SYSTEM_Initialize                                    0     0      0     363
                    _ADCC_Initialize
                 _EUSART2_Initialize
              _OSCILLATOR_Initialize
             _PIN_MANAGER_Initialize
                     _PMD_Initialize
                    _PWM4_Initialize
                    _TMR2_Initialize
 ---------------------------------------------------------------------------------
 (2) _TMR2_Initialize                                      0     0      0       0
 ---------------------------------------------------------------------------------
 (2) _PWM4_Initialize                                      0     0      0       0
 ---------------------------------------------------------------------------------
 (2) _PMD_Initialize                                       0     0      0       0
 ---------------------------------------------------------------------------------
 (2) _PIN_MANAGER_Initialize                               0     0      0       0
 ---------------------------------------------------------------------------------
 (2) _OSCILLATOR_Initialize                                0     0      0       0
 ---------------------------------------------------------------------------------
 (2) _EUSART2_Initialize                                   0     0      0     363
            _EUSART2_SetErrorHandler
     _EUSART2_SetFramingErrorHandler
     _EUSART2_SetOverrunErrorHandler
 ---------------------------------------------------------------------------------
 (3) _EUSART2_SetOverrunErrorHandler                       3     0      3     121
                                              0 COMRAM     3     0      3
 ---------------------------------------------------------------------------------
 (3) _EUSART2_SetFramingErrorHandler                       3     0      3     121
                                              0 COMRAM     3     0      3
 ---------------------------------------------------------------------------------
 (3) _EUSART2_SetErrorHandler                              3     0      3     121
                                              0 COMRAM     3     0      3
 ---------------------------------------------------------------------------------
 (2) _ADCC_Initialize                                      0     0      0       0
 ---------------------------------------------------------------------------------
 (1) _PWM4_LoadDutyValue                                   4     2      2     152
                                              0 COMRAM     4     2      2
 ---------------------------------------------------------------------------------
 (1) _EUSART2_is_tx_ready                                  1     1      0      37
                                              0 COMRAM     1     1      0
 ---------------------------------------------------------------------------------
 (1) _ADCC_StartConversion                                 1     1      0      31
                                              0 COMRAM     1     1      0
 ---------------------------------------------------------------------------------
 (1) _ADCC_GetConversionResult                             4     2      2       0
                                              0 COMRAM     4     2      2
 ---------------------------------------------------------------------------------
 (1) _ADCC_DisableContinuousConversion                     0     0      0       0
 ---------------------------------------------------------------------------------
 Estimated maximum stack depth 6
 ---------------------------------------------------------------------------------

 Call Graph Graphs:

 _main (ROOT)
   _ADCC_DisableContinuousConversion
   _ADCC_GetConversionResult
   _ADCC_Initialize
   _ADCC_StartConversion
   _EUSART2_Write
   _EUSART2_is_tx_ready
   _PWM4_Initialize
   _PWM4_LoadDutyValue
   _SYSTEM_Initialize
     _ADCC_Initialize
     _EUSART2_Initialize
       _EUSART2_SetErrorHandler
       _EUSART2_SetFramingErrorHandler
       _EUSART2_SetOverrunErrorHandler
     _OSCILLATOR_Initialize
     _PIN_MANAGER_Initialize
     _PMD_Initialize
     _PWM4_Initialize
     _TMR2_Initialize
   _TMR2_StartTimer
     _TMR2_Start
   ___flmul
     ___lwdiv (ARG)
     ___xxtofl (ARG)
       ___lwdiv (ARG)
   ___lwdiv
   ___xxtofl
   _sprintf
     _vfprintf
       _vfpfcnvrt
         ___awdiv
         ___awmod
         _abs
           ___awmod (ARG)
         _efgtoa
           ___fladd
           ___fldiv
           ___fleq
           ___flge
             ___flmul (ARG)
           ___flmul
           ___flneg
           ___flsub
             ___fladd
             ___flmul (ARG)
           ___fltol
           ___fpclassifyf
           _floorf
             ___fldiv (ARG)
           _labs
           _memcpy
           _pad
             _fputc
               _putch
                 _EUSART2_Write
             _fputs
               _fputc
           _strcpy
         _fputc
   _strlen

 Address spaces:
Name               Size   Autos  Total    Cost      Usage
BIGRAM             CFF      0       0      55        0.0%
EEDATA             400      0       0       0        0.0%
BITBIGSFR          100      0       0      53        0.0%
BITBANK12          100      0       0      28        0.0%
BANK12             100      0       0      29        0.0%
BITBANK11          100      0       0      26        0.0%
BANK11             100      0       0      27        0.0%
BITBANK10          100      0       0      24        0.0%
BANK10             100      0       0      25        0.0%
BITBANK9           100      0       0      22        0.0%
BANK9              100      0       0      23        0.0%
BITBANK8           100      0       0      20        0.0%
BANK8              100      0       0      21        0.0%
BITBANK7           100      0       0      18        0.0%
BANK7              100      0       0      19        0.0%
BITBANK6           100      0       0      16        0.0%
BANK6              100      0       0      17        0.0%
BITBANK5           100      0       0      14        0.0%
BANK5              100      0       0      15        0.0%
BITBANK4           100      0       0      12        0.0%
BANK4              100      0       0      13        0.0%
BITBANK3           100      0       0      10        0.0%
BANK3              100      0       0      11        0.0%
BITBANK2           100      0       0       8        0.0%
BANK2              100      0       0       9        0.0%
BITBANK1           100      0       0       6        0.0%
BANK1              100     4A      AB       7       66.8%
BITBANK0            A0      0       0       4        0.0%
BANK0               A0     3B      57       5       54.4%
BITBIGSFR_1llll     69      0       0      51        0.0%
BITCOMRAM           5F      0       0       0        0.0%
COMRAM              5F     59      5F       1      100.0%
BITBIGSFR_1hhhh     40      0       0      32        0.0%
BITBIGSFR_1hl       2D      0       0      49        0.0%
BITBIGSFR_1hhll     27      0       0      37        0.0%
BITBANK14           1F      0       0      30        0.0%
BANK14              1F      0       0      31        0.0%
BIGRAM_1            1F      0       0      52        0.0%
BITBIGSFR_1hhll     13      0       0      36        0.0%
BITBIGSFR_1hhlh     13      0       0      35        0.0%
BITBIGSFR_1hhll      D      0       0      41        0.0%
BITBIGSFR_1hhhh      C      0       0      33        0.0%
BITBIGSFR_1llll      B      0       0      50        0.0%
BITBIGSFR_1hhhl      B      0       0      34        0.0%
BITBIGSFR_1hhll      9      0       0      42        0.0%
BITBIGSFR_1hhll      9      0       0      43        0.0%
BITBIGSFR_1hhll      9      0       0      48        0.0%
BITBIGSFR_1hhll      4      0       0      44        0.0%
BITBIGSFR_1hhll      3      0       0      40        0.0%
BITBIGSFR_1hhll      3      0       0      39        0.0%
BITBIGSFR_1hhll      3      0       0      38        0.0%
BITBIGSFR_1hhll      2      0       0      45        0.0%
BITBIGSFR_1hhll      1      0       0      46        0.0%
BITBIGSFR_1hhll      1      0       0      47        0.0%
BIGSFR_1             0      0       0     200        0.0%
BIGSFR               0      0       0     200        0.0%
BITSFR_3             0      0       0     200        0.0%
SFR_3                0      0       0     200        0.0%
BITSFR_2             0      0       0     200        0.0%
SFR_2                0      0       0     200        0.0%
BITSFR_1             0      0       0     200        0.0%
SFR_1                0      0       0     200        0.0%
BITSFR               0      0       0     200        0.0%
SFR                  0      0       0     200        0.0%
STACK                0      0       0       2        0.0%
NULL                 0      0       0       0        0.0%
ABS                  0      0     161      54        0.0%
DATA                 0      0     161       3        0.0%
CODE                 0      0       0       0        0.0%


Microchip Technology PIC18 Macro Assembler V2.45 build 20230818022343 
Symbol Table                                                                                   Thu Jan 25 12:51:49 2024

                                  ___fldiv@aexp 0019                                    ___fldiv@bexp 0018  
                                  ___fldiv@sign 0011                                              l43 3892  
                                            l70 3B46                                              l47 3AD6  
                                            l48 3AD8                                              l91 3BB4  
                                            l67 3B32                                              l76 3BE8  
                                            l94 3BD0                                              l88 3BC2  
                                  ___awdiv@sign 0006                                             l105 3B74  
                                           l108 3AAE                                             l323 3B12  
                                           l332 3BF8                                             l335 3BEE  
                                           l290 3AF6                                             l508 3BF4  
                                           l436 3846                                             l445 3B8A  
                                           l293 3B5E                                             l189 360C  
                                           l439 3BDE                                             l296 3B2E  
                                           l751 336A                                             l817 30A4  
                                           l764 34D4                                             l790 31A8  
                                           l785 3162                                             l794 3A10  
                                           l779 357E                                             _PR2 0FBB  
        __end_of_EUSART2_SetFramingErrorHandler 3BC4                  _EUSART2_SetFramingErrorHandler 3BB6  
                                           _abs 3A48                                             _pad 36EC  
                                  ___awmod@sign 0006                                 _TMR2_Initialize 3AF8  
                               _PWM4_Initialize 3B60                                             wreg 0FE8  
                                   main@adc_val 0198                                    ___flmul@aexp 0023  
                                  ___flmul@bexp 0028                                    ___flmul@sign 0022  
                                  ___flmul@temp 002D                                    ___flmul@prod 0029  
                                  ___fltol@exp1 000A                                            l1011 3678  
                                          l1102 257E                                            l1104 23DE  
                                          l1113 2424                                            l1018 3680  
                                          l1050 1A9E                                            l1115 249C  
                                          l1107 23A2                                            ?_abs 0007  
                                          l1116 248A                                            l1141 2076  
                                          l1134 1E80                                            l1151 21A6  
                                          l1143 20EE                                            l1231 3750  
                                          l1144 20DC                                            l1048 1AEA  
                                          l1320 391A                                            l1065 1C04  
                                          l1057 1DBA                                            l1049 1AD8  
                                          l1138 21E4                                            l1074 1CD4  
                                          l1090 38D8                                            l1330 32A6  
                                          l1242 18FA                                            l1075 1CC2  
                                          l1227 3702                                            l1245 1298  
                                          l1182 2EDA                                            l1175 2E42  
                                          l1335 3A62                                            l1247 10DE  
                                          l1344 2DEA                                            l1178 2F9E  
                                          l1338 3A7A                                            l1347 2D2E  
                                          l1275 16E2                                            l1364 37F6  
                                          l1189 2F36                                            l1358 37A6  
                                          l1390 39D8                                            l1198 395A  
                                          l5000 2CE2                                            l1376 3424  
                                          l1384 399A                                            l5010 2DCA  
                                          l5002 2D1E                                            l1298 28C4  
                                          l5100 34B4                                            l5012 2DDA  
                                          l5004 2D52                                            l5020 37C8  
                                          l1396 3A46                                            l5030 32AC  
                                          l5102 34C4                                            l5006 2D8E  
                                          l5022 37CC                                            l5110 0F18  
                                          l5040 32DC                                            l5032 32BA  
                                          l5104 34CC                                            l4400 19A2  
                                          l5008 2DA2                                            l5024 37D8  
                                          l5016 37A8                                            l5200 12BA  
                                          l5120 0F68                                            l5112 0F28  
                                          l5050 330A                                            l5042 32E0  
                                          l5034 32C2                                            l4410 19DC  
                                          l4402 19B2                                            l5018 37BC  
                                          l5026 37DC                                            l5210 12F2  
                                          l5202 12C4                                            l5130 0FA4  
                                          l5122 0F70                                            l5114 0F36  
                                          l5060 333E                                            l5052 3318  
                                          l5044 32E8                                            l5036 32C6  
                                          l5028 32A8                                            l4500 1BE4  
                                          l4420 1A08                                            l4412 19EE  
                                          l4404 19C2                                            l5300 17CA  
                                          l5220 133C                                            l5212 130A  
                                          l5204 12CC                                            l5140 0FEA  
                                          l5124 0F80                                            l5132 0FA8  
                                          l5116 0F3A                                            l5108 0F12  
                                          l5062 3344                                            l5054 331E  
                                          l5046 32FA                                            l5038 32D4  
                                          l4510 1C3E                                            l4502 1BF4  
                                          l4430 1A1C                                            l4422 1A0C  
                                          l4414 19FC                                            l4406 19C4  
                                          l4350 3B42                                            l5310 1844  
                                          l5302 17FE                                            l5222 1350  
                                          l5230 1446                                            l5214 131C  
                                          l5206 12D2                                            l5142 0FF2  
                                          l5134 0FCE                                            l5150 102C  
                                          l5126 0F90                                            l5118 0F5E  
                          _ADCC_StartConversion 3BD2                                            l5056 3334  
                                          l5048 3302                                            l5064 334A  
                                          l5080 3444                                            l5072 3426  
                                          l4600 2258                                            l4520 1C6E  
                                          l4512 1C48                                            l4504 1C1A  
                                          l4440 1A30                                            l4432 1A20  
                                          l4424 1A10                                            l4416 1A00  
                                          l4408 19CC                                            l4352 3BE2  
                                          l4360 3396                                            l5320 18B0  
                                          l5312 184C                                            l5304 1806  
                                          l5240 1512                                            l5232 1464  
                                          l5224 13B4                                            l5208 12E4  
                                          l5216 1324                                            l5160 1076  
                                          l5152 1052                                            l5144 1006  
                                          l5136 0FE0                                            l5128 0F9C  
                                          l5066 335A                                            l5058 333C  
                                          l5090 347C                                            l5082 3452  
                                          l5074 342A                                            l5330 3A48  
                                          l4610 2298                                            l4602 2266  
                                          l4530 1C96                                            l4522 1C72  
                                          l4514 1C56                                            l4506 1C2A  
                                          l4450 1A6A                                            l4442 1A34  
                                          l4434 1A24                                            l4426 1A14  
                                          l4418 1A04                                            l4370 1908  
                                          l4362 33B2                                            l4354 336C  
                                          l5322 18C0                                            l5314 185A  
                                          l5306 180A                                            l5250 15C2  
                                          l5242 1522                                            l5234 1498  
                                          l5226 140C                                            l5218 132C  
                                          l5170 10A8                                            l5154 1064  
                                          l5146 1010                                            l5138 0FE4  
                                          l5402 27FC                                            l5500 3AD2  
                                          l5068 3362                                            l5092 348A  
                                          l5084 345A                                            l5076 3438  
                                          l5332 3A56                                            l4700 255A  
                                          l4620 22D8                                            l4612 229A  
                                          l4604 2268                                            l4540 1CF0  
                                          l4532 1CA4                                            l4524 1C82  
                                          l4516 1C58                                            l4460 1ABC  
                                          l4452 1A86                                            l4444 1A38  
                                          l4436 1A28                                            l4428 1A18  
                                          l4380 1948                                            l4372 1916  
                                          l4348 3B32                                            l4364 33E4  
                                          l4356 337C                                            l5324 18D6  
                                          l5316 188A                                            l5308 1828  
                                          l5260 1626                                            l5252 15F6  
                                          l5244 1532                                            l5236 14CA  
                                          l5228 1440                                            l5180 1166  
                                          l5156 1068                                            l5412 2862  
                                          l5404 2826                                            l5340 2580  
                                          l5334 3BB6                                            l5510 3BEA  
                                          l5094 34A0                                            l5086 346C  
                                          l5078 3440                                            l4702 255E  
                                          l4630 2308                                            l4622 22E0  
                                          l4606 2278                                            l4614 22A2  
                                          l4550 1D5A                                            l4542 1CFE  
                                          l4534 1CBA                                            l4518 1C66  
                                          l4526 1C84                                            l4470 1B08  
                                          l4462 1ACA                                            l4454 1A96  
                                          l4438 1A2C                                            l4446 1A3C  
                                          l4390 197A                                            l4382 194A  
                                          l4374 1918                                            l4358 338C  
                                          l5326 18DE                                            l5318 1898  
                                          l5270 16D8                                            l5262 162C  
                                          l5254 160A                                            l5246 1566  
                                          l5238 14E0                                            l5190 1226  
                                          l5182 1198                                            l5174 10EE  
                                          l5158 106E                                            l5406 2834  
                                          l5414 2892                                            l5350 25C8  
                                          l5342 25A6                                            ?_pad 0011  
                                          l5512 3BF0                                            l5520 3B76  
                                          l5504 3A7C                                            l5336 3BA8  
                                          l5440 386E                                            l5600 2F46  
                                          l5096 34A8                                            l5088 3474  
                                          l4704 256C                                            l4640 2346  
                                          l4632 2308                                            l4624 22E4  
                                          l4616 22B2                                            l4608 2288  
                                          l4800 2066                                            l4720 1DD6  
                                          l4560 1D94                                            l4552 1D7A  
                                          l4544 1D38                                            l4480 1B48  
                                          l4528 1C92                                            l4464 1ACC  
                                          l4456 1AAC                                            l4448 1A40  
                                          l4392 197C                                            l4376 1928  
                                          l4384 1952                                            l4368 18FC  
                                          l5280 171C                                            l5272 16F4  
                                          l5264 1634                                            l5248 15BC  
                                          l5256 160E                                            l5184 11D6  
                                          l5176 10F4                                            l5168 108E  
                                          l5360 2642                                            l5352 25E8  
                                          l5344 25AE                                            l5514 3BD4  
                                          l5338 3BC4                                            l5442 387E  
                                          l5450 35A0                                            l5506 3ADA  
                                          l5610 2F8E                                            l5602 2F4A  
                                          l5098 34AE                                            l4706 2572  
                                          l4650 2392                                            l4642 2356  
                                          l4618 22C8                                            l4810 20A6  
                                          l4802 2074                                            l4730 1E0E  
                                          l4722 1DD8                                            l4562 1D9A  
                                          l4554 1D7E                                            l4538 1CE4  
                                          l4546 1D3A                                            l4490 1B72  
                                          l4482 1B54                                            l4474 1B1C  
                                          l4466 1AD6                                            l4458 1AB8  
                                          l4394 1982                                            l4386 1962  
                                          l4378 1938                                            l4570 395C  
                                          l5282 1724                                            l5274 1702  
                                          l5290 1744                                            l5266 1640  
                                          l5258 161E                                            l5186 11EA  
                                          l5194 1266                                            l5178 1128  
                                          l5370 26C4                                            l5362 2676  
                                          l5354 2608                                            l5346 25BA  
                                          l5418 289E                                            l5530 393A  
                                          l5516 3BD8                                            l5444 388E  
                                          l5436 3848                                            l5460 35E8  
                                          l5452 35AC                                            l5508 3AF2  
                                          l5604 2F6E                                            l4708 2574  
                                          l4660 23DC                                            l4652 23A0  
                                          l4644 2366                                            l4636 231C  
                                          l4628 22F8                                            l4580 21F2  
                                          l4820 2118                                            l4812 20D4  
                                          l4804 2086                                            l4740 1E3A  
                                          l4732 1E1E                                            l4724 1DE8  
                                          l4716 1DBC                                            l4564 1DA8  
                                          l4556 1D8C                                            l4548 1D4A  
                                          l4484 1B58                                            l4476 1B2C  
                                          l4468 1AF8                                            l4492 1B78  
                                          l4396 1990                                            l4388 1968  
                                          l4900 2FB6                                            l4572 3968  
                                          l5292 1756                                            l5284 1734  
                                          l5276 1712                                            l5268 16B8  
                                          l5196 12A0                                            l5188 121E  
                                          l5372 26D4                                            l5364 2692  
                                          l5356 2620                                            l5380 2720  
                                          l5348 25BE                                            l5532 394A  
                                          l5524 391C                                            l5518 3BDC  
                                          l5470 37F8                                            l5438 385E  
                                          l5462 35EE                                            l5454 35E2  
                                          l5446 3B60                                            l5550 3628  
                                          l5606 2F7E                                            l4670 2422  
                                          l4662 23EE                                            l4654 23AC  
                                          l4646 236E                                            l4638 2336  
                                          l4590 2232                                            l4582 2200  
                                          l4830 218E                                            l4822 2142  
                                          l4806 2094                                            l4750 1E90  
                                          l4742 1E4A                                            l4734 1E24  
                                          l4726 1DF8                                            l4718 1DC8  
                                          l4566 1DAA                                            l4558 1D92  
                                          l4494 1B9E                                            l4486 1B66  
                                          l4478 1B3A                                            l4398 1992  
                                          l4910 3006                                            l4574 3976  
                                          l5294 1768                                            l5286 1738  
                                          l5278 1716                                            l5198 12AE  
                                          l5382 272A                                            l5374 26EA  
                                          l5366 26A4                                            l5358 262A  
                                          l5526 392A                                            l5464 35F0  
                                          l5456 35E4                                            l5448 3580  
                                          l5472 3B14                                            l5480 3B0A  
                                          l5560 3662                                            l5552 3630  
                                          l5608 2F8C                                            l4680 2482  
                                          l4664 2404                                            l4672 2434  
                                          l4656 23CA                                            l4648 237E  
                                          l4592 2234                                            l4584 2202  
                                          l4832 21AA                                            l4840 21D0  
                                          l4816 20FE                                            l4824 2146  
                                          l4808 2098                                            l4760 1ECA  
                                          l4752 1EA0                                            l4744 1E5A  
                                          l4736 1E2A                                            l4728 1E08  
                                          l4496 1BD2                                            l4488 1B68  
                                          l4920 3030                                            l4912 300A  
                                          l4904 2FCA                                            l4576 397A  
                                          l5296 176C                                            l5288 173E  
                                          l5384 2740                                            l5392 2756  
                                          l5376 2708                                            l5368 26B4  
                                          l5528 3932                                            l5800 29FE  
                                          l5474 3B48                                            l5466 35F2  
                                          l5458 35E6                                            l5482 3BF6  
                                          l5562 366A                                            l5554 3638  
                                          l5546 360E                                            l5570 2DFE  
                                          l4690 24F0                                            l4674 2442  
                                          l4666 240A                                            l4658 23CC  
                                          l4586 2212                                            l4594 223C  
                                          l4578 21E6                                            l4842 21D4  
                                          l4834 21BA                                            l4826 2160  
                                          l4818 210A                                            l4770 1F1C  
                                          l4762 1EE0                                            l4746 1E6A  
                                          l4738 1E38                                            l4498 1BD4  
                                          l4930 3058                                            l4922 303A  
                                          l4914 3018                                            l4906 2FF4  
                                          l5298 1772                                            l5386 2746  
                                          l5394 2788                                            l5378 270A  
                                          l5490 3912                                            l5810 2A56  
                                          l5802 2A08                                            l5468 35F4  
                                          l5476 3AF8                                            l5564 366C  
                                          l5556 3646                                            l5548 3616  
                                          l5580 2E7C                                            l5572 2E0C  
                                          l4684 24AC                                            l4692 24F4  
                                          l4676 2446                                            l4668 2414  
                                          l4596 224C                                            l4588 2222  
                                          l4860 3552                                            l4852 34D6  
                                          l4836 21C8                                            l4828 2174  
                                          l4780 1F62                                            l4772 1F2A  
                                          l4764 1EEC                                            l4756 1EB4  
                                          l4748 1E70                                            l4932 3064  
                                          l4924 3044                                            l4908 2FF6  
                                          l5396 27AC                                            l5388 274E  
                                          l5484 38DA                                            l5820 2AB8  
                                          l5812 2A6A                                            l5804 2A1C  
                                          l5494 3AB0                                            l5478 3B04  
                                          l5566 3672                                            l5558 364C  
                                          l5590 2ED0                                            l5582 2E84  
                                          l5574 2E52                                            l4694 250E  
                                          l4686 24B8                                            l4678 2454  
                                          l4598 2252                                            l4862 3576  
                                          l4854 3504                                            l4870 30D4  
                                          l4838 21CA                                            l4790 1FD0  
                                          l4782 1F7C                                            l4774 1F36  
                                          l4766 1F04                                            l4758 1EC0  
                                          l4846 3894                                            l4934 3074  
                                          l4950 3722                                            l4942 36EC  
                                          l5910 2810                                            l5398 27D4  
                                          l5486 38E2                                            l5830 2B0A  
                                          l5822 2ABC                                            l5814 2A6E  
                                          l5806 2A20                                            l5496 3AB4  
                                          l5592 2F0C                                            l5584 2E90  
                                          l5576 2E68                                            l5568 2DEE  
                                          l4696 2524                                            l4688 24C6  
                                          l4864 357C                                            l4856 3514  
                                          l4880 3142                                            l4872 30E4  
                                          l4792 1FFA                                            l4784 1F8C  
                                          l4776 1F46                                            l4768 1F10  
                                          l4848 38A4                                            l4936 3084  
                                          l4960 3230                                            l4952 3740  
                                          l4944 36FA                                            l5912 2884  
                                          l5488 38F2                                            l5760 3A22  
                                          l5840 2B84                                            l5832 2B36  
                                          l5824 2AE8                                            l5816 2A9A  
                                          l5808 2A4C                                            l5498 3AC4  
                                          l5594 2F18                                            l5586 2EC2  
                                          l4698 253E                                            l4858 3542  
                                          l4882 3150                                            l4874 3112  
                                          l4794 2030                                            l4786 1FA8  
                                          l4778 1F52                                            l4890 39DA  
                                          l4938 3094                                            l4962 323C  
                                          l4954 31AA                                            l4946 370E  
                                          l5762 3A3A                                            l5842 2B8E  
                                          l5834 2B40                                            l5826 2AF2  
                                          l5818 2AA4                                            l5770 28CE  
                                          l5596 2F26                                            l5588 2EC4  
                                          l4884 31A0                                            l4876 3122  
                                          l4868 30A6                                            l4796 203E  
                                          l4788 1FB4                                            l4892 39F0  
                                          l4972 329E                                            l4956 31CA  
                                          l4980 3752                                            l4948 371E  
                                          l5908 276A                                            l5756 3A12  
                                          l5844 2BA2                                            l5836 2B54  
                                          l5828 2B06                                            l5780 28F2  
                                          l5772 28D2                                            l5598 2F44  
                                          l4886 31A6                                            l4878 3130  
                                          l4798 205C                                            l4894 3A00  
                                          l4958 3208                                            l4966 3248  
                                          l4990 2BFA                                            l4982 3760  
                                          l5758 3A1E                                            l5846 2BA6  
                                          l5838 2B58                                            l5790 2942  
                                          l5782 28FE                                            l5774 28D6  
                                          l5766 28C6                                            l4968 325A  
                                          l4992 2C50                                            l4984 3774  
                                          l4976 399C                                            l5792 295A  
                                          l5784 2910                                            l5776 28DA  
                                          l5768 28CA                                            l4898 2FA0  
                                          l4994 2C64                                            l4978 39A4  
                                          l5794 29B2                                            l5786 2922  
                                          l5778 28E0                                            l4996 2C72  
                                          l4988 2BDA                                            l5796 29D2  
                                          l5788 2936                                            l5798 29F2  
                                          STR_1 0F0E                                            STR_2 0F01  
                                          STR_3 0F06                                            STR_6 0F0A  
                                          _LATA 0F82                                            _LATB 0F83  
                                          _LATC 0F84                                            _LATD 0F85  
                                          _LATE 0F86                                            u5000 1E90  
                                          u5001 1E8C                                            u5010 1EA0  
                                          _T2PR 0FBB                                            u5011 1E9C  
                                          u5100 2160                                            u5020 201A  
                                          u4300 33E4                                            u5101 215C  
                                          u4301 33E0                                            u5110 218E  
                                          u5030 2074                                            u4310 1916  
                                          u5111 218A                                            u5031 2070  
                                          u4311 1912                                            u5200 31A0  
                                          u5120 21C8                                            u5040 2094  
                                          u4400 1A6A                                            u4320 1928  
                                          u6000 2640                                            u5201 319C  
                                          u5121 21C4                                            u5041 2090  
                                          u5025 2010                                            u4401 1A66  
                                          u4321 1924                                            u5130 3504  
                                          u5050 20A6                                            u5210 39F0  
                                          u4410 1A82                                            u4330 1938  
                                          u6010 26A4                                            u5131 3500  
                                          u5051 20A2                                            u5211 39EC  
                                          u4411 1A7C                                            u4331 1934  
                                          u6011 26A0                                            u5140 3542  
                                          u5060 20D4                                            u4500 1B66  
                                          u4420 1A84                                            u4340 197A  
                                          u5220 2FB6                                            u4260 3B42  
                                          u5300 3740                                            u6020 26B4  
                                          u5141 353E                                            u5061 20D0  
                                          u4501 1B62                                            u4341 1976  
                                          u5221 2FB2                                            u4261 3B3E  
                                          u5301 373C                                            u6021 26B0  
                                          u5150 3576                                            u5070 20EA  
                                          u4510 1B9E                                            u4430 1AAC  
                                          u4350 1990                                            u5230 2FEA  
                                          u5310 31EA                                            u4270 337C  
                                          u6030 26C4                                            u5151 3572  
                                          u5071 20E6                                            u4511 1B9A  
                                          u4431 1AA8                                            u4351 198C  
                                          u4271 3378                                            u6031 26C0  
                                          u6120 3628                                            u6200 2F26  
                                          u5160 30D4                                            u5080 20FE  
                                          u4600 1CBA                                            u4520 1BE4  
                                          u4440 1ACA                                            u4360 19A2  
                                          u5240 3018                                            u5320 3208  
                                          u5400 2C22                                            u4280 338C  
                                          u6040 26D4                                            u6105 3AA0  
                                          u6121 3624                                            u6201 2F22  
                                          u5161 30D0                                            u5081 20FA  
                                          u4601 1CB6                                            u4521 1BE0  
                                          u4441 1AC6                                            u4361 199E  
                                          u5241 3014                                            u5321 3204  
                                          u4281 3388                                            u6041 26D0  
                                          u6130 3646                                            u6210 2F36  
                                          u5170 3112                                            u5090 2118  
                                          u4610 1CD0                                            u4530 1C1A  
                                          u4450 1AEA                                            u4370 19B2  
                                          u5250 302C                                            u5330 3230  
                                          u5410 2C50                                            u4290 33B2  
                                          u6050 271C                                            u6131 3642  
                                          u6211 2F32                                            u5171 310E  
                                          u5091 2114                                            u4611 1CCC  
                                          u4531 1C16                                            u4451 1AE6  
                                          u4371 19AE                                            u5251 3028  
                                          u5235 2FE0                                            u5331 322C  
                                          u5315 31E0                                            u5411 2C4C  
                                          u4291 33AE                                            u6051 2718  
                                          u6140 3662                                            u6220 2F44  
                                          u5180 3130                                            u4620 1CE4  
                                          u4540 1C2A                                            u4460 1AF8  
                                          u4380 19EE                                            u5260 3054  
                                          u5340 325A                                            u5420 2C72  
                                          u5500 37F6                                            u4700 399A  
                                          u6060 27A8                                            _PMD0 0EDC  
                                          u6141 365E                                            u6221 2F40  
                                          u5181 312C                                            u4621 1CE0  
                                          u4541 1C26                                            u4461 1AF4  
                                          u4381 19EA                                            u5261 3050  
                                          u5341 3256                                            u5421 2C6E  
                                          u5405 2C18                                            u5501 37F2  
                                          u4701 3996                                            u6061 27A4  
                                          _PMD1 0EDD                                            u6230 2F7E  
                                          u6150 2DFE                                            u5510 32BA  
                                          u4710 2200                                            u5190 3150  
                                          u4630 1CFE                                            u4550 1C56  
                                          u4470 1B08                                            u4390 19FC  
                                          u5270 3074                                            u6070 3912  
                                          _PMD2 0EDE                                            u6231 2F7A  
                                          u6151 2DFA                                            u5511 32B6  
                                          u4711 21FC                                            u5191 314C  
                                          u4631 1CFA                                            u4551 1C52  
                                          u4471 1B04                                            u4391 19F8  
                                          u5271 3070                                            u6071 390E  
                                          _PMD3 0EDF                                            u6080 3AC4  
                                          u6240 2F8C                                            u6160 2E0C  
                                          u5520 32D4                                            u5600 348A  
                                          u4800 23A0                                            u4720 2212  
                                          u4640 1D38                                            u4560 1C66  
                                          u4480 1B3A                                            u5280 3084  
                                          u5360 3294                                            u5440 2CDE  
                                          u6400 2936                                            _PMD4 0EE0  
                                          u6081 3AC0                                            u6241 2F88  
                                          u6161 2E08                                            u5521 32D0  
                                          u5601 3486                                            u4801 239C  
                                          u4721 220E                                            u4641 1D34  
                                          u4561 1C62                                            u4481 1B36  
                                          u5281 3080                                            u5361 328E  
                                          u5441 2CDA                                            u6401 2932  
                                          _PMD5 0EE1                                            u6090 3AD2  
                                          u6170 2E68                                            u5530 32FA  
                                          u5610 34A0                                            u4810 23CA  
                                          u4730 2222                                            u4650 1D4A  
                                          u4570 1C82                                            u4490 1B48  
                                          u5370 3296                                            u5450 2D02  
                                          u5290 36FA                                            u6091 3ACE  
                                          u6171 2E64                                            u5531 32F6  
                                          u5611 349C                                            u4811 23C6  
                                          u4731 221E                                            u4651 1D46  
                                          u4571 1C7E                                            u4491 1B44  
                                          u5355 326C                                            u5435 2C86  
                                          u5291 36F6                                            u6180 2EBE  
                                          u5540 3318                                            u5620 34C4  
                                          u4900 24C6                                            u4820 23EE  
                                          u4740 2266                                            u4660 1D5A  
                                          u4580 1C92                                            u5460 2D1E  
                                          u5436 2C90                                            u5380 39D8  
                                          u5700 10DA                                            u6420 2A4C  
                                          u6181 2EBA                                            u5541 3314  
                                          u5621 34C0                                            u4901 24C2  
                                          u4821 23EA                                            u4741 2262  
                                          u4661 1D56                                            u4581 1C8E  
                                          u5461 2D1A                                            u5437 2CA0  
                                          u5381 39D4                                            u5701 10D6  
                                          u6421 2A48                                            u6190 2F08  
                                          u5550 3334                                            u4910 250E  
                                          u4830 2404                                            u4750 2278  
                                          u4670 1D7A                                            u4590 1CA4  
                                          u5470 2D72                                            u5390 3760  
                                          u5710 1166                                            u5630 0F36  
                                          u6430 2A9A                                            u6191 2F04  
                                          u5551 3330                                            u4911 250A  
                                          u4831 2400                                            u4751 2274  
                                          u4671 1D76                                            u4591 1CA0  
                                          u5455 2CF8                                            u5391 375C  
                                          u5711 1162                                            u5631 0F32  
                                          u6431 2A96                                            u6415 29DC  
                                          u5560 335A                                            u4920 253E  
                                          u4840 2422                                            u4760 2288  
                                          u4680 1D8C                                            u5480 2D8E  
                                          u5800 1464                                            u5720 1198  
                                          u5640 0F80                                            u6360 3A3A  
                                          u6440 2AE8                                            u5561 3356  
                                          u4921 253A                                            u4841 241E  
                                          u4761 2284                                            u4681 1D88  
                                          u5481 2D8A                                            u5801 1460  
                                          u5721 1194                                            u5641 0F7C  
                                          u6361 3A36                                            u6441 2AE4  
                                          u5570 3438                                            u4930 256C  
                                          u4850 2442                                            u4770 22C8  
                                          u4690 1DA8                                            u5490 2DCA  
                                          u5810 14CA                                            u5730 11D6  
                                          u5650 0F90                                            u6450 2B36  
                                          u5571 3434                                            u4931 2568  
                                          u4851 243E                                            u4771 22C4  
                                          u4691 1DA4                                            u5491 2DC6  
                                          u5475 2D68                                            u5811 14C6  
                                          u5731 11D2                                            u5651 0F8C  
                                          u6451 2B32                                            u6371 28EA  
                                          u5580 3452                                            u4860 2454  
                                          u4780 2308                                            u4940 1DD6  
                                          u5900 1828                                            u5820 1512  
                                          u5740 1262                                            u5660 0FCE  
                                          u6460 2B84                                            u5581 344E  
                                          u4861 2450                                            u4781 2304  
                                          u4941 1DD2                                            u5901 1824  
                                          u5821 150E                                            u5741 125E  
                                          u5661 0FCA                                            u6461 2B80  
                                          u6381 2908                                            u5590 346C  
                                          u4870 2482                                            u4790 237E  
                                          u4950 1DE8                                            u5910 1844  
                                          u5830 1522                                            u5750 1298  
                                          u5670 0FE0                                            u6470 2BD2  
                                          u5591 3468                                            u4871 247E  
                                          u4791 237A                                            u4951 1DE4  
                                          u5911 1840                                            u5831 151E  
                                          u5751 1294                                            u5671 0FDC  
                                          u6471 2BCE                                            u6391 291A  
                                          u4880 2498                                            u4960 1DF8  
                                          u5920 18AA                                            u5840 15BC  
                                          u5760 12AE                                            u5680 1052  
                                          u4881 2494                                            u4961 1DF4  
                                          u5921 18A4                                            u5841 15B8  
                                          u5761 12AA                                            u5681 104E  
                                          u4890 24AC                                            u4970 1E38  
                                          u5930 18AC                                            u5850 160A  
                                          u5770 12E4                                            u5690 1064  
                                          u4891 24A8                                            u4971 1E34  
                                          u5851 1606                                            u5771 12E0  
                                          u5691 1060                                            u4980 1E4A  
                                          u5940 18C0                                            u5860 16B8  
                                          u5780 12F2                                            u4981 1E46  
                                          u5941 18BC                                            u5861 16B4  
                                          u5781 12EE                                            u5950 3A56  
                                          u4990 1E5A                                            u5870 16F4  
                                          u5790 131C                                            u5951 3A52  
                                          u4991 1E56                                            u5871 16F0  
                                          u5791 1318                                            u5880 1702  
                                          u5960 25A6                                            u5881 16FE  
                                          u5961 25A2                                            u5890 1756  
                                          u5970 25E8                                            u5891 1752  
                                          u5971 25E4                                            u5980 2608  
                                          u5981 2604                                            u5990 263E  
                                          u5991 2638                                            _TMR2 0FBA  
                                          _WPUA 0F0B                                            _WPUB 0F13  
                                          _WPUC 0F1B                                            _WPUD 0F20  
                                          _WPUE 0F28                                   _EUSART2_Write 3B30  
                                          abs@a 0007                                            _dbuf 0100  
                                          _labs 3752                                            _main 28C6  
                                          _prec 005C                                            pad@i 0017  
                                          pad@p 0014                                            fsr1h 0FE2  
                                          fsr2h 0FDA                                            indf2 0FDF  
                                          fsr1l 0FE1                                            fsr2l 0FD9  
                                 ___fpclassifyf 31AA                                            prodh 0FF4  
                                          prodl 0FF3                                            start 0000  
                               ___fldiv@new_exp 0012                                    main@adc_volt 018C  
                                  ___param_bank 0000                                           ??_abs 0009  
                                         ??_pad 0016                   __end_of_OSCILLATOR_Initialize 3B60  
                                 ___fltol@sign1 0009                                           ?_labs 0001  
                                         _ADACQ 0F57                                           _ADCAP 0F58  
                                         _ADACT 0F51                                 __end_of___fladd 1DBC  
                                         ?_main 0001                                           _ADCLK 0F52  
                                         _ADCNT 0F62                                           _ADPCH 0F5A  
                               __end_of___fldiv 2580                                           _ADREF 0F53  
                               __end_of___awdiv 336C                                 __end_of___flneg 3A12  
                                         _ADPRE 0F59                                 __end_of___awmod 34D6  
                                         _ADRPT 0F61                                 __end_of___flmul 21E6  
                               __end_of___flsub 38DA                                 __end_of___fltol 30A6  
                               ___awdiv@divisor 0003                                           _T2CON 0FBC  
                                         _T2HLT 0FBD                                 __end_of___lwdiv 3682  
                                         _T2TMR 0FBA                                           _T2RST 0FBF  
                               ___awdiv@counter 0005                                           _OSCEN 0ED7  
                                  vfpfcnvrt@fmt 0044                              _PWM4_LoadDutyValue 3A7C  
                                         _TRISA 0F87                                           _TRISB 0F88  
                                         _TRISC 0F89                                           _TRISD 0F8A  
                                         _TRISE 0F8B                                           _flags 005E  
                                   ?_TMR2_Start 0001                           ?_ADCC_StartConversion 0001  
                                         _fputc 336C                                           _fputs 395C  
                           ?_PWM4_LoadDutyValue 0001                                           labs@a 0001  
                                         pad@fp 0011                                           _width 005A  
                                         _putch 3BE0                                           main@i 0192  
                                ?_EUSART2_Write 0001                                           tablat 0FF5  
                                         plusw1 0FE3                                           plusw2 0FDB  
                                         status 0FD8                                 __end_of_sprintf 395C  
                                ?___fpclassifyf 0001                                 _TMR2_StartTimer 3BEA  
                               __initialization 3682                                    __end_of_labs 37A8  
                                  __end_of_main 2BDA                            ??_PWM4_LoadDutyValue 0003  
                       __end_of_PWM4_Initialize 3B76                         __end_of_TMR2_Initialize 3B14  
                                        ??_labs 0005                                          ??_main 0099  
                                 __activetblptr 0003                     _EUSART2_DefaultErrorHandler 0000  
                                        _ADACCH 0F6C                                          _ADACCL 0F6B  
                    __end_of_EUSART2_Initialize 3894                                          _ADCON0 0F5B  
                                        _ADCON1 0F54                                          _ADCON2 0F55  
                                        _ADCON3 0F56                                          _ADERRH 0F6A  
                                        _ADERRL 0F69                                          ?_fputc 0003  
                                        _ADLTHH 0F66                                          _ADLTHL 0F65  
                                        ?_fputs 000B                                          _ADRESH 0F5F  
                                        _ADRESL 0F5E                                          _ADSTAT 0F60  
                                        _ADUTHH 0F68                                ___awdiv@dividend 0001  
                                        _ADUTHL 0F67                                          _ANSELA 0F0C  
                                        ?_putch 0001                                          _ANSELB 0F14  
                                        _ANSELC 0F1C                                          _ANSELD 0F21  
                                        _ANSELE 0F29                                          _RC2REG 0E94  
                                        _RA4PPS 0EE6                                          _RD0PPS 0EFA  
                                        _RC2STA 0E98                                          _RB6PPS 0EF0  
                                        _ODCONA 0F0A                                          _ODCONB 0F12  
                                        _ODCONC 0F1A                                          _ODCOND 0F1F  
                                        _ODCONE 0F27                                          _INLVLA 0F08  
                                        _INLVLB 0F10                                          _INLVLC 0F18  
                                        _INLVLD 0F1D                                          _INLVLE 0F25  
                                        _OSCFRQ 0ED9                                   vfpfcnvrt@done 0048  
                                        _RX2PPS 0E88                                          _TX2REG 0E95  
                                        _TX2STA 0E99                                __end_of___xxtofl 2FA0  
                    ??_ADCC_GetConversionResult 0003                                    vfprintf@cfmt 0052  
                                        ___flge 30A6                                          ___fleq 34D6  
                                     ??___fladd 0009                                       ??___fldiv 0009  
                                     ??___awdiv 0005                                       ??___flneg 0005  
                                     ??___awmod 0005                                       ??___flmul 001E  
                                     ??___flsub 0037                                       ??___fltol 0005  
                                        _efgtoa 0F12                                       ??___lwdiv 0005  
                                        _floorf 2BDA                                          _memcpy 37A8  
                                        clear_0 36C8                                          clear_1 36D4  
                              ___awdiv@quotient 0007                                 ___awmod@divisor 0003  
                                        isa$std 0001                     _EUSART2_FramingErrorHandler 00B4  
                               ___awmod@counter 0005                                          pad@buf 0012  
                                        _strcpy 399C                                          _strlen 3A12  
                               _ADCC_Initialize 37F8                                          fputc@c 0003  
                                _PMD_Initialize 3B14                                          fputs@c 000E  
                                        fputs@i 000F                                          fputs@s 000B  
                               ___fpclassifyf@e 0009                                 ___fpclassifyf@u 000B  
                               ___fpclassifyf@x 0001                                    __mediumconst 0000  
                                        tblptrh 0FF7                                          tblptrl 0FF6  
                                        tblptru 0FF8                          ??_ADCC_StartConversion 0001  
                              __end_of_vfprintf 391C                         __end_of_TMR2_StartTimer 3BF0  
                               ??_EUSART2_Write 0001                                       ??_sprintf 005A  
                                    ___flge@ff1 002F                                      ___flge@ff2 0033  
                               ??___fpclassifyf 0005                                    ___xxtofl@arg 0012  
                                  ___xxtofl@exp 0011                               _SYSTEM_Initialize 3ADA  
                                  ___xxtofl@val 0008                                      ___fleq@ff1 0001  
                                    ___fleq@ff2 0005                                      __accesstop 0060  
                       __end_of__initialization 36E6                                      ___flneg@f1 0001  
                            ?_SYSTEM_Initialize 0001                                   ___rparam_used 0001  
                                    ___fltol@f1 0001                                  __pcstackCOMRAM 0001  
                                  __pidataBANK0 3B8C                                    __pidataBANK1 3B9A  
                           ??_SYSTEM_Initialize 0004                                   __end_of_fputc 3426  
                                 __end_of_fputs 399C                                   __end_of_putch 3BEA  
                              ?_PWM4_Initialize 0001                                ?_TMR2_Initialize 0001  
                        __end_of_PMD_Initialize 3B30                     PWM4_LoadDutyValue@dutyValue 0001  
                      ?_EUSART2_SetErrorHandler 0001                     ADCC_StartConversion@channel 0001  
                                       ??_fputc 0006                       __end_of_SYSTEM_Initialize 3AF8  
                                       ??_fputs 000E                                         ??_putch 0002  
                                    __pbssBANK0 00A9                                      __pbssBANK1 0100  
              ??_EUSART2_SetFramingErrorHandler 0004                 ?_EUSART2_SetFramingErrorHandler 0001  
                         main@adc_val_start_msg 017E                                         ?___flge 002F  
                                       ?___fleq 0001                         __end_of_ADCC_Initialize 3848  
                                       ?_efgtoa 003B                                         _ADFLTRH 0F6E  
                                       ?_floorf 001A                                         _ADFLTRL 0F6D  
                                       ?_memcpy 0001                                         _ADPREVH 0F5D  
                                       _ADPREVL 0F5C                                         _ADSTPTH 0F64  
                                       _ADSTPTL 0F63                                 ?_PMD_Initialize 0001  
                                       ?_strcpy 0001                                         ?_strlen 0001  
                                     ?___xxtofl 0008                                         _SP2BRGH 0E97  
                                       _SP2BRGL 0E96                                         _OSCCON1 0ED3  
                                       _OSCCON3 0ED5                                         _OSCTUNE 0ED8  
                                       _PWM4DCH 0FA0                                         _PWM4DCL 0F9F  
                                       _PWM4CON 0FA1                                         _SLRCONA 0F09  
                                       _SLRCONB 0F11                                         _SLRCONC 0F19  
                                       _SLRCOND 0F1E                                         _SLRCONE 0F26  
                                  ??_TMR2_Start 0001                                ?_TMR2_StartTimer 0001  
                                       __Hparam 0000                                         __Lparam 0000  
                                       ___fladd 18FC                                         ___fldiv 21E6  
                                       ___awdiv 32A8                                         ___flneg 39DA  
                                       ___awmod 3426                                         ___flmul 1DBC  
                                       ___flsub 3894                                         ___fltol 2FA0  
                                       ___lwdiv 360E                                       ?_vfprintf 004F  
                                  __psmallconst 0F00                              __end_of_TMR2_Start 3BFA  
                                       __pcinit 3682                 __end_of_EUSART2_SetErrorHandler 3BD2  
                                       __ramtop 0F00                                         __ptext0 28C6  
                                       __ptext1 3A12                                         __ptext2 391C  
                                       __ptext3 38DA                                         __ptext4 2580  
                                       __ptext5 0F12                                         __ptext6 399C  
                                       __ptext7 36EC                                         __ptext8 395C  
                                       __ptext9 336C              _EUSART2_DefaultOverrunErrorHandler 0000  
                         _OSCILLATOR_Initialize 3B48                                       _T2CONbits 0FBC  
                                    ??___xxtofl 000C                                ___awmod@dividend 0001  
                      ??_PIN_MANAGER_Initialize 0001                                       _T2HLTbits 0FBD  
                                       efgtoa@c 0040                                         efgtoa@d 006B  
                                       efgtoa@e 006F                                         efgtoa@f 003C  
                                       efgtoa@g 0082                                         efgtoa@h 0079  
                                       efgtoa@i 0077                                         efgtoa@l 007D  
                                       efgtoa@m 006D                                         efgtoa@n 0086  
                                       efgtoa@p 0062                                         efgtoa@t 0064  
                                       efgtoa@u 0088                                         efgtoa@w 0071  
                                       _sprintf 391C                            end_of_initialization 36E6  
                                       floorf@e 0028                                       _T2RSTbits 0FBF  
                                       floorf@m 0024                                         floorf@u 002A  
                                       floorf@x 001A                                         memcpy@d 0008  
                                       memcpy@n 0005                                         memcpy@s 000A  
                                       fputc@fp 0005                                         fputs@fp 000D  
                            _EUSART2_Initialize 3848                               __end_of_vfpfcnvrt 28C6  
                                    efgtoa@mode 0069                                      efgtoa@sign 0081  
                                       postdec1 0FE5                                         postdec2 0FDD  
                                       postinc0 0FEE                                         postinc1 0FE6  
                                       postinc2 0FDE                                vfpfcnvrt@convarg 0049  
                                    main@F13551 019A                                      main@F13553 00A1  
                                    main@F13546 009B                                      main@F13548 00A6  
                              ?_ADCC_Initialize 0001                                      ??_vfprintf 0052  
                           ?_EUSART2_Initialize 0001                                         strcpy@d 0005  
                                       strlen@a 0003                                         strlen@s 0001  
                           _EUSART2_is_tx_ready 3AB0                                     ___fladd@grs 0010  
                                 ___xxtofl@sign 0010                                     ___fldiv@grs 0014  
                                   ___fldiv@rem 000D                            ??_EUSART2_Initialize 0004  
                                   ___flmul@grs 0024                            ?_EUSART2_is_tx_ready 0001  
                                __end_of___flge 31AA                                  __end_of___fleq 3580  
                                   vfpfcnvrt@ap 0045                                     vfpfcnvrt@cp 004D  
                                   vfpfcnvrt@fp 0043                                  __end_of_efgtoa 18FC  
                                __end_of_floorf 2DEC                                  __end_of_memcpy 37F8  
                        ?_OSCILLATOR_Initialize 0001                                      floorf@F521 00A9  
                     ?_ADCC_GetConversionResult 0001                                  __end_of_strcpy 39DA  
                                __end_of_strlen 3A48                             start_initialization 3682  
                                   __end_of_abs 3A7C                                     __end_of_pad 3752  
                                   putch@txData 0002                           __end_of_EUSART2_Write 3B48  
                         ??_EUSART2_is_tx_ready 0001                           __end_of___fpclassifyf 32A8  
        __end_of_EUSART2_SetOverrunErrorHandler 3BB6                  _EUSART2_SetOverrunErrorHandler 3BA8  
                                   vfprintf@fmt 0050                                        ??___flge 0037  
                                      ??___fleq 0009                                ??_PMD_Initialize 0001  
                                   _CCPTMRSbits 0FAD                                        ??_efgtoa 0041  
                                   __pdataBANK0 009B                                     __pdataBANK1 019A  
                                      ??_floorf 001E                                        ??_memcpy 0007  
                                      ??_strcpy 0004                                        ??_strlen 0003  
                                     ___fladd@a 0005                                       ___fladd@b 0001  
                                     ___fldiv@a 0005                                       ___fldiv@b 0001  
                                     ___flmul@a 001A                                       ___flmul@b 0016  
                                   __pbssCOMRAM 005A                                       ___flsub@a 0033  
                                     ___flsub@b 002F                                   __pcstackBANK0 0060  
                                 __pcstackBANK1 0150                             EUSART2_Write@txData 0001  
                            main@pwm_write_data 0190                                       __pnvBANK0 00B1  
                                     __pnvBANK1 01A8        __end_of_ADCC_DisableContinuousConversion 3BF6  
            ??_ADCC_DisableContinuousConversion 0001               ?_ADCC_DisableContinuousConversion 0001  
              _ADCC_DisableContinuousConversion 3BF0                                     _efgtoa$1474 0066  
                              ___lwdiv@dividend 0001                          _PIN_MANAGER_Initialize 3580  
                                      ?___fladd 0001                                        ?___fldiv 0001  
                                      ?___awdiv 0001                                        ?___flneg 0001  
                                      ?___awmod 0001                                        ?___flmul 0016  
                                      ?___flsub 002F                                        ?___fltol 0001  
                                      ?___lwdiv 0001                                        _BAUD2CON 0E9A  
                                   __smallconst 0F00                                ___lwdiv@quotient 0006  
                                      ?_sprintf 0053                                        _T2CLKCON 0FBE  
       EUSART2_SetErrorHandler@interruptHandler 0001                                        _PIR3bits 0EC8  
                                      _PIR4bits 0EC9                                       _vfpfcnvrt 2580  
                       _EUSART2_is_tx_ready$182 0001                                      _ADCON0bits 0F5B  
                                    _ADCON1bits 0F54                                      _ADCON2bits 0F55  
                                    _ADCON3bits 0F56                                       main@i_364 0193  
                                     main@i_365 0194                                       main@i_366 0195  
                                     main@i_367 0196                                       main@i_368 0197  
                                    vfpfcnvrt@c 004E                                       copy_data0 3696  
                                     copy_data1 36B6                         _EUSART2_SetErrorHandler 3BC4  
                             ??_PWM4_Initialize 0001                               ??_TMR2_Initialize 0001  
                   _EUSART2_OverrunErrorHandler 00B1                                      _ADSTATbits 0F60  
                                      __Hrparam 0000                __end_of_ADCC_GetConversionResult 3B8C  
                    __end_of_PWM4_LoadDutyValue 3AB0                                       memcpy@tmp 0007  
                                    vfprintf@ap 0051                                        __Lrparam 0000  
                                    vfprintf@fp 004F                         ??_OSCILLATOR_Initialize 0001  
                           main@adc_val_end_msg 0189                          main@adc_volt_start_msg 0150  
                                    ?_vfpfcnvrt 0043                              ___fpclassifyf@F465 00AD  
                                    sprintf@fmt 0055                                        ___xxtofl 2DEC  
                          _EUSART2_ErrorHandler 01A8                                 ___lwdiv@divisor 0003  
                               ___lwdiv@counter 0005                                        __ptext10 3BE0  
                                      __ptext11 3B30                                        __ptext20 1DBC  
                                      __ptext12 37A8                                        __ptext21 30A6  
                                      __ptext13 3752                                        __ptext30 3BF6  
                                      __ptext22 34D6                                        __ptext14 2BDA  
                                      __ptext31 3ADA                                        __ptext23 21E6  
                                      __ptext15 31AA                                        __ptext40 3BC4  
                                      __ptext32 3AF8                                        __ptext24 3A48  
                                      __ptext16 2FA0                                        __ptext41 37F8  
                                      __ptext33 3B60                                        __ptext25 3426  
                                      __ptext17 3894                                        __ptext42 3A7C  
                                      __ptext34 3B14                                        __ptext26 32A8  
                                      __ptext18 18FC                                        __ptext43 3AB0  
                                      __ptext35 3580                                        __ptext27 2DEC  
                                      __ptext19 39DA                                        __ptext44 3BD2  
                                      __ptext36 3B48                                        __ptext28 360E  
                                      __ptext45 3B76                                        __ptext37 3848  
                                      __ptext29 3BEA                                        __ptext46 3BF0  
                                      __ptext38 3BA8                                        __ptext39 3BB6  
                                    strcpy@dest 0001              _EUSART2_DefaultFramingErrorHandler 0000  
                                      efgtoa@fp 003B                                        efgtoa@ne 0060  
                                      efgtoa@pp 0068                                        efgtoa@ou 0073  
                                    _RC2STAbits 0E98  EUSART2_SetOverrunErrorHandler@interruptHandler 0001  
                                      isa$xinst 0000                    __end_of_ADCC_StartConversion 3BE0  
                                      _vfprintf 38DA                               ??_TMR2_StartTimer 0001  
              ??_EUSART2_SetOverrunErrorHandler 0004                 ?_EUSART2_SetOverrunErrorHandler 0001  
                                      memcpy@d1 0001                                        memcpy@s1 0003  
                   __end_of_EUSART2_is_tx_ready 3ADA                       ??_EUSART2_SetErrorHandler 0004  
                            main@adc_val_rxData 015E                                       sprintf@ap 008C  
                       ?_PIN_MANAGER_Initialize 0001                                       strcpy@src 0003  
                          main@adc_volt_end_msg 0184                                     efgtoa@nmode 006A  
EUSART2_SetFramingErrorHandler@interruptHandler 0001                        _ADCC_GetConversionResult 3B76  
                                   ??_vfpfcnvrt 0046                                        sprintf@f 008D  
                                      sprintf@s 0053                             main@adc_volt_rxData 016E  
                                    _TMR2_Start 3BF6                                      _TX2STAbits 0E99  
                                 ___fladd@signs 000D                  __end_of_PIN_MANAGER_Initialize 360E  
                             ??_ADCC_Initialize 0001                              _eusart2RxLastError 005F  
                                  ___fladd@aexp 000E                                    ___fladd@bexp 000F  
